   1              		.cpu cortex-m4
   2              		.eabi_attribute 27, 1
   3              		.eabi_attribute 28, 1
   4              		.eabi_attribute 20, 1
   5              		.eabi_attribute 21, 1
   6              		.eabi_attribute 23, 3
   7              		.eabi_attribute 24, 1
   8              		.eabi_attribute 25, 1
   9              		.eabi_attribute 26, 1
  10              		.eabi_attribute 30, 1
  11              		.eabi_attribute 34, 1
  12              		.eabi_attribute 18, 4
  13              		.file	"flash_stm32l4x.c"
  14              		.text
  15              	.Ltext0:
  16              		.cfi_sections	.debug_frame
  17              		.section	.text.FLASH_GetBank1Status,"ax",%progbits
  18              		.align	1
  19              		.global	FLASH_GetBank1Status
  20              		.syntax unified
  21              		.thumb
  22              		.thumb_func
  23              		.fpu fpv4-sp-d16
  25              	FLASH_GetBank1Status:
  26              	.LFB132:
  27              		.file 1 "../system/src/drivers/l4/flash_stm32l4x.c"
   1:../system/src/drivers/l4/flash_stm32l4x.c **** /*
   2:../system/src/drivers/l4/flash_stm32l4x.c ****  * flash_stm32l4x.c
   3:../system/src/drivers/l4/flash_stm32l4x.c ****  *
   4:../system/src/drivers/l4/flash_stm32l4x.c ****  *  Created on: Jun 6, 2021
   5:../system/src/drivers/l4/flash_stm32l4x.c ****  *      Author: mateusz
   6:../system/src/drivers/l4/flash_stm32l4x.c ****  */
   7:../system/src/drivers/l4/flash_stm32l4x.c **** 
   8:../system/src/drivers/l4/flash_stm32l4x.c **** #include "./drivers/l4/flash_stm32l4x.h"
   9:../system/src/drivers/l4/flash_stm32l4x.c **** #include "stm32l4xx.h"
  10:../system/src/drivers/l4/flash_stm32l4x.c **** 
  11:../system/src/drivers/l4/flash_stm32l4x.c **** /**
  12:../system/src/drivers/l4/flash_stm32l4x.c ****   * @brief  Returns the FLASH Bank1 Status.
  13:../system/src/drivers/l4/flash_stm32l4x.c ****   * @note   This function can be used for all STM32F10x devices, it is equivalent
  14:../system/src/drivers/l4/flash_stm32l4x.c ****   *         to FLASH_GetStatus function.
  15:../system/src/drivers/l4/flash_stm32l4x.c ****   * @param  None
  16:../system/src/drivers/l4/flash_stm32l4x.c ****   * @retval FLASH Status: The returned value can be: FLASH_BUSY, FLASH_ERROR_PG,
  17:../system/src/drivers/l4/flash_stm32l4x.c ****   *         FLASH_ERROR_WRP or FLASH_COMPLETE
  18:../system/src/drivers/l4/flash_stm32l4x.c ****   */
  19:../system/src/drivers/l4/flash_stm32l4x.c **** FLASH_Status FLASH_GetBank1Status(void)
  20:../system/src/drivers/l4/flash_stm32l4x.c **** {
  28              		.loc 1 20 0
  29              		.cfi_startproc
  30              		@ args = 0, pretend = 0, frame = 0
  31              		@ frame_needed = 0, uses_anonymous_args = 0
  32              		@ link register save eliminated.
  33              	.LVL0:
  21:../system/src/drivers/l4/flash_stm32l4x.c ****   FLASH_Status flashstatus = FLASH_COMPLETE;
  22:../system/src/drivers/l4/flash_stm32l4x.c **** 
  23:../system/src/drivers/l4/flash_stm32l4x.c ****   if((FLASH->SR & FLASH_SR_BSY) == FLASH_SR_BSY)
  34              		.loc 1 23 0
  35 0000 124B     		ldr	r3, .L8
  36 0002 1B69     		ldr	r3, [r3, #16]
  37 0004 13F4803F 		tst	r3, #65536
  38 0008 15D1     		bne	.L3
  24:../system/src/drivers/l4/flash_stm32l4x.c ****   {
  25:../system/src/drivers/l4/flash_stm32l4x.c ****     flashstatus = FLASH_BUSY;
  26:../system/src/drivers/l4/flash_stm32l4x.c ****   }
  27:../system/src/drivers/l4/flash_stm32l4x.c ****   else
  28:../system/src/drivers/l4/flash_stm32l4x.c ****   {
  29:../system/src/drivers/l4/flash_stm32l4x.c ****     if((FLASH->SR & FLASH_SR_FASTERR) != 0)
  39              		.loc 1 29 0
  40 000a 104B     		ldr	r3, .L8
  41 000c 1B69     		ldr	r3, [r3, #16]
  42 000e 13F4007F 		tst	r3, #512
  43 0012 12D1     		bne	.L4
  30:../system/src/drivers/l4/flash_stm32l4x.c ****     {
  31:../system/src/drivers/l4/flash_stm32l4x.c ****       flashstatus = FLASH_ERROR_PG;
  32:../system/src/drivers/l4/flash_stm32l4x.c ****     }
  33:../system/src/drivers/l4/flash_stm32l4x.c ****     else if ((FLASH->SR & FLASH_SR_FASTERR) != 0)
  44              		.loc 1 33 0
  45 0014 0D4B     		ldr	r3, .L8
  46 0016 1B69     		ldr	r3, [r3, #16]
  47 0018 13F4007F 		tst	r3, #512
  48 001c 0FD1     		bne	.L5
  34:../system/src/drivers/l4/flash_stm32l4x.c ****     {
  35:../system/src/drivers/l4/flash_stm32l4x.c ****         flashstatus = FLASH_ERROR_PG;
  36:../system/src/drivers/l4/flash_stm32l4x.c ****     }
  37:../system/src/drivers/l4/flash_stm32l4x.c ****     else if ((FLASH->SR & FLASH_SR_PROGERR) != 0)
  49              		.loc 1 37 0
  50 001e 0B4B     		ldr	r3, .L8
  51 0020 1B69     		ldr	r3, [r3, #16]
  52 0022 13F0080F 		tst	r3, #8
  53 0026 0CD1     		bne	.L6
  38:../system/src/drivers/l4/flash_stm32l4x.c ****     {
  39:../system/src/drivers/l4/flash_stm32l4x.c ****         flashstatus = FLASH_ERROR_PG;
  40:../system/src/drivers/l4/flash_stm32l4x.c ****     }
  41:../system/src/drivers/l4/flash_stm32l4x.c ****     else
  42:../system/src/drivers/l4/flash_stm32l4x.c ****     {
  43:../system/src/drivers/l4/flash_stm32l4x.c ****       if((FLASH->SR & FLASH_SR_WRPERR) != 0 )
  54              		.loc 1 43 0
  55 0028 084B     		ldr	r3, .L8
  56 002a 1B69     		ldr	r3, [r3, #16]
  57 002c 13F0100F 		tst	r3, #16
  58 0030 09D0     		beq	.L7
  44:../system/src/drivers/l4/flash_stm32l4x.c ****       {
  45:../system/src/drivers/l4/flash_stm32l4x.c ****         flashstatus = FLASH_ERROR_WRP;
  59              		.loc 1 45 0
  60 0032 0320     		movs	r0, #3
  61 0034 7047     		bx	lr
  62              	.L3:
  25:../system/src/drivers/l4/flash_stm32l4x.c ****   }
  63              		.loc 1 25 0
  64 0036 0120     		movs	r0, #1
  65 0038 7047     		bx	lr
  66              	.L4:
  31:../system/src/drivers/l4/flash_stm32l4x.c ****     }
  67              		.loc 1 31 0
  68 003a 0220     		movs	r0, #2
  69 003c 7047     		bx	lr
  70              	.L5:
  35:../system/src/drivers/l4/flash_stm32l4x.c ****     }
  71              		.loc 1 35 0
  72 003e 0220     		movs	r0, #2
  73 0040 7047     		bx	lr
  74              	.L6:
  39:../system/src/drivers/l4/flash_stm32l4x.c ****     }
  75              		.loc 1 39 0
  76 0042 0220     		movs	r0, #2
  77 0044 7047     		bx	lr
  78              	.L7:
  46:../system/src/drivers/l4/flash_stm32l4x.c ****       }
  47:../system/src/drivers/l4/flash_stm32l4x.c ****       else
  48:../system/src/drivers/l4/flash_stm32l4x.c ****       {
  49:../system/src/drivers/l4/flash_stm32l4x.c ****         flashstatus = FLASH_COMPLETE;
  79              		.loc 1 49 0
  80 0046 0420     		movs	r0, #4
  81              	.LVL1:
  50:../system/src/drivers/l4/flash_stm32l4x.c ****       }
  51:../system/src/drivers/l4/flash_stm32l4x.c ****     }
  52:../system/src/drivers/l4/flash_stm32l4x.c ****   }
  53:../system/src/drivers/l4/flash_stm32l4x.c ****   /* Return the Flash Status */
  54:../system/src/drivers/l4/flash_stm32l4x.c ****   return flashstatus;
  55:../system/src/drivers/l4/flash_stm32l4x.c **** }
  82              		.loc 1 55 0
  83 0048 7047     		bx	lr
  84              	.L9:
  85 004a 00BF     		.align	2
  86              	.L8:
  87 004c 00200240 		.word	1073881088
  88              		.cfi_endproc
  89              	.LFE132:
  91              		.section	.text.FLASH_ErasePage,"ax",%progbits
  92              		.align	1
  93              		.global	FLASH_ErasePage
  94              		.syntax unified
  95              		.thumb
  96              		.thumb_func
  97              		.fpu fpv4-sp-d16
  99              	FLASH_ErasePage:
 100              	.LFB133:
  56:../system/src/drivers/l4/flash_stm32l4x.c **** 
  57:../system/src/drivers/l4/flash_stm32l4x.c **** FLASH_Status FLASH_ErasePage(uint32_t Page_Address) {
 101              		.loc 1 57 0
 102              		.cfi_startproc
 103              		@ args = 0, pretend = 0, frame = 0
 104              		@ frame_needed = 0, uses_anonymous_args = 0
 105              		@ link register save eliminated.
 106              	.LVL2:
 107              	.LVL3:
  58:../system/src/drivers/l4/flash_stm32l4x.c **** 
  59:../system/src/drivers/l4/flash_stm32l4x.c **** 
  60:../system/src/drivers/l4/flash_stm32l4x.c **** }
 108              		.loc 1 60 0
 109 0000 7047     		bx	lr
 110              		.cfi_endproc
 111              	.LFE133:
 113              		.section	.text.FLASH_PageErase,"ax",%progbits
 114              		.align	1
 115              		.global	FLASH_PageErase
 116              		.syntax unified
 117              		.thumb
 118              		.thumb_func
 119              		.fpu fpv4-sp-d16
 121              	FLASH_PageErase:
 122              	.LFB134:
  61:../system/src/drivers/l4/flash_stm32l4x.c **** 
  62:../system/src/drivers/l4/flash_stm32l4x.c **** /**
  63:../system/src/drivers/l4/flash_stm32l4x.c ****   * @brief  Erase the specified FLASH memory page.
  64:../system/src/drivers/l4/flash_stm32l4x.c ****   * @param  Page FLASH page to erase
  65:../system/src/drivers/l4/flash_stm32l4x.c ****   *         This parameter must be a value between 0 and (max number of pages in the bank - 1)
  66:../system/src/drivers/l4/flash_stm32l4x.c ****   * @param  Banks Bank(s) where the page will be erased
  67:../system/src/drivers/l4/flash_stm32l4x.c ****   *          This parameter can be one of the following values:
  68:../system/src/drivers/l4/flash_stm32l4x.c ****   *            @arg FLASH_BANK_1: Page in bank 1 to be erased
  69:../system/src/drivers/l4/flash_stm32l4x.c ****   *            @arg FLASH_BANK_2: Page in bank 2 to be erased
  70:../system/src/drivers/l4/flash_stm32l4x.c ****   * @retval None
  71:../system/src/drivers/l4/flash_stm32l4x.c ****   */
  72:../system/src/drivers/l4/flash_stm32l4x.c **** void FLASH_PageErase(uint32_t Page, uint32_t Banks)
  73:../system/src/drivers/l4/flash_stm32l4x.c **** {
 123              		.loc 1 73 0
 124              		.cfi_startproc
 125              		@ args = 0, pretend = 0, frame = 0
 126              		@ frame_needed = 0, uses_anonymous_args = 0
 127              	.LVL4:
 128 0000 38B5     		push	{r3, r4, r5, lr}
 129              		.cfi_def_cfa_offset 16
 130              		.cfi_offset 3, -16
 131              		.cfi_offset 4, -12
 132              		.cfi_offset 5, -8
 133              		.cfi_offset 14, -4
 134 0002 0446     		mov	r4, r0
 135 0004 0D46     		mov	r5, r1
  74:../system/src/drivers/l4/flash_stm32l4x.c ****   /* Check the parameters */
  75:../system/src/drivers/l4/flash_stm32l4x.c ****   assert_param(IS_FLASH_PAGE(Page));
 136              		.loc 1 75 0
 137 0006 FFF7FEFF 		bl	IS_FLASH_PAGE
 138              	.LVL5:
 139 000a FFF7FEFF 		bl	assert_param
 140              	.LVL6:
  76:../system/src/drivers/l4/flash_stm32l4x.c **** 
  77:../system/src/drivers/l4/flash_stm32l4x.c **** #if defined (STM32L471xx) || defined (STM32L475xx) || defined (STM32L476xx) || defined (STM32L485xx
  78:../system/src/drivers/l4/flash_stm32l4x.c ****     defined (STM32L496xx) || defined (STM32L4A6xx) || \
  79:../system/src/drivers/l4/flash_stm32l4x.c ****     defined (STM32L4P5xx) || defined (STM32L4Q5xx) || \
  80:../system/src/drivers/l4/flash_stm32l4x.c ****     defined (STM32L4R5xx) || defined (STM32L4R7xx) || defined (STM32L4R9xx) || defined (STM32L4S5xx
  81:../system/src/drivers/l4/flash_stm32l4x.c **** #if defined (STM32L4P5xx) || defined (STM32L4Q5xx) || defined (STM32L4R5xx) || defined (STM32L4R7xx
  82:../system/src/drivers/l4/flash_stm32l4x.c ****   if(READ_BIT(FLASH->OPTR, FLASH_OPTR_DBANK) == 0U)
  83:../system/src/drivers/l4/flash_stm32l4x.c ****   {
  84:../system/src/drivers/l4/flash_stm32l4x.c ****     CLEAR_BIT(FLASH->CR, FLASH_CR_BKER);
  85:../system/src/drivers/l4/flash_stm32l4x.c ****   }
  86:../system/src/drivers/l4/flash_stm32l4x.c ****   else
  87:../system/src/drivers/l4/flash_stm32l4x.c **** #endif
  88:../system/src/drivers/l4/flash_stm32l4x.c ****   {
  89:../system/src/drivers/l4/flash_stm32l4x.c **** 
  90:../system/src/drivers/l4/flash_stm32l4x.c ****     if((Banks & FLASH_BANK_1) != 0U)
 141              		.loc 1 90 0
 142 000e 15F0010F 		tst	r5, #1
 143 0012 16D1     		bne	.L15
  91:../system/src/drivers/l4/flash_stm32l4x.c ****     {
  92:../system/src/drivers/l4/flash_stm32l4x.c ****       CLEAR_BIT(FLASH->CR, FLASH_CR_BKER);
  93:../system/src/drivers/l4/flash_stm32l4x.c ****     }
  94:../system/src/drivers/l4/flash_stm32l4x.c ****     else
  95:../system/src/drivers/l4/flash_stm32l4x.c ****     {
  96:../system/src/drivers/l4/flash_stm32l4x.c ****       SET_BIT(FLASH->CR, FLASH_CR_BKER);
 144              		.loc 1 96 0
 145 0014 0E4A     		ldr	r2, .L16
 146 0016 5369     		ldr	r3, [r2, #20]
 147 0018 43F40063 		orr	r3, r3, #2048
 148 001c 5361     		str	r3, [r2, #20]
 149              	.L13:
  97:../system/src/drivers/l4/flash_stm32l4x.c ****     }
  98:../system/src/drivers/l4/flash_stm32l4x.c ****   }
  99:../system/src/drivers/l4/flash_stm32l4x.c **** #else
 100:../system/src/drivers/l4/flash_stm32l4x.c ****   /* Prevent unused argument(s) compilation warning */
 101:../system/src/drivers/l4/flash_stm32l4x.c ****   UNUSED(Banks);
 102:../system/src/drivers/l4/flash_stm32l4x.c **** #endif
 103:../system/src/drivers/l4/flash_stm32l4x.c **** 
 104:../system/src/drivers/l4/flash_stm32l4x.c ****   /* Proceed to erase the page */
 105:../system/src/drivers/l4/flash_stm32l4x.c ****   MODIFY_REG(FLASH->CR, FLASH_CR_PNB, ((Page & 0xFFU) << FLASH_CR_PNB_Pos));
 150              		.loc 1 105 0
 151 001e 0C4B     		ldr	r3, .L16
 152 0020 5869     		ldr	r0, [r3, #20]
 153 0022 20F4FF60 		bic	r0, r0, #2040
 154 0026 E400     		lsls	r4, r4, #3
 155              	.LVL7:
 156 0028 04F4FF64 		and	r4, r4, #2040
 157 002c 2043     		orrs	r0, r0, r4
 158 002e 5861     		str	r0, [r3, #20]
 106:../system/src/drivers/l4/flash_stm32l4x.c ****   SET_BIT(FLASH->CR, FLASH_CR_PER);
 159              		.loc 1 106 0
 160 0030 5A69     		ldr	r2, [r3, #20]
 161 0032 42F00202 		orr	r2, r2, #2
 162 0036 5A61     		str	r2, [r3, #20]
 107:../system/src/drivers/l4/flash_stm32l4x.c ****   SET_BIT(FLASH->CR, FLASH_CR_STRT);
 163              		.loc 1 107 0
 164 0038 5A69     		ldr	r2, [r3, #20]
 165 003a 42F48032 		orr	r2, r2, #65536
 166 003e 5A61     		str	r2, [r3, #20]
 108:../system/src/drivers/l4/flash_stm32l4x.c **** }
 167              		.loc 1 108 0
 168 0040 38BD     		pop	{r3, r4, r5, pc}
 169              	.LVL8:
 170              	.L15:
  92:../system/src/drivers/l4/flash_stm32l4x.c ****     }
 171              		.loc 1 92 0
 172 0042 034A     		ldr	r2, .L16
 173 0044 5369     		ldr	r3, [r2, #20]
 174 0046 23F40063 		bic	r3, r3, #2048
 175 004a 5361     		str	r3, [r2, #20]
 176 004c E7E7     		b	.L13
 177              	.L17:
 178 004e 00BF     		.align	2
 179              	.L16:
 180 0050 00200240 		.word	1073881088
 181              		.cfi_endproc
 182              	.LFE134:
 184              		.section	.text.FLASH_WaitForLastOperation,"ax",%progbits
 185              		.align	1
 186              		.global	FLASH_WaitForLastOperation
 187              		.syntax unified
 188              		.thumb
 189              		.thumb_func
 190              		.fpu fpv4-sp-d16
 192              	FLASH_WaitForLastOperation:
 193              	.LFB135:
 109:../system/src/drivers/l4/flash_stm32l4x.c **** 
 110:../system/src/drivers/l4/flash_stm32l4x.c **** 
 111:../system/src/drivers/l4/flash_stm32l4x.c **** FLASH_Status FLASH_WaitForLastOperation(uint32_t Timeout)
 112:../system/src/drivers/l4/flash_stm32l4x.c **** {
 194              		.loc 1 112 0
 195              		.cfi_startproc
 196              		@ args = 0, pretend = 0, frame = 0
 197              		@ frame_needed = 0, uses_anonymous_args = 0
 198              	.LVL9:
 199 0000 10B5     		push	{r4, lr}
 200              		.cfi_def_cfa_offset 8
 201              		.cfi_offset 4, -8
 202              		.cfi_offset 14, -4
 203 0002 0446     		mov	r4, r0
 204              	.LVL10:
 113:../system/src/drivers/l4/flash_stm32l4x.c ****   FLASH_Status status = FLASH_COMPLETE;
 114:../system/src/drivers/l4/flash_stm32l4x.c **** 
 115:../system/src/drivers/l4/flash_stm32l4x.c ****   /* Check for the Flash Status */
 116:../system/src/drivers/l4/flash_stm32l4x.c ****   status = FLASH_GetBank1Status();
 205              		.loc 1 116 0
 206 0004 FFF7FEFF 		bl	FLASH_GetBank1Status
 207              	.LVL11:
 117:../system/src/drivers/l4/flash_stm32l4x.c ****   /* Wait for a Flash operation to complete or a TIMEOUT to occur */
 118:../system/src/drivers/l4/flash_stm32l4x.c ****   while((status == FLASH_BUSY) && (Timeout != 0x00))
 208              		.loc 1 118 0
 209 0008 02E0     		b	.L19
 210              	.L21:
 119:../system/src/drivers/l4/flash_stm32l4x.c ****   {
 120:../system/src/drivers/l4/flash_stm32l4x.c ****     status = FLASH_GetBank1Status();
 211              		.loc 1 120 0
 212 000a FFF7FEFF 		bl	FLASH_GetBank1Status
 213              	.LVL12:
 121:../system/src/drivers/l4/flash_stm32l4x.c ****     Timeout--;
 214              		.loc 1 121 0
 215 000e 013C     		subs	r4, r4, #1
 216              	.LVL13:
 217              	.L19:
 118:../system/src/drivers/l4/flash_stm32l4x.c ****   {
 218              		.loc 1 118 0
 219 0010 0128     		cmp	r0, #1
 220 0012 01D1     		bne	.L20
 118:../system/src/drivers/l4/flash_stm32l4x.c ****   {
 221              		.loc 1 118 0 is_stmt 0 discriminator 1
 222 0014 002C     		cmp	r4, #0
 223 0016 F8D1     		bne	.L21
 224              	.L20:
 122:../system/src/drivers/l4/flash_stm32l4x.c ****   }
 123:../system/src/drivers/l4/flash_stm32l4x.c ****   if(Timeout == 0x00 )
 225              		.loc 1 123 0 is_stmt 1
 226 0018 04B1     		cbz	r4, .L25
 227              	.LVL14:
 228              	.L22:
 124:../system/src/drivers/l4/flash_stm32l4x.c ****   {
 125:../system/src/drivers/l4/flash_stm32l4x.c ****     status = FLASH_TIMEOUT;
 126:../system/src/drivers/l4/flash_stm32l4x.c ****   }
 127:../system/src/drivers/l4/flash_stm32l4x.c ****   /* Return the operation status */
 128:../system/src/drivers/l4/flash_stm32l4x.c ****   return status;
 129:../system/src/drivers/l4/flash_stm32l4x.c **** }
 229              		.loc 1 129 0
 230 001a 10BD     		pop	{r4, pc}
 231              	.LVL15:
 232              	.L25:
 125:../system/src/drivers/l4/flash_stm32l4x.c ****   }
 233              		.loc 1 125 0
 234 001c 0520     		movs	r0, #5
 235              	.LVL16:
 236 001e FCE7     		b	.L22
 237              		.cfi_endproc
 238              	.LFE135:
 240              		.text
 241              	.Letext0:
 242              		.file 2 "../system/include/./drivers/l4/flash_stm32l4x.h"
 243              		.file 3 "/usr/local/bin/gcc-arm-none-eabi-7-2018-q2-update/lib/gcc/arm-none-eabi/7.3.1/include/std
 244              		.file 4 "../system/include/cmsis/stm32l4xx/core_cm4.h"
 245              		.file 5 "../system/include/cmsis/stm32l4xx/device/system_stm32l4xx.h"
 246              		.file 6 "../system/include/cmsis/stm32l4xx/device/stm32l471xx.h"