   1              		.cpu cortex-m4
   2              		.eabi_attribute 27, 1
   3              		.eabi_attribute 28, 1
   4              		.eabi_attribute 20, 1
   5              		.eabi_attribute 21, 1
   6              		.eabi_attribute 23, 3
   7              		.eabi_attribute 24, 1
   8              		.eabi_attribute 25, 1
   9              		.eabi_attribute 26, 1
  10              		.eabi_attribute 30, 1
  11              		.eabi_attribute 34, 1
  12              		.eabi_attribute 18, 4
  13              		.file	"serial_stm32l4x.c"
  14              		.text
  15              	.Ltext0:
  16              		.cfi_sections	.debug_frame
  17              		.section	.text.srl_init,"ax",%progbits
  18              		.align	1
  19              		.global	srl_init
  20              		.syntax unified
  21              		.thumb
  22              		.thumb_func
  23              		.fpu fpv4-sp-d16
  25              	srl_init:
  26              	.LFB382:
  27              		.file 1 "../system/src/drivers/l4/serial_stm32l4x.c"
   1:../system/src/drivers/l4/serial_stm32l4x.c **** #include "drivers/serial.h"
   2:../system/src/drivers/l4/serial_stm32l4x.c **** 
   3:../system/src/drivers/l4/serial_stm32l4x.c **** #include "station_config.h"
   4:../system/src/drivers/l4/serial_stm32l4x.c **** #include "station_config_target_hw.h"
   5:../system/src/drivers/l4/serial_stm32l4x.c **** 
   6:../system/src/drivers/l4/serial_stm32l4x.c **** #include "diag/Trace.h"
   7:../system/src/drivers/l4/serial_stm32l4x.c **** 
   8:../system/src/drivers/l4/serial_stm32l4x.c **** #include "main.h" 	// global_time is here
   9:../system/src/drivers/l4/serial_stm32l4x.c **** 
  10:../system/src/drivers/l4/serial_stm32l4x.c **** #include <string.h>
  11:../system/src/drivers/l4/serial_stm32l4x.c **** 
  12:../system/src/drivers/l4/serial_stm32l4x.c **** #include <stm32l4xx.h>
  13:../system/src/drivers/l4/serial_stm32l4x.c **** #include <stm32l4xx_ll_gpio.h>
  14:../system/src/drivers/l4/serial_stm32l4x.c **** #include <stm32l4xx_ll_usart.h>
  15:../system/src/drivers/l4/serial_stm32l4x.c **** 
  16:../system/src/drivers/l4/serial_stm32l4x.c **** #ifdef SEPARATE_TX_BUFF
  17:../system/src/drivers/l4/serial_stm32l4x.c **** uint8_t srl_usart1_tx_buffer[TX_BUFFER_1_LN] = {'\0'};
  18:../system/src/drivers/l4/serial_stm32l4x.c **** #endif
  19:../system/src/drivers/l4/serial_stm32l4x.c **** 
  20:../system/src/drivers/l4/serial_stm32l4x.c **** #ifdef SEPARATE_RX_BUFF
  21:../system/src/drivers/l4/serial_stm32l4x.c **** uint8_t srl_usart1_rx_buffer[RX_BUFFER_1_LN] = {'\0'};
  22:../system/src/drivers/l4/serial_stm32l4x.c **** #endif
  23:../system/src/drivers/l4/serial_stm32l4x.c **** 
  24:../system/src/drivers/l4/serial_stm32l4x.c **** #ifdef SEPARATE_TX_BUFF
  25:../system/src/drivers/l4/serial_stm32l4x.c **** uint8_t srl_usart2_tx_buffer[TX_BUFFER_2_LN] = {'\0'};
  26:../system/src/drivers/l4/serial_stm32l4x.c **** #endif
  27:../system/src/drivers/l4/serial_stm32l4x.c **** 
  28:../system/src/drivers/l4/serial_stm32l4x.c **** #ifdef SEPARATE_RX_BUFF
  29:../system/src/drivers/l4/serial_stm32l4x.c **** uint8_t srl_usart2_rx_buffer[RX_BUFFER_2_LN] = {'\0'};
  30:../system/src/drivers/l4/serial_stm32l4x.c **** #endif
  31:../system/src/drivers/l4/serial_stm32l4x.c **** 
  32:../system/src/drivers/l4/serial_stm32l4x.c **** 
  33:../system/src/drivers/l4/serial_stm32l4x.c **** void srl_init(
  34:../system/src/drivers/l4/serial_stm32l4x.c **** 			srl_context_t *ctx,
  35:../system/src/drivers/l4/serial_stm32l4x.c **** 			USART_TypeDef *port,
  36:../system/src/drivers/l4/serial_stm32l4x.c **** 			uint8_t *rx_buffer,
  37:../system/src/drivers/l4/serial_stm32l4x.c **** 			uint16_t rx_buffer_size,
  38:../system/src/drivers/l4/serial_stm32l4x.c **** 			uint8_t *tx_buffer,
  39:../system/src/drivers/l4/serial_stm32l4x.c **** 			uint16_t tx_buffer_size,
  40:../system/src/drivers/l4/serial_stm32l4x.c **** 			uint32_t baudrate,
  41:../system/src/drivers/l4/serial_stm32l4x.c **** 			uint8_t stop_bits
  42:../system/src/drivers/l4/serial_stm32l4x.c **** 			) {
  28              		.loc 1 42 0
  29              		.cfi_startproc
  30              		@ args = 16, pretend = 0, frame = 32
  31              		@ frame_needed = 0, uses_anonymous_args = 0
  32              	.LVL0:
  33 0000 F0B5     		push	{r4, r5, r6, r7, lr}
  34              		.cfi_def_cfa_offset 20
  35              		.cfi_offset 4, -20
  36              		.cfi_offset 5, -16
  37              		.cfi_offset 6, -12
  38              		.cfi_offset 7, -8
  39              		.cfi_offset 14, -4
  40 0002 89B0     		sub	sp, sp, #36
  41              		.cfi_def_cfa_offset 56
  42 0004 BDF83C70 		ldrh	r7, [sp, #60]
  43:../system/src/drivers/l4/serial_stm32l4x.c **** 
  44:../system/src/drivers/l4/serial_stm32l4x.c **** 	if (ctx->srl_rx_state == SRL_RX_IDLE)
  43              		.loc 1 44 0
  44 0008 90F84440 		ldrb	r4, [r0, #68]	@ zero_extendqisi2
  45 000c 012C     		cmp	r4, #1
  46 000e 01D1     		bne	.L7
  47              	.LVL1:
  48              	.L1:
  45:../system/src/drivers/l4/serial_stm32l4x.c **** 		return;
  46:../system/src/drivers/l4/serial_stm32l4x.c **** 
  47:../system/src/drivers/l4/serial_stm32l4x.c **** 	#ifdef SEPARATE_TX_BUFF
  48:../system/src/drivers/l4/serial_stm32l4x.c **** 	ctx->srl_tx_buf_pointer = tx_buffer;
  49:../system/src/drivers/l4/serial_stm32l4x.c **** 	ctx->srl_rx_buf_ln = tx_buffer_size;
  50:../system/src/drivers/l4/serial_stm32l4x.c **** 	#endif
  51:../system/src/drivers/l4/serial_stm32l4x.c **** 
  52:../system/src/drivers/l4/serial_stm32l4x.c **** 	#ifdef SEPARATE_RX_BUFF
  53:../system/src/drivers/l4/serial_stm32l4x.c **** 	ctx->srl_rx_buf_pointer = rx_buffer;
  54:../system/src/drivers/l4/serial_stm32l4x.c **** 	ctx->srl_tx_buf_ln = rx_buffer_size;
  55:../system/src/drivers/l4/serial_stm32l4x.c **** 	#endif
  56:../system/src/drivers/l4/serial_stm32l4x.c **** 
  57:../system/src/drivers/l4/serial_stm32l4x.c **** 	memset(ctx->srl_rx_buf_pointer, 0x00, ctx->srl_rx_buf_ln);
  58:../system/src/drivers/l4/serial_stm32l4x.c **** 	memset(ctx->srl_tx_buf_pointer, 0x00, ctx->srl_tx_buf_ln);
  59:../system/src/drivers/l4/serial_stm32l4x.c **** 
  60:../system/src/drivers/l4/serial_stm32l4x.c **** 	ctx->port = port;
  61:../system/src/drivers/l4/serial_stm32l4x.c **** 	ctx->port_baurate = baudrate;
  62:../system/src/drivers/l4/serial_stm32l4x.c **** 	ctx->port_stopbits = stop_bits;
  63:../system/src/drivers/l4/serial_stm32l4x.c **** 
  64:../system/src/drivers/l4/serial_stm32l4x.c **** 	//ctx->te_port = 0;
  65:../system/src/drivers/l4/serial_stm32l4x.c **** 	//ctx->te_pin = 0;
  66:../system/src/drivers/l4/serial_stm32l4x.c **** 
  67:../system/src/drivers/l4/serial_stm32l4x.c **** 	ctx->srl_tx_start_time = 0xFFFFFFFFu;
  68:../system/src/drivers/l4/serial_stm32l4x.c **** 
  69:../system/src/drivers/l4/serial_stm32l4x.c **** 	LL_USART_InitTypeDef USART_InitStructure;
  70:../system/src/drivers/l4/serial_stm32l4x.c **** 
  71:../system/src/drivers/l4/serial_stm32l4x.c **** 	USART_InitStructure.BaudRate = baudrate;
  72:../system/src/drivers/l4/serial_stm32l4x.c **** 	USART_InitStructure.DataWidth = LL_USART_DATAWIDTH_8B;
  73:../system/src/drivers/l4/serial_stm32l4x.c **** 	USART_InitStructure.StopBits = LL_USART_STOPBITS_1;
  74:../system/src/drivers/l4/serial_stm32l4x.c **** 	USART_InitStructure.Parity = LL_USART_PARITY_NONE;
  75:../system/src/drivers/l4/serial_stm32l4x.c **** 	USART_InitStructure.TransferDirection = LL_USART_DIRECTION_RX;
  76:../system/src/drivers/l4/serial_stm32l4x.c **** 	USART_InitStructure.HardwareFlowControl = LL_USART_HWCONTROL_NONE;
  77:../system/src/drivers/l4/serial_stm32l4x.c **** 	USART_InitStructure.OverSampling = LL_USART_OVERSAMPLING_16;
  78:../system/src/drivers/l4/serial_stm32l4x.c **** 
  79:../system/src/drivers/l4/serial_stm32l4x.c **** 	LL_USART_Init(port, &USART_InitStructure);
  80:../system/src/drivers/l4/serial_stm32l4x.c **** 
  81:../system/src/drivers/l4/serial_stm32l4x.c **** 	if (port == USART1) {
  82:../system/src/drivers/l4/serial_stm32l4x.c **** 		NVIC_EnableIRQ( USART1_IRQn );
  83:../system/src/drivers/l4/serial_stm32l4x.c **** 	}
  84:../system/src/drivers/l4/serial_stm32l4x.c **** 	else if (port == USART2) {
  85:../system/src/drivers/l4/serial_stm32l4x.c **** 		NVIC_EnableIRQ( USART2_IRQn );
  86:../system/src/drivers/l4/serial_stm32l4x.c **** 	}
  87:../system/src/drivers/l4/serial_stm32l4x.c **** 
  88:../system/src/drivers/l4/serial_stm32l4x.c **** 	port->CR1 |= USART_CR1_UE;
  89:../system/src/drivers/l4/serial_stm32l4x.c **** 	port->ISR &= (0xFFFFFFFF ^ USART_ISR_TC);
  90:../system/src/drivers/l4/serial_stm32l4x.c **** 
  91:../system/src/drivers/l4/serial_stm32l4x.c **** 	ctx->srl_rx_state = SRL_RX_IDLE;
  92:../system/src/drivers/l4/serial_stm32l4x.c **** 	ctx->srl_tx_state = SRL_TX_IDLE;
  93:../system/src/drivers/l4/serial_stm32l4x.c **** 
  94:../system/src/drivers/l4/serial_stm32l4x.c **** 	ctx->srl_rx_error_reason = SRL_ERR_NONE;
  95:../system/src/drivers/l4/serial_stm32l4x.c **** 
  96:../system/src/drivers/l4/serial_stm32l4x.c **** 	ctx->srl_rx_timeout_calc_started = 0;
  97:../system/src/drivers/l4/serial_stm32l4x.c **** 	ctx->total_idle_counter = 0;
  98:../system/src/drivers/l4/serial_stm32l4x.c **** 
  99:../system/src/drivers/l4/serial_stm32l4x.c **** 	ctx->srl_rx_start_time = 0;
 100:../system/src/drivers/l4/serial_stm32l4x.c **** 	ctx->srl_rx_waiting_start_time = 0;
 101:../system/src/drivers/l4/serial_stm32l4x.c **** 
 102:../system/src/drivers/l4/serial_stm32l4x.c **** 	ctx->srl_rx_timeout_enable = 0;
 103:../system/src/drivers/l4/serial_stm32l4x.c **** 	ctx->srl_rx_timeout_waiting_enable = 0;
 104:../system/src/drivers/l4/serial_stm32l4x.c **** }
  49              		.loc 1 104 0
  50 0010 09B0     		add	sp, sp, #36
  51              		.cfi_remember_state
  52              		.cfi_def_cfa_offset 20
  53              		@ sp needed
  54 0012 F0BD     		pop	{r4, r5, r6, r7, pc}
  55              	.LVL2:
  56              	.L7:
  57              		.cfi_restore_state
  58 0014 1546     		mov	r5, r2
  59 0016 0E46     		mov	r6, r1
  60 0018 0446     		mov	r4, r0
  48:../system/src/drivers/l4/serial_stm32l4x.c **** 	ctx->srl_rx_buf_ln = tx_buffer_size;
  61              		.loc 1 48 0
  62 001a 0E9A     		ldr	r2, [sp, #56]
  63              	.LVL3:
  64 001c 4261     		str	r2, [r0, #20]
  49:../system/src/drivers/l4/serial_stm32l4x.c **** 	#endif
  65              		.loc 1 49 0
  66 001e 8783     		strh	r7, [r0, #28]	@ movhi
  53:../system/src/drivers/l4/serial_stm32l4x.c **** 	ctx->srl_tx_buf_ln = rx_buffer_size;
  67              		.loc 1 53 0
  68 0020 8561     		str	r5, [r0, #24]
  54:../system/src/drivers/l4/serial_stm32l4x.c **** 	#endif
  69              		.loc 1 54 0
  70 0022 C383     		strh	r3, [r0, #30]	@ movhi
  57:../system/src/drivers/l4/serial_stm32l4x.c **** 	memset(ctx->srl_tx_buf_pointer, 0x00, ctx->srl_tx_buf_ln);
  71              		.loc 1 57 0
  72 0024 3A46     		mov	r2, r7
  73 0026 0021     		movs	r1, #0
  74              	.LVL4:
  75 0028 2846     		mov	r0, r5
  76              	.LVL5:
  77 002a FFF7FEFF 		bl	memset
  78              	.LVL6:
  58:../system/src/drivers/l4/serial_stm32l4x.c **** 
  79              		.loc 1 58 0
  80 002e E28B     		ldrh	r2, [r4, #30]
  81 0030 0021     		movs	r1, #0
  82 0032 6069     		ldr	r0, [r4, #20]
  83 0034 FFF7FEFF 		bl	memset
  84              	.LVL7:
  60:../system/src/drivers/l4/serial_stm32l4x.c **** 	ctx->port_baurate = baudrate;
  85              		.loc 1 60 0
  86 0038 2660     		str	r6, [r4]
  61:../system/src/drivers/l4/serial_stm32l4x.c **** 	ctx->port_stopbits = stop_bits;
  87              		.loc 1 61 0
  88 003a 109B     		ldr	r3, [sp, #64]
  89 003c 6360     		str	r3, [r4, #4]
  62:../system/src/drivers/l4/serial_stm32l4x.c **** 
  90              		.loc 1 62 0
  91 003e 9DF84430 		ldrb	r3, [sp, #68]	@ zero_extendqisi2
  92 0042 2372     		strb	r3, [r4, #8]
  67:../system/src/drivers/l4/serial_stm32l4x.c **** 
  93              		.loc 1 67 0
  94 0044 4FF0FF33 		mov	r3, #-1
  95 0048 2364     		str	r3, [r4, #64]
  71:../system/src/drivers/l4/serial_stm32l4x.c **** 	USART_InitStructure.DataWidth = LL_USART_DATAWIDTH_8B;
  96              		.loc 1 71 0
  97 004a 109B     		ldr	r3, [sp, #64]
  98 004c 0193     		str	r3, [sp, #4]
  72:../system/src/drivers/l4/serial_stm32l4x.c **** 	USART_InitStructure.StopBits = LL_USART_STOPBITS_1;
  99              		.loc 1 72 0
 100 004e 0023     		movs	r3, #0
 101 0050 0293     		str	r3, [sp, #8]
  73:../system/src/drivers/l4/serial_stm32l4x.c **** 	USART_InitStructure.Parity = LL_USART_PARITY_NONE;
 102              		.loc 1 73 0
 103 0052 0393     		str	r3, [sp, #12]
  74:../system/src/drivers/l4/serial_stm32l4x.c **** 	USART_InitStructure.TransferDirection = LL_USART_DIRECTION_RX;
 104              		.loc 1 74 0
 105 0054 0493     		str	r3, [sp, #16]
  75:../system/src/drivers/l4/serial_stm32l4x.c **** 	USART_InitStructure.HardwareFlowControl = LL_USART_HWCONTROL_NONE;
 106              		.loc 1 75 0
 107 0056 0422     		movs	r2, #4
 108 0058 0592     		str	r2, [sp, #20]
  76:../system/src/drivers/l4/serial_stm32l4x.c **** 	USART_InitStructure.OverSampling = LL_USART_OVERSAMPLING_16;
 109              		.loc 1 76 0
 110 005a 0693     		str	r3, [sp, #24]
  77:../system/src/drivers/l4/serial_stm32l4x.c **** 
 111              		.loc 1 77 0
 112 005c 0793     		str	r3, [sp, #28]
  79:../system/src/drivers/l4/serial_stm32l4x.c **** 
 113              		.loc 1 79 0
 114 005e 0DEB0201 		add	r1, sp, r2
 115 0062 3046     		mov	r0, r6
 116 0064 FFF7FEFF 		bl	LL_USART_Init
 117              	.LVL8:
  81:../system/src/drivers/l4/serial_stm32l4x.c **** 		NVIC_EnableIRQ( USART1_IRQn );
 118              		.loc 1 81 0
 119 0068 144B     		ldr	r3, .L10
 120 006a 9E42     		cmp	r6, r3
 121 006c 1DD0     		beq	.L8
  84:../system/src/drivers/l4/serial_stm32l4x.c **** 		NVIC_EnableIRQ( USART2_IRQn );
 122              		.loc 1 84 0
 123 006e 144B     		ldr	r3, .L10+4
 124 0070 9E42     		cmp	r6, r3
 125 0072 1ED0     		beq	.L9
 126              	.LVL9:
 127              	.L4:
  88:../system/src/drivers/l4/serial_stm32l4x.c **** 	port->ISR &= (0xFFFFFFFF ^ USART_ISR_TC);
 128              		.loc 1 88 0
 129 0074 3368     		ldr	r3, [r6]
 130 0076 43F00103 		orr	r3, r3, #1
 131 007a 3360     		str	r3, [r6]
  89:../system/src/drivers/l4/serial_stm32l4x.c **** 
 132              		.loc 1 89 0
 133 007c F369     		ldr	r3, [r6, #28]
 134 007e 23F04003 		bic	r3, r3, #64
 135 0082 F361     		str	r3, [r6, #28]
  91:../system/src/drivers/l4/serial_stm32l4x.c **** 	ctx->srl_tx_state = SRL_TX_IDLE;
 136              		.loc 1 91 0
 137 0084 0123     		movs	r3, #1
 138 0086 84F84430 		strb	r3, [r4, #68]
  92:../system/src/drivers/l4/serial_stm32l4x.c **** 
 139              		.loc 1 92 0
 140 008a 84F84530 		strb	r3, [r4, #69]
  94:../system/src/drivers/l4/serial_stm32l4x.c **** 
 141              		.loc 1 94 0
 142 008e 0023     		movs	r3, #0
 143 0090 84F84630 		strb	r3, [r4, #70]
  96:../system/src/drivers/l4/serial_stm32l4x.c **** 	ctx->total_idle_counter = 0;
 144              		.loc 1 96 0
 145 0094 84F82F30 		strb	r3, [r4, #47]
  97:../system/src/drivers/l4/serial_stm32l4x.c **** 
 146              		.loc 1 97 0
 147 0098 84F84730 		strb	r3, [r4, #71]
  99:../system/src/drivers/l4/serial_stm32l4x.c **** 	ctx->srl_rx_waiting_start_time = 0;
 148              		.loc 1 99 0
 149 009c A363     		str	r3, [r4, #56]
 100:../system/src/drivers/l4/serial_stm32l4x.c **** 
 150              		.loc 1 100 0
 151 009e E363     		str	r3, [r4, #60]
 102:../system/src/drivers/l4/serial_stm32l4x.c **** 	ctx->srl_rx_timeout_waiting_enable = 0;
 152              		.loc 1 102 0
 153 00a0 84F82D30 		strb	r3, [r4, #45]
 103:../system/src/drivers/l4/serial_stm32l4x.c **** }
 154              		.loc 1 103 0
 155 00a4 84F82E30 		strb	r3, [r4, #46]
 156 00a8 B2E7     		b	.L1
 157              	.LVL10:
 158              	.L8:
 159              	.LBB18:
 160              	.LBB19:
 161              		.file 2 "../system/include/cmsis/stm32l4xx/core_cm4.h"
   1:../system/include/cmsis/stm32l4xx/core_cm4.h **** /**************************************************************************//**
   2:../system/include/cmsis/stm32l4xx/core_cm4.h ****  * @file     core_cm4.h
   3:../system/include/cmsis/stm32l4xx/core_cm4.h ****  * @brief    CMSIS Cortex-M4 Core Peripheral Access Layer Header File
   4:../system/include/cmsis/stm32l4xx/core_cm4.h ****  * @version  V5.1.0
   5:../system/include/cmsis/stm32l4xx/core_cm4.h ****  * @date     13. March 2019
   6:../system/include/cmsis/stm32l4xx/core_cm4.h ****  ******************************************************************************/
   7:../system/include/cmsis/stm32l4xx/core_cm4.h **** /*
   8:../system/include/cmsis/stm32l4xx/core_cm4.h ****  * Copyright (c) 2009-2019 Arm Limited. All rights reserved.
   9:../system/include/cmsis/stm32l4xx/core_cm4.h ****  *
  10:../system/include/cmsis/stm32l4xx/core_cm4.h ****  * SPDX-License-Identifier: Apache-2.0
  11:../system/include/cmsis/stm32l4xx/core_cm4.h ****  *
  12:../system/include/cmsis/stm32l4xx/core_cm4.h ****  * Licensed under the Apache License, Version 2.0 (the License); you may
  13:../system/include/cmsis/stm32l4xx/core_cm4.h ****  * not use this file except in compliance with the License.
  14:../system/include/cmsis/stm32l4xx/core_cm4.h ****  * You may obtain a copy of the License at
  15:../system/include/cmsis/stm32l4xx/core_cm4.h ****  *
  16:../system/include/cmsis/stm32l4xx/core_cm4.h ****  * www.apache.org/licenses/LICENSE-2.0
  17:../system/include/cmsis/stm32l4xx/core_cm4.h ****  *
  18:../system/include/cmsis/stm32l4xx/core_cm4.h ****  * Unless required by applicable law or agreed to in writing, software
  19:../system/include/cmsis/stm32l4xx/core_cm4.h ****  * distributed under the License is distributed on an AS IS BASIS, WITHOUT
  20:../system/include/cmsis/stm32l4xx/core_cm4.h ****  * WARRANTIES OR CONDITIONS OF ANY KIND, either express or implied.
  21:../system/include/cmsis/stm32l4xx/core_cm4.h ****  * See the License for the specific language governing permissions and
  22:../system/include/cmsis/stm32l4xx/core_cm4.h ****  * limitations under the License.
  23:../system/include/cmsis/stm32l4xx/core_cm4.h ****  */
  24:../system/include/cmsis/stm32l4xx/core_cm4.h **** 
  25:../system/include/cmsis/stm32l4xx/core_cm4.h **** #if   defined ( __ICCARM__ )
  26:../system/include/cmsis/stm32l4xx/core_cm4.h ****   #pragma system_include         /* treat file as system include file for MISRA check */
  27:../system/include/cmsis/stm32l4xx/core_cm4.h **** #elif defined (__clang__)
  28:../system/include/cmsis/stm32l4xx/core_cm4.h ****   #pragma clang system_header   /* treat file as system include file */
  29:../system/include/cmsis/stm32l4xx/core_cm4.h **** #endif
  30:../system/include/cmsis/stm32l4xx/core_cm4.h **** 
  31:../system/include/cmsis/stm32l4xx/core_cm4.h **** #ifndef __CORE_CM4_H_GENERIC
  32:../system/include/cmsis/stm32l4xx/core_cm4.h **** #define __CORE_CM4_H_GENERIC
  33:../system/include/cmsis/stm32l4xx/core_cm4.h **** 
  34:../system/include/cmsis/stm32l4xx/core_cm4.h **** #include <stdint.h>
  35:../system/include/cmsis/stm32l4xx/core_cm4.h **** 
  36:../system/include/cmsis/stm32l4xx/core_cm4.h **** #ifdef __cplusplus
  37:../system/include/cmsis/stm32l4xx/core_cm4.h ****  extern "C" {
  38:../system/include/cmsis/stm32l4xx/core_cm4.h **** #endif
  39:../system/include/cmsis/stm32l4xx/core_cm4.h **** 
  40:../system/include/cmsis/stm32l4xx/core_cm4.h **** /**
  41:../system/include/cmsis/stm32l4xx/core_cm4.h ****   \page CMSIS_MISRA_Exceptions  MISRA-C:2004 Compliance Exceptions
  42:../system/include/cmsis/stm32l4xx/core_cm4.h ****   CMSIS violates the following MISRA-C:2004 rules:
  43:../system/include/cmsis/stm32l4xx/core_cm4.h **** 
  44:../system/include/cmsis/stm32l4xx/core_cm4.h ****    \li Required Rule 8.5, object/function definition in header file.<br>
  45:../system/include/cmsis/stm32l4xx/core_cm4.h ****      Function definitions in header files are used to allow 'inlining'.
  46:../system/include/cmsis/stm32l4xx/core_cm4.h **** 
  47:../system/include/cmsis/stm32l4xx/core_cm4.h ****    \li Required Rule 18.4, declaration of union type or object of union type: '{...}'.<br>
  48:../system/include/cmsis/stm32l4xx/core_cm4.h ****      Unions are used for effective representation of core registers.
  49:../system/include/cmsis/stm32l4xx/core_cm4.h **** 
  50:../system/include/cmsis/stm32l4xx/core_cm4.h ****    \li Advisory Rule 19.7, Function-like macro defined.<br>
  51:../system/include/cmsis/stm32l4xx/core_cm4.h ****      Function-like macros are used to allow more efficient code.
  52:../system/include/cmsis/stm32l4xx/core_cm4.h ****  */
  53:../system/include/cmsis/stm32l4xx/core_cm4.h **** 
  54:../system/include/cmsis/stm32l4xx/core_cm4.h **** 
  55:../system/include/cmsis/stm32l4xx/core_cm4.h **** /*******************************************************************************
  56:../system/include/cmsis/stm32l4xx/core_cm4.h ****  *                 CMSIS definitions
  57:../system/include/cmsis/stm32l4xx/core_cm4.h ****  ******************************************************************************/
  58:../system/include/cmsis/stm32l4xx/core_cm4.h **** /**
  59:../system/include/cmsis/stm32l4xx/core_cm4.h ****   \ingroup Cortex_M4
  60:../system/include/cmsis/stm32l4xx/core_cm4.h ****   @{
  61:../system/include/cmsis/stm32l4xx/core_cm4.h ****  */
  62:../system/include/cmsis/stm32l4xx/core_cm4.h **** 
  63:../system/include/cmsis/stm32l4xx/core_cm4.h **** #include "cmsis_version.h"
  64:../system/include/cmsis/stm32l4xx/core_cm4.h **** 
  65:../system/include/cmsis/stm32l4xx/core_cm4.h **** /* CMSIS CM4 definitions */
  66:../system/include/cmsis/stm32l4xx/core_cm4.h **** #define __CM4_CMSIS_VERSION_MAIN  (__CM_CMSIS_VERSION_MAIN)              /*!< \deprecated [31:16] C
  67:../system/include/cmsis/stm32l4xx/core_cm4.h **** #define __CM4_CMSIS_VERSION_SUB   (__CM_CMSIS_VERSION_SUB)               /*!< \deprecated [15:0]  C
  68:../system/include/cmsis/stm32l4xx/core_cm4.h **** #define __CM4_CMSIS_VERSION       ((__CM4_CMSIS_VERSION_MAIN << 16U) | \
  69:../system/include/cmsis/stm32l4xx/core_cm4.h ****                                     __CM4_CMSIS_VERSION_SUB           )  /*!< \deprecated CMSIS HAL
  70:../system/include/cmsis/stm32l4xx/core_cm4.h **** 
  71:../system/include/cmsis/stm32l4xx/core_cm4.h **** #define __CORTEX_M                (4U)                                   /*!< Cortex-M Core */
  72:../system/include/cmsis/stm32l4xx/core_cm4.h **** 
  73:../system/include/cmsis/stm32l4xx/core_cm4.h **** /** __FPU_USED indicates whether an FPU is used or not.
  74:../system/include/cmsis/stm32l4xx/core_cm4.h ****     For this, __FPU_PRESENT has to be checked prior to making use of FPU specific registers and fun
  75:../system/include/cmsis/stm32l4xx/core_cm4.h **** */
  76:../system/include/cmsis/stm32l4xx/core_cm4.h **** #if defined ( __CC_ARM )
  77:../system/include/cmsis/stm32l4xx/core_cm4.h ****   #if defined __TARGET_FPU_VFP
  78:../system/include/cmsis/stm32l4xx/core_cm4.h ****     #if defined (__FPU_PRESENT) && (__FPU_PRESENT == 1U)
  79:../system/include/cmsis/stm32l4xx/core_cm4.h ****       #define __FPU_USED       1U
  80:../system/include/cmsis/stm32l4xx/core_cm4.h ****     #else
  81:../system/include/cmsis/stm32l4xx/core_cm4.h ****       #error "Compiler generates FPU instructions for a device without an FPU (check __FPU_PRESENT)
  82:../system/include/cmsis/stm32l4xx/core_cm4.h ****       #define __FPU_USED       0U
  83:../system/include/cmsis/stm32l4xx/core_cm4.h ****     #endif
  84:../system/include/cmsis/stm32l4xx/core_cm4.h ****   #else
  85:../system/include/cmsis/stm32l4xx/core_cm4.h ****     #define __FPU_USED         0U
  86:../system/include/cmsis/stm32l4xx/core_cm4.h ****   #endif
  87:../system/include/cmsis/stm32l4xx/core_cm4.h **** 
  88:../system/include/cmsis/stm32l4xx/core_cm4.h **** #elif defined (__ARMCC_VERSION) && (__ARMCC_VERSION >= 6010050)
  89:../system/include/cmsis/stm32l4xx/core_cm4.h ****   #if defined __ARM_FP
  90:../system/include/cmsis/stm32l4xx/core_cm4.h ****     #if defined (__FPU_PRESENT) && (__FPU_PRESENT == 1U)
  91:../system/include/cmsis/stm32l4xx/core_cm4.h ****       #define __FPU_USED       1U
  92:../system/include/cmsis/stm32l4xx/core_cm4.h ****     #else
  93:../system/include/cmsis/stm32l4xx/core_cm4.h ****       #warning "Compiler generates FPU instructions for a device without an FPU (check __FPU_PRESEN
  94:../system/include/cmsis/stm32l4xx/core_cm4.h ****       #define __FPU_USED       0U
  95:../system/include/cmsis/stm32l4xx/core_cm4.h ****     #endif
  96:../system/include/cmsis/stm32l4xx/core_cm4.h ****   #else
  97:../system/include/cmsis/stm32l4xx/core_cm4.h ****     #define __FPU_USED         0U
  98:../system/include/cmsis/stm32l4xx/core_cm4.h ****   #endif
  99:../system/include/cmsis/stm32l4xx/core_cm4.h **** 
 100:../system/include/cmsis/stm32l4xx/core_cm4.h **** #elif defined ( __GNUC__ )
 101:../system/include/cmsis/stm32l4xx/core_cm4.h ****   #if defined (__VFP_FP__) && !defined(__SOFTFP__)
 102:../system/include/cmsis/stm32l4xx/core_cm4.h ****     #if defined (__FPU_PRESENT) && (__FPU_PRESENT == 1U)
 103:../system/include/cmsis/stm32l4xx/core_cm4.h ****       #define __FPU_USED       1U
 104:../system/include/cmsis/stm32l4xx/core_cm4.h ****     #else
 105:../system/include/cmsis/stm32l4xx/core_cm4.h ****       #error "Compiler generates FPU instructions for a device without an FPU (check __FPU_PRESENT)
 106:../system/include/cmsis/stm32l4xx/core_cm4.h ****       #define __FPU_USED       0U
 107:../system/include/cmsis/stm32l4xx/core_cm4.h ****     #endif
 108:../system/include/cmsis/stm32l4xx/core_cm4.h ****   #else
 109:../system/include/cmsis/stm32l4xx/core_cm4.h ****     #define __FPU_USED         0U
 110:../system/include/cmsis/stm32l4xx/core_cm4.h ****   #endif
 111:../system/include/cmsis/stm32l4xx/core_cm4.h **** 
 112:../system/include/cmsis/stm32l4xx/core_cm4.h **** #elif defined ( __ICCARM__ )
 113:../system/include/cmsis/stm32l4xx/core_cm4.h ****   #if defined __ARMVFP__
 114:../system/include/cmsis/stm32l4xx/core_cm4.h ****     #if defined (__FPU_PRESENT) && (__FPU_PRESENT == 1U)
 115:../system/include/cmsis/stm32l4xx/core_cm4.h ****       #define __FPU_USED       1U
 116:../system/include/cmsis/stm32l4xx/core_cm4.h ****     #else
 117:../system/include/cmsis/stm32l4xx/core_cm4.h ****       #error "Compiler generates FPU instructions for a device without an FPU (check __FPU_PRESENT)
 118:../system/include/cmsis/stm32l4xx/core_cm4.h ****       #define __FPU_USED       0U
 119:../system/include/cmsis/stm32l4xx/core_cm4.h ****     #endif
 120:../system/include/cmsis/stm32l4xx/core_cm4.h ****   #else
 121:../system/include/cmsis/stm32l4xx/core_cm4.h ****     #define __FPU_USED         0U
 122:../system/include/cmsis/stm32l4xx/core_cm4.h ****   #endif
 123:../system/include/cmsis/stm32l4xx/core_cm4.h **** 
 124:../system/include/cmsis/stm32l4xx/core_cm4.h **** #elif defined ( __TI_ARM__ )
 125:../system/include/cmsis/stm32l4xx/core_cm4.h ****   #if defined __TI_VFP_SUPPORT__
 126:../system/include/cmsis/stm32l4xx/core_cm4.h ****     #if defined (__FPU_PRESENT) && (__FPU_PRESENT == 1U)
 127:../system/include/cmsis/stm32l4xx/core_cm4.h ****       #define __FPU_USED       1U
 128:../system/include/cmsis/stm32l4xx/core_cm4.h ****     #else
 129:../system/include/cmsis/stm32l4xx/core_cm4.h ****       #error "Compiler generates FPU instructions for a device without an FPU (check __FPU_PRESENT)
 130:../system/include/cmsis/stm32l4xx/core_cm4.h ****       #define __FPU_USED       0U
 131:../system/include/cmsis/stm32l4xx/core_cm4.h ****     #endif
 132:../system/include/cmsis/stm32l4xx/core_cm4.h ****   #else
 133:../system/include/cmsis/stm32l4xx/core_cm4.h ****     #define __FPU_USED         0U
 134:../system/include/cmsis/stm32l4xx/core_cm4.h ****   #endif
 135:../system/include/cmsis/stm32l4xx/core_cm4.h **** 
 136:../system/include/cmsis/stm32l4xx/core_cm4.h **** #elif defined ( __TASKING__ )
 137:../system/include/cmsis/stm32l4xx/core_cm4.h ****   #if defined __FPU_VFP__
 138:../system/include/cmsis/stm32l4xx/core_cm4.h ****     #if defined (__FPU_PRESENT) && (__FPU_PRESENT == 1U)
 139:../system/include/cmsis/stm32l4xx/core_cm4.h ****       #define __FPU_USED       1U
 140:../system/include/cmsis/stm32l4xx/core_cm4.h ****     #else
 141:../system/include/cmsis/stm32l4xx/core_cm4.h ****       #error "Compiler generates FPU instructions for a device without an FPU (check __FPU_PRESENT)
 142:../system/include/cmsis/stm32l4xx/core_cm4.h ****       #define __FPU_USED       0U
 143:../system/include/cmsis/stm32l4xx/core_cm4.h ****     #endif
 144:../system/include/cmsis/stm32l4xx/core_cm4.h ****   #else
 145:../system/include/cmsis/stm32l4xx/core_cm4.h ****     #define __FPU_USED         0U
 146:../system/include/cmsis/stm32l4xx/core_cm4.h ****   #endif
 147:../system/include/cmsis/stm32l4xx/core_cm4.h **** 
 148:../system/include/cmsis/stm32l4xx/core_cm4.h **** #elif defined ( __CSMC__ )
 149:../system/include/cmsis/stm32l4xx/core_cm4.h ****   #if ( __CSMC__ & 0x400U)
 150:../system/include/cmsis/stm32l4xx/core_cm4.h ****     #if defined (__FPU_PRESENT) && (__FPU_PRESENT == 1U)
 151:../system/include/cmsis/stm32l4xx/core_cm4.h ****       #define __FPU_USED       1U
 152:../system/include/cmsis/stm32l4xx/core_cm4.h ****     #else
 153:../system/include/cmsis/stm32l4xx/core_cm4.h ****       #error "Compiler generates FPU instructions for a device without an FPU (check __FPU_PRESENT)
 154:../system/include/cmsis/stm32l4xx/core_cm4.h ****       #define __FPU_USED       0U
 155:../system/include/cmsis/stm32l4xx/core_cm4.h ****     #endif
 156:../system/include/cmsis/stm32l4xx/core_cm4.h ****   #else
 157:../system/include/cmsis/stm32l4xx/core_cm4.h ****     #define __FPU_USED         0U
 158:../system/include/cmsis/stm32l4xx/core_cm4.h ****   #endif
 159:../system/include/cmsis/stm32l4xx/core_cm4.h **** 
 160:../system/include/cmsis/stm32l4xx/core_cm4.h **** #endif
 161:../system/include/cmsis/stm32l4xx/core_cm4.h **** 
 162:../system/include/cmsis/stm32l4xx/core_cm4.h **** #include "cmsis_compiler.h"               /* CMSIS compiler specific defines */
 163:../system/include/cmsis/stm32l4xx/core_cm4.h **** 
 164:../system/include/cmsis/stm32l4xx/core_cm4.h **** 
 165:../system/include/cmsis/stm32l4xx/core_cm4.h **** #ifdef __cplusplus
 166:../system/include/cmsis/stm32l4xx/core_cm4.h **** }
 167:../system/include/cmsis/stm32l4xx/core_cm4.h **** #endif
 168:../system/include/cmsis/stm32l4xx/core_cm4.h **** 
 169:../system/include/cmsis/stm32l4xx/core_cm4.h **** #endif /* __CORE_CM4_H_GENERIC */
 170:../system/include/cmsis/stm32l4xx/core_cm4.h **** 
 171:../system/include/cmsis/stm32l4xx/core_cm4.h **** #ifndef __CMSIS_GENERIC
 172:../system/include/cmsis/stm32l4xx/core_cm4.h **** 
 173:../system/include/cmsis/stm32l4xx/core_cm4.h **** #ifndef __CORE_CM4_H_DEPENDANT
 174:../system/include/cmsis/stm32l4xx/core_cm4.h **** #define __CORE_CM4_H_DEPENDANT
 175:../system/include/cmsis/stm32l4xx/core_cm4.h **** 
 176:../system/include/cmsis/stm32l4xx/core_cm4.h **** #ifdef __cplusplus
 177:../system/include/cmsis/stm32l4xx/core_cm4.h ****  extern "C" {
 178:../system/include/cmsis/stm32l4xx/core_cm4.h **** #endif
 179:../system/include/cmsis/stm32l4xx/core_cm4.h **** 
 180:../system/include/cmsis/stm32l4xx/core_cm4.h **** /* check device defines and use defaults */
 181:../system/include/cmsis/stm32l4xx/core_cm4.h **** #if defined __CHECK_DEVICE_DEFINES
 182:../system/include/cmsis/stm32l4xx/core_cm4.h ****   #ifndef __CM4_REV
 183:../system/include/cmsis/stm32l4xx/core_cm4.h ****     #define __CM4_REV               0x0000U
 184:../system/include/cmsis/stm32l4xx/core_cm4.h ****     #warning "__CM4_REV not defined in device header file; using default!"
 185:../system/include/cmsis/stm32l4xx/core_cm4.h ****   #endif
 186:../system/include/cmsis/stm32l4xx/core_cm4.h **** 
 187:../system/include/cmsis/stm32l4xx/core_cm4.h ****   #ifndef __FPU_PRESENT
 188:../system/include/cmsis/stm32l4xx/core_cm4.h ****     #define __FPU_PRESENT             0U
 189:../system/include/cmsis/stm32l4xx/core_cm4.h ****     #warning "__FPU_PRESENT not defined in device header file; using default!"
 190:../system/include/cmsis/stm32l4xx/core_cm4.h ****   #endif
 191:../system/include/cmsis/stm32l4xx/core_cm4.h **** 
 192:../system/include/cmsis/stm32l4xx/core_cm4.h ****   #ifndef __MPU_PRESENT
 193:../system/include/cmsis/stm32l4xx/core_cm4.h ****     #define __MPU_PRESENT             0U
 194:../system/include/cmsis/stm32l4xx/core_cm4.h ****     #warning "__MPU_PRESENT not defined in device header file; using default!"
 195:../system/include/cmsis/stm32l4xx/core_cm4.h ****   #endif
 196:../system/include/cmsis/stm32l4xx/core_cm4.h **** 
 197:../system/include/cmsis/stm32l4xx/core_cm4.h ****   #ifndef __NVIC_PRIO_BITS
 198:../system/include/cmsis/stm32l4xx/core_cm4.h ****     #define __NVIC_PRIO_BITS          3U
 199:../system/include/cmsis/stm32l4xx/core_cm4.h ****     #warning "__NVIC_PRIO_BITS not defined in device header file; using default!"
 200:../system/include/cmsis/stm32l4xx/core_cm4.h ****   #endif
 201:../system/include/cmsis/stm32l4xx/core_cm4.h **** 
 202:../system/include/cmsis/stm32l4xx/core_cm4.h ****   #ifndef __Vendor_SysTickConfig
 203:../system/include/cmsis/stm32l4xx/core_cm4.h ****     #define __Vendor_SysTickConfig    0U
 204:../system/include/cmsis/stm32l4xx/core_cm4.h ****     #warning "__Vendor_SysTickConfig not defined in device header file; using default!"
 205:../system/include/cmsis/stm32l4xx/core_cm4.h ****   #endif
 206:../system/include/cmsis/stm32l4xx/core_cm4.h **** #endif
 207:../system/include/cmsis/stm32l4xx/core_cm4.h **** 
 208:../system/include/cmsis/stm32l4xx/core_cm4.h **** /* IO definitions (access restrictions to peripheral registers) */
 209:../system/include/cmsis/stm32l4xx/core_cm4.h **** /**
 210:../system/include/cmsis/stm32l4xx/core_cm4.h ****     \defgroup CMSIS_glob_defs CMSIS Global Defines
 211:../system/include/cmsis/stm32l4xx/core_cm4.h **** 
 212:../system/include/cmsis/stm32l4xx/core_cm4.h ****     <strong>IO Type Qualifiers</strong> are used
 213:../system/include/cmsis/stm32l4xx/core_cm4.h ****     \li to specify the access to peripheral variables.
 214:../system/include/cmsis/stm32l4xx/core_cm4.h ****     \li for automatic generation of peripheral register debug information.
 215:../system/include/cmsis/stm32l4xx/core_cm4.h **** */
 216:../system/include/cmsis/stm32l4xx/core_cm4.h **** #ifdef __cplusplus
 217:../system/include/cmsis/stm32l4xx/core_cm4.h ****   #define   __I     volatile             /*!< Defines 'read only' permissions */
 218:../system/include/cmsis/stm32l4xx/core_cm4.h **** #else
 219:../system/include/cmsis/stm32l4xx/core_cm4.h ****   #define   __I     volatile const       /*!< Defines 'read only' permissions */
 220:../system/include/cmsis/stm32l4xx/core_cm4.h **** #endif
 221:../system/include/cmsis/stm32l4xx/core_cm4.h **** #define     __O     volatile             /*!< Defines 'write only' permissions */
 222:../system/include/cmsis/stm32l4xx/core_cm4.h **** #define     __IO    volatile             /*!< Defines 'read / write' permissions */
 223:../system/include/cmsis/stm32l4xx/core_cm4.h **** 
 224:../system/include/cmsis/stm32l4xx/core_cm4.h **** /* following defines should be used for structure members */
 225:../system/include/cmsis/stm32l4xx/core_cm4.h **** #define     __IM     volatile const      /*! Defines 'read only' structure member permissions */
 226:../system/include/cmsis/stm32l4xx/core_cm4.h **** #define     __OM     volatile            /*! Defines 'write only' structure member permissions */
 227:../system/include/cmsis/stm32l4xx/core_cm4.h **** #define     __IOM    volatile            /*! Defines 'read / write' structure member permissions */
 228:../system/include/cmsis/stm32l4xx/core_cm4.h **** 
 229:../system/include/cmsis/stm32l4xx/core_cm4.h **** /*@} end of group Cortex_M4 */
 230:../system/include/cmsis/stm32l4xx/core_cm4.h **** 
 231:../system/include/cmsis/stm32l4xx/core_cm4.h **** 
 232:../system/include/cmsis/stm32l4xx/core_cm4.h **** 
 233:../system/include/cmsis/stm32l4xx/core_cm4.h **** /*******************************************************************************
 234:../system/include/cmsis/stm32l4xx/core_cm4.h ****  *                 Register Abstraction
 235:../system/include/cmsis/stm32l4xx/core_cm4.h ****   Core Register contain:
 236:../system/include/cmsis/stm32l4xx/core_cm4.h ****   - Core Register
 237:../system/include/cmsis/stm32l4xx/core_cm4.h ****   - Core NVIC Register
 238:../system/include/cmsis/stm32l4xx/core_cm4.h ****   - Core SCB Register
 239:../system/include/cmsis/stm32l4xx/core_cm4.h ****   - Core SysTick Register
 240:../system/include/cmsis/stm32l4xx/core_cm4.h ****   - Core Debug Register
 241:../system/include/cmsis/stm32l4xx/core_cm4.h ****   - Core MPU Register
 242:../system/include/cmsis/stm32l4xx/core_cm4.h ****   - Core FPU Register
 243:../system/include/cmsis/stm32l4xx/core_cm4.h ****  ******************************************************************************/
 244:../system/include/cmsis/stm32l4xx/core_cm4.h **** /**
 245:../system/include/cmsis/stm32l4xx/core_cm4.h ****   \defgroup CMSIS_core_register Defines and Type Definitions
 246:../system/include/cmsis/stm32l4xx/core_cm4.h ****   \brief Type definitions and defines for Cortex-M processor based devices.
 247:../system/include/cmsis/stm32l4xx/core_cm4.h **** */
 248:../system/include/cmsis/stm32l4xx/core_cm4.h **** 
 249:../system/include/cmsis/stm32l4xx/core_cm4.h **** /**
 250:../system/include/cmsis/stm32l4xx/core_cm4.h ****   \ingroup    CMSIS_core_register
 251:../system/include/cmsis/stm32l4xx/core_cm4.h ****   \defgroup   CMSIS_CORE  Status and Control Registers
 252:../system/include/cmsis/stm32l4xx/core_cm4.h ****   \brief      Core Register type definitions.
 253:../system/include/cmsis/stm32l4xx/core_cm4.h ****   @{
 254:../system/include/cmsis/stm32l4xx/core_cm4.h ****  */
 255:../system/include/cmsis/stm32l4xx/core_cm4.h **** 
 256:../system/include/cmsis/stm32l4xx/core_cm4.h **** /**
 257:../system/include/cmsis/stm32l4xx/core_cm4.h ****   \brief  Union type to access the Application Program Status Register (APSR).
 258:../system/include/cmsis/stm32l4xx/core_cm4.h ****  */
 259:../system/include/cmsis/stm32l4xx/core_cm4.h **** typedef union
 260:../system/include/cmsis/stm32l4xx/core_cm4.h **** {
 261:../system/include/cmsis/stm32l4xx/core_cm4.h ****   struct
 262:../system/include/cmsis/stm32l4xx/core_cm4.h ****   {
 263:../system/include/cmsis/stm32l4xx/core_cm4.h ****     uint32_t _reserved0:16;              /*!< bit:  0..15  Reserved */
 264:../system/include/cmsis/stm32l4xx/core_cm4.h ****     uint32_t GE:4;                       /*!< bit: 16..19  Greater than or Equal flags */
 265:../system/include/cmsis/stm32l4xx/core_cm4.h ****     uint32_t _reserved1:7;               /*!< bit: 20..26  Reserved */
 266:../system/include/cmsis/stm32l4xx/core_cm4.h ****     uint32_t Q:1;                        /*!< bit:     27  Saturation condition flag */
 267:../system/include/cmsis/stm32l4xx/core_cm4.h ****     uint32_t V:1;                        /*!< bit:     28  Overflow condition code flag */
 268:../system/include/cmsis/stm32l4xx/core_cm4.h ****     uint32_t C:1;                        /*!< bit:     29  Carry condition code flag */
 269:../system/include/cmsis/stm32l4xx/core_cm4.h ****     uint32_t Z:1;                        /*!< bit:     30  Zero condition code flag */
 270:../system/include/cmsis/stm32l4xx/core_cm4.h ****     uint32_t N:1;                        /*!< bit:     31  Negative condition code flag */
 271:../system/include/cmsis/stm32l4xx/core_cm4.h ****   } b;                                   /*!< Structure used for bit  access */
 272:../system/include/cmsis/stm32l4xx/core_cm4.h ****   uint32_t w;                            /*!< Type      used for word access */
 273:../system/include/cmsis/stm32l4xx/core_cm4.h **** } APSR_Type;
 274:../system/include/cmsis/stm32l4xx/core_cm4.h **** 
 275:../system/include/cmsis/stm32l4xx/core_cm4.h **** /* APSR Register Definitions */
 276:../system/include/cmsis/stm32l4xx/core_cm4.h **** #define APSR_N_Pos                         31U                                            /*!< APSR
 277:../system/include/cmsis/stm32l4xx/core_cm4.h **** #define APSR_N_Msk                         (1UL << APSR_N_Pos)                            /*!< APSR
 278:../system/include/cmsis/stm32l4xx/core_cm4.h **** 
 279:../system/include/cmsis/stm32l4xx/core_cm4.h **** #define APSR_Z_Pos                         30U                                            /*!< APSR
 280:../system/include/cmsis/stm32l4xx/core_cm4.h **** #define APSR_Z_Msk                         (1UL << APSR_Z_Pos)                            /*!< APSR
 281:../system/include/cmsis/stm32l4xx/core_cm4.h **** 
 282:../system/include/cmsis/stm32l4xx/core_cm4.h **** #define APSR_C_Pos                         29U                                            /*!< APSR
 283:../system/include/cmsis/stm32l4xx/core_cm4.h **** #define APSR_C_Msk                         (1UL << APSR_C_Pos)                            /*!< APSR
 284:../system/include/cmsis/stm32l4xx/core_cm4.h **** 
 285:../system/include/cmsis/stm32l4xx/core_cm4.h **** #define APSR_V_Pos                         28U                                            /*!< APSR
 286:../system/include/cmsis/stm32l4xx/core_cm4.h **** #define APSR_V_Msk                         (1UL << APSR_V_Pos)                            /*!< APSR
 287:../system/include/cmsis/stm32l4xx/core_cm4.h **** 
 288:../system/include/cmsis/stm32l4xx/core_cm4.h **** #define APSR_Q_Pos                         27U                                            /*!< APSR
 289:../system/include/cmsis/stm32l4xx/core_cm4.h **** #define APSR_Q_Msk                         (1UL << APSR_Q_Pos)                            /*!< APSR
 290:../system/include/cmsis/stm32l4xx/core_cm4.h **** 
 291:../system/include/cmsis/stm32l4xx/core_cm4.h **** #define APSR_GE_Pos                        16U                                            /*!< APSR
 292:../system/include/cmsis/stm32l4xx/core_cm4.h **** #define APSR_GE_Msk                        (0xFUL << APSR_GE_Pos)                         /*!< APSR
 293:../system/include/cmsis/stm32l4xx/core_cm4.h **** 
 294:../system/include/cmsis/stm32l4xx/core_cm4.h **** 
 295:../system/include/cmsis/stm32l4xx/core_cm4.h **** /**
 296:../system/include/cmsis/stm32l4xx/core_cm4.h ****   \brief  Union type to access the Interrupt Program Status Register (IPSR).
 297:../system/include/cmsis/stm32l4xx/core_cm4.h ****  */
 298:../system/include/cmsis/stm32l4xx/core_cm4.h **** typedef union
 299:../system/include/cmsis/stm32l4xx/core_cm4.h **** {
 300:../system/include/cmsis/stm32l4xx/core_cm4.h ****   struct
 301:../system/include/cmsis/stm32l4xx/core_cm4.h ****   {
 302:../system/include/cmsis/stm32l4xx/core_cm4.h ****     uint32_t ISR:9;                      /*!< bit:  0.. 8  Exception number */
 303:../system/include/cmsis/stm32l4xx/core_cm4.h ****     uint32_t _reserved0:23;              /*!< bit:  9..31  Reserved */
 304:../system/include/cmsis/stm32l4xx/core_cm4.h ****   } b;                                   /*!< Structure used for bit  access */
 305:../system/include/cmsis/stm32l4xx/core_cm4.h ****   uint32_t w;                            /*!< Type      used for word access */
 306:../system/include/cmsis/stm32l4xx/core_cm4.h **** } IPSR_Type;
 307:../system/include/cmsis/stm32l4xx/core_cm4.h **** 
 308:../system/include/cmsis/stm32l4xx/core_cm4.h **** /* IPSR Register Definitions */
 309:../system/include/cmsis/stm32l4xx/core_cm4.h **** #define IPSR_ISR_Pos                        0U                                            /*!< IPSR
 310:../system/include/cmsis/stm32l4xx/core_cm4.h **** #define IPSR_ISR_Msk                       (0x1FFUL /*<< IPSR_ISR_Pos*/)                  /*!< IPSR
 311:../system/include/cmsis/stm32l4xx/core_cm4.h **** 
 312:../system/include/cmsis/stm32l4xx/core_cm4.h **** 
 313:../system/include/cmsis/stm32l4xx/core_cm4.h **** /**
 314:../system/include/cmsis/stm32l4xx/core_cm4.h ****   \brief  Union type to access the Special-Purpose Program Status Registers (xPSR).
 315:../system/include/cmsis/stm32l4xx/core_cm4.h ****  */
 316:../system/include/cmsis/stm32l4xx/core_cm4.h **** typedef union
 317:../system/include/cmsis/stm32l4xx/core_cm4.h **** {
 318:../system/include/cmsis/stm32l4xx/core_cm4.h ****   struct
 319:../system/include/cmsis/stm32l4xx/core_cm4.h ****   {
 320:../system/include/cmsis/stm32l4xx/core_cm4.h ****     uint32_t ISR:9;                      /*!< bit:  0.. 8  Exception number */
 321:../system/include/cmsis/stm32l4xx/core_cm4.h ****     uint32_t _reserved0:1;               /*!< bit:      9  Reserved */
 322:../system/include/cmsis/stm32l4xx/core_cm4.h ****     uint32_t ICI_IT_1:6;                 /*!< bit: 10..15  ICI/IT part 1 */
 323:../system/include/cmsis/stm32l4xx/core_cm4.h ****     uint32_t GE:4;                       /*!< bit: 16..19  Greater than or Equal flags */
 324:../system/include/cmsis/stm32l4xx/core_cm4.h ****     uint32_t _reserved1:4;               /*!< bit: 20..23  Reserved */
 325:../system/include/cmsis/stm32l4xx/core_cm4.h ****     uint32_t T:1;                        /*!< bit:     24  Thumb bit */
 326:../system/include/cmsis/stm32l4xx/core_cm4.h ****     uint32_t ICI_IT_2:2;                 /*!< bit: 25..26  ICI/IT part 2 */
 327:../system/include/cmsis/stm32l4xx/core_cm4.h ****     uint32_t Q:1;                        /*!< bit:     27  Saturation condition flag */
 328:../system/include/cmsis/stm32l4xx/core_cm4.h ****     uint32_t V:1;                        /*!< bit:     28  Overflow condition code flag */
 329:../system/include/cmsis/stm32l4xx/core_cm4.h ****     uint32_t C:1;                        /*!< bit:     29  Carry condition code flag */
 330:../system/include/cmsis/stm32l4xx/core_cm4.h ****     uint32_t Z:1;                        /*!< bit:     30  Zero condition code flag */
 331:../system/include/cmsis/stm32l4xx/core_cm4.h ****     uint32_t N:1;                        /*!< bit:     31  Negative condition code flag */
 332:../system/include/cmsis/stm32l4xx/core_cm4.h ****   } b;                                   /*!< Structure used for bit  access */
 333:../system/include/cmsis/stm32l4xx/core_cm4.h ****   uint32_t w;                            /*!< Type      used for word access */
 334:../system/include/cmsis/stm32l4xx/core_cm4.h **** } xPSR_Type;
 335:../system/include/cmsis/stm32l4xx/core_cm4.h **** 
 336:../system/include/cmsis/stm32l4xx/core_cm4.h **** /* xPSR Register Definitions */
 337:../system/include/cmsis/stm32l4xx/core_cm4.h **** #define xPSR_N_Pos                         31U                                            /*!< xPSR
 338:../system/include/cmsis/stm32l4xx/core_cm4.h **** #define xPSR_N_Msk                         (1UL << xPSR_N_Pos)                            /*!< xPSR
 339:../system/include/cmsis/stm32l4xx/core_cm4.h **** 
 340:../system/include/cmsis/stm32l4xx/core_cm4.h **** #define xPSR_Z_Pos                         30U                                            /*!< xPSR
 341:../system/include/cmsis/stm32l4xx/core_cm4.h **** #define xPSR_Z_Msk                         (1UL << xPSR_Z_Pos)                            /*!< xPSR
 342:../system/include/cmsis/stm32l4xx/core_cm4.h **** 
 343:../system/include/cmsis/stm32l4xx/core_cm4.h **** #define xPSR_C_Pos                         29U                                            /*!< xPSR
 344:../system/include/cmsis/stm32l4xx/core_cm4.h **** #define xPSR_C_Msk                         (1UL << xPSR_C_Pos)                            /*!< xPSR
 345:../system/include/cmsis/stm32l4xx/core_cm4.h **** 
 346:../system/include/cmsis/stm32l4xx/core_cm4.h **** #define xPSR_V_Pos                         28U                                            /*!< xPSR
 347:../system/include/cmsis/stm32l4xx/core_cm4.h **** #define xPSR_V_Msk                         (1UL << xPSR_V_Pos)                            /*!< xPSR
 348:../system/include/cmsis/stm32l4xx/core_cm4.h **** 
 349:../system/include/cmsis/stm32l4xx/core_cm4.h **** #define xPSR_Q_Pos                         27U                                            /*!< xPSR
 350:../system/include/cmsis/stm32l4xx/core_cm4.h **** #define xPSR_Q_Msk                         (1UL << xPSR_Q_Pos)                            /*!< xPSR
 351:../system/include/cmsis/stm32l4xx/core_cm4.h **** 
 352:../system/include/cmsis/stm32l4xx/core_cm4.h **** #define xPSR_ICI_IT_2_Pos                  25U                                            /*!< xPSR
 353:../system/include/cmsis/stm32l4xx/core_cm4.h **** #define xPSR_ICI_IT_2_Msk                  (3UL << xPSR_ICI_IT_2_Pos)                     /*!< xPSR
 354:../system/include/cmsis/stm32l4xx/core_cm4.h **** 
 355:../system/include/cmsis/stm32l4xx/core_cm4.h **** #define xPSR_T_Pos                         24U                                            /*!< xPSR
 356:../system/include/cmsis/stm32l4xx/core_cm4.h **** #define xPSR_T_Msk                         (1UL << xPSR_T_Pos)                            /*!< xPSR
 357:../system/include/cmsis/stm32l4xx/core_cm4.h **** 
 358:../system/include/cmsis/stm32l4xx/core_cm4.h **** #define xPSR_GE_Pos                        16U                                            /*!< xPSR
 359:../system/include/cmsis/stm32l4xx/core_cm4.h **** #define xPSR_GE_Msk                        (0xFUL << xPSR_GE_Pos)                         /*!< xPSR
 360:../system/include/cmsis/stm32l4xx/core_cm4.h **** 
 361:../system/include/cmsis/stm32l4xx/core_cm4.h **** #define xPSR_ICI_IT_1_Pos                  10U                                            /*!< xPSR
 362:../system/include/cmsis/stm32l4xx/core_cm4.h **** #define xPSR_ICI_IT_1_Msk                  (0x3FUL << xPSR_ICI_IT_1_Pos)                  /*!< xPSR
 363:../system/include/cmsis/stm32l4xx/core_cm4.h **** 
 364:../system/include/cmsis/stm32l4xx/core_cm4.h **** #define xPSR_ISR_Pos                        0U                                            /*!< xPSR
 365:../system/include/cmsis/stm32l4xx/core_cm4.h **** #define xPSR_ISR_Msk                       (0x1FFUL /*<< xPSR_ISR_Pos*/)                  /*!< xPSR
 366:../system/include/cmsis/stm32l4xx/core_cm4.h **** 
 367:../system/include/cmsis/stm32l4xx/core_cm4.h **** 
 368:../system/include/cmsis/stm32l4xx/core_cm4.h **** /**
 369:../system/include/cmsis/stm32l4xx/core_cm4.h ****   \brief  Union type to access the Control Registers (CONTROL).
 370:../system/include/cmsis/stm32l4xx/core_cm4.h ****  */
 371:../system/include/cmsis/stm32l4xx/core_cm4.h **** typedef union
 372:../system/include/cmsis/stm32l4xx/core_cm4.h **** {
 373:../system/include/cmsis/stm32l4xx/core_cm4.h ****   struct
 374:../system/include/cmsis/stm32l4xx/core_cm4.h ****   {
 375:../system/include/cmsis/stm32l4xx/core_cm4.h ****     uint32_t nPRIV:1;                    /*!< bit:      0  Execution privilege in Thread mode */
 376:../system/include/cmsis/stm32l4xx/core_cm4.h ****     uint32_t SPSEL:1;                    /*!< bit:      1  Stack to be used */
 377:../system/include/cmsis/stm32l4xx/core_cm4.h ****     uint32_t FPCA:1;                     /*!< bit:      2  FP extension active flag */
 378:../system/include/cmsis/stm32l4xx/core_cm4.h ****     uint32_t _reserved0:29;              /*!< bit:  3..31  Reserved */
 379:../system/include/cmsis/stm32l4xx/core_cm4.h ****   } b;                                   /*!< Structure used for bit  access */
 380:../system/include/cmsis/stm32l4xx/core_cm4.h ****   uint32_t w;                            /*!< Type      used for word access */
 381:../system/include/cmsis/stm32l4xx/core_cm4.h **** } CONTROL_Type;
 382:../system/include/cmsis/stm32l4xx/core_cm4.h **** 
 383:../system/include/cmsis/stm32l4xx/core_cm4.h **** /* CONTROL Register Definitions */
 384:../system/include/cmsis/stm32l4xx/core_cm4.h **** #define CONTROL_FPCA_Pos                    2U                                            /*!< CONT
 385:../system/include/cmsis/stm32l4xx/core_cm4.h **** #define CONTROL_FPCA_Msk                   (1UL << CONTROL_FPCA_Pos)                      /*!< CONT
 386:../system/include/cmsis/stm32l4xx/core_cm4.h **** 
 387:../system/include/cmsis/stm32l4xx/core_cm4.h **** #define CONTROL_SPSEL_Pos                   1U                                            /*!< CONT
 388:../system/include/cmsis/stm32l4xx/core_cm4.h **** #define CONTROL_SPSEL_Msk                  (1UL << CONTROL_SPSEL_Pos)                     /*!< CONT
 389:../system/include/cmsis/stm32l4xx/core_cm4.h **** 
 390:../system/include/cmsis/stm32l4xx/core_cm4.h **** #define CONTROL_nPRIV_Pos                   0U                                            /*!< CONT
 391:../system/include/cmsis/stm32l4xx/core_cm4.h **** #define CONTROL_nPRIV_Msk                  (1UL /*<< CONTROL_nPRIV_Pos*/)                 /*!< CONT
 392:../system/include/cmsis/stm32l4xx/core_cm4.h **** 
 393:../system/include/cmsis/stm32l4xx/core_cm4.h **** /*@} end of group CMSIS_CORE */
 394:../system/include/cmsis/stm32l4xx/core_cm4.h **** 
 395:../system/include/cmsis/stm32l4xx/core_cm4.h **** 
 396:../system/include/cmsis/stm32l4xx/core_cm4.h **** /**
 397:../system/include/cmsis/stm32l4xx/core_cm4.h ****   \ingroup    CMSIS_core_register
 398:../system/include/cmsis/stm32l4xx/core_cm4.h ****   \defgroup   CMSIS_NVIC  Nested Vectored Interrupt Controller (NVIC)
 399:../system/include/cmsis/stm32l4xx/core_cm4.h ****   \brief      Type definitions for the NVIC Registers
 400:../system/include/cmsis/stm32l4xx/core_cm4.h ****   @{
 401:../system/include/cmsis/stm32l4xx/core_cm4.h ****  */
 402:../system/include/cmsis/stm32l4xx/core_cm4.h **** 
 403:../system/include/cmsis/stm32l4xx/core_cm4.h **** /**
 404:../system/include/cmsis/stm32l4xx/core_cm4.h ****   \brief  Structure type to access the Nested Vectored Interrupt Controller (NVIC).
 405:../system/include/cmsis/stm32l4xx/core_cm4.h ****  */
 406:../system/include/cmsis/stm32l4xx/core_cm4.h **** typedef struct
 407:../system/include/cmsis/stm32l4xx/core_cm4.h **** {
 408:../system/include/cmsis/stm32l4xx/core_cm4.h ****   __IOM uint32_t ISER[8U];               /*!< Offset: 0x000 (R/W)  Interrupt Set Enable Register */
 409:../system/include/cmsis/stm32l4xx/core_cm4.h ****         uint32_t RESERVED0[24U];
 410:../system/include/cmsis/stm32l4xx/core_cm4.h ****   __IOM uint32_t ICER[8U];               /*!< Offset: 0x080 (R/W)  Interrupt Clear Enable Register 
 411:../system/include/cmsis/stm32l4xx/core_cm4.h ****         uint32_t RESERVED1[24U];
 412:../system/include/cmsis/stm32l4xx/core_cm4.h ****   __IOM uint32_t ISPR[8U];               /*!< Offset: 0x100 (R/W)  Interrupt Set Pending Register *
 413:../system/include/cmsis/stm32l4xx/core_cm4.h ****         uint32_t RESERVED2[24U];
 414:../system/include/cmsis/stm32l4xx/core_cm4.h ****   __IOM uint32_t ICPR[8U];               /*!< Offset: 0x180 (R/W)  Interrupt Clear Pending Register
 415:../system/include/cmsis/stm32l4xx/core_cm4.h ****         uint32_t RESERVED3[24U];
 416:../system/include/cmsis/stm32l4xx/core_cm4.h ****   __IOM uint32_t IABR[8U];               /*!< Offset: 0x200 (R/W)  Interrupt Active bit Register */
 417:../system/include/cmsis/stm32l4xx/core_cm4.h ****         uint32_t RESERVED4[56U];
 418:../system/include/cmsis/stm32l4xx/core_cm4.h ****   __IOM uint8_t  IP[240U];               /*!< Offset: 0x300 (R/W)  Interrupt Priority Register (8Bi
 419:../system/include/cmsis/stm32l4xx/core_cm4.h ****         uint32_t RESERVED5[644U];
 420:../system/include/cmsis/stm32l4xx/core_cm4.h ****   __OM  uint32_t STIR;                   /*!< Offset: 0xE00 ( /W)  Software Trigger Interrupt Regis
 421:../system/include/cmsis/stm32l4xx/core_cm4.h **** }  NVIC_Type;
 422:../system/include/cmsis/stm32l4xx/core_cm4.h **** 
 423:../system/include/cmsis/stm32l4xx/core_cm4.h **** /* Software Triggered Interrupt Register Definitions */
 424:../system/include/cmsis/stm32l4xx/core_cm4.h **** #define NVIC_STIR_INTID_Pos                 0U                                         /*!< STIR: I
 425:../system/include/cmsis/stm32l4xx/core_cm4.h **** #define NVIC_STIR_INTID_Msk                (0x1FFUL /*<< NVIC_STIR_INTID_Pos*/)        /*!< STIR: I
 426:../system/include/cmsis/stm32l4xx/core_cm4.h **** 
 427:../system/include/cmsis/stm32l4xx/core_cm4.h **** /*@} end of group CMSIS_NVIC */
 428:../system/include/cmsis/stm32l4xx/core_cm4.h **** 
 429:../system/include/cmsis/stm32l4xx/core_cm4.h **** 
 430:../system/include/cmsis/stm32l4xx/core_cm4.h **** /**
 431:../system/include/cmsis/stm32l4xx/core_cm4.h ****   \ingroup  CMSIS_core_register
 432:../system/include/cmsis/stm32l4xx/core_cm4.h ****   \defgroup CMSIS_SCB     System Control Block (SCB)
 433:../system/include/cmsis/stm32l4xx/core_cm4.h ****   \brief    Type definitions for the System Control Block Registers
 434:../system/include/cmsis/stm32l4xx/core_cm4.h ****   @{
 435:../system/include/cmsis/stm32l4xx/core_cm4.h ****  */
 436:../system/include/cmsis/stm32l4xx/core_cm4.h **** 
 437:../system/include/cmsis/stm32l4xx/core_cm4.h **** /**
 438:../system/include/cmsis/stm32l4xx/core_cm4.h ****   \brief  Structure type to access the System Control Block (SCB).
 439:../system/include/cmsis/stm32l4xx/core_cm4.h ****  */
 440:../system/include/cmsis/stm32l4xx/core_cm4.h **** typedef struct
 441:../system/include/cmsis/stm32l4xx/core_cm4.h **** {
 442:../system/include/cmsis/stm32l4xx/core_cm4.h ****   __IM  uint32_t CPUID;                  /*!< Offset: 0x000 (R/ )  CPUID Base Register */
 443:../system/include/cmsis/stm32l4xx/core_cm4.h ****   __IOM uint32_t ICSR;                   /*!< Offset: 0x004 (R/W)  Interrupt Control and State Regi
 444:../system/include/cmsis/stm32l4xx/core_cm4.h ****   __IOM uint32_t VTOR;                   /*!< Offset: 0x008 (R/W)  Vector Table Offset Register */
 445:../system/include/cmsis/stm32l4xx/core_cm4.h ****   __IOM uint32_t AIRCR;                  /*!< Offset: 0x00C (R/W)  Application Interrupt and Reset 
 446:../system/include/cmsis/stm32l4xx/core_cm4.h ****   __IOM uint32_t SCR;                    /*!< Offset: 0x010 (R/W)  System Control Register */
 447:../system/include/cmsis/stm32l4xx/core_cm4.h ****   __IOM uint32_t CCR;                    /*!< Offset: 0x014 (R/W)  Configuration Control Register *
 448:../system/include/cmsis/stm32l4xx/core_cm4.h ****   __IOM uint8_t  SHP[12U];               /*!< Offset: 0x018 (R/W)  System Handlers Priority Registe
 449:../system/include/cmsis/stm32l4xx/core_cm4.h ****   __IOM uint32_t SHCSR;                  /*!< Offset: 0x024 (R/W)  System Handler Control and State
 450:../system/include/cmsis/stm32l4xx/core_cm4.h ****   __IOM uint32_t CFSR;                   /*!< Offset: 0x028 (R/W)  Configurable Fault Status Regist
 451:../system/include/cmsis/stm32l4xx/core_cm4.h ****   __IOM uint32_t HFSR;                   /*!< Offset: 0x02C (R/W)  HardFault Status Register */
 452:../system/include/cmsis/stm32l4xx/core_cm4.h ****   __IOM uint32_t DFSR;                   /*!< Offset: 0x030 (R/W)  Debug Fault Status Register */
 453:../system/include/cmsis/stm32l4xx/core_cm4.h ****   __IOM uint32_t MMFAR;                  /*!< Offset: 0x034 (R/W)  MemManage Fault Address Register
 454:../system/include/cmsis/stm32l4xx/core_cm4.h ****   __IOM uint32_t BFAR;                   /*!< Offset: 0x038 (R/W)  BusFault Address Register */
 455:../system/include/cmsis/stm32l4xx/core_cm4.h ****   __IOM uint32_t AFSR;                   /*!< Offset: 0x03C (R/W)  Auxiliary Fault Status Register 
 456:../system/include/cmsis/stm32l4xx/core_cm4.h ****   __IM  uint32_t PFR[2U];                /*!< Offset: 0x040 (R/ )  Processor Feature Register */
 457:../system/include/cmsis/stm32l4xx/core_cm4.h ****   __IM  uint32_t DFR;                    /*!< Offset: 0x048 (R/ )  Debug Feature Register */
 458:../system/include/cmsis/stm32l4xx/core_cm4.h ****   __IM  uint32_t ADR;                    /*!< Offset: 0x04C (R/ )  Auxiliary Feature Register */
 459:../system/include/cmsis/stm32l4xx/core_cm4.h ****   __IM  uint32_t MMFR[4U];               /*!< Offset: 0x050 (R/ )  Memory Model Feature Register */
 460:../system/include/cmsis/stm32l4xx/core_cm4.h ****   __IM  uint32_t ISAR[5U];               /*!< Offset: 0x060 (R/ )  Instruction Set Attributes Regis
 461:../system/include/cmsis/stm32l4xx/core_cm4.h ****         uint32_t RESERVED0[5U];
 462:../system/include/cmsis/stm32l4xx/core_cm4.h ****   __IOM uint32_t CPACR;                  /*!< Offset: 0x088 (R/W)  Coprocessor Access Control Regis
 463:../system/include/cmsis/stm32l4xx/core_cm4.h **** } SCB_Type;
 464:../system/include/cmsis/stm32l4xx/core_cm4.h **** 
 465:../system/include/cmsis/stm32l4xx/core_cm4.h **** /* SCB CPUID Register Definitions */
 466:../system/include/cmsis/stm32l4xx/core_cm4.h **** #define SCB_CPUID_IMPLEMENTER_Pos          24U                                            /*!< SCB 
 467:../system/include/cmsis/stm32l4xx/core_cm4.h **** #define SCB_CPUID_IMPLEMENTER_Msk          (0xFFUL << SCB_CPUID_IMPLEMENTER_Pos)          /*!< SCB 
 468:../system/include/cmsis/stm32l4xx/core_cm4.h **** 
 469:../system/include/cmsis/stm32l4xx/core_cm4.h **** #define SCB_CPUID_VARIANT_Pos              20U                                            /*!< SCB 
 470:../system/include/cmsis/stm32l4xx/core_cm4.h **** #define SCB_CPUID_VARIANT_Msk              (0xFUL << SCB_CPUID_VARIANT_Pos)               /*!< SCB 
 471:../system/include/cmsis/stm32l4xx/core_cm4.h **** 
 472:../system/include/cmsis/stm32l4xx/core_cm4.h **** #define SCB_CPUID_ARCHITECTURE_Pos         16U                                            /*!< SCB 
 473:../system/include/cmsis/stm32l4xx/core_cm4.h **** #define SCB_CPUID_ARCHITECTURE_Msk         (0xFUL << SCB_CPUID_ARCHITECTURE_Pos)          /*!< SCB 
 474:../system/include/cmsis/stm32l4xx/core_cm4.h **** 
 475:../system/include/cmsis/stm32l4xx/core_cm4.h **** #define SCB_CPUID_PARTNO_Pos                4U                                            /*!< SCB 
 476:../system/include/cmsis/stm32l4xx/core_cm4.h **** #define SCB_CPUID_PARTNO_Msk               (0xFFFUL << SCB_CPUID_PARTNO_Pos)              /*!< SCB 
 477:../system/include/cmsis/stm32l4xx/core_cm4.h **** 
 478:../system/include/cmsis/stm32l4xx/core_cm4.h **** #define SCB_CPUID_REVISION_Pos              0U                                            /*!< SCB 
 479:../system/include/cmsis/stm32l4xx/core_cm4.h **** #define SCB_CPUID_REVISION_Msk             (0xFUL /*<< SCB_CPUID_REVISION_Pos*/)          /*!< SCB 
 480:../system/include/cmsis/stm32l4xx/core_cm4.h **** 
 481:../system/include/cmsis/stm32l4xx/core_cm4.h **** /* SCB Interrupt Control State Register Definitions */
 482:../system/include/cmsis/stm32l4xx/core_cm4.h **** #define SCB_ICSR_NMIPENDSET_Pos            31U                                            /*!< SCB 
 483:../system/include/cmsis/stm32l4xx/core_cm4.h **** #define SCB_ICSR_NMIPENDSET_Msk            (1UL << SCB_ICSR_NMIPENDSET_Pos)               /*!< SCB 
 484:../system/include/cmsis/stm32l4xx/core_cm4.h **** 
 485:../system/include/cmsis/stm32l4xx/core_cm4.h **** #define SCB_ICSR_PENDSVSET_Pos             28U                                            /*!< SCB 
 486:../system/include/cmsis/stm32l4xx/core_cm4.h **** #define SCB_ICSR_PENDSVSET_Msk             (1UL << SCB_ICSR_PENDSVSET_Pos)                /*!< SCB 
 487:../system/include/cmsis/stm32l4xx/core_cm4.h **** 
 488:../system/include/cmsis/stm32l4xx/core_cm4.h **** #define SCB_ICSR_PENDSVCLR_Pos             27U                                            /*!< SCB 
 489:../system/include/cmsis/stm32l4xx/core_cm4.h **** #define SCB_ICSR_PENDSVCLR_Msk             (1UL << SCB_ICSR_PENDSVCLR_Pos)                /*!< SCB 
 490:../system/include/cmsis/stm32l4xx/core_cm4.h **** 
 491:../system/include/cmsis/stm32l4xx/core_cm4.h **** #define SCB_ICSR_PENDSTSET_Pos             26U                                            /*!< SCB 
 492:../system/include/cmsis/stm32l4xx/core_cm4.h **** #define SCB_ICSR_PENDSTSET_Msk             (1UL << SCB_ICSR_PENDSTSET_Pos)                /*!< SCB 
 493:../system/include/cmsis/stm32l4xx/core_cm4.h **** 
 494:../system/include/cmsis/stm32l4xx/core_cm4.h **** #define SCB_ICSR_PENDSTCLR_Pos             25U                                            /*!< SCB 
 495:../system/include/cmsis/stm32l4xx/core_cm4.h **** #define SCB_ICSR_PENDSTCLR_Msk             (1UL << SCB_ICSR_PENDSTCLR_Pos)                /*!< SCB 
 496:../system/include/cmsis/stm32l4xx/core_cm4.h **** 
 497:../system/include/cmsis/stm32l4xx/core_cm4.h **** #define SCB_ICSR_ISRPREEMPT_Pos            23U                                            /*!< SCB 
 498:../system/include/cmsis/stm32l4xx/core_cm4.h **** #define SCB_ICSR_ISRPREEMPT_Msk            (1UL << SCB_ICSR_ISRPREEMPT_Pos)               /*!< SCB 
 499:../system/include/cmsis/stm32l4xx/core_cm4.h **** 
 500:../system/include/cmsis/stm32l4xx/core_cm4.h **** #define SCB_ICSR_ISRPENDING_Pos            22U                                            /*!< SCB 
 501:../system/include/cmsis/stm32l4xx/core_cm4.h **** #define SCB_ICSR_ISRPENDING_Msk            (1UL << SCB_ICSR_ISRPENDING_Pos)               /*!< SCB 
 502:../system/include/cmsis/stm32l4xx/core_cm4.h **** 
 503:../system/include/cmsis/stm32l4xx/core_cm4.h **** #define SCB_ICSR_VECTPENDING_Pos           12U                                            /*!< SCB 
 504:../system/include/cmsis/stm32l4xx/core_cm4.h **** #define SCB_ICSR_VECTPENDING_Msk           (0x1FFUL << SCB_ICSR_VECTPENDING_Pos)          /*!< SCB 
 505:../system/include/cmsis/stm32l4xx/core_cm4.h **** 
 506:../system/include/cmsis/stm32l4xx/core_cm4.h **** #define SCB_ICSR_RETTOBASE_Pos             11U                                            /*!< SCB 
 507:../system/include/cmsis/stm32l4xx/core_cm4.h **** #define SCB_ICSR_RETTOBASE_Msk             (1UL << SCB_ICSR_RETTOBASE_Pos)                /*!< SCB 
 508:../system/include/cmsis/stm32l4xx/core_cm4.h **** 
 509:../system/include/cmsis/stm32l4xx/core_cm4.h **** #define SCB_ICSR_VECTACTIVE_Pos             0U                                            /*!< SCB 
 510:../system/include/cmsis/stm32l4xx/core_cm4.h **** #define SCB_ICSR_VECTACTIVE_Msk            (0x1FFUL /*<< SCB_ICSR_VECTACTIVE_Pos*/)       /*!< SCB 
 511:../system/include/cmsis/stm32l4xx/core_cm4.h **** 
 512:../system/include/cmsis/stm32l4xx/core_cm4.h **** /* SCB Vector Table Offset Register Definitions */
 513:../system/include/cmsis/stm32l4xx/core_cm4.h **** #define SCB_VTOR_TBLOFF_Pos                 7U                                            /*!< SCB 
 514:../system/include/cmsis/stm32l4xx/core_cm4.h **** #define SCB_VTOR_TBLOFF_Msk                (0x1FFFFFFUL << SCB_VTOR_TBLOFF_Pos)           /*!< SCB 
 515:../system/include/cmsis/stm32l4xx/core_cm4.h **** 
 516:../system/include/cmsis/stm32l4xx/core_cm4.h **** /* SCB Application Interrupt and Reset Control Register Definitions */
 517:../system/include/cmsis/stm32l4xx/core_cm4.h **** #define SCB_AIRCR_VECTKEY_Pos              16U                                            /*!< SCB 
 518:../system/include/cmsis/stm32l4xx/core_cm4.h **** #define SCB_AIRCR_VECTKEY_Msk              (0xFFFFUL << SCB_AIRCR_VECTKEY_Pos)            /*!< SCB 
 519:../system/include/cmsis/stm32l4xx/core_cm4.h **** 
 520:../system/include/cmsis/stm32l4xx/core_cm4.h **** #define SCB_AIRCR_VECTKEYSTAT_Pos          16U                                            /*!< SCB 
 521:../system/include/cmsis/stm32l4xx/core_cm4.h **** #define SCB_AIRCR_VECTKEYSTAT_Msk          (0xFFFFUL << SCB_AIRCR_VECTKEYSTAT_Pos)        /*!< SCB 
 522:../system/include/cmsis/stm32l4xx/core_cm4.h **** 
 523:../system/include/cmsis/stm32l4xx/core_cm4.h **** #define SCB_AIRCR_ENDIANESS_Pos            15U                                            /*!< SCB 
 524:../system/include/cmsis/stm32l4xx/core_cm4.h **** #define SCB_AIRCR_ENDIANESS_Msk            (1UL << SCB_AIRCR_ENDIANESS_Pos)               /*!< SCB 
 525:../system/include/cmsis/stm32l4xx/core_cm4.h **** 
 526:../system/include/cmsis/stm32l4xx/core_cm4.h **** #define SCB_AIRCR_PRIGROUP_Pos              8U                                            /*!< SCB 
 527:../system/include/cmsis/stm32l4xx/core_cm4.h **** #define SCB_AIRCR_PRIGROUP_Msk             (7UL << SCB_AIRCR_PRIGROUP_Pos)                /*!< SCB 
 528:../system/include/cmsis/stm32l4xx/core_cm4.h **** 
 529:../system/include/cmsis/stm32l4xx/core_cm4.h **** #define SCB_AIRCR_SYSRESETREQ_Pos           2U                                            /*!< SCB 
 530:../system/include/cmsis/stm32l4xx/core_cm4.h **** #define SCB_AIRCR_SYSRESETREQ_Msk          (1UL << SCB_AIRCR_SYSRESETREQ_Pos)             /*!< SCB 
 531:../system/include/cmsis/stm32l4xx/core_cm4.h **** 
 532:../system/include/cmsis/stm32l4xx/core_cm4.h **** #define SCB_AIRCR_VECTCLRACTIVE_Pos         1U                                            /*!< SCB 
 533:../system/include/cmsis/stm32l4xx/core_cm4.h **** #define SCB_AIRCR_VECTCLRACTIVE_Msk        (1UL << SCB_AIRCR_VECTCLRACTIVE_Pos)           /*!< SCB 
 534:../system/include/cmsis/stm32l4xx/core_cm4.h **** 
 535:../system/include/cmsis/stm32l4xx/core_cm4.h **** #define SCB_AIRCR_VECTRESET_Pos             0U                                            /*!< SCB 
 536:../system/include/cmsis/stm32l4xx/core_cm4.h **** #define SCB_AIRCR_VECTRESET_Msk            (1UL /*<< SCB_AIRCR_VECTRESET_Pos*/)           /*!< SCB 
 537:../system/include/cmsis/stm32l4xx/core_cm4.h **** 
 538:../system/include/cmsis/stm32l4xx/core_cm4.h **** /* SCB System Control Register Definitions */
 539:../system/include/cmsis/stm32l4xx/core_cm4.h **** #define SCB_SCR_SEVONPEND_Pos               4U                                            /*!< SCB 
 540:../system/include/cmsis/stm32l4xx/core_cm4.h **** #define SCB_SCR_SEVONPEND_Msk              (1UL << SCB_SCR_SEVONPEND_Pos)                 /*!< SCB 
 541:../system/include/cmsis/stm32l4xx/core_cm4.h **** 
 542:../system/include/cmsis/stm32l4xx/core_cm4.h **** #define SCB_SCR_SLEEPDEEP_Pos               2U                                            /*!< SCB 
 543:../system/include/cmsis/stm32l4xx/core_cm4.h **** #define SCB_SCR_SLEEPDEEP_Msk              (1UL << SCB_SCR_SLEEPDEEP_Pos)                 /*!< SCB 
 544:../system/include/cmsis/stm32l4xx/core_cm4.h **** 
 545:../system/include/cmsis/stm32l4xx/core_cm4.h **** #define SCB_SCR_SLEEPONEXIT_Pos             1U                                            /*!< SCB 
 546:../system/include/cmsis/stm32l4xx/core_cm4.h **** #define SCB_SCR_SLEEPONEXIT_Msk            (1UL << SCB_SCR_SLEEPONEXIT_Pos)               /*!< SCB 
 547:../system/include/cmsis/stm32l4xx/core_cm4.h **** 
 548:../system/include/cmsis/stm32l4xx/core_cm4.h **** /* SCB Configuration Control Register Definitions */
 549:../system/include/cmsis/stm32l4xx/core_cm4.h **** #define SCB_CCR_STKALIGN_Pos                9U                                            /*!< SCB 
 550:../system/include/cmsis/stm32l4xx/core_cm4.h **** #define SCB_CCR_STKALIGN_Msk               (1UL << SCB_CCR_STKALIGN_Pos)                  /*!< SCB 
 551:../system/include/cmsis/stm32l4xx/core_cm4.h **** 
 552:../system/include/cmsis/stm32l4xx/core_cm4.h **** #define SCB_CCR_BFHFNMIGN_Pos               8U                                            /*!< SCB 
 553:../system/include/cmsis/stm32l4xx/core_cm4.h **** #define SCB_CCR_BFHFNMIGN_Msk              (1UL << SCB_CCR_BFHFNMIGN_Pos)                 /*!< SCB 
 554:../system/include/cmsis/stm32l4xx/core_cm4.h **** 
 555:../system/include/cmsis/stm32l4xx/core_cm4.h **** #define SCB_CCR_DIV_0_TRP_Pos               4U                                            /*!< SCB 
 556:../system/include/cmsis/stm32l4xx/core_cm4.h **** #define SCB_CCR_DIV_0_TRP_Msk              (1UL << SCB_CCR_DIV_0_TRP_Pos)                 /*!< SCB 
 557:../system/include/cmsis/stm32l4xx/core_cm4.h **** 
 558:../system/include/cmsis/stm32l4xx/core_cm4.h **** #define SCB_CCR_UNALIGN_TRP_Pos             3U                                            /*!< SCB 
 559:../system/include/cmsis/stm32l4xx/core_cm4.h **** #define SCB_CCR_UNALIGN_TRP_Msk            (1UL << SCB_CCR_UNALIGN_TRP_Pos)               /*!< SCB 
 560:../system/include/cmsis/stm32l4xx/core_cm4.h **** 
 561:../system/include/cmsis/stm32l4xx/core_cm4.h **** #define SCB_CCR_USERSETMPEND_Pos            1U                                            /*!< SCB 
 562:../system/include/cmsis/stm32l4xx/core_cm4.h **** #define SCB_CCR_USERSETMPEND_Msk           (1UL << SCB_CCR_USERSETMPEND_Pos)              /*!< SCB 
 563:../system/include/cmsis/stm32l4xx/core_cm4.h **** 
 564:../system/include/cmsis/stm32l4xx/core_cm4.h **** #define SCB_CCR_NONBASETHRDENA_Pos          0U                                            /*!< SCB 
 565:../system/include/cmsis/stm32l4xx/core_cm4.h **** #define SCB_CCR_NONBASETHRDENA_Msk         (1UL /*<< SCB_CCR_NONBASETHRDENA_Pos*/)        /*!< SCB 
 566:../system/include/cmsis/stm32l4xx/core_cm4.h **** 
 567:../system/include/cmsis/stm32l4xx/core_cm4.h **** /* SCB System Handler Control and State Register Definitions */
 568:../system/include/cmsis/stm32l4xx/core_cm4.h **** #define SCB_SHCSR_USGFAULTENA_Pos          18U                                            /*!< SCB 
 569:../system/include/cmsis/stm32l4xx/core_cm4.h **** #define SCB_SHCSR_USGFAULTENA_Msk          (1UL << SCB_SHCSR_USGFAULTENA_Pos)             /*!< SCB 
 570:../system/include/cmsis/stm32l4xx/core_cm4.h **** 
 571:../system/include/cmsis/stm32l4xx/core_cm4.h **** #define SCB_SHCSR_BUSFAULTENA_Pos          17U                                            /*!< SCB 
 572:../system/include/cmsis/stm32l4xx/core_cm4.h **** #define SCB_SHCSR_BUSFAULTENA_Msk          (1UL << SCB_SHCSR_BUSFAULTENA_Pos)             /*!< SCB 
 573:../system/include/cmsis/stm32l4xx/core_cm4.h **** 
 574:../system/include/cmsis/stm32l4xx/core_cm4.h **** #define SCB_SHCSR_MEMFAULTENA_Pos          16U                                            /*!< SCB 
 575:../system/include/cmsis/stm32l4xx/core_cm4.h **** #define SCB_SHCSR_MEMFAULTENA_Msk          (1UL << SCB_SHCSR_MEMFAULTENA_Pos)             /*!< SCB 
 576:../system/include/cmsis/stm32l4xx/core_cm4.h **** 
 577:../system/include/cmsis/stm32l4xx/core_cm4.h **** #define SCB_SHCSR_SVCALLPENDED_Pos         15U                                            /*!< SCB 
 578:../system/include/cmsis/stm32l4xx/core_cm4.h **** #define SCB_SHCSR_SVCALLPENDED_Msk         (1UL << SCB_SHCSR_SVCALLPENDED_Pos)            /*!< SCB 
 579:../system/include/cmsis/stm32l4xx/core_cm4.h **** 
 580:../system/include/cmsis/stm32l4xx/core_cm4.h **** #define SCB_SHCSR_BUSFAULTPENDED_Pos       14U                                            /*!< SCB 
 581:../system/include/cmsis/stm32l4xx/core_cm4.h **** #define SCB_SHCSR_BUSFAULTPENDED_Msk       (1UL << SCB_SHCSR_BUSFAULTPENDED_Pos)          /*!< SCB 
 582:../system/include/cmsis/stm32l4xx/core_cm4.h **** 
 583:../system/include/cmsis/stm32l4xx/core_cm4.h **** #define SCB_SHCSR_MEMFAULTPENDED_Pos       13U                                            /*!< SCB 
 584:../system/include/cmsis/stm32l4xx/core_cm4.h **** #define SCB_SHCSR_MEMFAULTPENDED_Msk       (1UL << SCB_SHCSR_MEMFAULTPENDED_Pos)          /*!< SCB 
 585:../system/include/cmsis/stm32l4xx/core_cm4.h **** 
 586:../system/include/cmsis/stm32l4xx/core_cm4.h **** #define SCB_SHCSR_USGFAULTPENDED_Pos       12U                                            /*!< SCB 
 587:../system/include/cmsis/stm32l4xx/core_cm4.h **** #define SCB_SHCSR_USGFAULTPENDED_Msk       (1UL << SCB_SHCSR_USGFAULTPENDED_Pos)          /*!< SCB 
 588:../system/include/cmsis/stm32l4xx/core_cm4.h **** 
 589:../system/include/cmsis/stm32l4xx/core_cm4.h **** #define SCB_SHCSR_SYSTICKACT_Pos           11U                                            /*!< SCB 
 590:../system/include/cmsis/stm32l4xx/core_cm4.h **** #define SCB_SHCSR_SYSTICKACT_Msk           (1UL << SCB_SHCSR_SYSTICKACT_Pos)              /*!< SCB 
 591:../system/include/cmsis/stm32l4xx/core_cm4.h **** 
 592:../system/include/cmsis/stm32l4xx/core_cm4.h **** #define SCB_SHCSR_PENDSVACT_Pos            10U                                            /*!< SCB 
 593:../system/include/cmsis/stm32l4xx/core_cm4.h **** #define SCB_SHCSR_PENDSVACT_Msk            (1UL << SCB_SHCSR_PENDSVACT_Pos)               /*!< SCB 
 594:../system/include/cmsis/stm32l4xx/core_cm4.h **** 
 595:../system/include/cmsis/stm32l4xx/core_cm4.h **** #define SCB_SHCSR_MONITORACT_Pos            8U                                            /*!< SCB 
 596:../system/include/cmsis/stm32l4xx/core_cm4.h **** #define SCB_SHCSR_MONITORACT_Msk           (1UL << SCB_SHCSR_MONITORACT_Pos)              /*!< SCB 
 597:../system/include/cmsis/stm32l4xx/core_cm4.h **** 
 598:../system/include/cmsis/stm32l4xx/core_cm4.h **** #define SCB_SHCSR_SVCALLACT_Pos             7U                                            /*!< SCB 
 599:../system/include/cmsis/stm32l4xx/core_cm4.h **** #define SCB_SHCSR_SVCALLACT_Msk            (1UL << SCB_SHCSR_SVCALLACT_Pos)               /*!< SCB 
 600:../system/include/cmsis/stm32l4xx/core_cm4.h **** 
 601:../system/include/cmsis/stm32l4xx/core_cm4.h **** #define SCB_SHCSR_USGFAULTACT_Pos           3U                                            /*!< SCB 
 602:../system/include/cmsis/stm32l4xx/core_cm4.h **** #define SCB_SHCSR_USGFAULTACT_Msk          (1UL << SCB_SHCSR_USGFAULTACT_Pos)             /*!< SCB 
 603:../system/include/cmsis/stm32l4xx/core_cm4.h **** 
 604:../system/include/cmsis/stm32l4xx/core_cm4.h **** #define SCB_SHCSR_BUSFAULTACT_Pos           1U                                            /*!< SCB 
 605:../system/include/cmsis/stm32l4xx/core_cm4.h **** #define SCB_SHCSR_BUSFAULTACT_Msk          (1UL << SCB_SHCSR_BUSFAULTACT_Pos)             /*!< SCB 
 606:../system/include/cmsis/stm32l4xx/core_cm4.h **** 
 607:../system/include/cmsis/stm32l4xx/core_cm4.h **** #define SCB_SHCSR_MEMFAULTACT_Pos           0U                                            /*!< SCB 
 608:../system/include/cmsis/stm32l4xx/core_cm4.h **** #define SCB_SHCSR_MEMFAULTACT_Msk          (1UL /*<< SCB_SHCSR_MEMFAULTACT_Pos*/)         /*!< SCB 
 609:../system/include/cmsis/stm32l4xx/core_cm4.h **** 
 610:../system/include/cmsis/stm32l4xx/core_cm4.h **** /* SCB Configurable Fault Status Register Definitions */
 611:../system/include/cmsis/stm32l4xx/core_cm4.h **** #define SCB_CFSR_USGFAULTSR_Pos            16U                                            /*!< SCB 
 612:../system/include/cmsis/stm32l4xx/core_cm4.h **** #define SCB_CFSR_USGFAULTSR_Msk            (0xFFFFUL << SCB_CFSR_USGFAULTSR_Pos)          /*!< SCB 
 613:../system/include/cmsis/stm32l4xx/core_cm4.h **** 
 614:../system/include/cmsis/stm32l4xx/core_cm4.h **** #define SCB_CFSR_BUSFAULTSR_Pos             8U                                            /*!< SCB 
 615:../system/include/cmsis/stm32l4xx/core_cm4.h **** #define SCB_CFSR_BUSFAULTSR_Msk            (0xFFUL << SCB_CFSR_BUSFAULTSR_Pos)            /*!< SCB 
 616:../system/include/cmsis/stm32l4xx/core_cm4.h **** 
 617:../system/include/cmsis/stm32l4xx/core_cm4.h **** #define SCB_CFSR_MEMFAULTSR_Pos             0U                                            /*!< SCB 
 618:../system/include/cmsis/stm32l4xx/core_cm4.h **** #define SCB_CFSR_MEMFAULTSR_Msk            (0xFFUL /*<< SCB_CFSR_MEMFAULTSR_Pos*/)        /*!< SCB 
 619:../system/include/cmsis/stm32l4xx/core_cm4.h **** 
 620:../system/include/cmsis/stm32l4xx/core_cm4.h **** /* MemManage Fault Status Register (part of SCB Configurable Fault Status Register) */
 621:../system/include/cmsis/stm32l4xx/core_cm4.h **** #define SCB_CFSR_MMARVALID_Pos             (SCB_SHCSR_MEMFAULTACT_Pos + 7U)               /*!< SCB 
 622:../system/include/cmsis/stm32l4xx/core_cm4.h **** #define SCB_CFSR_MMARVALID_Msk             (1UL << SCB_CFSR_MMARVALID_Pos)                /*!< SCB 
 623:../system/include/cmsis/stm32l4xx/core_cm4.h **** 
 624:../system/include/cmsis/stm32l4xx/core_cm4.h **** #define SCB_CFSR_MLSPERR_Pos               (SCB_SHCSR_MEMFAULTACT_Pos + 5U)               /*!< SCB 
 625:../system/include/cmsis/stm32l4xx/core_cm4.h **** #define SCB_CFSR_MLSPERR_Msk               (1UL << SCB_CFSR_MLSPERR_Pos)                  /*!< SCB 
 626:../system/include/cmsis/stm32l4xx/core_cm4.h **** 
 627:../system/include/cmsis/stm32l4xx/core_cm4.h **** #define SCB_CFSR_MSTKERR_Pos               (SCB_SHCSR_MEMFAULTACT_Pos + 4U)               /*!< SCB 
 628:../system/include/cmsis/stm32l4xx/core_cm4.h **** #define SCB_CFSR_MSTKERR_Msk               (1UL << SCB_CFSR_MSTKERR_Pos)                  /*!< SCB 
 629:../system/include/cmsis/stm32l4xx/core_cm4.h **** 
 630:../system/include/cmsis/stm32l4xx/core_cm4.h **** #define SCB_CFSR_MUNSTKERR_Pos             (SCB_SHCSR_MEMFAULTACT_Pos + 3U)               /*!< SCB 
 631:../system/include/cmsis/stm32l4xx/core_cm4.h **** #define SCB_CFSR_MUNSTKERR_Msk             (1UL << SCB_CFSR_MUNSTKERR_Pos)                /*!< SCB 
 632:../system/include/cmsis/stm32l4xx/core_cm4.h **** 
 633:../system/include/cmsis/stm32l4xx/core_cm4.h **** #define SCB_CFSR_DACCVIOL_Pos              (SCB_SHCSR_MEMFAULTACT_Pos + 1U)               /*!< SCB 
 634:../system/include/cmsis/stm32l4xx/core_cm4.h **** #define SCB_CFSR_DACCVIOL_Msk              (1UL << SCB_CFSR_DACCVIOL_Pos)                 /*!< SCB 
 635:../system/include/cmsis/stm32l4xx/core_cm4.h **** 
 636:../system/include/cmsis/stm32l4xx/core_cm4.h **** #define SCB_CFSR_IACCVIOL_Pos              (SCB_SHCSR_MEMFAULTACT_Pos + 0U)               /*!< SCB 
 637:../system/include/cmsis/stm32l4xx/core_cm4.h **** #define SCB_CFSR_IACCVIOL_Msk              (1UL /*<< SCB_CFSR_IACCVIOL_Pos*/)             /*!< SCB 
 638:../system/include/cmsis/stm32l4xx/core_cm4.h **** 
 639:../system/include/cmsis/stm32l4xx/core_cm4.h **** /* BusFault Status Register (part of SCB Configurable Fault Status Register) */
 640:../system/include/cmsis/stm32l4xx/core_cm4.h **** #define SCB_CFSR_BFARVALID_Pos            (SCB_CFSR_BUSFAULTSR_Pos + 7U)                  /*!< SCB 
 641:../system/include/cmsis/stm32l4xx/core_cm4.h **** #define SCB_CFSR_BFARVALID_Msk            (1UL << SCB_CFSR_BFARVALID_Pos)                 /*!< SCB 
 642:../system/include/cmsis/stm32l4xx/core_cm4.h **** 
 643:../system/include/cmsis/stm32l4xx/core_cm4.h **** #define SCB_CFSR_LSPERR_Pos               (SCB_CFSR_BUSFAULTSR_Pos + 5U)                  /*!< SCB 
 644:../system/include/cmsis/stm32l4xx/core_cm4.h **** #define SCB_CFSR_LSPERR_Msk               (1UL << SCB_CFSR_LSPERR_Pos)                    /*!< SCB 
 645:../system/include/cmsis/stm32l4xx/core_cm4.h **** 
 646:../system/include/cmsis/stm32l4xx/core_cm4.h **** #define SCB_CFSR_STKERR_Pos               (SCB_CFSR_BUSFAULTSR_Pos + 4U)                  /*!< SCB 
 647:../system/include/cmsis/stm32l4xx/core_cm4.h **** #define SCB_CFSR_STKERR_Msk               (1UL << SCB_CFSR_STKERR_Pos)                    /*!< SCB 
 648:../system/include/cmsis/stm32l4xx/core_cm4.h **** 
 649:../system/include/cmsis/stm32l4xx/core_cm4.h **** #define SCB_CFSR_UNSTKERR_Pos             (SCB_CFSR_BUSFAULTSR_Pos + 3U)                  /*!< SCB 
 650:../system/include/cmsis/stm32l4xx/core_cm4.h **** #define SCB_CFSR_UNSTKERR_Msk             (1UL << SCB_CFSR_UNSTKERR_Pos)                  /*!< SCB 
 651:../system/include/cmsis/stm32l4xx/core_cm4.h **** 
 652:../system/include/cmsis/stm32l4xx/core_cm4.h **** #define SCB_CFSR_IMPRECISERR_Pos          (SCB_CFSR_BUSFAULTSR_Pos + 2U)                  /*!< SCB 
 653:../system/include/cmsis/stm32l4xx/core_cm4.h **** #define SCB_CFSR_IMPRECISERR_Msk          (1UL << SCB_CFSR_IMPRECISERR_Pos)               /*!< SCB 
 654:../system/include/cmsis/stm32l4xx/core_cm4.h **** 
 655:../system/include/cmsis/stm32l4xx/core_cm4.h **** #define SCB_CFSR_PRECISERR_Pos            (SCB_CFSR_BUSFAULTSR_Pos + 1U)                  /*!< SCB 
 656:../system/include/cmsis/stm32l4xx/core_cm4.h **** #define SCB_CFSR_PRECISERR_Msk            (1UL << SCB_CFSR_PRECISERR_Pos)                 /*!< SCB 
 657:../system/include/cmsis/stm32l4xx/core_cm4.h **** 
 658:../system/include/cmsis/stm32l4xx/core_cm4.h **** #define SCB_CFSR_IBUSERR_Pos              (SCB_CFSR_BUSFAULTSR_Pos + 0U)                  /*!< SCB 
 659:../system/include/cmsis/stm32l4xx/core_cm4.h **** #define SCB_CFSR_IBUSERR_Msk              (1UL << SCB_CFSR_IBUSERR_Pos)                   /*!< SCB 
 660:../system/include/cmsis/stm32l4xx/core_cm4.h **** 
 661:../system/include/cmsis/stm32l4xx/core_cm4.h **** /* UsageFault Status Register (part of SCB Configurable Fault Status Register) */
 662:../system/include/cmsis/stm32l4xx/core_cm4.h **** #define SCB_CFSR_DIVBYZERO_Pos            (SCB_CFSR_USGFAULTSR_Pos + 9U)                  /*!< SCB 
 663:../system/include/cmsis/stm32l4xx/core_cm4.h **** #define SCB_CFSR_DIVBYZERO_Msk            (1UL << SCB_CFSR_DIVBYZERO_Pos)                 /*!< SCB 
 664:../system/include/cmsis/stm32l4xx/core_cm4.h **** 
 665:../system/include/cmsis/stm32l4xx/core_cm4.h **** #define SCB_CFSR_UNALIGNED_Pos            (SCB_CFSR_USGFAULTSR_Pos + 8U)                  /*!< SCB 
 666:../system/include/cmsis/stm32l4xx/core_cm4.h **** #define SCB_CFSR_UNALIGNED_Msk            (1UL << SCB_CFSR_UNALIGNED_Pos)                 /*!< SCB 
 667:../system/include/cmsis/stm32l4xx/core_cm4.h **** 
 668:../system/include/cmsis/stm32l4xx/core_cm4.h **** #define SCB_CFSR_NOCP_Pos                 (SCB_CFSR_USGFAULTSR_Pos + 3U)                  /*!< SCB 
 669:../system/include/cmsis/stm32l4xx/core_cm4.h **** #define SCB_CFSR_NOCP_Msk                 (1UL << SCB_CFSR_NOCP_Pos)                      /*!< SCB 
 670:../system/include/cmsis/stm32l4xx/core_cm4.h **** 
 671:../system/include/cmsis/stm32l4xx/core_cm4.h **** #define SCB_CFSR_INVPC_Pos                (SCB_CFSR_USGFAULTSR_Pos + 2U)                  /*!< SCB 
 672:../system/include/cmsis/stm32l4xx/core_cm4.h **** #define SCB_CFSR_INVPC_Msk                (1UL << SCB_CFSR_INVPC_Pos)                     /*!< SCB 
 673:../system/include/cmsis/stm32l4xx/core_cm4.h **** 
 674:../system/include/cmsis/stm32l4xx/core_cm4.h **** #define SCB_CFSR_INVSTATE_Pos             (SCB_CFSR_USGFAULTSR_Pos + 1U)                  /*!< SCB 
 675:../system/include/cmsis/stm32l4xx/core_cm4.h **** #define SCB_CFSR_INVSTATE_Msk             (1UL << SCB_CFSR_INVSTATE_Pos)                  /*!< SCB 
 676:../system/include/cmsis/stm32l4xx/core_cm4.h **** 
 677:../system/include/cmsis/stm32l4xx/core_cm4.h **** #define SCB_CFSR_UNDEFINSTR_Pos           (SCB_CFSR_USGFAULTSR_Pos + 0U)                  /*!< SCB 
 678:../system/include/cmsis/stm32l4xx/core_cm4.h **** #define SCB_CFSR_UNDEFINSTR_Msk           (1UL << SCB_CFSR_UNDEFINSTR_Pos)                /*!< SCB 
 679:../system/include/cmsis/stm32l4xx/core_cm4.h **** 
 680:../system/include/cmsis/stm32l4xx/core_cm4.h **** /* SCB Hard Fault Status Register Definitions */
 681:../system/include/cmsis/stm32l4xx/core_cm4.h **** #define SCB_HFSR_DEBUGEVT_Pos              31U                                            /*!< SCB 
 682:../system/include/cmsis/stm32l4xx/core_cm4.h **** #define SCB_HFSR_DEBUGEVT_Msk              (1UL << SCB_HFSR_DEBUGEVT_Pos)                 /*!< SCB 
 683:../system/include/cmsis/stm32l4xx/core_cm4.h **** 
 684:../system/include/cmsis/stm32l4xx/core_cm4.h **** #define SCB_HFSR_FORCED_Pos                30U                                            /*!< SCB 
 685:../system/include/cmsis/stm32l4xx/core_cm4.h **** #define SCB_HFSR_FORCED_Msk                (1UL << SCB_HFSR_FORCED_Pos)                   /*!< SCB 
 686:../system/include/cmsis/stm32l4xx/core_cm4.h **** 
 687:../system/include/cmsis/stm32l4xx/core_cm4.h **** #define SCB_HFSR_VECTTBL_Pos                1U                                            /*!< SCB 
 688:../system/include/cmsis/stm32l4xx/core_cm4.h **** #define SCB_HFSR_VECTTBL_Msk               (1UL << SCB_HFSR_VECTTBL_Pos)                  /*!< SCB 
 689:../system/include/cmsis/stm32l4xx/core_cm4.h **** 
 690:../system/include/cmsis/stm32l4xx/core_cm4.h **** /* SCB Debug Fault Status Register Definitions */
 691:../system/include/cmsis/stm32l4xx/core_cm4.h **** #define SCB_DFSR_EXTERNAL_Pos               4U                                            /*!< SCB 
 692:../system/include/cmsis/stm32l4xx/core_cm4.h **** #define SCB_DFSR_EXTERNAL_Msk              (1UL << SCB_DFSR_EXTERNAL_Pos)                 /*!< SCB 
 693:../system/include/cmsis/stm32l4xx/core_cm4.h **** 
 694:../system/include/cmsis/stm32l4xx/core_cm4.h **** #define SCB_DFSR_VCATCH_Pos                 3U                                            /*!< SCB 
 695:../system/include/cmsis/stm32l4xx/core_cm4.h **** #define SCB_DFSR_VCATCH_Msk                (1UL << SCB_DFSR_VCATCH_Pos)                   /*!< SCB 
 696:../system/include/cmsis/stm32l4xx/core_cm4.h **** 
 697:../system/include/cmsis/stm32l4xx/core_cm4.h **** #define SCB_DFSR_DWTTRAP_Pos                2U                                            /*!< SCB 
 698:../system/include/cmsis/stm32l4xx/core_cm4.h **** #define SCB_DFSR_DWTTRAP_Msk               (1UL << SCB_DFSR_DWTTRAP_Pos)                  /*!< SCB 
 699:../system/include/cmsis/stm32l4xx/core_cm4.h **** 
 700:../system/include/cmsis/stm32l4xx/core_cm4.h **** #define SCB_DFSR_BKPT_Pos                   1U                                            /*!< SCB 
 701:../system/include/cmsis/stm32l4xx/core_cm4.h **** #define SCB_DFSR_BKPT_Msk                  (1UL << SCB_DFSR_BKPT_Pos)                     /*!< SCB 
 702:../system/include/cmsis/stm32l4xx/core_cm4.h **** 
 703:../system/include/cmsis/stm32l4xx/core_cm4.h **** #define SCB_DFSR_HALTED_Pos                 0U                                            /*!< SCB 
 704:../system/include/cmsis/stm32l4xx/core_cm4.h **** #define SCB_DFSR_HALTED_Msk                (1UL /*<< SCB_DFSR_HALTED_Pos*/)               /*!< SCB 
 705:../system/include/cmsis/stm32l4xx/core_cm4.h **** 
 706:../system/include/cmsis/stm32l4xx/core_cm4.h **** /*@} end of group CMSIS_SCB */
 707:../system/include/cmsis/stm32l4xx/core_cm4.h **** 
 708:../system/include/cmsis/stm32l4xx/core_cm4.h **** 
 709:../system/include/cmsis/stm32l4xx/core_cm4.h **** /**
 710:../system/include/cmsis/stm32l4xx/core_cm4.h ****   \ingroup  CMSIS_core_register
 711:../system/include/cmsis/stm32l4xx/core_cm4.h ****   \defgroup CMSIS_SCnSCB System Controls not in SCB (SCnSCB)
 712:../system/include/cmsis/stm32l4xx/core_cm4.h ****   \brief    Type definitions for the System Control and ID Register not in the SCB
 713:../system/include/cmsis/stm32l4xx/core_cm4.h ****   @{
 714:../system/include/cmsis/stm32l4xx/core_cm4.h ****  */
 715:../system/include/cmsis/stm32l4xx/core_cm4.h **** 
 716:../system/include/cmsis/stm32l4xx/core_cm4.h **** /**
 717:../system/include/cmsis/stm32l4xx/core_cm4.h ****   \brief  Structure type to access the System Control and ID Register not in the SCB.
 718:../system/include/cmsis/stm32l4xx/core_cm4.h ****  */
 719:../system/include/cmsis/stm32l4xx/core_cm4.h **** typedef struct
 720:../system/include/cmsis/stm32l4xx/core_cm4.h **** {
 721:../system/include/cmsis/stm32l4xx/core_cm4.h ****         uint32_t RESERVED0[1U];
 722:../system/include/cmsis/stm32l4xx/core_cm4.h ****   __IM  uint32_t ICTR;                   /*!< Offset: 0x004 (R/ )  Interrupt Controller Type Regist
 723:../system/include/cmsis/stm32l4xx/core_cm4.h ****   __IOM uint32_t ACTLR;                  /*!< Offset: 0x008 (R/W)  Auxiliary Control Register */
 724:../system/include/cmsis/stm32l4xx/core_cm4.h **** } SCnSCB_Type;
 725:../system/include/cmsis/stm32l4xx/core_cm4.h **** 
 726:../system/include/cmsis/stm32l4xx/core_cm4.h **** /* Interrupt Controller Type Register Definitions */
 727:../system/include/cmsis/stm32l4xx/core_cm4.h **** #define SCnSCB_ICTR_INTLINESNUM_Pos         0U                                         /*!< ICTR: I
 728:../system/include/cmsis/stm32l4xx/core_cm4.h **** #define SCnSCB_ICTR_INTLINESNUM_Msk        (0xFUL /*<< SCnSCB_ICTR_INTLINESNUM_Pos*/)  /*!< ICTR: I
 729:../system/include/cmsis/stm32l4xx/core_cm4.h **** 
 730:../system/include/cmsis/stm32l4xx/core_cm4.h **** /* Auxiliary Control Register Definitions */
 731:../system/include/cmsis/stm32l4xx/core_cm4.h **** #define SCnSCB_ACTLR_DISOOFP_Pos            9U                                         /*!< ACTLR: 
 732:../system/include/cmsis/stm32l4xx/core_cm4.h **** #define SCnSCB_ACTLR_DISOOFP_Msk           (1UL << SCnSCB_ACTLR_DISOOFP_Pos)           /*!< ACTLR: 
 733:../system/include/cmsis/stm32l4xx/core_cm4.h **** 
 734:../system/include/cmsis/stm32l4xx/core_cm4.h **** #define SCnSCB_ACTLR_DISFPCA_Pos            8U                                         /*!< ACTLR: 
 735:../system/include/cmsis/stm32l4xx/core_cm4.h **** #define SCnSCB_ACTLR_DISFPCA_Msk           (1UL << SCnSCB_ACTLR_DISFPCA_Pos)           /*!< ACTLR: 
 736:../system/include/cmsis/stm32l4xx/core_cm4.h **** 
 737:../system/include/cmsis/stm32l4xx/core_cm4.h **** #define SCnSCB_ACTLR_DISFOLD_Pos            2U                                         /*!< ACTLR: 
 738:../system/include/cmsis/stm32l4xx/core_cm4.h **** #define SCnSCB_ACTLR_DISFOLD_Msk           (1UL << SCnSCB_ACTLR_DISFOLD_Pos)           /*!< ACTLR: 
 739:../system/include/cmsis/stm32l4xx/core_cm4.h **** 
 740:../system/include/cmsis/stm32l4xx/core_cm4.h **** #define SCnSCB_ACTLR_DISDEFWBUF_Pos         1U                                         /*!< ACTLR: 
 741:../system/include/cmsis/stm32l4xx/core_cm4.h **** #define SCnSCB_ACTLR_DISDEFWBUF_Msk        (1UL << SCnSCB_ACTLR_DISDEFWBUF_Pos)        /*!< ACTLR: 
 742:../system/include/cmsis/stm32l4xx/core_cm4.h **** 
 743:../system/include/cmsis/stm32l4xx/core_cm4.h **** #define SCnSCB_ACTLR_DISMCYCINT_Pos         0U                                         /*!< ACTLR: 
 744:../system/include/cmsis/stm32l4xx/core_cm4.h **** #define SCnSCB_ACTLR_DISMCYCINT_Msk        (1UL /*<< SCnSCB_ACTLR_DISMCYCINT_Pos*/)    /*!< ACTLR: 
 745:../system/include/cmsis/stm32l4xx/core_cm4.h **** 
 746:../system/include/cmsis/stm32l4xx/core_cm4.h **** /*@} end of group CMSIS_SCnotSCB */
 747:../system/include/cmsis/stm32l4xx/core_cm4.h **** 
 748:../system/include/cmsis/stm32l4xx/core_cm4.h **** 
 749:../system/include/cmsis/stm32l4xx/core_cm4.h **** /**
 750:../system/include/cmsis/stm32l4xx/core_cm4.h ****   \ingroup  CMSIS_core_register
 751:../system/include/cmsis/stm32l4xx/core_cm4.h ****   \defgroup CMSIS_SysTick     System Tick Timer (SysTick)
 752:../system/include/cmsis/stm32l4xx/core_cm4.h ****   \brief    Type definitions for the System Timer Registers.
 753:../system/include/cmsis/stm32l4xx/core_cm4.h ****   @{
 754:../system/include/cmsis/stm32l4xx/core_cm4.h ****  */
 755:../system/include/cmsis/stm32l4xx/core_cm4.h **** 
 756:../system/include/cmsis/stm32l4xx/core_cm4.h **** /**
 757:../system/include/cmsis/stm32l4xx/core_cm4.h ****   \brief  Structure type to access the System Timer (SysTick).
 758:../system/include/cmsis/stm32l4xx/core_cm4.h ****  */
 759:../system/include/cmsis/stm32l4xx/core_cm4.h **** typedef struct
 760:../system/include/cmsis/stm32l4xx/core_cm4.h **** {
 761:../system/include/cmsis/stm32l4xx/core_cm4.h ****   __IOM uint32_t CTRL;                   /*!< Offset: 0x000 (R/W)  SysTick Control and Status Regis
 762:../system/include/cmsis/stm32l4xx/core_cm4.h ****   __IOM uint32_t LOAD;                   /*!< Offset: 0x004 (R/W)  SysTick Reload Value Register */
 763:../system/include/cmsis/stm32l4xx/core_cm4.h ****   __IOM uint32_t VAL;                    /*!< Offset: 0x008 (R/W)  SysTick Current Value Register *
 764:../system/include/cmsis/stm32l4xx/core_cm4.h ****   __IM  uint32_t CALIB;                  /*!< Offset: 0x00C (R/ )  SysTick Calibration Register */
 765:../system/include/cmsis/stm32l4xx/core_cm4.h **** } SysTick_Type;
 766:../system/include/cmsis/stm32l4xx/core_cm4.h **** 
 767:../system/include/cmsis/stm32l4xx/core_cm4.h **** /* SysTick Control / Status Register Definitions */
 768:../system/include/cmsis/stm32l4xx/core_cm4.h **** #define SysTick_CTRL_COUNTFLAG_Pos         16U                                            /*!< SysT
 769:../system/include/cmsis/stm32l4xx/core_cm4.h **** #define SysTick_CTRL_COUNTFLAG_Msk         (1UL << SysTick_CTRL_COUNTFLAG_Pos)            /*!< SysT
 770:../system/include/cmsis/stm32l4xx/core_cm4.h **** 
 771:../system/include/cmsis/stm32l4xx/core_cm4.h **** #define SysTick_CTRL_CLKSOURCE_Pos          2U                                            /*!< SysT
 772:../system/include/cmsis/stm32l4xx/core_cm4.h **** #define SysTick_CTRL_CLKSOURCE_Msk         (1UL << SysTick_CTRL_CLKSOURCE_Pos)            /*!< SysT
 773:../system/include/cmsis/stm32l4xx/core_cm4.h **** 
 774:../system/include/cmsis/stm32l4xx/core_cm4.h **** #define SysTick_CTRL_TICKINT_Pos            1U                                            /*!< SysT
 775:../system/include/cmsis/stm32l4xx/core_cm4.h **** #define SysTick_CTRL_TICKINT_Msk           (1UL << SysTick_CTRL_TICKINT_Pos)              /*!< SysT
 776:../system/include/cmsis/stm32l4xx/core_cm4.h **** 
 777:../system/include/cmsis/stm32l4xx/core_cm4.h **** #define SysTick_CTRL_ENABLE_Pos             0U                                            /*!< SysT
 778:../system/include/cmsis/stm32l4xx/core_cm4.h **** #define SysTick_CTRL_ENABLE_Msk            (1UL /*<< SysTick_CTRL_ENABLE_Pos*/)           /*!< SysT
 779:../system/include/cmsis/stm32l4xx/core_cm4.h **** 
 780:../system/include/cmsis/stm32l4xx/core_cm4.h **** /* SysTick Reload Register Definitions */
 781:../system/include/cmsis/stm32l4xx/core_cm4.h **** #define SysTick_LOAD_RELOAD_Pos             0U                                            /*!< SysT
 782:../system/include/cmsis/stm32l4xx/core_cm4.h **** #define SysTick_LOAD_RELOAD_Msk            (0xFFFFFFUL /*<< SysTick_LOAD_RELOAD_Pos*/)    /*!< SysT
 783:../system/include/cmsis/stm32l4xx/core_cm4.h **** 
 784:../system/include/cmsis/stm32l4xx/core_cm4.h **** /* SysTick Current Register Definitions */
 785:../system/include/cmsis/stm32l4xx/core_cm4.h **** #define SysTick_VAL_CURRENT_Pos             0U                                            /*!< SysT
 786:../system/include/cmsis/stm32l4xx/core_cm4.h **** #define SysTick_VAL_CURRENT_Msk            (0xFFFFFFUL /*<< SysTick_VAL_CURRENT_Pos*/)    /*!< SysT
 787:../system/include/cmsis/stm32l4xx/core_cm4.h **** 
 788:../system/include/cmsis/stm32l4xx/core_cm4.h **** /* SysTick Calibration Register Definitions */
 789:../system/include/cmsis/stm32l4xx/core_cm4.h **** #define SysTick_CALIB_NOREF_Pos            31U                                            /*!< SysT
 790:../system/include/cmsis/stm32l4xx/core_cm4.h **** #define SysTick_CALIB_NOREF_Msk            (1UL << SysTick_CALIB_NOREF_Pos)               /*!< SysT
 791:../system/include/cmsis/stm32l4xx/core_cm4.h **** 
 792:../system/include/cmsis/stm32l4xx/core_cm4.h **** #define SysTick_CALIB_SKEW_Pos             30U                                            /*!< SysT
 793:../system/include/cmsis/stm32l4xx/core_cm4.h **** #define SysTick_CALIB_SKEW_Msk             (1UL << SysTick_CALIB_SKEW_Pos)                /*!< SysT
 794:../system/include/cmsis/stm32l4xx/core_cm4.h **** 
 795:../system/include/cmsis/stm32l4xx/core_cm4.h **** #define SysTick_CALIB_TENMS_Pos             0U                                            /*!< SysT
 796:../system/include/cmsis/stm32l4xx/core_cm4.h **** #define SysTick_CALIB_TENMS_Msk            (0xFFFFFFUL /*<< SysTick_CALIB_TENMS_Pos*/)    /*!< SysT
 797:../system/include/cmsis/stm32l4xx/core_cm4.h **** 
 798:../system/include/cmsis/stm32l4xx/core_cm4.h **** /*@} end of group CMSIS_SysTick */
 799:../system/include/cmsis/stm32l4xx/core_cm4.h **** 
 800:../system/include/cmsis/stm32l4xx/core_cm4.h **** 
 801:../system/include/cmsis/stm32l4xx/core_cm4.h **** /**
 802:../system/include/cmsis/stm32l4xx/core_cm4.h ****   \ingroup  CMSIS_core_register
 803:../system/include/cmsis/stm32l4xx/core_cm4.h ****   \defgroup CMSIS_ITM     Instrumentation Trace Macrocell (ITM)
 804:../system/include/cmsis/stm32l4xx/core_cm4.h ****   \brief    Type definitions for the Instrumentation Trace Macrocell (ITM)
 805:../system/include/cmsis/stm32l4xx/core_cm4.h ****   @{
 806:../system/include/cmsis/stm32l4xx/core_cm4.h ****  */
 807:../system/include/cmsis/stm32l4xx/core_cm4.h **** 
 808:../system/include/cmsis/stm32l4xx/core_cm4.h **** /**
 809:../system/include/cmsis/stm32l4xx/core_cm4.h ****   \brief  Structure type to access the Instrumentation Trace Macrocell Register (ITM).
 810:../system/include/cmsis/stm32l4xx/core_cm4.h ****  */
 811:../system/include/cmsis/stm32l4xx/core_cm4.h **** typedef struct
 812:../system/include/cmsis/stm32l4xx/core_cm4.h **** {
 813:../system/include/cmsis/stm32l4xx/core_cm4.h ****   __OM  union
 814:../system/include/cmsis/stm32l4xx/core_cm4.h ****   {
 815:../system/include/cmsis/stm32l4xx/core_cm4.h ****     __OM  uint8_t    u8;                 /*!< Offset: 0x000 ( /W)  ITM Stimulus Port 8-bit */
 816:../system/include/cmsis/stm32l4xx/core_cm4.h ****     __OM  uint16_t   u16;                /*!< Offset: 0x000 ( /W)  ITM Stimulus Port 16-bit */
 817:../system/include/cmsis/stm32l4xx/core_cm4.h ****     __OM  uint32_t   u32;                /*!< Offset: 0x000 ( /W)  ITM Stimulus Port 32-bit */
 818:../system/include/cmsis/stm32l4xx/core_cm4.h ****   }  PORT [32U];                         /*!< Offset: 0x000 ( /W)  ITM Stimulus Port Registers */
 819:../system/include/cmsis/stm32l4xx/core_cm4.h ****         uint32_t RESERVED0[864U];
 820:../system/include/cmsis/stm32l4xx/core_cm4.h ****   __IOM uint32_t TER;                    /*!< Offset: 0xE00 (R/W)  ITM Trace Enable Register */
 821:../system/include/cmsis/stm32l4xx/core_cm4.h ****         uint32_t RESERVED1[15U];
 822:../system/include/cmsis/stm32l4xx/core_cm4.h ****   __IOM uint32_t TPR;                    /*!< Offset: 0xE40 (R/W)  ITM Trace Privilege Register */
 823:../system/include/cmsis/stm32l4xx/core_cm4.h ****         uint32_t RESERVED2[15U];
 824:../system/include/cmsis/stm32l4xx/core_cm4.h ****   __IOM uint32_t TCR;                    /*!< Offset: 0xE80 (R/W)  ITM Trace Control Register */
 825:../system/include/cmsis/stm32l4xx/core_cm4.h ****         uint32_t RESERVED3[32U];
 826:../system/include/cmsis/stm32l4xx/core_cm4.h ****         uint32_t RESERVED4[43U];
 827:../system/include/cmsis/stm32l4xx/core_cm4.h ****   __OM  uint32_t LAR;                    /*!< Offset: 0xFB0 ( /W)  ITM Lock Access Register */
 828:../system/include/cmsis/stm32l4xx/core_cm4.h ****   __IM  uint32_t LSR;                    /*!< Offset: 0xFB4 (R/ )  ITM Lock Status Register */
 829:../system/include/cmsis/stm32l4xx/core_cm4.h ****         uint32_t RESERVED5[6U];
 830:../system/include/cmsis/stm32l4xx/core_cm4.h ****   __IM  uint32_t PID4;                   /*!< Offset: 0xFD0 (R/ )  ITM Peripheral Identification Re
 831:../system/include/cmsis/stm32l4xx/core_cm4.h ****   __IM  uint32_t PID5;                   /*!< Offset: 0xFD4 (R/ )  ITM Peripheral Identification Re
 832:../system/include/cmsis/stm32l4xx/core_cm4.h ****   __IM  uint32_t PID6;                   /*!< Offset: 0xFD8 (R/ )  ITM Peripheral Identification Re
 833:../system/include/cmsis/stm32l4xx/core_cm4.h ****   __IM  uint32_t PID7;                   /*!< Offset: 0xFDC (R/ )  ITM Peripheral Identification Re
 834:../system/include/cmsis/stm32l4xx/core_cm4.h ****   __IM  uint32_t PID0;                   /*!< Offset: 0xFE0 (R/ )  ITM Peripheral Identification Re
 835:../system/include/cmsis/stm32l4xx/core_cm4.h ****   __IM  uint32_t PID1;                   /*!< Offset: 0xFE4 (R/ )  ITM Peripheral Identification Re
 836:../system/include/cmsis/stm32l4xx/core_cm4.h ****   __IM  uint32_t PID2;                   /*!< Offset: 0xFE8 (R/ )  ITM Peripheral Identification Re
 837:../system/include/cmsis/stm32l4xx/core_cm4.h ****   __IM  uint32_t PID3;                   /*!< Offset: 0xFEC (R/ )  ITM Peripheral Identification Re
 838:../system/include/cmsis/stm32l4xx/core_cm4.h ****   __IM  uint32_t CID0;                   /*!< Offset: 0xFF0 (R/ )  ITM Component  Identification Re
 839:../system/include/cmsis/stm32l4xx/core_cm4.h ****   __IM  uint32_t CID1;                   /*!< Offset: 0xFF4 (R/ )  ITM Component  Identification Re
 840:../system/include/cmsis/stm32l4xx/core_cm4.h ****   __IM  uint32_t CID2;                   /*!< Offset: 0xFF8 (R/ )  ITM Component  Identification Re
 841:../system/include/cmsis/stm32l4xx/core_cm4.h ****   __IM  uint32_t CID3;                   /*!< Offset: 0xFFC (R/ )  ITM Component  Identification Re
 842:../system/include/cmsis/stm32l4xx/core_cm4.h **** } ITM_Type;
 843:../system/include/cmsis/stm32l4xx/core_cm4.h **** 
 844:../system/include/cmsis/stm32l4xx/core_cm4.h **** /* ITM Trace Privilege Register Definitions */
 845:../system/include/cmsis/stm32l4xx/core_cm4.h **** #define ITM_TPR_PRIVMASK_Pos                0U                                            /*!< ITM 
 846:../system/include/cmsis/stm32l4xx/core_cm4.h **** #define ITM_TPR_PRIVMASK_Msk               (0xFFFFFFFFUL /*<< ITM_TPR_PRIVMASK_Pos*/)     /*!< ITM 
 847:../system/include/cmsis/stm32l4xx/core_cm4.h **** 
 848:../system/include/cmsis/stm32l4xx/core_cm4.h **** /* ITM Trace Control Register Definitions */
 849:../system/include/cmsis/stm32l4xx/core_cm4.h **** #define ITM_TCR_BUSY_Pos                   23U                                            /*!< ITM 
 850:../system/include/cmsis/stm32l4xx/core_cm4.h **** #define ITM_TCR_BUSY_Msk                   (1UL << ITM_TCR_BUSY_Pos)                      /*!< ITM 
 851:../system/include/cmsis/stm32l4xx/core_cm4.h **** 
 852:../system/include/cmsis/stm32l4xx/core_cm4.h **** #define ITM_TCR_TraceBusID_Pos             16U                                            /*!< ITM 
 853:../system/include/cmsis/stm32l4xx/core_cm4.h **** #define ITM_TCR_TraceBusID_Msk             (0x7FUL << ITM_TCR_TraceBusID_Pos)             /*!< ITM 
 854:../system/include/cmsis/stm32l4xx/core_cm4.h **** 
 855:../system/include/cmsis/stm32l4xx/core_cm4.h **** #define ITM_TCR_GTSFREQ_Pos                10U                                            /*!< ITM 
 856:../system/include/cmsis/stm32l4xx/core_cm4.h **** #define ITM_TCR_GTSFREQ_Msk                (3UL << ITM_TCR_GTSFREQ_Pos)                   /*!< ITM 
 857:../system/include/cmsis/stm32l4xx/core_cm4.h **** 
 858:../system/include/cmsis/stm32l4xx/core_cm4.h **** #define ITM_TCR_TSPrescale_Pos              8U                                            /*!< ITM 
 859:../system/include/cmsis/stm32l4xx/core_cm4.h **** #define ITM_TCR_TSPrescale_Msk             (3UL << ITM_TCR_TSPrescale_Pos)                /*!< ITM 
 860:../system/include/cmsis/stm32l4xx/core_cm4.h **** 
 861:../system/include/cmsis/stm32l4xx/core_cm4.h **** #define ITM_TCR_SWOENA_Pos                  4U                                            /*!< ITM 
 862:../system/include/cmsis/stm32l4xx/core_cm4.h **** #define ITM_TCR_SWOENA_Msk                 (1UL << ITM_TCR_SWOENA_Pos)                    /*!< ITM 
 863:../system/include/cmsis/stm32l4xx/core_cm4.h **** 
 864:../system/include/cmsis/stm32l4xx/core_cm4.h **** #define ITM_TCR_DWTENA_Pos                  3U                                            /*!< ITM 
 865:../system/include/cmsis/stm32l4xx/core_cm4.h **** #define ITM_TCR_DWTENA_Msk                 (1UL << ITM_TCR_DWTENA_Pos)                    /*!< ITM 
 866:../system/include/cmsis/stm32l4xx/core_cm4.h **** 
 867:../system/include/cmsis/stm32l4xx/core_cm4.h **** #define ITM_TCR_SYNCENA_Pos                 2U                                            /*!< ITM 
 868:../system/include/cmsis/stm32l4xx/core_cm4.h **** #define ITM_TCR_SYNCENA_Msk                (1UL << ITM_TCR_SYNCENA_Pos)                   /*!< ITM 
 869:../system/include/cmsis/stm32l4xx/core_cm4.h **** 
 870:../system/include/cmsis/stm32l4xx/core_cm4.h **** #define ITM_TCR_TSENA_Pos                   1U                                            /*!< ITM 
 871:../system/include/cmsis/stm32l4xx/core_cm4.h **** #define ITM_TCR_TSENA_Msk                  (1UL << ITM_TCR_TSENA_Pos)                     /*!< ITM 
 872:../system/include/cmsis/stm32l4xx/core_cm4.h **** 
 873:../system/include/cmsis/stm32l4xx/core_cm4.h **** #define ITM_TCR_ITMENA_Pos                  0U                                            /*!< ITM 
 874:../system/include/cmsis/stm32l4xx/core_cm4.h **** #define ITM_TCR_ITMENA_Msk                 (1UL /*<< ITM_TCR_ITMENA_Pos*/)                /*!< ITM 
 875:../system/include/cmsis/stm32l4xx/core_cm4.h **** 
 876:../system/include/cmsis/stm32l4xx/core_cm4.h **** /* ITM Lock Status Register Definitions */
 877:../system/include/cmsis/stm32l4xx/core_cm4.h **** #define ITM_LSR_ByteAcc_Pos                 2U                                            /*!< ITM 
 878:../system/include/cmsis/stm32l4xx/core_cm4.h **** #define ITM_LSR_ByteAcc_Msk                (1UL << ITM_LSR_ByteAcc_Pos)                   /*!< ITM 
 879:../system/include/cmsis/stm32l4xx/core_cm4.h **** 
 880:../system/include/cmsis/stm32l4xx/core_cm4.h **** #define ITM_LSR_Access_Pos                  1U                                            /*!< ITM 
 881:../system/include/cmsis/stm32l4xx/core_cm4.h **** #define ITM_LSR_Access_Msk                 (1UL << ITM_LSR_Access_Pos)                    /*!< ITM 
 882:../system/include/cmsis/stm32l4xx/core_cm4.h **** 
 883:../system/include/cmsis/stm32l4xx/core_cm4.h **** #define ITM_LSR_Present_Pos                 0U                                            /*!< ITM 
 884:../system/include/cmsis/stm32l4xx/core_cm4.h **** #define ITM_LSR_Present_Msk                (1UL /*<< ITM_LSR_Present_Pos*/)               /*!< ITM 
 885:../system/include/cmsis/stm32l4xx/core_cm4.h **** 
 886:../system/include/cmsis/stm32l4xx/core_cm4.h **** /*@}*/ /* end of group CMSIS_ITM */
 887:../system/include/cmsis/stm32l4xx/core_cm4.h **** 
 888:../system/include/cmsis/stm32l4xx/core_cm4.h **** 
 889:../system/include/cmsis/stm32l4xx/core_cm4.h **** /**
 890:../system/include/cmsis/stm32l4xx/core_cm4.h ****   \ingroup  CMSIS_core_register
 891:../system/include/cmsis/stm32l4xx/core_cm4.h ****   \defgroup CMSIS_DWT     Data Watchpoint and Trace (DWT)
 892:../system/include/cmsis/stm32l4xx/core_cm4.h ****   \brief    Type definitions for the Data Watchpoint and Trace (DWT)
 893:../system/include/cmsis/stm32l4xx/core_cm4.h ****   @{
 894:../system/include/cmsis/stm32l4xx/core_cm4.h ****  */
 895:../system/include/cmsis/stm32l4xx/core_cm4.h **** 
 896:../system/include/cmsis/stm32l4xx/core_cm4.h **** /**
 897:../system/include/cmsis/stm32l4xx/core_cm4.h ****   \brief  Structure type to access the Data Watchpoint and Trace Register (DWT).
 898:../system/include/cmsis/stm32l4xx/core_cm4.h ****  */
 899:../system/include/cmsis/stm32l4xx/core_cm4.h **** typedef struct
 900:../system/include/cmsis/stm32l4xx/core_cm4.h **** {
 901:../system/include/cmsis/stm32l4xx/core_cm4.h ****   __IOM uint32_t CTRL;                   /*!< Offset: 0x000 (R/W)  Control Register */
 902:../system/include/cmsis/stm32l4xx/core_cm4.h ****   __IOM uint32_t CYCCNT;                 /*!< Offset: 0x004 (R/W)  Cycle Count Register */
 903:../system/include/cmsis/stm32l4xx/core_cm4.h ****   __IOM uint32_t CPICNT;                 /*!< Offset: 0x008 (R/W)  CPI Count Register */
 904:../system/include/cmsis/stm32l4xx/core_cm4.h ****   __IOM uint32_t EXCCNT;                 /*!< Offset: 0x00C (R/W)  Exception Overhead Count Registe
 905:../system/include/cmsis/stm32l4xx/core_cm4.h ****   __IOM uint32_t SLEEPCNT;               /*!< Offset: 0x010 (R/W)  Sleep Count Register */
 906:../system/include/cmsis/stm32l4xx/core_cm4.h ****   __IOM uint32_t LSUCNT;                 /*!< Offset: 0x014 (R/W)  LSU Count Register */
 907:../system/include/cmsis/stm32l4xx/core_cm4.h ****   __IOM uint32_t FOLDCNT;                /*!< Offset: 0x018 (R/W)  Folded-instruction Count Registe
 908:../system/include/cmsis/stm32l4xx/core_cm4.h ****   __IM  uint32_t PCSR;                   /*!< Offset: 0x01C (R/ )  Program Counter Sample Register 
 909:../system/include/cmsis/stm32l4xx/core_cm4.h ****   __IOM uint32_t COMP0;                  /*!< Offset: 0x020 (R/W)  Comparator Register 0 */
 910:../system/include/cmsis/stm32l4xx/core_cm4.h ****   __IOM uint32_t MASK0;                  /*!< Offset: 0x024 (R/W)  Mask Register 0 */
 911:../system/include/cmsis/stm32l4xx/core_cm4.h ****   __IOM uint32_t FUNCTION0;              /*!< Offset: 0x028 (R/W)  Function Register 0 */
 912:../system/include/cmsis/stm32l4xx/core_cm4.h ****         uint32_t RESERVED0[1U];
 913:../system/include/cmsis/stm32l4xx/core_cm4.h ****   __IOM uint32_t COMP1;                  /*!< Offset: 0x030 (R/W)  Comparator Register 1 */
 914:../system/include/cmsis/stm32l4xx/core_cm4.h ****   __IOM uint32_t MASK1;                  /*!< Offset: 0x034 (R/W)  Mask Register 1 */
 915:../system/include/cmsis/stm32l4xx/core_cm4.h ****   __IOM uint32_t FUNCTION1;              /*!< Offset: 0x038 (R/W)  Function Register 1 */
 916:../system/include/cmsis/stm32l4xx/core_cm4.h ****         uint32_t RESERVED1[1U];
 917:../system/include/cmsis/stm32l4xx/core_cm4.h ****   __IOM uint32_t COMP2;                  /*!< Offset: 0x040 (R/W)  Comparator Register 2 */
 918:../system/include/cmsis/stm32l4xx/core_cm4.h ****   __IOM uint32_t MASK2;                  /*!< Offset: 0x044 (R/W)  Mask Register 2 */
 919:../system/include/cmsis/stm32l4xx/core_cm4.h ****   __IOM uint32_t FUNCTION2;              /*!< Offset: 0x048 (R/W)  Function Register 2 */
 920:../system/include/cmsis/stm32l4xx/core_cm4.h ****         uint32_t RESERVED2[1U];
 921:../system/include/cmsis/stm32l4xx/core_cm4.h ****   __IOM uint32_t COMP3;                  /*!< Offset: 0x050 (R/W)  Comparator Register 3 */
 922:../system/include/cmsis/stm32l4xx/core_cm4.h ****   __IOM uint32_t MASK3;                  /*!< Offset: 0x054 (R/W)  Mask Register 3 */
 923:../system/include/cmsis/stm32l4xx/core_cm4.h ****   __IOM uint32_t FUNCTION3;              /*!< Offset: 0x058 (R/W)  Function Register 3 */
 924:../system/include/cmsis/stm32l4xx/core_cm4.h **** } DWT_Type;
 925:../system/include/cmsis/stm32l4xx/core_cm4.h **** 
 926:../system/include/cmsis/stm32l4xx/core_cm4.h **** /* DWT Control Register Definitions */
 927:../system/include/cmsis/stm32l4xx/core_cm4.h **** #define DWT_CTRL_NUMCOMP_Pos               28U                                         /*!< DWT CTR
 928:../system/include/cmsis/stm32l4xx/core_cm4.h **** #define DWT_CTRL_NUMCOMP_Msk               (0xFUL << DWT_CTRL_NUMCOMP_Pos)             /*!< DWT CTR
 929:../system/include/cmsis/stm32l4xx/core_cm4.h **** 
 930:../system/include/cmsis/stm32l4xx/core_cm4.h **** #define DWT_CTRL_NOTRCPKT_Pos              27U                                         /*!< DWT CTR
 931:../system/include/cmsis/stm32l4xx/core_cm4.h **** #define DWT_CTRL_NOTRCPKT_Msk              (0x1UL << DWT_CTRL_NOTRCPKT_Pos)            /*!< DWT CTR
 932:../system/include/cmsis/stm32l4xx/core_cm4.h **** 
 933:../system/include/cmsis/stm32l4xx/core_cm4.h **** #define DWT_CTRL_NOEXTTRIG_Pos             26U                                         /*!< DWT CTR
 934:../system/include/cmsis/stm32l4xx/core_cm4.h **** #define DWT_CTRL_NOEXTTRIG_Msk             (0x1UL << DWT_CTRL_NOEXTTRIG_Pos)           /*!< DWT CTR
 935:../system/include/cmsis/stm32l4xx/core_cm4.h **** 
 936:../system/include/cmsis/stm32l4xx/core_cm4.h **** #define DWT_CTRL_NOCYCCNT_Pos              25U                                         /*!< DWT CTR
 937:../system/include/cmsis/stm32l4xx/core_cm4.h **** #define DWT_CTRL_NOCYCCNT_Msk              (0x1UL << DWT_CTRL_NOCYCCNT_Pos)            /*!< DWT CTR
 938:../system/include/cmsis/stm32l4xx/core_cm4.h **** 
 939:../system/include/cmsis/stm32l4xx/core_cm4.h **** #define DWT_CTRL_NOPRFCNT_Pos              24U                                         /*!< DWT CTR
 940:../system/include/cmsis/stm32l4xx/core_cm4.h **** #define DWT_CTRL_NOPRFCNT_Msk              (0x1UL << DWT_CTRL_NOPRFCNT_Pos)            /*!< DWT CTR
 941:../system/include/cmsis/stm32l4xx/core_cm4.h **** 
 942:../system/include/cmsis/stm32l4xx/core_cm4.h **** #define DWT_CTRL_CYCEVTENA_Pos             22U                                         /*!< DWT CTR
 943:../system/include/cmsis/stm32l4xx/core_cm4.h **** #define DWT_CTRL_CYCEVTENA_Msk             (0x1UL << DWT_CTRL_CYCEVTENA_Pos)           /*!< DWT CTR
 944:../system/include/cmsis/stm32l4xx/core_cm4.h **** 
 945:../system/include/cmsis/stm32l4xx/core_cm4.h **** #define DWT_CTRL_FOLDEVTENA_Pos            21U                                         /*!< DWT CTR
 946:../system/include/cmsis/stm32l4xx/core_cm4.h **** #define DWT_CTRL_FOLDEVTENA_Msk            (0x1UL << DWT_CTRL_FOLDEVTENA_Pos)          /*!< DWT CTR
 947:../system/include/cmsis/stm32l4xx/core_cm4.h **** 
 948:../system/include/cmsis/stm32l4xx/core_cm4.h **** #define DWT_CTRL_LSUEVTENA_Pos             20U                                         /*!< DWT CTR
 949:../system/include/cmsis/stm32l4xx/core_cm4.h **** #define DWT_CTRL_LSUEVTENA_Msk             (0x1UL << DWT_CTRL_LSUEVTENA_Pos)           /*!< DWT CTR
 950:../system/include/cmsis/stm32l4xx/core_cm4.h **** 
 951:../system/include/cmsis/stm32l4xx/core_cm4.h **** #define DWT_CTRL_SLEEPEVTENA_Pos           19U                                         /*!< DWT CTR
 952:../system/include/cmsis/stm32l4xx/core_cm4.h **** #define DWT_CTRL_SLEEPEVTENA_Msk           (0x1UL << DWT_CTRL_SLEEPEVTENA_Pos)         /*!< DWT CTR
 953:../system/include/cmsis/stm32l4xx/core_cm4.h **** 
 954:../system/include/cmsis/stm32l4xx/core_cm4.h **** #define DWT_CTRL_EXCEVTENA_Pos             18U                                         /*!< DWT CTR
 955:../system/include/cmsis/stm32l4xx/core_cm4.h **** #define DWT_CTRL_EXCEVTENA_Msk             (0x1UL << DWT_CTRL_EXCEVTENA_Pos)           /*!< DWT CTR
 956:../system/include/cmsis/stm32l4xx/core_cm4.h **** 
 957:../system/include/cmsis/stm32l4xx/core_cm4.h **** #define DWT_CTRL_CPIEVTENA_Pos             17U                                         /*!< DWT CTR
 958:../system/include/cmsis/stm32l4xx/core_cm4.h **** #define DWT_CTRL_CPIEVTENA_Msk             (0x1UL << DWT_CTRL_CPIEVTENA_Pos)           /*!< DWT CTR
 959:../system/include/cmsis/stm32l4xx/core_cm4.h **** 
 960:../system/include/cmsis/stm32l4xx/core_cm4.h **** #define DWT_CTRL_EXCTRCENA_Pos             16U                                         /*!< DWT CTR
 961:../system/include/cmsis/stm32l4xx/core_cm4.h **** #define DWT_CTRL_EXCTRCENA_Msk             (0x1UL << DWT_CTRL_EXCTRCENA_Pos)           /*!< DWT CTR
 962:../system/include/cmsis/stm32l4xx/core_cm4.h **** 
 963:../system/include/cmsis/stm32l4xx/core_cm4.h **** #define DWT_CTRL_PCSAMPLENA_Pos            12U                                         /*!< DWT CTR
 964:../system/include/cmsis/stm32l4xx/core_cm4.h **** #define DWT_CTRL_PCSAMPLENA_Msk            (0x1UL << DWT_CTRL_PCSAMPLENA_Pos)          /*!< DWT CTR
 965:../system/include/cmsis/stm32l4xx/core_cm4.h **** 
 966:../system/include/cmsis/stm32l4xx/core_cm4.h **** #define DWT_CTRL_SYNCTAP_Pos               10U                                         /*!< DWT CTR
 967:../system/include/cmsis/stm32l4xx/core_cm4.h **** #define DWT_CTRL_SYNCTAP_Msk               (0x3UL << DWT_CTRL_SYNCTAP_Pos)             /*!< DWT CTR
 968:../system/include/cmsis/stm32l4xx/core_cm4.h **** 
 969:../system/include/cmsis/stm32l4xx/core_cm4.h **** #define DWT_CTRL_CYCTAP_Pos                 9U                                         /*!< DWT CTR
 970:../system/include/cmsis/stm32l4xx/core_cm4.h **** #define DWT_CTRL_CYCTAP_Msk                (0x1UL << DWT_CTRL_CYCTAP_Pos)              /*!< DWT CTR
 971:../system/include/cmsis/stm32l4xx/core_cm4.h **** 
 972:../system/include/cmsis/stm32l4xx/core_cm4.h **** #define DWT_CTRL_POSTINIT_Pos               5U                                         /*!< DWT CTR
 973:../system/include/cmsis/stm32l4xx/core_cm4.h **** #define DWT_CTRL_POSTINIT_Msk              (0xFUL << DWT_CTRL_POSTINIT_Pos)            /*!< DWT CTR
 974:../system/include/cmsis/stm32l4xx/core_cm4.h **** 
 975:../system/include/cmsis/stm32l4xx/core_cm4.h **** #define DWT_CTRL_POSTPRESET_Pos             1U                                         /*!< DWT CTR
 976:../system/include/cmsis/stm32l4xx/core_cm4.h **** #define DWT_CTRL_POSTPRESET_Msk            (0xFUL << DWT_CTRL_POSTPRESET_Pos)          /*!< DWT CTR
 977:../system/include/cmsis/stm32l4xx/core_cm4.h **** 
 978:../system/include/cmsis/stm32l4xx/core_cm4.h **** #define DWT_CTRL_CYCCNTENA_Pos              0U                                         /*!< DWT CTR
 979:../system/include/cmsis/stm32l4xx/core_cm4.h **** #define DWT_CTRL_CYCCNTENA_Msk             (0x1UL /*<< DWT_CTRL_CYCCNTENA_Pos*/)       /*!< DWT CTR
 980:../system/include/cmsis/stm32l4xx/core_cm4.h **** 
 981:../system/include/cmsis/stm32l4xx/core_cm4.h **** /* DWT CPI Count Register Definitions */
 982:../system/include/cmsis/stm32l4xx/core_cm4.h **** #define DWT_CPICNT_CPICNT_Pos               0U                                         /*!< DWT CPI
 983:../system/include/cmsis/stm32l4xx/core_cm4.h **** #define DWT_CPICNT_CPICNT_Msk              (0xFFUL /*<< DWT_CPICNT_CPICNT_Pos*/)       /*!< DWT CPI
 984:../system/include/cmsis/stm32l4xx/core_cm4.h **** 
 985:../system/include/cmsis/stm32l4xx/core_cm4.h **** /* DWT Exception Overhead Count Register Definitions */
 986:../system/include/cmsis/stm32l4xx/core_cm4.h **** #define DWT_EXCCNT_EXCCNT_Pos               0U                                         /*!< DWT EXC
 987:../system/include/cmsis/stm32l4xx/core_cm4.h **** #define DWT_EXCCNT_EXCCNT_Msk              (0xFFUL /*<< DWT_EXCCNT_EXCCNT_Pos*/)       /*!< DWT EXC
 988:../system/include/cmsis/stm32l4xx/core_cm4.h **** 
 989:../system/include/cmsis/stm32l4xx/core_cm4.h **** /* DWT Sleep Count Register Definitions */
 990:../system/include/cmsis/stm32l4xx/core_cm4.h **** #define DWT_SLEEPCNT_SLEEPCNT_Pos           0U                                         /*!< DWT SLE
 991:../system/include/cmsis/stm32l4xx/core_cm4.h **** #define DWT_SLEEPCNT_SLEEPCNT_Msk          (0xFFUL /*<< DWT_SLEEPCNT_SLEEPCNT_Pos*/)   /*!< DWT SLE
 992:../system/include/cmsis/stm32l4xx/core_cm4.h **** 
 993:../system/include/cmsis/stm32l4xx/core_cm4.h **** /* DWT LSU Count Register Definitions */
 994:../system/include/cmsis/stm32l4xx/core_cm4.h **** #define DWT_LSUCNT_LSUCNT_Pos               0U                                         /*!< DWT LSU
 995:../system/include/cmsis/stm32l4xx/core_cm4.h **** #define DWT_LSUCNT_LSUCNT_Msk              (0xFFUL /*<< DWT_LSUCNT_LSUCNT_Pos*/)       /*!< DWT LSU
 996:../system/include/cmsis/stm32l4xx/core_cm4.h **** 
 997:../system/include/cmsis/stm32l4xx/core_cm4.h **** /* DWT Folded-instruction Count Register Definitions */
 998:../system/include/cmsis/stm32l4xx/core_cm4.h **** #define DWT_FOLDCNT_FOLDCNT_Pos             0U                                         /*!< DWT FOL
 999:../system/include/cmsis/stm32l4xx/core_cm4.h **** #define DWT_FOLDCNT_FOLDCNT_Msk            (0xFFUL /*<< DWT_FOLDCNT_FOLDCNT_Pos*/)     /*!< DWT FOL
1000:../system/include/cmsis/stm32l4xx/core_cm4.h **** 
1001:../system/include/cmsis/stm32l4xx/core_cm4.h **** /* DWT Comparator Mask Register Definitions */
1002:../system/include/cmsis/stm32l4xx/core_cm4.h **** #define DWT_MASK_MASK_Pos                   0U                                         /*!< DWT MAS
1003:../system/include/cmsis/stm32l4xx/core_cm4.h **** #define DWT_MASK_MASK_Msk                  (0x1FUL /*<< DWT_MASK_MASK_Pos*/)           /*!< DWT MAS
1004:../system/include/cmsis/stm32l4xx/core_cm4.h **** 
1005:../system/include/cmsis/stm32l4xx/core_cm4.h **** /* DWT Comparator Function Register Definitions */
1006:../system/include/cmsis/stm32l4xx/core_cm4.h **** #define DWT_FUNCTION_MATCHED_Pos           24U                                         /*!< DWT FUN
1007:../system/include/cmsis/stm32l4xx/core_cm4.h **** #define DWT_FUNCTION_MATCHED_Msk           (0x1UL << DWT_FUNCTION_MATCHED_Pos)         /*!< DWT FUN
1008:../system/include/cmsis/stm32l4xx/core_cm4.h **** 
1009:../system/include/cmsis/stm32l4xx/core_cm4.h **** #define DWT_FUNCTION_DATAVADDR1_Pos        16U                                         /*!< DWT FUN
1010:../system/include/cmsis/stm32l4xx/core_cm4.h **** #define DWT_FUNCTION_DATAVADDR1_Msk        (0xFUL << DWT_FUNCTION_DATAVADDR1_Pos)      /*!< DWT FUN
1011:../system/include/cmsis/stm32l4xx/core_cm4.h **** 
1012:../system/include/cmsis/stm32l4xx/core_cm4.h **** #define DWT_FUNCTION_DATAVADDR0_Pos        12U                                         /*!< DWT FUN
1013:../system/include/cmsis/stm32l4xx/core_cm4.h **** #define DWT_FUNCTION_DATAVADDR0_Msk        (0xFUL << DWT_FUNCTION_DATAVADDR0_Pos)      /*!< DWT FUN
1014:../system/include/cmsis/stm32l4xx/core_cm4.h **** 
1015:../system/include/cmsis/stm32l4xx/core_cm4.h **** #define DWT_FUNCTION_DATAVSIZE_Pos         10U                                         /*!< DWT FUN
1016:../system/include/cmsis/stm32l4xx/core_cm4.h **** #define DWT_FUNCTION_DATAVSIZE_Msk         (0x3UL << DWT_FUNCTION_DATAVSIZE_Pos)       /*!< DWT FUN
1017:../system/include/cmsis/stm32l4xx/core_cm4.h **** 
1018:../system/include/cmsis/stm32l4xx/core_cm4.h **** #define DWT_FUNCTION_LNK1ENA_Pos            9U                                         /*!< DWT FUN
1019:../system/include/cmsis/stm32l4xx/core_cm4.h **** #define DWT_FUNCTION_LNK1ENA_Msk           (0x1UL << DWT_FUNCTION_LNK1ENA_Pos)         /*!< DWT FUN
1020:../system/include/cmsis/stm32l4xx/core_cm4.h **** 
1021:../system/include/cmsis/stm32l4xx/core_cm4.h **** #define DWT_FUNCTION_DATAVMATCH_Pos         8U                                         /*!< DWT FUN
1022:../system/include/cmsis/stm32l4xx/core_cm4.h **** #define DWT_FUNCTION_DATAVMATCH_Msk        (0x1UL << DWT_FUNCTION_DATAVMATCH_Pos)      /*!< DWT FUN
1023:../system/include/cmsis/stm32l4xx/core_cm4.h **** 
1024:../system/include/cmsis/stm32l4xx/core_cm4.h **** #define DWT_FUNCTION_CYCMATCH_Pos           7U                                         /*!< DWT FUN
1025:../system/include/cmsis/stm32l4xx/core_cm4.h **** #define DWT_FUNCTION_CYCMATCH_Msk          (0x1UL << DWT_FUNCTION_CYCMATCH_Pos)        /*!< DWT FUN
1026:../system/include/cmsis/stm32l4xx/core_cm4.h **** 
1027:../system/include/cmsis/stm32l4xx/core_cm4.h **** #define DWT_FUNCTION_EMITRANGE_Pos          5U                                         /*!< DWT FUN
1028:../system/include/cmsis/stm32l4xx/core_cm4.h **** #define DWT_FUNCTION_EMITRANGE_Msk         (0x1UL << DWT_FUNCTION_EMITRANGE_Pos)       /*!< DWT FUN
1029:../system/include/cmsis/stm32l4xx/core_cm4.h **** 
1030:../system/include/cmsis/stm32l4xx/core_cm4.h **** #define DWT_FUNCTION_FUNCTION_Pos           0U                                         /*!< DWT FUN
1031:../system/include/cmsis/stm32l4xx/core_cm4.h **** #define DWT_FUNCTION_FUNCTION_Msk          (0xFUL /*<< DWT_FUNCTION_FUNCTION_Pos*/)    /*!< DWT FUN
1032:../system/include/cmsis/stm32l4xx/core_cm4.h **** 
1033:../system/include/cmsis/stm32l4xx/core_cm4.h **** /*@}*/ /* end of group CMSIS_DWT */
1034:../system/include/cmsis/stm32l4xx/core_cm4.h **** 
1035:../system/include/cmsis/stm32l4xx/core_cm4.h **** 
1036:../system/include/cmsis/stm32l4xx/core_cm4.h **** /**
1037:../system/include/cmsis/stm32l4xx/core_cm4.h ****   \ingroup  CMSIS_core_register
1038:../system/include/cmsis/stm32l4xx/core_cm4.h ****   \defgroup CMSIS_TPI     Trace Port Interface (TPI)
1039:../system/include/cmsis/stm32l4xx/core_cm4.h ****   \brief    Type definitions for the Trace Port Interface (TPI)
1040:../system/include/cmsis/stm32l4xx/core_cm4.h ****   @{
1041:../system/include/cmsis/stm32l4xx/core_cm4.h ****  */
1042:../system/include/cmsis/stm32l4xx/core_cm4.h **** 
1043:../system/include/cmsis/stm32l4xx/core_cm4.h **** /**
1044:../system/include/cmsis/stm32l4xx/core_cm4.h ****   \brief  Structure type to access the Trace Port Interface Register (TPI).
1045:../system/include/cmsis/stm32l4xx/core_cm4.h ****  */
1046:../system/include/cmsis/stm32l4xx/core_cm4.h **** typedef struct
1047:../system/include/cmsis/stm32l4xx/core_cm4.h **** {
1048:../system/include/cmsis/stm32l4xx/core_cm4.h ****   __IM  uint32_t SSPSR;                  /*!< Offset: 0x000 (R/ )  Supported Parallel Port Size Reg
1049:../system/include/cmsis/stm32l4xx/core_cm4.h ****   __IOM uint32_t CSPSR;                  /*!< Offset: 0x004 (R/W)  Current Parallel Port Size Regis
1050:../system/include/cmsis/stm32l4xx/core_cm4.h ****         uint32_t RESERVED0[2U];
1051:../system/include/cmsis/stm32l4xx/core_cm4.h ****   __IOM uint32_t ACPR;                   /*!< Offset: 0x010 (R/W)  Asynchronous Clock Prescaler Reg
1052:../system/include/cmsis/stm32l4xx/core_cm4.h ****         uint32_t RESERVED1[55U];
1053:../system/include/cmsis/stm32l4xx/core_cm4.h ****   __IOM uint32_t SPPR;                   /*!< Offset: 0x0F0 (R/W)  Selected Pin Protocol Register *
1054:../system/include/cmsis/stm32l4xx/core_cm4.h ****         uint32_t RESERVED2[131U];
1055:../system/include/cmsis/stm32l4xx/core_cm4.h ****   __IM  uint32_t FFSR;                   /*!< Offset: 0x300 (R/ )  Formatter and Flush Status Regis
1056:../system/include/cmsis/stm32l4xx/core_cm4.h ****   __IOM uint32_t FFCR;                   /*!< Offset: 0x304 (R/W)  Formatter and Flush Control Regi
1057:../system/include/cmsis/stm32l4xx/core_cm4.h ****   __IM  uint32_t FSCR;                   /*!< Offset: 0x308 (R/ )  Formatter Synchronization Counte
1058:../system/include/cmsis/stm32l4xx/core_cm4.h ****         uint32_t RESERVED3[759U];
1059:../system/include/cmsis/stm32l4xx/core_cm4.h ****   __IM  uint32_t TRIGGER;                /*!< Offset: 0xEE8 (R/ )  TRIGGER Register */
1060:../system/include/cmsis/stm32l4xx/core_cm4.h ****   __IM  uint32_t FIFO0;                  /*!< Offset: 0xEEC (R/ )  Integration ETM Data */
1061:../system/include/cmsis/stm32l4xx/core_cm4.h ****   __IM  uint32_t ITATBCTR2;              /*!< Offset: 0xEF0 (R/ )  ITATBCTR2 */
1062:../system/include/cmsis/stm32l4xx/core_cm4.h ****         uint32_t RESERVED4[1U];
1063:../system/include/cmsis/stm32l4xx/core_cm4.h ****   __IM  uint32_t ITATBCTR0;              /*!< Offset: 0xEF8 (R/ )  ITATBCTR0 */
1064:../system/include/cmsis/stm32l4xx/core_cm4.h ****   __IM  uint32_t FIFO1;                  /*!< Offset: 0xEFC (R/ )  Integration ITM Data */
1065:../system/include/cmsis/stm32l4xx/core_cm4.h ****   __IOM uint32_t ITCTRL;                 /*!< Offset: 0xF00 (R/W)  Integration Mode Control */
1066:../system/include/cmsis/stm32l4xx/core_cm4.h ****         uint32_t RESERVED5[39U];
1067:../system/include/cmsis/stm32l4xx/core_cm4.h ****   __IOM uint32_t CLAIMSET;               /*!< Offset: 0xFA0 (R/W)  Claim tag set */
1068:../system/include/cmsis/stm32l4xx/core_cm4.h ****   __IOM uint32_t CLAIMCLR;               /*!< Offset: 0xFA4 (R/W)  Claim tag clear */
1069:../system/include/cmsis/stm32l4xx/core_cm4.h ****         uint32_t RESERVED7[8U];
1070:../system/include/cmsis/stm32l4xx/core_cm4.h ****   __IM  uint32_t DEVID;                  /*!< Offset: 0xFC8 (R/ )  TPIU_DEVID */
1071:../system/include/cmsis/stm32l4xx/core_cm4.h ****   __IM  uint32_t DEVTYPE;                /*!< Offset: 0xFCC (R/ )  TPIU_DEVTYPE */
1072:../system/include/cmsis/stm32l4xx/core_cm4.h **** } TPI_Type;
1073:../system/include/cmsis/stm32l4xx/core_cm4.h **** 
1074:../system/include/cmsis/stm32l4xx/core_cm4.h **** /* TPI Asynchronous Clock Prescaler Register Definitions */
1075:../system/include/cmsis/stm32l4xx/core_cm4.h **** #define TPI_ACPR_PRESCALER_Pos              0U                                         /*!< TPI ACP
1076:../system/include/cmsis/stm32l4xx/core_cm4.h **** #define TPI_ACPR_PRESCALER_Msk             (0x1FFFUL /*<< TPI_ACPR_PRESCALER_Pos*/)    /*!< TPI ACP
1077:../system/include/cmsis/stm32l4xx/core_cm4.h **** 
1078:../system/include/cmsis/stm32l4xx/core_cm4.h **** /* TPI Selected Pin Protocol Register Definitions */
1079:../system/include/cmsis/stm32l4xx/core_cm4.h **** #define TPI_SPPR_TXMODE_Pos                 0U                                         /*!< TPI SPP
1080:../system/include/cmsis/stm32l4xx/core_cm4.h **** #define TPI_SPPR_TXMODE_Msk                (0x3UL /*<< TPI_SPPR_TXMODE_Pos*/)          /*!< TPI SPP
1081:../system/include/cmsis/stm32l4xx/core_cm4.h **** 
1082:../system/include/cmsis/stm32l4xx/core_cm4.h **** /* TPI Formatter and Flush Status Register Definitions */
1083:../system/include/cmsis/stm32l4xx/core_cm4.h **** #define TPI_FFSR_FtNonStop_Pos              3U                                         /*!< TPI FFS
1084:../system/include/cmsis/stm32l4xx/core_cm4.h **** #define TPI_FFSR_FtNonStop_Msk             (0x1UL << TPI_FFSR_FtNonStop_Pos)           /*!< TPI FFS
1085:../system/include/cmsis/stm32l4xx/core_cm4.h **** 
1086:../system/include/cmsis/stm32l4xx/core_cm4.h **** #define TPI_FFSR_TCPresent_Pos              2U                                         /*!< TPI FFS
1087:../system/include/cmsis/stm32l4xx/core_cm4.h **** #define TPI_FFSR_TCPresent_Msk             (0x1UL << TPI_FFSR_TCPresent_Pos)           /*!< TPI FFS
1088:../system/include/cmsis/stm32l4xx/core_cm4.h **** 
1089:../system/include/cmsis/stm32l4xx/core_cm4.h **** #define TPI_FFSR_FtStopped_Pos              1U                                         /*!< TPI FFS
1090:../system/include/cmsis/stm32l4xx/core_cm4.h **** #define TPI_FFSR_FtStopped_Msk             (0x1UL << TPI_FFSR_FtStopped_Pos)           /*!< TPI FFS
1091:../system/include/cmsis/stm32l4xx/core_cm4.h **** 
1092:../system/include/cmsis/stm32l4xx/core_cm4.h **** #define TPI_FFSR_FlInProg_Pos               0U                                         /*!< TPI FFS
1093:../system/include/cmsis/stm32l4xx/core_cm4.h **** #define TPI_FFSR_FlInProg_Msk              (0x1UL /*<< TPI_FFSR_FlInProg_Pos*/)        /*!< TPI FFS
1094:../system/include/cmsis/stm32l4xx/core_cm4.h **** 
1095:../system/include/cmsis/stm32l4xx/core_cm4.h **** /* TPI Formatter and Flush Control Register Definitions */
1096:../system/include/cmsis/stm32l4xx/core_cm4.h **** #define TPI_FFCR_TrigIn_Pos                 8U                                         /*!< TPI FFC
1097:../system/include/cmsis/stm32l4xx/core_cm4.h **** #define TPI_FFCR_TrigIn_Msk                (0x1UL << TPI_FFCR_TrigIn_Pos)              /*!< TPI FFC
1098:../system/include/cmsis/stm32l4xx/core_cm4.h **** 
1099:../system/include/cmsis/stm32l4xx/core_cm4.h **** #define TPI_FFCR_EnFCont_Pos                1U                                         /*!< TPI FFC
1100:../system/include/cmsis/stm32l4xx/core_cm4.h **** #define TPI_FFCR_EnFCont_Msk               (0x1UL << TPI_FFCR_EnFCont_Pos)             /*!< TPI FFC
1101:../system/include/cmsis/stm32l4xx/core_cm4.h **** 
1102:../system/include/cmsis/stm32l4xx/core_cm4.h **** /* TPI TRIGGER Register Definitions */
1103:../system/include/cmsis/stm32l4xx/core_cm4.h **** #define TPI_TRIGGER_TRIGGER_Pos             0U                                         /*!< TPI TRI
1104:../system/include/cmsis/stm32l4xx/core_cm4.h **** #define TPI_TRIGGER_TRIGGER_Msk            (0x1UL /*<< TPI_TRIGGER_TRIGGER_Pos*/)      /*!< TPI TRI
1105:../system/include/cmsis/stm32l4xx/core_cm4.h **** 
1106:../system/include/cmsis/stm32l4xx/core_cm4.h **** /* TPI Integration ETM Data Register Definitions (FIFO0) */
1107:../system/include/cmsis/stm32l4xx/core_cm4.h **** #define TPI_FIFO0_ITM_ATVALID_Pos          29U                                         /*!< TPI FIF
1108:../system/include/cmsis/stm32l4xx/core_cm4.h **** #define TPI_FIFO0_ITM_ATVALID_Msk          (0x1UL << TPI_FIFO0_ITM_ATVALID_Pos)        /*!< TPI FIF
1109:../system/include/cmsis/stm32l4xx/core_cm4.h **** 
1110:../system/include/cmsis/stm32l4xx/core_cm4.h **** #define TPI_FIFO0_ITM_bytecount_Pos        27U                                         /*!< TPI FIF
1111:../system/include/cmsis/stm32l4xx/core_cm4.h **** #define TPI_FIFO0_ITM_bytecount_Msk        (0x3UL << TPI_FIFO0_ITM_bytecount_Pos)      /*!< TPI FIF
1112:../system/include/cmsis/stm32l4xx/core_cm4.h **** 
1113:../system/include/cmsis/stm32l4xx/core_cm4.h **** #define TPI_FIFO0_ETM_ATVALID_Pos          26U                                         /*!< TPI FIF
1114:../system/include/cmsis/stm32l4xx/core_cm4.h **** #define TPI_FIFO0_ETM_ATVALID_Msk          (0x1UL << TPI_FIFO0_ETM_ATVALID_Pos)        /*!< TPI FIF
1115:../system/include/cmsis/stm32l4xx/core_cm4.h **** 
1116:../system/include/cmsis/stm32l4xx/core_cm4.h **** #define TPI_FIFO0_ETM_bytecount_Pos        24U                                         /*!< TPI FIF
1117:../system/include/cmsis/stm32l4xx/core_cm4.h **** #define TPI_FIFO0_ETM_bytecount_Msk        (0x3UL << TPI_FIFO0_ETM_bytecount_Pos)      /*!< TPI FIF
1118:../system/include/cmsis/stm32l4xx/core_cm4.h **** 
1119:../system/include/cmsis/stm32l4xx/core_cm4.h **** #define TPI_FIFO0_ETM2_Pos                 16U                                         /*!< TPI FIF
1120:../system/include/cmsis/stm32l4xx/core_cm4.h **** #define TPI_FIFO0_ETM2_Msk                 (0xFFUL << TPI_FIFO0_ETM2_Pos)              /*!< TPI FIF
1121:../system/include/cmsis/stm32l4xx/core_cm4.h **** 
1122:../system/include/cmsis/stm32l4xx/core_cm4.h **** #define TPI_FIFO0_ETM1_Pos                  8U                                         /*!< TPI FIF
1123:../system/include/cmsis/stm32l4xx/core_cm4.h **** #define TPI_FIFO0_ETM1_Msk                 (0xFFUL << TPI_FIFO0_ETM1_Pos)              /*!< TPI FIF
1124:../system/include/cmsis/stm32l4xx/core_cm4.h **** 
1125:../system/include/cmsis/stm32l4xx/core_cm4.h **** #define TPI_FIFO0_ETM0_Pos                  0U                                         /*!< TPI FIF
1126:../system/include/cmsis/stm32l4xx/core_cm4.h **** #define TPI_FIFO0_ETM0_Msk                 (0xFFUL /*<< TPI_FIFO0_ETM0_Pos*/)          /*!< TPI FIF
1127:../system/include/cmsis/stm32l4xx/core_cm4.h **** 
1128:../system/include/cmsis/stm32l4xx/core_cm4.h **** /* TPI ITATBCTR2 Register Definitions */
1129:../system/include/cmsis/stm32l4xx/core_cm4.h **** #define TPI_ITATBCTR2_ATREADY2_Pos          0U                                         /*!< TPI ITA
1130:../system/include/cmsis/stm32l4xx/core_cm4.h **** #define TPI_ITATBCTR2_ATREADY2_Msk         (0x1UL /*<< TPI_ITATBCTR2_ATREADY2_Pos*/)   /*!< TPI ITA
1131:../system/include/cmsis/stm32l4xx/core_cm4.h **** 
1132:../system/include/cmsis/stm32l4xx/core_cm4.h **** #define TPI_ITATBCTR2_ATREADY1_Pos          0U                                         /*!< TPI ITA
1133:../system/include/cmsis/stm32l4xx/core_cm4.h **** #define TPI_ITATBCTR2_ATREADY1_Msk         (0x1UL /*<< TPI_ITATBCTR2_ATREADY1_Pos*/)   /*!< TPI ITA
1134:../system/include/cmsis/stm32l4xx/core_cm4.h **** 
1135:../system/include/cmsis/stm32l4xx/core_cm4.h **** /* TPI Integration ITM Data Register Definitions (FIFO1) */
1136:../system/include/cmsis/stm32l4xx/core_cm4.h **** #define TPI_FIFO1_ITM_ATVALID_Pos          29U                                         /*!< TPI FIF
1137:../system/include/cmsis/stm32l4xx/core_cm4.h **** #define TPI_FIFO1_ITM_ATVALID_Msk          (0x1UL << TPI_FIFO1_ITM_ATVALID_Pos)        /*!< TPI FIF
1138:../system/include/cmsis/stm32l4xx/core_cm4.h **** 
1139:../system/include/cmsis/stm32l4xx/core_cm4.h **** #define TPI_FIFO1_ITM_bytecount_Pos        27U                                         /*!< TPI FIF
1140:../system/include/cmsis/stm32l4xx/core_cm4.h **** #define TPI_FIFO1_ITM_bytecount_Msk        (0x3UL << TPI_FIFO1_ITM_bytecount_Pos)      /*!< TPI FIF
1141:../system/include/cmsis/stm32l4xx/core_cm4.h **** 
1142:../system/include/cmsis/stm32l4xx/core_cm4.h **** #define TPI_FIFO1_ETM_ATVALID_Pos          26U                                         /*!< TPI FIF
1143:../system/include/cmsis/stm32l4xx/core_cm4.h **** #define TPI_FIFO1_ETM_ATVALID_Msk          (0x1UL << TPI_FIFO1_ETM_ATVALID_Pos)        /*!< TPI FIF
1144:../system/include/cmsis/stm32l4xx/core_cm4.h **** 
1145:../system/include/cmsis/stm32l4xx/core_cm4.h **** #define TPI_FIFO1_ETM_bytecount_Pos        24U                                         /*!< TPI FIF
1146:../system/include/cmsis/stm32l4xx/core_cm4.h **** #define TPI_FIFO1_ETM_bytecount_Msk        (0x3UL << TPI_FIFO1_ETM_bytecount_Pos)      /*!< TPI FIF
1147:../system/include/cmsis/stm32l4xx/core_cm4.h **** 
1148:../system/include/cmsis/stm32l4xx/core_cm4.h **** #define TPI_FIFO1_ITM2_Pos                 16U                                         /*!< TPI FIF
1149:../system/include/cmsis/stm32l4xx/core_cm4.h **** #define TPI_FIFO1_ITM2_Msk                 (0xFFUL << TPI_FIFO1_ITM2_Pos)              /*!< TPI FIF
1150:../system/include/cmsis/stm32l4xx/core_cm4.h **** 
1151:../system/include/cmsis/stm32l4xx/core_cm4.h **** #define TPI_FIFO1_ITM1_Pos                  8U                                         /*!< TPI FIF
1152:../system/include/cmsis/stm32l4xx/core_cm4.h **** #define TPI_FIFO1_ITM1_Msk                 (0xFFUL << TPI_FIFO1_ITM1_Pos)              /*!< TPI FIF
1153:../system/include/cmsis/stm32l4xx/core_cm4.h **** 
1154:../system/include/cmsis/stm32l4xx/core_cm4.h **** #define TPI_FIFO1_ITM0_Pos                  0U                                         /*!< TPI FIF
1155:../system/include/cmsis/stm32l4xx/core_cm4.h **** #define TPI_FIFO1_ITM0_Msk                 (0xFFUL /*<< TPI_FIFO1_ITM0_Pos*/)          /*!< TPI FIF
1156:../system/include/cmsis/stm32l4xx/core_cm4.h **** 
1157:../system/include/cmsis/stm32l4xx/core_cm4.h **** /* TPI ITATBCTR0 Register Definitions */
1158:../system/include/cmsis/stm32l4xx/core_cm4.h **** #define TPI_ITATBCTR0_ATREADY2_Pos          0U                                         /*!< TPI ITA
1159:../system/include/cmsis/stm32l4xx/core_cm4.h **** #define TPI_ITATBCTR0_ATREADY2_Msk         (0x1UL /*<< TPI_ITATBCTR0_ATREADY2_Pos*/)   /*!< TPI ITA
1160:../system/include/cmsis/stm32l4xx/core_cm4.h **** 
1161:../system/include/cmsis/stm32l4xx/core_cm4.h **** #define TPI_ITATBCTR0_ATREADY1_Pos          0U                                         /*!< TPI ITA
1162:../system/include/cmsis/stm32l4xx/core_cm4.h **** #define TPI_ITATBCTR0_ATREADY1_Msk         (0x1UL /*<< TPI_ITATBCTR0_ATREADY1_Pos*/)   /*!< TPI ITA
1163:../system/include/cmsis/stm32l4xx/core_cm4.h **** 
1164:../system/include/cmsis/stm32l4xx/core_cm4.h **** /* TPI Integration Mode Control Register Definitions */
1165:../system/include/cmsis/stm32l4xx/core_cm4.h **** #define TPI_ITCTRL_Mode_Pos                 0U                                         /*!< TPI ITC
1166:../system/include/cmsis/stm32l4xx/core_cm4.h **** #define TPI_ITCTRL_Mode_Msk                (0x3UL /*<< TPI_ITCTRL_Mode_Pos*/)          /*!< TPI ITC
1167:../system/include/cmsis/stm32l4xx/core_cm4.h **** 
1168:../system/include/cmsis/stm32l4xx/core_cm4.h **** /* TPI DEVID Register Definitions */
1169:../system/include/cmsis/stm32l4xx/core_cm4.h **** #define TPI_DEVID_NRZVALID_Pos             11U                                         /*!< TPI DEV
1170:../system/include/cmsis/stm32l4xx/core_cm4.h **** #define TPI_DEVID_NRZVALID_Msk             (0x1UL << TPI_DEVID_NRZVALID_Pos)           /*!< TPI DEV
1171:../system/include/cmsis/stm32l4xx/core_cm4.h **** 
1172:../system/include/cmsis/stm32l4xx/core_cm4.h **** #define TPI_DEVID_MANCVALID_Pos            10U                                         /*!< TPI DEV
1173:../system/include/cmsis/stm32l4xx/core_cm4.h **** #define TPI_DEVID_MANCVALID_Msk            (0x1UL << TPI_DEVID_MANCVALID_Pos)          /*!< TPI DEV
1174:../system/include/cmsis/stm32l4xx/core_cm4.h **** 
1175:../system/include/cmsis/stm32l4xx/core_cm4.h **** #define TPI_DEVID_PTINVALID_Pos             9U                                         /*!< TPI DEV
1176:../system/include/cmsis/stm32l4xx/core_cm4.h **** #define TPI_DEVID_PTINVALID_Msk            (0x1UL << TPI_DEVID_PTINVALID_Pos)          /*!< TPI DEV
1177:../system/include/cmsis/stm32l4xx/core_cm4.h **** 
1178:../system/include/cmsis/stm32l4xx/core_cm4.h **** #define TPI_DEVID_MinBufSz_Pos              6U                                         /*!< TPI DEV
1179:../system/include/cmsis/stm32l4xx/core_cm4.h **** #define TPI_DEVID_MinBufSz_Msk             (0x7UL << TPI_DEVID_MinBufSz_Pos)           /*!< TPI DEV
1180:../system/include/cmsis/stm32l4xx/core_cm4.h **** 
1181:../system/include/cmsis/stm32l4xx/core_cm4.h **** #define TPI_DEVID_AsynClkIn_Pos             5U                                         /*!< TPI DEV
1182:../system/include/cmsis/stm32l4xx/core_cm4.h **** #define TPI_DEVID_AsynClkIn_Msk            (0x1UL << TPI_DEVID_AsynClkIn_Pos)          /*!< TPI DEV
1183:../system/include/cmsis/stm32l4xx/core_cm4.h **** 
1184:../system/include/cmsis/stm32l4xx/core_cm4.h **** #define TPI_DEVID_NrTraceInput_Pos          0U                                         /*!< TPI DEV
1185:../system/include/cmsis/stm32l4xx/core_cm4.h **** #define TPI_DEVID_NrTraceInput_Msk         (0x1FUL /*<< TPI_DEVID_NrTraceInput_Pos*/)  /*!< TPI DEV
1186:../system/include/cmsis/stm32l4xx/core_cm4.h **** 
1187:../system/include/cmsis/stm32l4xx/core_cm4.h **** /* TPI DEVTYPE Register Definitions */
1188:../system/include/cmsis/stm32l4xx/core_cm4.h **** #define TPI_DEVTYPE_SubType_Pos             4U                                         /*!< TPI DEV
1189:../system/include/cmsis/stm32l4xx/core_cm4.h **** #define TPI_DEVTYPE_SubType_Msk            (0xFUL /*<< TPI_DEVTYPE_SubType_Pos*/)      /*!< TPI DEV
1190:../system/include/cmsis/stm32l4xx/core_cm4.h **** 
1191:../system/include/cmsis/stm32l4xx/core_cm4.h **** #define TPI_DEVTYPE_MajorType_Pos           0U                                         /*!< TPI DEV
1192:../system/include/cmsis/stm32l4xx/core_cm4.h **** #define TPI_DEVTYPE_MajorType_Msk          (0xFUL << TPI_DEVTYPE_MajorType_Pos)        /*!< TPI DEV
1193:../system/include/cmsis/stm32l4xx/core_cm4.h **** 
1194:../system/include/cmsis/stm32l4xx/core_cm4.h **** /*@}*/ /* end of group CMSIS_TPI */
1195:../system/include/cmsis/stm32l4xx/core_cm4.h **** 
1196:../system/include/cmsis/stm32l4xx/core_cm4.h **** 
1197:../system/include/cmsis/stm32l4xx/core_cm4.h **** #if defined (__MPU_PRESENT) && (__MPU_PRESENT == 1U)
1198:../system/include/cmsis/stm32l4xx/core_cm4.h **** /**
1199:../system/include/cmsis/stm32l4xx/core_cm4.h ****   \ingroup  CMSIS_core_register
1200:../system/include/cmsis/stm32l4xx/core_cm4.h ****   \defgroup CMSIS_MPU     Memory Protection Unit (MPU)
1201:../system/include/cmsis/stm32l4xx/core_cm4.h ****   \brief    Type definitions for the Memory Protection Unit (MPU)
1202:../system/include/cmsis/stm32l4xx/core_cm4.h ****   @{
1203:../system/include/cmsis/stm32l4xx/core_cm4.h ****  */
1204:../system/include/cmsis/stm32l4xx/core_cm4.h **** 
1205:../system/include/cmsis/stm32l4xx/core_cm4.h **** /**
1206:../system/include/cmsis/stm32l4xx/core_cm4.h ****   \brief  Structure type to access the Memory Protection Unit (MPU).
1207:../system/include/cmsis/stm32l4xx/core_cm4.h ****  */
1208:../system/include/cmsis/stm32l4xx/core_cm4.h **** typedef struct
1209:../system/include/cmsis/stm32l4xx/core_cm4.h **** {
1210:../system/include/cmsis/stm32l4xx/core_cm4.h ****   __IM  uint32_t TYPE;                   /*!< Offset: 0x000 (R/ )  MPU Type Register */
1211:../system/include/cmsis/stm32l4xx/core_cm4.h ****   __IOM uint32_t CTRL;                   /*!< Offset: 0x004 (R/W)  MPU Control Register */
1212:../system/include/cmsis/stm32l4xx/core_cm4.h ****   __IOM uint32_t RNR;                    /*!< Offset: 0x008 (R/W)  MPU Region RNRber Register */
1213:../system/include/cmsis/stm32l4xx/core_cm4.h ****   __IOM uint32_t RBAR;                   /*!< Offset: 0x00C (R/W)  MPU Region Base Address Register
1214:../system/include/cmsis/stm32l4xx/core_cm4.h ****   __IOM uint32_t RASR;                   /*!< Offset: 0x010 (R/W)  MPU Region Attribute and Size Re
1215:../system/include/cmsis/stm32l4xx/core_cm4.h ****   __IOM uint32_t RBAR_A1;                /*!< Offset: 0x014 (R/W)  MPU Alias 1 Region Base Address 
1216:../system/include/cmsis/stm32l4xx/core_cm4.h ****   __IOM uint32_t RASR_A1;                /*!< Offset: 0x018 (R/W)  MPU Alias 1 Region Attribute and
1217:../system/include/cmsis/stm32l4xx/core_cm4.h ****   __IOM uint32_t RBAR_A2;                /*!< Offset: 0x01C (R/W)  MPU Alias 2 Region Base Address 
1218:../system/include/cmsis/stm32l4xx/core_cm4.h ****   __IOM uint32_t RASR_A2;                /*!< Offset: 0x020 (R/W)  MPU Alias 2 Region Attribute and
1219:../system/include/cmsis/stm32l4xx/core_cm4.h ****   __IOM uint32_t RBAR_A3;                /*!< Offset: 0x024 (R/W)  MPU Alias 3 Region Base Address 
1220:../system/include/cmsis/stm32l4xx/core_cm4.h ****   __IOM uint32_t RASR_A3;                /*!< Offset: 0x028 (R/W)  MPU Alias 3 Region Attribute and
1221:../system/include/cmsis/stm32l4xx/core_cm4.h **** } MPU_Type;
1222:../system/include/cmsis/stm32l4xx/core_cm4.h **** 
1223:../system/include/cmsis/stm32l4xx/core_cm4.h **** #define MPU_TYPE_RALIASES                  4U
1224:../system/include/cmsis/stm32l4xx/core_cm4.h **** 
1225:../system/include/cmsis/stm32l4xx/core_cm4.h **** /* MPU Type Register Definitions */
1226:../system/include/cmsis/stm32l4xx/core_cm4.h **** #define MPU_TYPE_IREGION_Pos               16U                                            /*!< MPU 
1227:../system/include/cmsis/stm32l4xx/core_cm4.h **** #define MPU_TYPE_IREGION_Msk               (0xFFUL << MPU_TYPE_IREGION_Pos)               /*!< MPU 
1228:../system/include/cmsis/stm32l4xx/core_cm4.h **** 
1229:../system/include/cmsis/stm32l4xx/core_cm4.h **** #define MPU_TYPE_DREGION_Pos                8U                                            /*!< MPU 
1230:../system/include/cmsis/stm32l4xx/core_cm4.h **** #define MPU_TYPE_DREGION_Msk               (0xFFUL << MPU_TYPE_DREGION_Pos)               /*!< MPU 
1231:../system/include/cmsis/stm32l4xx/core_cm4.h **** 
1232:../system/include/cmsis/stm32l4xx/core_cm4.h **** #define MPU_TYPE_SEPARATE_Pos               0U                                            /*!< MPU 
1233:../system/include/cmsis/stm32l4xx/core_cm4.h **** #define MPU_TYPE_SEPARATE_Msk              (1UL /*<< MPU_TYPE_SEPARATE_Pos*/)             /*!< MPU 
1234:../system/include/cmsis/stm32l4xx/core_cm4.h **** 
1235:../system/include/cmsis/stm32l4xx/core_cm4.h **** /* MPU Control Register Definitions */
1236:../system/include/cmsis/stm32l4xx/core_cm4.h **** #define MPU_CTRL_PRIVDEFENA_Pos             2U                                            /*!< MPU 
1237:../system/include/cmsis/stm32l4xx/core_cm4.h **** #define MPU_CTRL_PRIVDEFENA_Msk            (1UL << MPU_CTRL_PRIVDEFENA_Pos)               /*!< MPU 
1238:../system/include/cmsis/stm32l4xx/core_cm4.h **** 
1239:../system/include/cmsis/stm32l4xx/core_cm4.h **** #define MPU_CTRL_HFNMIENA_Pos               1U                                            /*!< MPU 
1240:../system/include/cmsis/stm32l4xx/core_cm4.h **** #define MPU_CTRL_HFNMIENA_Msk              (1UL << MPU_CTRL_HFNMIENA_Pos)                 /*!< MPU 
1241:../system/include/cmsis/stm32l4xx/core_cm4.h **** 
1242:../system/include/cmsis/stm32l4xx/core_cm4.h **** #define MPU_CTRL_ENABLE_Pos                 0U                                            /*!< MPU 
1243:../system/include/cmsis/stm32l4xx/core_cm4.h **** #define MPU_CTRL_ENABLE_Msk                (1UL /*<< MPU_CTRL_ENABLE_Pos*/)               /*!< MPU 
1244:../system/include/cmsis/stm32l4xx/core_cm4.h **** 
1245:../system/include/cmsis/stm32l4xx/core_cm4.h **** /* MPU Region Number Register Definitions */
1246:../system/include/cmsis/stm32l4xx/core_cm4.h **** #define MPU_RNR_REGION_Pos                  0U                                            /*!< MPU 
1247:../system/include/cmsis/stm32l4xx/core_cm4.h **** #define MPU_RNR_REGION_Msk                 (0xFFUL /*<< MPU_RNR_REGION_Pos*/)             /*!< MPU 
1248:../system/include/cmsis/stm32l4xx/core_cm4.h **** 
1249:../system/include/cmsis/stm32l4xx/core_cm4.h **** /* MPU Region Base Address Register Definitions */
1250:../system/include/cmsis/stm32l4xx/core_cm4.h **** #define MPU_RBAR_ADDR_Pos                   5U                                            /*!< MPU 
1251:../system/include/cmsis/stm32l4xx/core_cm4.h **** #define MPU_RBAR_ADDR_Msk                  (0x7FFFFFFUL << MPU_RBAR_ADDR_Pos)             /*!< MPU 
1252:../system/include/cmsis/stm32l4xx/core_cm4.h **** 
1253:../system/include/cmsis/stm32l4xx/core_cm4.h **** #define MPU_RBAR_VALID_Pos                  4U                                            /*!< MPU 
1254:../system/include/cmsis/stm32l4xx/core_cm4.h **** #define MPU_RBAR_VALID_Msk                 (1UL << MPU_RBAR_VALID_Pos)                    /*!< MPU 
1255:../system/include/cmsis/stm32l4xx/core_cm4.h **** 
1256:../system/include/cmsis/stm32l4xx/core_cm4.h **** #define MPU_RBAR_REGION_Pos                 0U                                            /*!< MPU 
1257:../system/include/cmsis/stm32l4xx/core_cm4.h **** #define MPU_RBAR_REGION_Msk                (0xFUL /*<< MPU_RBAR_REGION_Pos*/)             /*!< MPU 
1258:../system/include/cmsis/stm32l4xx/core_cm4.h **** 
1259:../system/include/cmsis/stm32l4xx/core_cm4.h **** /* MPU Region Attribute and Size Register Definitions */
1260:../system/include/cmsis/stm32l4xx/core_cm4.h **** #define MPU_RASR_ATTRS_Pos                 16U                                            /*!< MPU 
1261:../system/include/cmsis/stm32l4xx/core_cm4.h **** #define MPU_RASR_ATTRS_Msk                 (0xFFFFUL << MPU_RASR_ATTRS_Pos)               /*!< MPU 
1262:../system/include/cmsis/stm32l4xx/core_cm4.h **** 
1263:../system/include/cmsis/stm32l4xx/core_cm4.h **** #define MPU_RASR_XN_Pos                    28U                                            /*!< MPU 
1264:../system/include/cmsis/stm32l4xx/core_cm4.h **** #define MPU_RASR_XN_Msk                    (1UL << MPU_RASR_XN_Pos)                       /*!< MPU 
1265:../system/include/cmsis/stm32l4xx/core_cm4.h **** 
1266:../system/include/cmsis/stm32l4xx/core_cm4.h **** #define MPU_RASR_AP_Pos                    24U                                            /*!< MPU 
1267:../system/include/cmsis/stm32l4xx/core_cm4.h **** #define MPU_RASR_AP_Msk                    (0x7UL << MPU_RASR_AP_Pos)                     /*!< MPU 
1268:../system/include/cmsis/stm32l4xx/core_cm4.h **** 
1269:../system/include/cmsis/stm32l4xx/core_cm4.h **** #define MPU_RASR_TEX_Pos                   19U                                            /*!< MPU 
1270:../system/include/cmsis/stm32l4xx/core_cm4.h **** #define MPU_RASR_TEX_Msk                   (0x7UL << MPU_RASR_TEX_Pos)                    /*!< MPU 
1271:../system/include/cmsis/stm32l4xx/core_cm4.h **** 
1272:../system/include/cmsis/stm32l4xx/core_cm4.h **** #define MPU_RASR_S_Pos                     18U                                            /*!< MPU 
1273:../system/include/cmsis/stm32l4xx/core_cm4.h **** #define MPU_RASR_S_Msk                     (1UL << MPU_RASR_S_Pos)                        /*!< MPU 
1274:../system/include/cmsis/stm32l4xx/core_cm4.h **** 
1275:../system/include/cmsis/stm32l4xx/core_cm4.h **** #define MPU_RASR_C_Pos                     17U                                            /*!< MPU 
1276:../system/include/cmsis/stm32l4xx/core_cm4.h **** #define MPU_RASR_C_Msk                     (1UL << MPU_RASR_C_Pos)                        /*!< MPU 
1277:../system/include/cmsis/stm32l4xx/core_cm4.h **** 
1278:../system/include/cmsis/stm32l4xx/core_cm4.h **** #define MPU_RASR_B_Pos                     16U                                            /*!< MPU 
1279:../system/include/cmsis/stm32l4xx/core_cm4.h **** #define MPU_RASR_B_Msk                     (1UL << MPU_RASR_B_Pos)                        /*!< MPU 
1280:../system/include/cmsis/stm32l4xx/core_cm4.h **** 
1281:../system/include/cmsis/stm32l4xx/core_cm4.h **** #define MPU_RASR_SRD_Pos                    8U                                            /*!< MPU 
1282:../system/include/cmsis/stm32l4xx/core_cm4.h **** #define MPU_RASR_SRD_Msk                   (0xFFUL << MPU_RASR_SRD_Pos)                   /*!< MPU 
1283:../system/include/cmsis/stm32l4xx/core_cm4.h **** 
1284:../system/include/cmsis/stm32l4xx/core_cm4.h **** #define MPU_RASR_SIZE_Pos                   1U                                            /*!< MPU 
1285:../system/include/cmsis/stm32l4xx/core_cm4.h **** #define MPU_RASR_SIZE_Msk                  (0x1FUL << MPU_RASR_SIZE_Pos)                  /*!< MPU 
1286:../system/include/cmsis/stm32l4xx/core_cm4.h **** 
1287:../system/include/cmsis/stm32l4xx/core_cm4.h **** #define MPU_RASR_ENABLE_Pos                 0U                                            /*!< MPU 
1288:../system/include/cmsis/stm32l4xx/core_cm4.h **** #define MPU_RASR_ENABLE_Msk                (1UL /*<< MPU_RASR_ENABLE_Pos*/)               /*!< MPU 
1289:../system/include/cmsis/stm32l4xx/core_cm4.h **** 
1290:../system/include/cmsis/stm32l4xx/core_cm4.h **** /*@} end of group CMSIS_MPU */
1291:../system/include/cmsis/stm32l4xx/core_cm4.h **** #endif /* defined (__MPU_PRESENT) && (__MPU_PRESENT == 1U) */
1292:../system/include/cmsis/stm32l4xx/core_cm4.h **** 
1293:../system/include/cmsis/stm32l4xx/core_cm4.h **** 
1294:../system/include/cmsis/stm32l4xx/core_cm4.h **** /**
1295:../system/include/cmsis/stm32l4xx/core_cm4.h ****   \ingroup  CMSIS_core_register
1296:../system/include/cmsis/stm32l4xx/core_cm4.h ****   \defgroup CMSIS_FPU     Floating Point Unit (FPU)
1297:../system/include/cmsis/stm32l4xx/core_cm4.h ****   \brief    Type definitions for the Floating Point Unit (FPU)
1298:../system/include/cmsis/stm32l4xx/core_cm4.h ****   @{
1299:../system/include/cmsis/stm32l4xx/core_cm4.h ****  */
1300:../system/include/cmsis/stm32l4xx/core_cm4.h **** 
1301:../system/include/cmsis/stm32l4xx/core_cm4.h **** /**
1302:../system/include/cmsis/stm32l4xx/core_cm4.h ****   \brief  Structure type to access the Floating Point Unit (FPU).
1303:../system/include/cmsis/stm32l4xx/core_cm4.h ****  */
1304:../system/include/cmsis/stm32l4xx/core_cm4.h **** typedef struct
1305:../system/include/cmsis/stm32l4xx/core_cm4.h **** {
1306:../system/include/cmsis/stm32l4xx/core_cm4.h ****         uint32_t RESERVED0[1U];
1307:../system/include/cmsis/stm32l4xx/core_cm4.h ****   __IOM uint32_t FPCCR;                  /*!< Offset: 0x004 (R/W)  Floating-Point Context Control R
1308:../system/include/cmsis/stm32l4xx/core_cm4.h ****   __IOM uint32_t FPCAR;                  /*!< Offset: 0x008 (R/W)  Floating-Point Context Address R
1309:../system/include/cmsis/stm32l4xx/core_cm4.h ****   __IOM uint32_t FPDSCR;                 /*!< Offset: 0x00C (R/W)  Floating-Point Default Status Co
1310:../system/include/cmsis/stm32l4xx/core_cm4.h ****   __IM  uint32_t MVFR0;                  /*!< Offset: 0x010 (R/ )  Media and FP Feature Register 0 
1311:../system/include/cmsis/stm32l4xx/core_cm4.h ****   __IM  uint32_t MVFR1;                  /*!< Offset: 0x014 (R/ )  Media and FP Feature Register 1 
1312:../system/include/cmsis/stm32l4xx/core_cm4.h ****   __IM  uint32_t MVFR2;                  /*!< Offset: 0x018 (R/ )  Media and FP Feature Register 2 
1313:../system/include/cmsis/stm32l4xx/core_cm4.h **** } FPU_Type;
1314:../system/include/cmsis/stm32l4xx/core_cm4.h **** 
1315:../system/include/cmsis/stm32l4xx/core_cm4.h **** /* Floating-Point Context Control Register Definitions */
1316:../system/include/cmsis/stm32l4xx/core_cm4.h **** #define FPU_FPCCR_ASPEN_Pos                31U                                            /*!< FPCC
1317:../system/include/cmsis/stm32l4xx/core_cm4.h **** #define FPU_FPCCR_ASPEN_Msk                (1UL << FPU_FPCCR_ASPEN_Pos)                   /*!< FPCC
1318:../system/include/cmsis/stm32l4xx/core_cm4.h **** 
1319:../system/include/cmsis/stm32l4xx/core_cm4.h **** #define FPU_FPCCR_LSPEN_Pos                30U                                            /*!< FPCC
1320:../system/include/cmsis/stm32l4xx/core_cm4.h **** #define FPU_FPCCR_LSPEN_Msk                (1UL << FPU_FPCCR_LSPEN_Pos)                   /*!< FPCC
1321:../system/include/cmsis/stm32l4xx/core_cm4.h **** 
1322:../system/include/cmsis/stm32l4xx/core_cm4.h **** #define FPU_FPCCR_MONRDY_Pos                8U                                            /*!< FPCC
1323:../system/include/cmsis/stm32l4xx/core_cm4.h **** #define FPU_FPCCR_MONRDY_Msk               (1UL << FPU_FPCCR_MONRDY_Pos)                  /*!< FPCC
1324:../system/include/cmsis/stm32l4xx/core_cm4.h **** 
1325:../system/include/cmsis/stm32l4xx/core_cm4.h **** #define FPU_FPCCR_BFRDY_Pos                 6U                                            /*!< FPCC
1326:../system/include/cmsis/stm32l4xx/core_cm4.h **** #define FPU_FPCCR_BFRDY_Msk                (1UL << FPU_FPCCR_BFRDY_Pos)                   /*!< FPCC
1327:../system/include/cmsis/stm32l4xx/core_cm4.h **** 
1328:../system/include/cmsis/stm32l4xx/core_cm4.h **** #define FPU_FPCCR_MMRDY_Pos                 5U                                            /*!< FPCC
1329:../system/include/cmsis/stm32l4xx/core_cm4.h **** #define FPU_FPCCR_MMRDY_Msk                (1UL << FPU_FPCCR_MMRDY_Pos)                   /*!< FPCC
1330:../system/include/cmsis/stm32l4xx/core_cm4.h **** 
1331:../system/include/cmsis/stm32l4xx/core_cm4.h **** #define FPU_FPCCR_HFRDY_Pos                 4U                                            /*!< FPCC
1332:../system/include/cmsis/stm32l4xx/core_cm4.h **** #define FPU_FPCCR_HFRDY_Msk                (1UL << FPU_FPCCR_HFRDY_Pos)                   /*!< FPCC
1333:../system/include/cmsis/stm32l4xx/core_cm4.h **** 
1334:../system/include/cmsis/stm32l4xx/core_cm4.h **** #define FPU_FPCCR_THREAD_Pos                3U                                            /*!< FPCC
1335:../system/include/cmsis/stm32l4xx/core_cm4.h **** #define FPU_FPCCR_THREAD_Msk               (1UL << FPU_FPCCR_THREAD_Pos)                  /*!< FPCC
1336:../system/include/cmsis/stm32l4xx/core_cm4.h **** 
1337:../system/include/cmsis/stm32l4xx/core_cm4.h **** #define FPU_FPCCR_USER_Pos                  1U                                            /*!< FPCC
1338:../system/include/cmsis/stm32l4xx/core_cm4.h **** #define FPU_FPCCR_USER_Msk                 (1UL << FPU_FPCCR_USER_Pos)                    /*!< FPCC
1339:../system/include/cmsis/stm32l4xx/core_cm4.h **** 
1340:../system/include/cmsis/stm32l4xx/core_cm4.h **** #define FPU_FPCCR_LSPACT_Pos                0U                                            /*!< FPCC
1341:../system/include/cmsis/stm32l4xx/core_cm4.h **** #define FPU_FPCCR_LSPACT_Msk               (1UL /*<< FPU_FPCCR_LSPACT_Pos*/)              /*!< FPCC
1342:../system/include/cmsis/stm32l4xx/core_cm4.h **** 
1343:../system/include/cmsis/stm32l4xx/core_cm4.h **** /* Floating-Point Context Address Register Definitions */
1344:../system/include/cmsis/stm32l4xx/core_cm4.h **** #define FPU_FPCAR_ADDRESS_Pos               3U                                            /*!< FPCA
1345:../system/include/cmsis/stm32l4xx/core_cm4.h **** #define FPU_FPCAR_ADDRESS_Msk              (0x1FFFFFFFUL << FPU_FPCAR_ADDRESS_Pos)        /*!< FPCA
1346:../system/include/cmsis/stm32l4xx/core_cm4.h **** 
1347:../system/include/cmsis/stm32l4xx/core_cm4.h **** /* Floating-Point Default Status Control Register Definitions */
1348:../system/include/cmsis/stm32l4xx/core_cm4.h **** #define FPU_FPDSCR_AHP_Pos                 26U                                            /*!< FPDS
1349:../system/include/cmsis/stm32l4xx/core_cm4.h **** #define FPU_FPDSCR_AHP_Msk                 (1UL << FPU_FPDSCR_AHP_Pos)                    /*!< FPDS
1350:../system/include/cmsis/stm32l4xx/core_cm4.h **** 
1351:../system/include/cmsis/stm32l4xx/core_cm4.h **** #define FPU_FPDSCR_DN_Pos                  25U                                            /*!< FPDS
1352:../system/include/cmsis/stm32l4xx/core_cm4.h **** #define FPU_FPDSCR_DN_Msk                  (1UL << FPU_FPDSCR_DN_Pos)                     /*!< FPDS
1353:../system/include/cmsis/stm32l4xx/core_cm4.h **** 
1354:../system/include/cmsis/stm32l4xx/core_cm4.h **** #define FPU_FPDSCR_FZ_Pos                  24U                                            /*!< FPDS
1355:../system/include/cmsis/stm32l4xx/core_cm4.h **** #define FPU_FPDSCR_FZ_Msk                  (1UL << FPU_FPDSCR_FZ_Pos)                     /*!< FPDS
1356:../system/include/cmsis/stm32l4xx/core_cm4.h **** 
1357:../system/include/cmsis/stm32l4xx/core_cm4.h **** #define FPU_FPDSCR_RMode_Pos               22U                                            /*!< FPDS
1358:../system/include/cmsis/stm32l4xx/core_cm4.h **** #define FPU_FPDSCR_RMode_Msk               (3UL << FPU_FPDSCR_RMode_Pos)                  /*!< FPDS
1359:../system/include/cmsis/stm32l4xx/core_cm4.h **** 
1360:../system/include/cmsis/stm32l4xx/core_cm4.h **** /* Media and FP Feature Register 0 Definitions */
1361:../system/include/cmsis/stm32l4xx/core_cm4.h **** #define FPU_MVFR0_FP_rounding_modes_Pos    28U                                            /*!< MVFR
1362:../system/include/cmsis/stm32l4xx/core_cm4.h **** #define FPU_MVFR0_FP_rounding_modes_Msk    (0xFUL << FPU_MVFR0_FP_rounding_modes_Pos)     /*!< MVFR
1363:../system/include/cmsis/stm32l4xx/core_cm4.h **** 
1364:../system/include/cmsis/stm32l4xx/core_cm4.h **** #define FPU_MVFR0_Short_vectors_Pos        24U                                            /*!< MVFR
1365:../system/include/cmsis/stm32l4xx/core_cm4.h **** #define FPU_MVFR0_Short_vectors_Msk        (0xFUL << FPU_MVFR0_Short_vectors_Pos)         /*!< MVFR
1366:../system/include/cmsis/stm32l4xx/core_cm4.h **** 
1367:../system/include/cmsis/stm32l4xx/core_cm4.h **** #define FPU_MVFR0_Square_root_Pos          20U                                            /*!< MVFR
1368:../system/include/cmsis/stm32l4xx/core_cm4.h **** #define FPU_MVFR0_Square_root_Msk          (0xFUL << FPU_MVFR0_Square_root_Pos)           /*!< MVFR
1369:../system/include/cmsis/stm32l4xx/core_cm4.h **** 
1370:../system/include/cmsis/stm32l4xx/core_cm4.h **** #define FPU_MVFR0_Divide_Pos               16U                                            /*!< MVFR
1371:../system/include/cmsis/stm32l4xx/core_cm4.h **** #define FPU_MVFR0_Divide_Msk               (0xFUL << FPU_MVFR0_Divide_Pos)                /*!< MVFR
1372:../system/include/cmsis/stm32l4xx/core_cm4.h **** 
1373:../system/include/cmsis/stm32l4xx/core_cm4.h **** #define FPU_MVFR0_FP_excep_trapping_Pos    12U                                            /*!< MVFR
1374:../system/include/cmsis/stm32l4xx/core_cm4.h **** #define FPU_MVFR0_FP_excep_trapping_Msk    (0xFUL << FPU_MVFR0_FP_excep_trapping_Pos)     /*!< MVFR
1375:../system/include/cmsis/stm32l4xx/core_cm4.h **** 
1376:../system/include/cmsis/stm32l4xx/core_cm4.h **** #define FPU_MVFR0_Double_precision_Pos      8U                                            /*!< MVFR
1377:../system/include/cmsis/stm32l4xx/core_cm4.h **** #define FPU_MVFR0_Double_precision_Msk     (0xFUL << FPU_MVFR0_Double_precision_Pos)      /*!< MVFR
1378:../system/include/cmsis/stm32l4xx/core_cm4.h **** 
1379:../system/include/cmsis/stm32l4xx/core_cm4.h **** #define FPU_MVFR0_Single_precision_Pos      4U                                            /*!< MVFR
1380:../system/include/cmsis/stm32l4xx/core_cm4.h **** #define FPU_MVFR0_Single_precision_Msk     (0xFUL << FPU_MVFR0_Single_precision_Pos)      /*!< MVFR
1381:../system/include/cmsis/stm32l4xx/core_cm4.h **** 
1382:../system/include/cmsis/stm32l4xx/core_cm4.h **** #define FPU_MVFR0_A_SIMD_registers_Pos      0U                                            /*!< MVFR
1383:../system/include/cmsis/stm32l4xx/core_cm4.h **** #define FPU_MVFR0_A_SIMD_registers_Msk     (0xFUL /*<< FPU_MVFR0_A_SIMD_registers_Pos*/)  /*!< MVFR
1384:../system/include/cmsis/stm32l4xx/core_cm4.h **** 
1385:../system/include/cmsis/stm32l4xx/core_cm4.h **** /* Media and FP Feature Register 1 Definitions */
1386:../system/include/cmsis/stm32l4xx/core_cm4.h **** #define FPU_MVFR1_FP_fused_MAC_Pos         28U                                            /*!< MVFR
1387:../system/include/cmsis/stm32l4xx/core_cm4.h **** #define FPU_MVFR1_FP_fused_MAC_Msk         (0xFUL << FPU_MVFR1_FP_fused_MAC_Pos)          /*!< MVFR
1388:../system/include/cmsis/stm32l4xx/core_cm4.h **** 
1389:../system/include/cmsis/stm32l4xx/core_cm4.h **** #define FPU_MVFR1_FP_HPFP_Pos              24U                                            /*!< MVFR
1390:../system/include/cmsis/stm32l4xx/core_cm4.h **** #define FPU_MVFR1_FP_HPFP_Msk              (0xFUL << FPU_MVFR1_FP_HPFP_Pos)               /*!< MVFR
1391:../system/include/cmsis/stm32l4xx/core_cm4.h **** 
1392:../system/include/cmsis/stm32l4xx/core_cm4.h **** #define FPU_MVFR1_D_NaN_mode_Pos            4U                                            /*!< MVFR
1393:../system/include/cmsis/stm32l4xx/core_cm4.h **** #define FPU_MVFR1_D_NaN_mode_Msk           (0xFUL << FPU_MVFR1_D_NaN_mode_Pos)            /*!< MVFR
1394:../system/include/cmsis/stm32l4xx/core_cm4.h **** 
1395:../system/include/cmsis/stm32l4xx/core_cm4.h **** #define FPU_MVFR1_FtZ_mode_Pos              0U                                            /*!< MVFR
1396:../system/include/cmsis/stm32l4xx/core_cm4.h **** #define FPU_MVFR1_FtZ_mode_Msk             (0xFUL /*<< FPU_MVFR1_FtZ_mode_Pos*/)          /*!< MVFR
1397:../system/include/cmsis/stm32l4xx/core_cm4.h **** 
1398:../system/include/cmsis/stm32l4xx/core_cm4.h **** /* Media and FP Feature Register 2 Definitions */
1399:../system/include/cmsis/stm32l4xx/core_cm4.h **** 
1400:../system/include/cmsis/stm32l4xx/core_cm4.h **** #define FPU_MVFR2_VFP_Misc_Pos              4U                                            /*!< MVFR
1401:../system/include/cmsis/stm32l4xx/core_cm4.h **** #define FPU_MVFR2_VFP_Misc_Msk             (0xFUL << FPU_MVFR2_VFP_Misc_Pos)              /*!< MVFR
1402:../system/include/cmsis/stm32l4xx/core_cm4.h **** 
1403:../system/include/cmsis/stm32l4xx/core_cm4.h **** /*@} end of group CMSIS_FPU */
1404:../system/include/cmsis/stm32l4xx/core_cm4.h **** 
1405:../system/include/cmsis/stm32l4xx/core_cm4.h **** 
1406:../system/include/cmsis/stm32l4xx/core_cm4.h **** /**
1407:../system/include/cmsis/stm32l4xx/core_cm4.h ****   \ingroup  CMSIS_core_register
1408:../system/include/cmsis/stm32l4xx/core_cm4.h ****   \defgroup CMSIS_CoreDebug       Core Debug Registers (CoreDebug)
1409:../system/include/cmsis/stm32l4xx/core_cm4.h ****   \brief    Type definitions for the Core Debug Registers
1410:../system/include/cmsis/stm32l4xx/core_cm4.h ****   @{
1411:../system/include/cmsis/stm32l4xx/core_cm4.h ****  */
1412:../system/include/cmsis/stm32l4xx/core_cm4.h **** 
1413:../system/include/cmsis/stm32l4xx/core_cm4.h **** /**
1414:../system/include/cmsis/stm32l4xx/core_cm4.h ****   \brief  Structure type to access the Core Debug Register (CoreDebug).
1415:../system/include/cmsis/stm32l4xx/core_cm4.h ****  */
1416:../system/include/cmsis/stm32l4xx/core_cm4.h **** typedef struct
1417:../system/include/cmsis/stm32l4xx/core_cm4.h **** {
1418:../system/include/cmsis/stm32l4xx/core_cm4.h ****   __IOM uint32_t DHCSR;                  /*!< Offset: 0x000 (R/W)  Debug Halting Control and Status
1419:../system/include/cmsis/stm32l4xx/core_cm4.h ****   __OM  uint32_t DCRSR;                  /*!< Offset: 0x004 ( /W)  Debug Core Register Selector Reg
1420:../system/include/cmsis/stm32l4xx/core_cm4.h ****   __IOM uint32_t DCRDR;                  /*!< Offset: 0x008 (R/W)  Debug Core Register Data Registe
1421:../system/include/cmsis/stm32l4xx/core_cm4.h ****   __IOM uint32_t DEMCR;                  /*!< Offset: 0x00C (R/W)  Debug Exception and Monitor Cont
1422:../system/include/cmsis/stm32l4xx/core_cm4.h **** } CoreDebug_Type;
1423:../system/include/cmsis/stm32l4xx/core_cm4.h **** 
1424:../system/include/cmsis/stm32l4xx/core_cm4.h **** /* Debug Halting Control and Status Register Definitions */
1425:../system/include/cmsis/stm32l4xx/core_cm4.h **** #define CoreDebug_DHCSR_DBGKEY_Pos         16U                                            /*!< Core
1426:../system/include/cmsis/stm32l4xx/core_cm4.h **** #define CoreDebug_DHCSR_DBGKEY_Msk         (0xFFFFUL << CoreDebug_DHCSR_DBGKEY_Pos)       /*!< Core
1427:../system/include/cmsis/stm32l4xx/core_cm4.h **** 
1428:../system/include/cmsis/stm32l4xx/core_cm4.h **** #define CoreDebug_DHCSR_S_RESET_ST_Pos     25U                                            /*!< Core
1429:../system/include/cmsis/stm32l4xx/core_cm4.h **** #define CoreDebug_DHCSR_S_RESET_ST_Msk     (1UL << CoreDebug_DHCSR_S_RESET_ST_Pos)        /*!< Core
1430:../system/include/cmsis/stm32l4xx/core_cm4.h **** 
1431:../system/include/cmsis/stm32l4xx/core_cm4.h **** #define CoreDebug_DHCSR_S_RETIRE_ST_Pos    24U                                            /*!< Core
1432:../system/include/cmsis/stm32l4xx/core_cm4.h **** #define CoreDebug_DHCSR_S_RETIRE_ST_Msk    (1UL << CoreDebug_DHCSR_S_RETIRE_ST_Pos)       /*!< Core
1433:../system/include/cmsis/stm32l4xx/core_cm4.h **** 
1434:../system/include/cmsis/stm32l4xx/core_cm4.h **** #define CoreDebug_DHCSR_S_LOCKUP_Pos       19U                                            /*!< Core
1435:../system/include/cmsis/stm32l4xx/core_cm4.h **** #define CoreDebug_DHCSR_S_LOCKUP_Msk       (1UL << CoreDebug_DHCSR_S_LOCKUP_Pos)          /*!< Core
1436:../system/include/cmsis/stm32l4xx/core_cm4.h **** 
1437:../system/include/cmsis/stm32l4xx/core_cm4.h **** #define CoreDebug_DHCSR_S_SLEEP_Pos        18U                                            /*!< Core
1438:../system/include/cmsis/stm32l4xx/core_cm4.h **** #define CoreDebug_DHCSR_S_SLEEP_Msk        (1UL << CoreDebug_DHCSR_S_SLEEP_Pos)           /*!< Core
1439:../system/include/cmsis/stm32l4xx/core_cm4.h **** 
1440:../system/include/cmsis/stm32l4xx/core_cm4.h **** #define CoreDebug_DHCSR_S_HALT_Pos         17U                                            /*!< Core
1441:../system/include/cmsis/stm32l4xx/core_cm4.h **** #define CoreDebug_DHCSR_S_HALT_Msk         (1UL << CoreDebug_DHCSR_S_HALT_Pos)            /*!< Core
1442:../system/include/cmsis/stm32l4xx/core_cm4.h **** 
1443:../system/include/cmsis/stm32l4xx/core_cm4.h **** #define CoreDebug_DHCSR_S_REGRDY_Pos       16U                                            /*!< Core
1444:../system/include/cmsis/stm32l4xx/core_cm4.h **** #define CoreDebug_DHCSR_S_REGRDY_Msk       (1UL << CoreDebug_DHCSR_S_REGRDY_Pos)          /*!< Core
1445:../system/include/cmsis/stm32l4xx/core_cm4.h **** 
1446:../system/include/cmsis/stm32l4xx/core_cm4.h **** #define CoreDebug_DHCSR_C_SNAPSTALL_Pos     5U                                            /*!< Core
1447:../system/include/cmsis/stm32l4xx/core_cm4.h **** #define CoreDebug_DHCSR_C_SNAPSTALL_Msk    (1UL << CoreDebug_DHCSR_C_SNAPSTALL_Pos)       /*!< Core
1448:../system/include/cmsis/stm32l4xx/core_cm4.h **** 
1449:../system/include/cmsis/stm32l4xx/core_cm4.h **** #define CoreDebug_DHCSR_C_MASKINTS_Pos      3U                                            /*!< Core
1450:../system/include/cmsis/stm32l4xx/core_cm4.h **** #define CoreDebug_DHCSR_C_MASKINTS_Msk     (1UL << CoreDebug_DHCSR_C_MASKINTS_Pos)        /*!< Core
1451:../system/include/cmsis/stm32l4xx/core_cm4.h **** 
1452:../system/include/cmsis/stm32l4xx/core_cm4.h **** #define CoreDebug_DHCSR_C_STEP_Pos          2U                                            /*!< Core
1453:../system/include/cmsis/stm32l4xx/core_cm4.h **** #define CoreDebug_DHCSR_C_STEP_Msk         (1UL << CoreDebug_DHCSR_C_STEP_Pos)            /*!< Core
1454:../system/include/cmsis/stm32l4xx/core_cm4.h **** 
1455:../system/include/cmsis/stm32l4xx/core_cm4.h **** #define CoreDebug_DHCSR_C_HALT_Pos          1U                                            /*!< Core
1456:../system/include/cmsis/stm32l4xx/core_cm4.h **** #define CoreDebug_DHCSR_C_HALT_Msk         (1UL << CoreDebug_DHCSR_C_HALT_Pos)            /*!< Core
1457:../system/include/cmsis/stm32l4xx/core_cm4.h **** 
1458:../system/include/cmsis/stm32l4xx/core_cm4.h **** #define CoreDebug_DHCSR_C_DEBUGEN_Pos       0U                                            /*!< Core
1459:../system/include/cmsis/stm32l4xx/core_cm4.h **** #define CoreDebug_DHCSR_C_DEBUGEN_Msk      (1UL /*<< CoreDebug_DHCSR_C_DEBUGEN_Pos*/)     /*!< Core
1460:../system/include/cmsis/stm32l4xx/core_cm4.h **** 
1461:../system/include/cmsis/stm32l4xx/core_cm4.h **** /* Debug Core Register Selector Register Definitions */
1462:../system/include/cmsis/stm32l4xx/core_cm4.h **** #define CoreDebug_DCRSR_REGWnR_Pos         16U                                            /*!< Core
1463:../system/include/cmsis/stm32l4xx/core_cm4.h **** #define CoreDebug_DCRSR_REGWnR_Msk         (1UL << CoreDebug_DCRSR_REGWnR_Pos)            /*!< Core
1464:../system/include/cmsis/stm32l4xx/core_cm4.h **** 
1465:../system/include/cmsis/stm32l4xx/core_cm4.h **** #define CoreDebug_DCRSR_REGSEL_Pos          0U                                            /*!< Core
1466:../system/include/cmsis/stm32l4xx/core_cm4.h **** #define CoreDebug_DCRSR_REGSEL_Msk         (0x1FUL /*<< CoreDebug_DCRSR_REGSEL_Pos*/)     /*!< Core
1467:../system/include/cmsis/stm32l4xx/core_cm4.h **** 
1468:../system/include/cmsis/stm32l4xx/core_cm4.h **** /* Debug Exception and Monitor Control Register Definitions */
1469:../system/include/cmsis/stm32l4xx/core_cm4.h **** #define CoreDebug_DEMCR_TRCENA_Pos         24U                                            /*!< Core
1470:../system/include/cmsis/stm32l4xx/core_cm4.h **** #define CoreDebug_DEMCR_TRCENA_Msk         (1UL << CoreDebug_DEMCR_TRCENA_Pos)            /*!< Core
1471:../system/include/cmsis/stm32l4xx/core_cm4.h **** 
1472:../system/include/cmsis/stm32l4xx/core_cm4.h **** #define CoreDebug_DEMCR_MON_REQ_Pos        19U                                            /*!< Core
1473:../system/include/cmsis/stm32l4xx/core_cm4.h **** #define CoreDebug_DEMCR_MON_REQ_Msk        (1UL << CoreDebug_DEMCR_MON_REQ_Pos)           /*!< Core
1474:../system/include/cmsis/stm32l4xx/core_cm4.h **** 
1475:../system/include/cmsis/stm32l4xx/core_cm4.h **** #define CoreDebug_DEMCR_MON_STEP_Pos       18U                                            /*!< Core
1476:../system/include/cmsis/stm32l4xx/core_cm4.h **** #define CoreDebug_DEMCR_MON_STEP_Msk       (1UL << CoreDebug_DEMCR_MON_STEP_Pos)          /*!< Core
1477:../system/include/cmsis/stm32l4xx/core_cm4.h **** 
1478:../system/include/cmsis/stm32l4xx/core_cm4.h **** #define CoreDebug_DEMCR_MON_PEND_Pos       17U                                            /*!< Core
1479:../system/include/cmsis/stm32l4xx/core_cm4.h **** #define CoreDebug_DEMCR_MON_PEND_Msk       (1UL << CoreDebug_DEMCR_MON_PEND_Pos)          /*!< Core
1480:../system/include/cmsis/stm32l4xx/core_cm4.h **** 
1481:../system/include/cmsis/stm32l4xx/core_cm4.h **** #define CoreDebug_DEMCR_MON_EN_Pos         16U                                            /*!< Core
1482:../system/include/cmsis/stm32l4xx/core_cm4.h **** #define CoreDebug_DEMCR_MON_EN_Msk         (1UL << CoreDebug_DEMCR_MON_EN_Pos)            /*!< Core
1483:../system/include/cmsis/stm32l4xx/core_cm4.h **** 
1484:../system/include/cmsis/stm32l4xx/core_cm4.h **** #define CoreDebug_DEMCR_VC_HARDERR_Pos     10U                                            /*!< Core
1485:../system/include/cmsis/stm32l4xx/core_cm4.h **** #define CoreDebug_DEMCR_VC_HARDERR_Msk     (1UL << CoreDebug_DEMCR_VC_HARDERR_Pos)        /*!< Core
1486:../system/include/cmsis/stm32l4xx/core_cm4.h **** 
1487:../system/include/cmsis/stm32l4xx/core_cm4.h **** #define CoreDebug_DEMCR_VC_INTERR_Pos       9U                                            /*!< Core
1488:../system/include/cmsis/stm32l4xx/core_cm4.h **** #define CoreDebug_DEMCR_VC_INTERR_Msk      (1UL << CoreDebug_DEMCR_VC_INTERR_Pos)         /*!< Core
1489:../system/include/cmsis/stm32l4xx/core_cm4.h **** 
1490:../system/include/cmsis/stm32l4xx/core_cm4.h **** #define CoreDebug_DEMCR_VC_BUSERR_Pos       8U                                            /*!< Core
1491:../system/include/cmsis/stm32l4xx/core_cm4.h **** #define CoreDebug_DEMCR_VC_BUSERR_Msk      (1UL << CoreDebug_DEMCR_VC_BUSERR_Pos)         /*!< Core
1492:../system/include/cmsis/stm32l4xx/core_cm4.h **** 
1493:../system/include/cmsis/stm32l4xx/core_cm4.h **** #define CoreDebug_DEMCR_VC_STATERR_Pos      7U                                            /*!< Core
1494:../system/include/cmsis/stm32l4xx/core_cm4.h **** #define CoreDebug_DEMCR_VC_STATERR_Msk     (1UL << CoreDebug_DEMCR_VC_STATERR_Pos)        /*!< Core
1495:../system/include/cmsis/stm32l4xx/core_cm4.h **** 
1496:../system/include/cmsis/stm32l4xx/core_cm4.h **** #define CoreDebug_DEMCR_VC_CHKERR_Pos       6U                                            /*!< Core
1497:../system/include/cmsis/stm32l4xx/core_cm4.h **** #define CoreDebug_DEMCR_VC_CHKERR_Msk      (1UL << CoreDebug_DEMCR_VC_CHKERR_Pos)         /*!< Core
1498:../system/include/cmsis/stm32l4xx/core_cm4.h **** 
1499:../system/include/cmsis/stm32l4xx/core_cm4.h **** #define CoreDebug_DEMCR_VC_NOCPERR_Pos      5U                                            /*!< Core
1500:../system/include/cmsis/stm32l4xx/core_cm4.h **** #define CoreDebug_DEMCR_VC_NOCPERR_Msk     (1UL << CoreDebug_DEMCR_VC_NOCPERR_Pos)        /*!< Core
1501:../system/include/cmsis/stm32l4xx/core_cm4.h **** 
1502:../system/include/cmsis/stm32l4xx/core_cm4.h **** #define CoreDebug_DEMCR_VC_MMERR_Pos        4U                                            /*!< Core
1503:../system/include/cmsis/stm32l4xx/core_cm4.h **** #define CoreDebug_DEMCR_VC_MMERR_Msk       (1UL << CoreDebug_DEMCR_VC_MMERR_Pos)          /*!< Core
1504:../system/include/cmsis/stm32l4xx/core_cm4.h **** 
1505:../system/include/cmsis/stm32l4xx/core_cm4.h **** #define CoreDebug_DEMCR_VC_CORERESET_Pos    0U                                            /*!< Core
1506:../system/include/cmsis/stm32l4xx/core_cm4.h **** #define CoreDebug_DEMCR_VC_CORERESET_Msk   (1UL /*<< CoreDebug_DEMCR_VC_CORERESET_Pos*/)  /*!< Core
1507:../system/include/cmsis/stm32l4xx/core_cm4.h **** 
1508:../system/include/cmsis/stm32l4xx/core_cm4.h **** /*@} end of group CMSIS_CoreDebug */
1509:../system/include/cmsis/stm32l4xx/core_cm4.h **** 
1510:../system/include/cmsis/stm32l4xx/core_cm4.h **** 
1511:../system/include/cmsis/stm32l4xx/core_cm4.h **** /**
1512:../system/include/cmsis/stm32l4xx/core_cm4.h ****   \ingroup    CMSIS_core_register
1513:../system/include/cmsis/stm32l4xx/core_cm4.h ****   \defgroup   CMSIS_core_bitfield     Core register bit field macros
1514:../system/include/cmsis/stm32l4xx/core_cm4.h ****   \brief      Macros for use with bit field definitions (xxx_Pos, xxx_Msk).
1515:../system/include/cmsis/stm32l4xx/core_cm4.h ****   @{
1516:../system/include/cmsis/stm32l4xx/core_cm4.h ****  */
1517:../system/include/cmsis/stm32l4xx/core_cm4.h **** 
1518:../system/include/cmsis/stm32l4xx/core_cm4.h **** /**
1519:../system/include/cmsis/stm32l4xx/core_cm4.h ****   \brief   Mask and shift a bit field value for use in a register bit range.
1520:../system/include/cmsis/stm32l4xx/core_cm4.h ****   \param[in] field  Name of the register bit field.
1521:../system/include/cmsis/stm32l4xx/core_cm4.h ****   \param[in] value  Value of the bit field. This parameter is interpreted as an uint32_t type.
1522:../system/include/cmsis/stm32l4xx/core_cm4.h ****   \return           Masked and shifted value.
1523:../system/include/cmsis/stm32l4xx/core_cm4.h **** */
1524:../system/include/cmsis/stm32l4xx/core_cm4.h **** #define _VAL2FLD(field, value)    (((uint32_t)(value) << field ## _Pos) & field ## _Msk)
1525:../system/include/cmsis/stm32l4xx/core_cm4.h **** 
1526:../system/include/cmsis/stm32l4xx/core_cm4.h **** /**
1527:../system/include/cmsis/stm32l4xx/core_cm4.h ****   \brief     Mask and shift a register value to extract a bit filed value.
1528:../system/include/cmsis/stm32l4xx/core_cm4.h ****   \param[in] field  Name of the register bit field.
1529:../system/include/cmsis/stm32l4xx/core_cm4.h ****   \param[in] value  Value of register. This parameter is interpreted as an uint32_t type.
1530:../system/include/cmsis/stm32l4xx/core_cm4.h ****   \return           Masked and shifted bit field value.
1531:../system/include/cmsis/stm32l4xx/core_cm4.h **** */
1532:../system/include/cmsis/stm32l4xx/core_cm4.h **** #define _FLD2VAL(field, value)    (((uint32_t)(value) & field ## _Msk) >> field ## _Pos)
1533:../system/include/cmsis/stm32l4xx/core_cm4.h **** 
1534:../system/include/cmsis/stm32l4xx/core_cm4.h **** /*@} end of group CMSIS_core_bitfield */
1535:../system/include/cmsis/stm32l4xx/core_cm4.h **** 
1536:../system/include/cmsis/stm32l4xx/core_cm4.h **** 
1537:../system/include/cmsis/stm32l4xx/core_cm4.h **** /**
1538:../system/include/cmsis/stm32l4xx/core_cm4.h ****   \ingroup    CMSIS_core_register
1539:../system/include/cmsis/stm32l4xx/core_cm4.h ****   \defgroup   CMSIS_core_base     Core Definitions
1540:../system/include/cmsis/stm32l4xx/core_cm4.h ****   \brief      Definitions for base addresses, unions, and structures.
1541:../system/include/cmsis/stm32l4xx/core_cm4.h ****   @{
1542:../system/include/cmsis/stm32l4xx/core_cm4.h ****  */
1543:../system/include/cmsis/stm32l4xx/core_cm4.h **** 
1544:../system/include/cmsis/stm32l4xx/core_cm4.h **** /* Memory mapping of Core Hardware */
1545:../system/include/cmsis/stm32l4xx/core_cm4.h **** #define SCS_BASE            (0xE000E000UL)                            /*!< System Control Space Bas
1546:../system/include/cmsis/stm32l4xx/core_cm4.h **** #define ITM_BASE            (0xE0000000UL)                            /*!< ITM Base Address */
1547:../system/include/cmsis/stm32l4xx/core_cm4.h **** #define DWT_BASE            (0xE0001000UL)                            /*!< DWT Base Address */
1548:../system/include/cmsis/stm32l4xx/core_cm4.h **** #define TPI_BASE            (0xE0040000UL)                            /*!< TPI Base Address */
1549:../system/include/cmsis/stm32l4xx/core_cm4.h **** #define CoreDebug_BASE      (0xE000EDF0UL)                            /*!< Core Debug Base Address 
1550:../system/include/cmsis/stm32l4xx/core_cm4.h **** #define SysTick_BASE        (SCS_BASE +  0x0010UL)                    /*!< SysTick Base Address */
1551:../system/include/cmsis/stm32l4xx/core_cm4.h **** #define NVIC_BASE           (SCS_BASE +  0x0100UL)                    /*!< NVIC Base Address */
1552:../system/include/cmsis/stm32l4xx/core_cm4.h **** #define SCB_BASE            (SCS_BASE +  0x0D00UL)                    /*!< System Control Block Bas
1553:../system/include/cmsis/stm32l4xx/core_cm4.h **** 
1554:../system/include/cmsis/stm32l4xx/core_cm4.h **** #define SCnSCB              ((SCnSCB_Type    *)     SCS_BASE      )   /*!< System control Register 
1555:../system/include/cmsis/stm32l4xx/core_cm4.h **** #define SCB                 ((SCB_Type       *)     SCB_BASE      )   /*!< SCB configuration struct
1556:../system/include/cmsis/stm32l4xx/core_cm4.h **** #define SysTick             ((SysTick_Type   *)     SysTick_BASE  )   /*!< SysTick configuration st
1557:../system/include/cmsis/stm32l4xx/core_cm4.h **** #define NVIC                ((NVIC_Type      *)     NVIC_BASE     )   /*!< NVIC configuration struc
1558:../system/include/cmsis/stm32l4xx/core_cm4.h **** #define ITM                 ((ITM_Type       *)     ITM_BASE      )   /*!< ITM configuration struct
1559:../system/include/cmsis/stm32l4xx/core_cm4.h **** #define DWT                 ((DWT_Type       *)     DWT_BASE      )   /*!< DWT configuration struct
1560:../system/include/cmsis/stm32l4xx/core_cm4.h **** #define TPI                 ((TPI_Type       *)     TPI_BASE      )   /*!< TPI configuration struct
1561:../system/include/cmsis/stm32l4xx/core_cm4.h **** #define CoreDebug           ((CoreDebug_Type *)     CoreDebug_BASE)   /*!< Core Debug configuration
1562:../system/include/cmsis/stm32l4xx/core_cm4.h **** 
1563:../system/include/cmsis/stm32l4xx/core_cm4.h **** #if defined (__MPU_PRESENT) && (__MPU_PRESENT == 1U)
1564:../system/include/cmsis/stm32l4xx/core_cm4.h ****   #define MPU_BASE          (SCS_BASE +  0x0D90UL)                    /*!< Memory Protection Unit *
1565:../system/include/cmsis/stm32l4xx/core_cm4.h ****   #define MPU               ((MPU_Type       *)     MPU_BASE      )   /*!< Memory Protection Unit *
1566:../system/include/cmsis/stm32l4xx/core_cm4.h **** #endif
1567:../system/include/cmsis/stm32l4xx/core_cm4.h **** 
1568:../system/include/cmsis/stm32l4xx/core_cm4.h **** #define FPU_BASE            (SCS_BASE +  0x0F30UL)                    /*!< Floating Point Unit */
1569:../system/include/cmsis/stm32l4xx/core_cm4.h **** #define FPU                 ((FPU_Type       *)     FPU_BASE      )   /*!< Floating Point Unit */
1570:../system/include/cmsis/stm32l4xx/core_cm4.h **** 
1571:../system/include/cmsis/stm32l4xx/core_cm4.h **** /*@} */
1572:../system/include/cmsis/stm32l4xx/core_cm4.h **** 
1573:../system/include/cmsis/stm32l4xx/core_cm4.h **** 
1574:../system/include/cmsis/stm32l4xx/core_cm4.h **** 
1575:../system/include/cmsis/stm32l4xx/core_cm4.h **** /*******************************************************************************
1576:../system/include/cmsis/stm32l4xx/core_cm4.h ****  *                Hardware Abstraction Layer
1577:../system/include/cmsis/stm32l4xx/core_cm4.h ****   Core Function Interface contains:
1578:../system/include/cmsis/stm32l4xx/core_cm4.h ****   - Core NVIC Functions
1579:../system/include/cmsis/stm32l4xx/core_cm4.h ****   - Core SysTick Functions
1580:../system/include/cmsis/stm32l4xx/core_cm4.h ****   - Core Debug Functions
1581:../system/include/cmsis/stm32l4xx/core_cm4.h ****   - Core Register Access Functions
1582:../system/include/cmsis/stm32l4xx/core_cm4.h ****  ******************************************************************************/
1583:../system/include/cmsis/stm32l4xx/core_cm4.h **** /**
1584:../system/include/cmsis/stm32l4xx/core_cm4.h ****   \defgroup CMSIS_Core_FunctionInterface Functions and Instructions Reference
1585:../system/include/cmsis/stm32l4xx/core_cm4.h **** */
1586:../system/include/cmsis/stm32l4xx/core_cm4.h **** 
1587:../system/include/cmsis/stm32l4xx/core_cm4.h **** 
1588:../system/include/cmsis/stm32l4xx/core_cm4.h **** 
1589:../system/include/cmsis/stm32l4xx/core_cm4.h **** /* ##########################   NVIC functions  #################################### */
1590:../system/include/cmsis/stm32l4xx/core_cm4.h **** /**
1591:../system/include/cmsis/stm32l4xx/core_cm4.h ****   \ingroup  CMSIS_Core_FunctionInterface
1592:../system/include/cmsis/stm32l4xx/core_cm4.h ****   \defgroup CMSIS_Core_NVICFunctions NVIC Functions
1593:../system/include/cmsis/stm32l4xx/core_cm4.h ****   \brief    Functions that manage interrupts and exceptions via the NVIC.
1594:../system/include/cmsis/stm32l4xx/core_cm4.h ****   @{
1595:../system/include/cmsis/stm32l4xx/core_cm4.h ****  */
1596:../system/include/cmsis/stm32l4xx/core_cm4.h **** 
1597:../system/include/cmsis/stm32l4xx/core_cm4.h **** #ifdef CMSIS_NVIC_VIRTUAL
1598:../system/include/cmsis/stm32l4xx/core_cm4.h ****   #ifndef CMSIS_NVIC_VIRTUAL_HEADER_FILE
1599:../system/include/cmsis/stm32l4xx/core_cm4.h ****     #define CMSIS_NVIC_VIRTUAL_HEADER_FILE "cmsis_nvic_virtual.h"
1600:../system/include/cmsis/stm32l4xx/core_cm4.h ****   #endif
1601:../system/include/cmsis/stm32l4xx/core_cm4.h ****   #include CMSIS_NVIC_VIRTUAL_HEADER_FILE
1602:../system/include/cmsis/stm32l4xx/core_cm4.h **** #else
1603:../system/include/cmsis/stm32l4xx/core_cm4.h ****   #define NVIC_SetPriorityGrouping    __NVIC_SetPriorityGrouping
1604:../system/include/cmsis/stm32l4xx/core_cm4.h ****   #define NVIC_GetPriorityGrouping    __NVIC_GetPriorityGrouping
1605:../system/include/cmsis/stm32l4xx/core_cm4.h ****   #define NVIC_EnableIRQ              __NVIC_EnableIRQ
1606:../system/include/cmsis/stm32l4xx/core_cm4.h ****   #define NVIC_GetEnableIRQ           __NVIC_GetEnableIRQ
1607:../system/include/cmsis/stm32l4xx/core_cm4.h ****   #define NVIC_DisableIRQ             __NVIC_DisableIRQ
1608:../system/include/cmsis/stm32l4xx/core_cm4.h ****   #define NVIC_GetPendingIRQ          __NVIC_GetPendingIRQ
1609:../system/include/cmsis/stm32l4xx/core_cm4.h ****   #define NVIC_SetPendingIRQ          __NVIC_SetPendingIRQ
1610:../system/include/cmsis/stm32l4xx/core_cm4.h ****   #define NVIC_ClearPendingIRQ        __NVIC_ClearPendingIRQ
1611:../system/include/cmsis/stm32l4xx/core_cm4.h ****   #define NVIC_GetActive              __NVIC_GetActive
1612:../system/include/cmsis/stm32l4xx/core_cm4.h ****   #define NVIC_SetPriority            __NVIC_SetPriority
1613:../system/include/cmsis/stm32l4xx/core_cm4.h ****   #define NVIC_GetPriority            __NVIC_GetPriority
1614:../system/include/cmsis/stm32l4xx/core_cm4.h ****   #define NVIC_SystemReset            __NVIC_SystemReset
1615:../system/include/cmsis/stm32l4xx/core_cm4.h **** #endif /* CMSIS_NVIC_VIRTUAL */
1616:../system/include/cmsis/stm32l4xx/core_cm4.h **** 
1617:../system/include/cmsis/stm32l4xx/core_cm4.h **** #ifdef CMSIS_VECTAB_VIRTUAL
1618:../system/include/cmsis/stm32l4xx/core_cm4.h ****   #ifndef CMSIS_VECTAB_VIRTUAL_HEADER_FILE
1619:../system/include/cmsis/stm32l4xx/core_cm4.h ****     #define CMSIS_VECTAB_VIRTUAL_HEADER_FILE "cmsis_vectab_virtual.h"
1620:../system/include/cmsis/stm32l4xx/core_cm4.h ****   #endif
1621:../system/include/cmsis/stm32l4xx/core_cm4.h ****   #include CMSIS_VECTAB_VIRTUAL_HEADER_FILE
1622:../system/include/cmsis/stm32l4xx/core_cm4.h **** #else
1623:../system/include/cmsis/stm32l4xx/core_cm4.h ****   #define NVIC_SetVector              __NVIC_SetVector
1624:../system/include/cmsis/stm32l4xx/core_cm4.h ****   #define NVIC_GetVector              __NVIC_GetVector
1625:../system/include/cmsis/stm32l4xx/core_cm4.h **** #endif  /* (CMSIS_VECTAB_VIRTUAL) */
1626:../system/include/cmsis/stm32l4xx/core_cm4.h **** 
1627:../system/include/cmsis/stm32l4xx/core_cm4.h **** #define NVIC_USER_IRQ_OFFSET          16
1628:../system/include/cmsis/stm32l4xx/core_cm4.h **** 
1629:../system/include/cmsis/stm32l4xx/core_cm4.h **** 
1630:../system/include/cmsis/stm32l4xx/core_cm4.h **** /* The following EXC_RETURN values are saved the LR on exception entry */
1631:../system/include/cmsis/stm32l4xx/core_cm4.h **** #define EXC_RETURN_HANDLER         (0xFFFFFFF1UL)     /* return to Handler mode, uses MSP after ret
1632:../system/include/cmsis/stm32l4xx/core_cm4.h **** #define EXC_RETURN_THREAD_MSP      (0xFFFFFFF9UL)     /* return to Thread mode, uses MSP after retu
1633:../system/include/cmsis/stm32l4xx/core_cm4.h **** #define EXC_RETURN_THREAD_PSP      (0xFFFFFFFDUL)     /* return to Thread mode, uses PSP after retu
1634:../system/include/cmsis/stm32l4xx/core_cm4.h **** #define EXC_RETURN_HANDLER_FPU     (0xFFFFFFE1UL)     /* return to Handler mode, uses MSP after ret
1635:../system/include/cmsis/stm32l4xx/core_cm4.h **** #define EXC_RETURN_THREAD_MSP_FPU  (0xFFFFFFE9UL)     /* return to Thread mode, uses MSP after retu
1636:../system/include/cmsis/stm32l4xx/core_cm4.h **** #define EXC_RETURN_THREAD_PSP_FPU  (0xFFFFFFEDUL)     /* return to Thread mode, uses PSP after retu
1637:../system/include/cmsis/stm32l4xx/core_cm4.h **** 
1638:../system/include/cmsis/stm32l4xx/core_cm4.h **** 
1639:../system/include/cmsis/stm32l4xx/core_cm4.h **** /**
1640:../system/include/cmsis/stm32l4xx/core_cm4.h ****   \brief   Set Priority Grouping
1641:../system/include/cmsis/stm32l4xx/core_cm4.h ****   \details Sets the priority grouping field using the required unlock sequence.
1642:../system/include/cmsis/stm32l4xx/core_cm4.h ****            The parameter PriorityGroup is assigned to the field SCB->AIRCR [10:8] PRIGROUP field.
1643:../system/include/cmsis/stm32l4xx/core_cm4.h ****            Only values from 0..7 are used.
1644:../system/include/cmsis/stm32l4xx/core_cm4.h ****            In case of a conflict between priority grouping and available
1645:../system/include/cmsis/stm32l4xx/core_cm4.h ****            priority bits (__NVIC_PRIO_BITS), the smallest possible priority group is set.
1646:../system/include/cmsis/stm32l4xx/core_cm4.h ****   \param [in]      PriorityGroup  Priority grouping field.
1647:../system/include/cmsis/stm32l4xx/core_cm4.h ****  */
1648:../system/include/cmsis/stm32l4xx/core_cm4.h **** __STATIC_INLINE void __NVIC_SetPriorityGrouping(uint32_t PriorityGroup)
1649:../system/include/cmsis/stm32l4xx/core_cm4.h **** {
1650:../system/include/cmsis/stm32l4xx/core_cm4.h ****   uint32_t reg_value;
1651:../system/include/cmsis/stm32l4xx/core_cm4.h ****   uint32_t PriorityGroupTmp = (PriorityGroup & (uint32_t)0x07UL);             /* only values 0..7 a
1652:../system/include/cmsis/stm32l4xx/core_cm4.h **** 
1653:../system/include/cmsis/stm32l4xx/core_cm4.h ****   reg_value  =  SCB->AIRCR;                                                   /* read old register 
1654:../system/include/cmsis/stm32l4xx/core_cm4.h ****   reg_value &= ~((uint32_t)(SCB_AIRCR_VECTKEY_Msk | SCB_AIRCR_PRIGROUP_Msk)); /* clear bits to chan
1655:../system/include/cmsis/stm32l4xx/core_cm4.h ****   reg_value  =  (reg_value                                   |
1656:../system/include/cmsis/stm32l4xx/core_cm4.h ****                 ((uint32_t)0x5FAUL << SCB_AIRCR_VECTKEY_Pos) |
1657:../system/include/cmsis/stm32l4xx/core_cm4.h ****                 (PriorityGroupTmp << SCB_AIRCR_PRIGROUP_Pos)  );              /* Insert write key a
1658:../system/include/cmsis/stm32l4xx/core_cm4.h ****   SCB->AIRCR =  reg_value;
1659:../system/include/cmsis/stm32l4xx/core_cm4.h **** }
1660:../system/include/cmsis/stm32l4xx/core_cm4.h **** 
1661:../system/include/cmsis/stm32l4xx/core_cm4.h **** 
1662:../system/include/cmsis/stm32l4xx/core_cm4.h **** /**
1663:../system/include/cmsis/stm32l4xx/core_cm4.h ****   \brief   Get Priority Grouping
1664:../system/include/cmsis/stm32l4xx/core_cm4.h ****   \details Reads the priority grouping field from the NVIC Interrupt Controller.
1665:../system/include/cmsis/stm32l4xx/core_cm4.h ****   \return                Priority grouping field (SCB->AIRCR [10:8] PRIGROUP field).
1666:../system/include/cmsis/stm32l4xx/core_cm4.h ****  */
1667:../system/include/cmsis/stm32l4xx/core_cm4.h **** __STATIC_INLINE uint32_t __NVIC_GetPriorityGrouping(void)
1668:../system/include/cmsis/stm32l4xx/core_cm4.h **** {
1669:../system/include/cmsis/stm32l4xx/core_cm4.h ****   return ((uint32_t)((SCB->AIRCR & SCB_AIRCR_PRIGROUP_Msk) >> SCB_AIRCR_PRIGROUP_Pos));
1670:../system/include/cmsis/stm32l4xx/core_cm4.h **** }
1671:../system/include/cmsis/stm32l4xx/core_cm4.h **** 
1672:../system/include/cmsis/stm32l4xx/core_cm4.h **** 
1673:../system/include/cmsis/stm32l4xx/core_cm4.h **** /**
1674:../system/include/cmsis/stm32l4xx/core_cm4.h ****   \brief   Enable Interrupt
1675:../system/include/cmsis/stm32l4xx/core_cm4.h ****   \details Enables a device specific interrupt in the NVIC interrupt controller.
1676:../system/include/cmsis/stm32l4xx/core_cm4.h ****   \param [in]      IRQn  Device specific interrupt number.
1677:../system/include/cmsis/stm32l4xx/core_cm4.h ****   \note    IRQn must not be negative.
1678:../system/include/cmsis/stm32l4xx/core_cm4.h ****  */
1679:../system/include/cmsis/stm32l4xx/core_cm4.h **** __STATIC_INLINE void __NVIC_EnableIRQ(IRQn_Type IRQn)
1680:../system/include/cmsis/stm32l4xx/core_cm4.h **** {
1681:../system/include/cmsis/stm32l4xx/core_cm4.h ****   if ((int32_t)(IRQn) >= 0)
1682:../system/include/cmsis/stm32l4xx/core_cm4.h ****   {
1683:../system/include/cmsis/stm32l4xx/core_cm4.h ****     __COMPILER_BARRIER();
 162              		.loc 2 1683 0
1684:../system/include/cmsis/stm32l4xx/core_cm4.h ****     NVIC->ISER[(((uint32_t)IRQn) >> 5UL)] = (uint32_t)(1UL << (((uint32_t)IRQn) & 0x1FUL));
 163              		.loc 2 1684 0
 164 00aa 064B     		ldr	r3, .L10+8
 165 00ac 2022     		movs	r2, #32
 166 00ae 5A60     		str	r2, [r3, #4]
 167              	.LVL11:
1685:../system/include/cmsis/stm32l4xx/core_cm4.h ****     __COMPILER_BARRIER();
 168              		.loc 2 1685 0
 169 00b0 E0E7     		b	.L4
 170              	.LVL12:
 171              	.L9:
 172              	.LBE19:
 173              	.LBE18:
 174              	.LBB20:
 175              	.LBB21:
1683:../system/include/cmsis/stm32l4xx/core_cm4.h ****     NVIC->ISER[(((uint32_t)IRQn) >> 5UL)] = (uint32_t)(1UL << (((uint32_t)IRQn) & 0x1FUL));
 176              		.loc 2 1683 0
1684:../system/include/cmsis/stm32l4xx/core_cm4.h ****     NVIC->ISER[(((uint32_t)IRQn) >> 5UL)] = (uint32_t)(1UL << (((uint32_t)IRQn) & 0x1FUL));
 177              		.loc 2 1684 0
 178 00b2 044B     		ldr	r3, .L10+8
 179 00b4 4022     		movs	r2, #64
 180 00b6 5A60     		str	r2, [r3, #4]
 181              	.LVL13:
 182              		.loc 2 1685 0
 183 00b8 DCE7     		b	.L4
 184              	.L11:
 185 00ba 00BF     		.align	2
 186              	.L10:
 187 00bc 00380140 		.word	1073821696
 188 00c0 00440040 		.word	1073759232
 189 00c4 00E100E0 		.word	-536813312
 190              	.LBE21:
 191              	.LBE20:
 192              		.cfi_endproc
 193              	.LFE382:
 195              		.section	.text.srl_close,"ax",%progbits
 196              		.align	1
 197              		.global	srl_close
 198              		.syntax unified
 199              		.thumb
 200              		.thumb_func
 201              		.fpu fpv4-sp-d16
 203              	srl_close:
 204              	.LFB383:
 105:../system/src/drivers/l4/serial_stm32l4x.c **** 
 106:../system/src/drivers/l4/serial_stm32l4x.c **** void srl_close(srl_context_t *ctx) {
 205              		.loc 1 106 0
 206              		.cfi_startproc
 207              		@ args = 0, pretend = 0, frame = 0
 208              		@ frame_needed = 0, uses_anonymous_args = 0
 209              	.LVL14:
 210 0000 10B5     		push	{r4, lr}
 211              		.cfi_def_cfa_offset 8
 212              		.cfi_offset 4, -8
 213              		.cfi_offset 14, -4
 214 0002 0446     		mov	r4, r0
 107:../system/src/drivers/l4/serial_stm32l4x.c **** 	LL_USART_DeInit(ctx->port);
 215              		.loc 1 107 0
 216 0004 0068     		ldr	r0, [r0]
 217              	.LVL15:
 218 0006 FFF7FEFF 		bl	LL_USART_DeInit
 219              	.LVL16:
 108:../system/src/drivers/l4/serial_stm32l4x.c **** 
 109:../system/src/drivers/l4/serial_stm32l4x.c **** 	if (ctx->te_port != NULL && ctx->te_pin != 0) {
 220              		.loc 1 109 0
 221 000a E368     		ldr	r3, [r4, #12]
 222 000c 13B1     		cbz	r3, .L13
 223              		.loc 1 109 0 is_stmt 0 discriminator 1
 224 000e 228A     		ldrh	r2, [r4, #16]
 225 0010 02B1     		cbz	r2, .L13
 226              	.LVL17:
 227              	.LBB22:
 228              	.LBB23:
 229              		.file 3 "../system/include/stm32l4-hal-driver/stm32l4xx_ll_gpio.h"
   1:../system/include/stm32l4-hal-driver/stm32l4xx_ll_gpio.h **** /**
   2:../system/include/stm32l4-hal-driver/stm32l4xx_ll_gpio.h ****   ******************************************************************************
   3:../system/include/stm32l4-hal-driver/stm32l4xx_ll_gpio.h ****   * @file    stm32l4xx_ll_gpio.h
   4:../system/include/stm32l4-hal-driver/stm32l4xx_ll_gpio.h ****   * @author  MCD Application Team
   5:../system/include/stm32l4-hal-driver/stm32l4xx_ll_gpio.h ****   * @brief   Header file of GPIO LL module.
   6:../system/include/stm32l4-hal-driver/stm32l4xx_ll_gpio.h ****   ******************************************************************************
   7:../system/include/stm32l4-hal-driver/stm32l4xx_ll_gpio.h ****   * @attention
   8:../system/include/stm32l4-hal-driver/stm32l4xx_ll_gpio.h ****   *
   9:../system/include/stm32l4-hal-driver/stm32l4xx_ll_gpio.h ****   * <h2><center>&copy; Copyright (c) 2017 STMicroelectronics.
  10:../system/include/stm32l4-hal-driver/stm32l4xx_ll_gpio.h ****   * All rights reserved.</center></h2>
  11:../system/include/stm32l4-hal-driver/stm32l4xx_ll_gpio.h ****   *
  12:../system/include/stm32l4-hal-driver/stm32l4xx_ll_gpio.h ****   * This software component is licensed by ST under BSD 3-Clause license,
  13:../system/include/stm32l4-hal-driver/stm32l4xx_ll_gpio.h ****   * the "License"; You may not use this file except in compliance with the
  14:../system/include/stm32l4-hal-driver/stm32l4xx_ll_gpio.h ****   * License. You may obtain a copy of the License at:
  15:../system/include/stm32l4-hal-driver/stm32l4xx_ll_gpio.h ****   *                        opensource.org/licenses/BSD-3-Clause
  16:../system/include/stm32l4-hal-driver/stm32l4xx_ll_gpio.h ****   *
  17:../system/include/stm32l4-hal-driver/stm32l4xx_ll_gpio.h ****   ******************************************************************************
  18:../system/include/stm32l4-hal-driver/stm32l4xx_ll_gpio.h ****   */
  19:../system/include/stm32l4-hal-driver/stm32l4xx_ll_gpio.h **** 
  20:../system/include/stm32l4-hal-driver/stm32l4xx_ll_gpio.h **** /* Define to prevent recursive inclusion -------------------------------------*/
  21:../system/include/stm32l4-hal-driver/stm32l4xx_ll_gpio.h **** #ifndef STM32L4xx_LL_GPIO_H
  22:../system/include/stm32l4-hal-driver/stm32l4xx_ll_gpio.h **** #define STM32L4xx_LL_GPIO_H
  23:../system/include/stm32l4-hal-driver/stm32l4xx_ll_gpio.h **** 
  24:../system/include/stm32l4-hal-driver/stm32l4xx_ll_gpio.h **** #ifdef __cplusplus
  25:../system/include/stm32l4-hal-driver/stm32l4xx_ll_gpio.h **** extern "C" {
  26:../system/include/stm32l4-hal-driver/stm32l4xx_ll_gpio.h **** #endif
  27:../system/include/stm32l4-hal-driver/stm32l4xx_ll_gpio.h **** 
  28:../system/include/stm32l4-hal-driver/stm32l4xx_ll_gpio.h **** /* Includes ------------------------------------------------------------------*/
  29:../system/include/stm32l4-hal-driver/stm32l4xx_ll_gpio.h **** #include "stm32l4xx.h"
  30:../system/include/stm32l4-hal-driver/stm32l4xx_ll_gpio.h **** 
  31:../system/include/stm32l4-hal-driver/stm32l4xx_ll_gpio.h **** /** @addtogroup STM32L4xx_LL_Driver
  32:../system/include/stm32l4-hal-driver/stm32l4xx_ll_gpio.h ****   * @{
  33:../system/include/stm32l4-hal-driver/stm32l4xx_ll_gpio.h ****   */
  34:../system/include/stm32l4-hal-driver/stm32l4xx_ll_gpio.h **** 
  35:../system/include/stm32l4-hal-driver/stm32l4xx_ll_gpio.h **** #if defined (GPIOA) || defined (GPIOB) || defined (GPIOC) || defined (GPIOD) || defined (GPIOE) || 
  36:../system/include/stm32l4-hal-driver/stm32l4xx_ll_gpio.h **** 
  37:../system/include/stm32l4-hal-driver/stm32l4xx_ll_gpio.h **** /** @defgroup GPIO_LL GPIO
  38:../system/include/stm32l4-hal-driver/stm32l4xx_ll_gpio.h ****   * @{
  39:../system/include/stm32l4-hal-driver/stm32l4xx_ll_gpio.h ****   */
  40:../system/include/stm32l4-hal-driver/stm32l4xx_ll_gpio.h **** /** MISRA C:2012 deviation rule has been granted for following rules:
  41:../system/include/stm32l4-hal-driver/stm32l4xx_ll_gpio.h ****   * Rule-18.1_d - Medium: Array pointer `GPIOx' is accessed with index [..,..]
  42:../system/include/stm32l4-hal-driver/stm32l4xx_ll_gpio.h ****   * which may be out of array bounds [..,UNKNOWN] in following APIs:
  43:../system/include/stm32l4-hal-driver/stm32l4xx_ll_gpio.h ****   * LL_GPIO_GetAFPin_0_7
  44:../system/include/stm32l4-hal-driver/stm32l4xx_ll_gpio.h ****   * LL_GPIO_SetAFPin_0_7
  45:../system/include/stm32l4-hal-driver/stm32l4xx_ll_gpio.h ****   * LL_GPIO_SetAFPin_8_15
  46:../system/include/stm32l4-hal-driver/stm32l4xx_ll_gpio.h ****   * LL_GPIO_GetAFPin_8_15
  47:../system/include/stm32l4-hal-driver/stm32l4xx_ll_gpio.h ****   */
  48:../system/include/stm32l4-hal-driver/stm32l4xx_ll_gpio.h **** 
  49:../system/include/stm32l4-hal-driver/stm32l4xx_ll_gpio.h **** /* Private types -------------------------------------------------------------*/
  50:../system/include/stm32l4-hal-driver/stm32l4xx_ll_gpio.h **** /* Private variables ---------------------------------------------------------*/
  51:../system/include/stm32l4-hal-driver/stm32l4xx_ll_gpio.h **** /* Private constants ---------------------------------------------------------*/
  52:../system/include/stm32l4-hal-driver/stm32l4xx_ll_gpio.h **** /* Private macros ------------------------------------------------------------*/
  53:../system/include/stm32l4-hal-driver/stm32l4xx_ll_gpio.h **** #if defined(USE_FULL_LL_DRIVER)
  54:../system/include/stm32l4-hal-driver/stm32l4xx_ll_gpio.h **** /** @defgroup GPIO_LL_Private_Macros GPIO Private Macros
  55:../system/include/stm32l4-hal-driver/stm32l4xx_ll_gpio.h ****   * @{
  56:../system/include/stm32l4-hal-driver/stm32l4xx_ll_gpio.h ****   */
  57:../system/include/stm32l4-hal-driver/stm32l4xx_ll_gpio.h **** 
  58:../system/include/stm32l4-hal-driver/stm32l4xx_ll_gpio.h **** /**
  59:../system/include/stm32l4-hal-driver/stm32l4xx_ll_gpio.h ****   * @}
  60:../system/include/stm32l4-hal-driver/stm32l4xx_ll_gpio.h ****   */
  61:../system/include/stm32l4-hal-driver/stm32l4xx_ll_gpio.h **** #endif /*USE_FULL_LL_DRIVER*/
  62:../system/include/stm32l4-hal-driver/stm32l4xx_ll_gpio.h **** 
  63:../system/include/stm32l4-hal-driver/stm32l4xx_ll_gpio.h **** /* Exported types ------------------------------------------------------------*/
  64:../system/include/stm32l4-hal-driver/stm32l4xx_ll_gpio.h **** #if defined(USE_FULL_LL_DRIVER)
  65:../system/include/stm32l4-hal-driver/stm32l4xx_ll_gpio.h **** /** @defgroup GPIO_LL_ES_INIT GPIO Exported Init structures
  66:../system/include/stm32l4-hal-driver/stm32l4xx_ll_gpio.h ****   * @{
  67:../system/include/stm32l4-hal-driver/stm32l4xx_ll_gpio.h ****   */
  68:../system/include/stm32l4-hal-driver/stm32l4xx_ll_gpio.h **** 
  69:../system/include/stm32l4-hal-driver/stm32l4xx_ll_gpio.h **** /**
  70:../system/include/stm32l4-hal-driver/stm32l4xx_ll_gpio.h ****   * @brief LL GPIO Init Structure definition
  71:../system/include/stm32l4-hal-driver/stm32l4xx_ll_gpio.h ****   */
  72:../system/include/stm32l4-hal-driver/stm32l4xx_ll_gpio.h **** typedef struct
  73:../system/include/stm32l4-hal-driver/stm32l4xx_ll_gpio.h **** {
  74:../system/include/stm32l4-hal-driver/stm32l4xx_ll_gpio.h ****   uint32_t Pin;          /*!< Specifies the GPIO pins to be configured.
  75:../system/include/stm32l4-hal-driver/stm32l4xx_ll_gpio.h ****                               This parameter can be any value of @ref GPIO_LL_EC_PIN */
  76:../system/include/stm32l4-hal-driver/stm32l4xx_ll_gpio.h **** 
  77:../system/include/stm32l4-hal-driver/stm32l4xx_ll_gpio.h ****   uint32_t Mode;         /*!< Specifies the operating mode for the selected pins.
  78:../system/include/stm32l4-hal-driver/stm32l4xx_ll_gpio.h ****                               This parameter can be a value of @ref GPIO_LL_EC_MODE.
  79:../system/include/stm32l4-hal-driver/stm32l4xx_ll_gpio.h **** 
  80:../system/include/stm32l4-hal-driver/stm32l4xx_ll_gpio.h ****                               GPIO HW configuration can be modified afterwards using unitary functi
  81:../system/include/stm32l4-hal-driver/stm32l4xx_ll_gpio.h **** 
  82:../system/include/stm32l4-hal-driver/stm32l4xx_ll_gpio.h ****   uint32_t Speed;        /*!< Specifies the speed for the selected pins.
  83:../system/include/stm32l4-hal-driver/stm32l4xx_ll_gpio.h ****                               This parameter can be a value of @ref GPIO_LL_EC_SPEED.
  84:../system/include/stm32l4-hal-driver/stm32l4xx_ll_gpio.h **** 
  85:../system/include/stm32l4-hal-driver/stm32l4xx_ll_gpio.h ****                               GPIO HW configuration can be modified afterwards using unitary functi
  86:../system/include/stm32l4-hal-driver/stm32l4xx_ll_gpio.h **** 
  87:../system/include/stm32l4-hal-driver/stm32l4xx_ll_gpio.h ****   uint32_t OutputType;   /*!< Specifies the operating output type for the selected pins.
  88:../system/include/stm32l4-hal-driver/stm32l4xx_ll_gpio.h ****                               This parameter can be a value of @ref GPIO_LL_EC_OUTPUT.
  89:../system/include/stm32l4-hal-driver/stm32l4xx_ll_gpio.h **** 
  90:../system/include/stm32l4-hal-driver/stm32l4xx_ll_gpio.h ****                               GPIO HW configuration can be modified afterwards using unitary functi
  91:../system/include/stm32l4-hal-driver/stm32l4xx_ll_gpio.h **** 
  92:../system/include/stm32l4-hal-driver/stm32l4xx_ll_gpio.h ****   uint32_t Pull;         /*!< Specifies the operating Pull-up/Pull down for the selected pins.
  93:../system/include/stm32l4-hal-driver/stm32l4xx_ll_gpio.h ****                               This parameter can be a value of @ref GPIO_LL_EC_PULL.
  94:../system/include/stm32l4-hal-driver/stm32l4xx_ll_gpio.h **** 
  95:../system/include/stm32l4-hal-driver/stm32l4xx_ll_gpio.h ****                               GPIO HW configuration can be modified afterwards using unitary functi
  96:../system/include/stm32l4-hal-driver/stm32l4xx_ll_gpio.h **** 
  97:../system/include/stm32l4-hal-driver/stm32l4xx_ll_gpio.h ****   uint32_t Alternate;    /*!< Specifies the Peripheral to be connected to the selected pins.
  98:../system/include/stm32l4-hal-driver/stm32l4xx_ll_gpio.h ****                               This parameter can be a value of @ref GPIO_LL_EC_AF.
  99:../system/include/stm32l4-hal-driver/stm32l4xx_ll_gpio.h **** 
 100:../system/include/stm32l4-hal-driver/stm32l4xx_ll_gpio.h ****                               GPIO HW configuration can be modified afterwards using unitary functi
 101:../system/include/stm32l4-hal-driver/stm32l4xx_ll_gpio.h **** } LL_GPIO_InitTypeDef;
 102:../system/include/stm32l4-hal-driver/stm32l4xx_ll_gpio.h **** 
 103:../system/include/stm32l4-hal-driver/stm32l4xx_ll_gpio.h **** /**
 104:../system/include/stm32l4-hal-driver/stm32l4xx_ll_gpio.h ****   * @}
 105:../system/include/stm32l4-hal-driver/stm32l4xx_ll_gpio.h ****   */
 106:../system/include/stm32l4-hal-driver/stm32l4xx_ll_gpio.h **** #endif /* USE_FULL_LL_DRIVER */
 107:../system/include/stm32l4-hal-driver/stm32l4xx_ll_gpio.h **** 
 108:../system/include/stm32l4-hal-driver/stm32l4xx_ll_gpio.h **** /* Exported constants --------------------------------------------------------*/
 109:../system/include/stm32l4-hal-driver/stm32l4xx_ll_gpio.h **** /** @defgroup GPIO_LL_Exported_Constants GPIO Exported Constants
 110:../system/include/stm32l4-hal-driver/stm32l4xx_ll_gpio.h ****   * @{
 111:../system/include/stm32l4-hal-driver/stm32l4xx_ll_gpio.h ****   */
 112:../system/include/stm32l4-hal-driver/stm32l4xx_ll_gpio.h **** 
 113:../system/include/stm32l4-hal-driver/stm32l4xx_ll_gpio.h **** /** @defgroup GPIO_LL_EC_PIN PIN
 114:../system/include/stm32l4-hal-driver/stm32l4xx_ll_gpio.h ****   * @{
 115:../system/include/stm32l4-hal-driver/stm32l4xx_ll_gpio.h ****   */
 116:../system/include/stm32l4-hal-driver/stm32l4xx_ll_gpio.h **** #define LL_GPIO_PIN_0                      GPIO_BSRR_BS0 /*!< Select pin 0 */
 117:../system/include/stm32l4-hal-driver/stm32l4xx_ll_gpio.h **** #define LL_GPIO_PIN_1                      GPIO_BSRR_BS1 /*!< Select pin 1 */
 118:../system/include/stm32l4-hal-driver/stm32l4xx_ll_gpio.h **** #define LL_GPIO_PIN_2                      GPIO_BSRR_BS2 /*!< Select pin 2 */
 119:../system/include/stm32l4-hal-driver/stm32l4xx_ll_gpio.h **** #define LL_GPIO_PIN_3                      GPIO_BSRR_BS3 /*!< Select pin 3 */
 120:../system/include/stm32l4-hal-driver/stm32l4xx_ll_gpio.h **** #define LL_GPIO_PIN_4                      GPIO_BSRR_BS4 /*!< Select pin 4 */
 121:../system/include/stm32l4-hal-driver/stm32l4xx_ll_gpio.h **** #define LL_GPIO_PIN_5                      GPIO_BSRR_BS5 /*!< Select pin 5 */
 122:../system/include/stm32l4-hal-driver/stm32l4xx_ll_gpio.h **** #define LL_GPIO_PIN_6                      GPIO_BSRR_BS6 /*!< Select pin 6 */
 123:../system/include/stm32l4-hal-driver/stm32l4xx_ll_gpio.h **** #define LL_GPIO_PIN_7                      GPIO_BSRR_BS7 /*!< Select pin 7 */
 124:../system/include/stm32l4-hal-driver/stm32l4xx_ll_gpio.h **** #define LL_GPIO_PIN_8                      GPIO_BSRR_BS8 /*!< Select pin 8 */
 125:../system/include/stm32l4-hal-driver/stm32l4xx_ll_gpio.h **** #define LL_GPIO_PIN_9                      GPIO_BSRR_BS9 /*!< Select pin 9 */
 126:../system/include/stm32l4-hal-driver/stm32l4xx_ll_gpio.h **** #define LL_GPIO_PIN_10                     GPIO_BSRR_BS10 /*!< Select pin 10 */
 127:../system/include/stm32l4-hal-driver/stm32l4xx_ll_gpio.h **** #define LL_GPIO_PIN_11                     GPIO_BSRR_BS11 /*!< Select pin 11 */
 128:../system/include/stm32l4-hal-driver/stm32l4xx_ll_gpio.h **** #define LL_GPIO_PIN_12                     GPIO_BSRR_BS12 /*!< Select pin 12 */
 129:../system/include/stm32l4-hal-driver/stm32l4xx_ll_gpio.h **** #define LL_GPIO_PIN_13                     GPIO_BSRR_BS13 /*!< Select pin 13 */
 130:../system/include/stm32l4-hal-driver/stm32l4xx_ll_gpio.h **** #define LL_GPIO_PIN_14                     GPIO_BSRR_BS14 /*!< Select pin 14 */
 131:../system/include/stm32l4-hal-driver/stm32l4xx_ll_gpio.h **** #define LL_GPIO_PIN_15                     GPIO_BSRR_BS15 /*!< Select pin 15 */
 132:../system/include/stm32l4-hal-driver/stm32l4xx_ll_gpio.h **** #define LL_GPIO_PIN_ALL                    (GPIO_BSRR_BS0 | GPIO_BSRR_BS1  | GPIO_BSRR_BS2  | \
 133:../system/include/stm32l4-hal-driver/stm32l4xx_ll_gpio.h ****                                            GPIO_BSRR_BS3  | GPIO_BSRR_BS4  | GPIO_BSRR_BS5  | \
 134:../system/include/stm32l4-hal-driver/stm32l4xx_ll_gpio.h ****                                            GPIO_BSRR_BS6  | GPIO_BSRR_BS7  | GPIO_BSRR_BS8  | \
 135:../system/include/stm32l4-hal-driver/stm32l4xx_ll_gpio.h ****                                            GPIO_BSRR_BS9  | GPIO_BSRR_BS10 | GPIO_BSRR_BS11 | \
 136:../system/include/stm32l4-hal-driver/stm32l4xx_ll_gpio.h ****                                            GPIO_BSRR_BS12 | GPIO_BSRR_BS13 | GPIO_BSRR_BS14 | \
 137:../system/include/stm32l4-hal-driver/stm32l4xx_ll_gpio.h ****                                            GPIO_BSRR_BS15) /*!< Select all pins */
 138:../system/include/stm32l4-hal-driver/stm32l4xx_ll_gpio.h **** /**
 139:../system/include/stm32l4-hal-driver/stm32l4xx_ll_gpio.h ****   * @}
 140:../system/include/stm32l4-hal-driver/stm32l4xx_ll_gpio.h ****   */
 141:../system/include/stm32l4-hal-driver/stm32l4xx_ll_gpio.h **** 
 142:../system/include/stm32l4-hal-driver/stm32l4xx_ll_gpio.h **** /** @defgroup GPIO_LL_EC_MODE Mode
 143:../system/include/stm32l4-hal-driver/stm32l4xx_ll_gpio.h ****   * @{
 144:../system/include/stm32l4-hal-driver/stm32l4xx_ll_gpio.h ****   */
 145:../system/include/stm32l4-hal-driver/stm32l4xx_ll_gpio.h **** #define LL_GPIO_MODE_INPUT                 (0x00000000U) /*!< Select input mode */
 146:../system/include/stm32l4-hal-driver/stm32l4xx_ll_gpio.h **** #define LL_GPIO_MODE_OUTPUT                GPIO_MODER_MODE0_0  /*!< Select output mode */
 147:../system/include/stm32l4-hal-driver/stm32l4xx_ll_gpio.h **** #define LL_GPIO_MODE_ALTERNATE             GPIO_MODER_MODE0_1  /*!< Select alternate function mode 
 148:../system/include/stm32l4-hal-driver/stm32l4xx_ll_gpio.h **** #define LL_GPIO_MODE_ANALOG                GPIO_MODER_MODE0    /*!< Select analog mode */
 149:../system/include/stm32l4-hal-driver/stm32l4xx_ll_gpio.h **** /**
 150:../system/include/stm32l4-hal-driver/stm32l4xx_ll_gpio.h ****   * @}
 151:../system/include/stm32l4-hal-driver/stm32l4xx_ll_gpio.h ****   */
 152:../system/include/stm32l4-hal-driver/stm32l4xx_ll_gpio.h **** 
 153:../system/include/stm32l4-hal-driver/stm32l4xx_ll_gpio.h **** /** @defgroup GPIO_LL_EC_OUTPUT Output Type
 154:../system/include/stm32l4-hal-driver/stm32l4xx_ll_gpio.h ****   * @{
 155:../system/include/stm32l4-hal-driver/stm32l4xx_ll_gpio.h ****   */
 156:../system/include/stm32l4-hal-driver/stm32l4xx_ll_gpio.h **** #define LL_GPIO_OUTPUT_PUSHPULL            (0x00000000U) /*!< Select push-pull as output type */
 157:../system/include/stm32l4-hal-driver/stm32l4xx_ll_gpio.h **** #define LL_GPIO_OUTPUT_OPENDRAIN           GPIO_OTYPER_OT0 /*!< Select open-drain as output type */
 158:../system/include/stm32l4-hal-driver/stm32l4xx_ll_gpio.h **** /**
 159:../system/include/stm32l4-hal-driver/stm32l4xx_ll_gpio.h ****   * @}
 160:../system/include/stm32l4-hal-driver/stm32l4xx_ll_gpio.h ****   */
 161:../system/include/stm32l4-hal-driver/stm32l4xx_ll_gpio.h **** 
 162:../system/include/stm32l4-hal-driver/stm32l4xx_ll_gpio.h **** /** @defgroup GPIO_LL_EC_SPEED Output Speed
 163:../system/include/stm32l4-hal-driver/stm32l4xx_ll_gpio.h ****   * @{
 164:../system/include/stm32l4-hal-driver/stm32l4xx_ll_gpio.h ****   */
 165:../system/include/stm32l4-hal-driver/stm32l4xx_ll_gpio.h **** #define LL_GPIO_SPEED_FREQ_LOW             (0x00000000U) /*!< Select I/O low output speed    */
 166:../system/include/stm32l4-hal-driver/stm32l4xx_ll_gpio.h **** #define LL_GPIO_SPEED_FREQ_MEDIUM          GPIO_OSPEEDR_OSPEED0_0 /*!< Select I/O medium output spe
 167:../system/include/stm32l4-hal-driver/stm32l4xx_ll_gpio.h **** #define LL_GPIO_SPEED_FREQ_HIGH            GPIO_OSPEEDR_OSPEED0_1 /*!< Select I/O fast output speed
 168:../system/include/stm32l4-hal-driver/stm32l4xx_ll_gpio.h **** #define LL_GPIO_SPEED_FREQ_VERY_HIGH       GPIO_OSPEEDR_OSPEED0   /*!< Select I/O high output speed
 169:../system/include/stm32l4-hal-driver/stm32l4xx_ll_gpio.h **** /**
 170:../system/include/stm32l4-hal-driver/stm32l4xx_ll_gpio.h ****   * @}
 171:../system/include/stm32l4-hal-driver/stm32l4xx_ll_gpio.h ****   */
 172:../system/include/stm32l4-hal-driver/stm32l4xx_ll_gpio.h **** #define LL_GPIO_SPEED_LOW                  LL_GPIO_SPEED_FREQ_LOW
 173:../system/include/stm32l4-hal-driver/stm32l4xx_ll_gpio.h **** #define LL_GPIO_SPEED_MEDIUM               LL_GPIO_SPEED_FREQ_MEDIUM
 174:../system/include/stm32l4-hal-driver/stm32l4xx_ll_gpio.h **** #define LL_GPIO_SPEED_FAST                 LL_GPIO_SPEED_FREQ_HIGH
 175:../system/include/stm32l4-hal-driver/stm32l4xx_ll_gpio.h **** #define LL_GPIO_SPEED_HIGH                 LL_GPIO_SPEED_FREQ_VERY_HIGH
 176:../system/include/stm32l4-hal-driver/stm32l4xx_ll_gpio.h **** 
 177:../system/include/stm32l4-hal-driver/stm32l4xx_ll_gpio.h **** /** @defgroup GPIO_LL_EC_PULL Pull Up Pull Down
 178:../system/include/stm32l4-hal-driver/stm32l4xx_ll_gpio.h ****   * @{
 179:../system/include/stm32l4-hal-driver/stm32l4xx_ll_gpio.h ****   */
 180:../system/include/stm32l4-hal-driver/stm32l4xx_ll_gpio.h **** #define LL_GPIO_PULL_NO                    (0x00000000U) /*!< Select I/O no pull */
 181:../system/include/stm32l4-hal-driver/stm32l4xx_ll_gpio.h **** #define LL_GPIO_PULL_UP                    GPIO_PUPDR_PUPD0_0 /*!< Select I/O pull up */
 182:../system/include/stm32l4-hal-driver/stm32l4xx_ll_gpio.h **** #define LL_GPIO_PULL_DOWN                  GPIO_PUPDR_PUPD0_1 /*!< Select I/O pull down */
 183:../system/include/stm32l4-hal-driver/stm32l4xx_ll_gpio.h **** /**
 184:../system/include/stm32l4-hal-driver/stm32l4xx_ll_gpio.h ****   * @}
 185:../system/include/stm32l4-hal-driver/stm32l4xx_ll_gpio.h ****   */
 186:../system/include/stm32l4-hal-driver/stm32l4xx_ll_gpio.h **** 
 187:../system/include/stm32l4-hal-driver/stm32l4xx_ll_gpio.h **** /** @defgroup GPIO_LL_EC_AF Alternate Function
 188:../system/include/stm32l4-hal-driver/stm32l4xx_ll_gpio.h ****   * @{
 189:../system/include/stm32l4-hal-driver/stm32l4xx_ll_gpio.h ****   */
 190:../system/include/stm32l4-hal-driver/stm32l4xx_ll_gpio.h **** #define LL_GPIO_AF_0                       (0x0000000U) /*!< Select alternate function 0 */
 191:../system/include/stm32l4-hal-driver/stm32l4xx_ll_gpio.h **** #define LL_GPIO_AF_1                       (0x0000001U) /*!< Select alternate function 1 */
 192:../system/include/stm32l4-hal-driver/stm32l4xx_ll_gpio.h **** #define LL_GPIO_AF_2                       (0x0000002U) /*!< Select alternate function 2 */
 193:../system/include/stm32l4-hal-driver/stm32l4xx_ll_gpio.h **** #define LL_GPIO_AF_3                       (0x0000003U) /*!< Select alternate function 3 */
 194:../system/include/stm32l4-hal-driver/stm32l4xx_ll_gpio.h **** #define LL_GPIO_AF_4                       (0x0000004U) /*!< Select alternate function 4 */
 195:../system/include/stm32l4-hal-driver/stm32l4xx_ll_gpio.h **** #define LL_GPIO_AF_5                       (0x0000005U) /*!< Select alternate function 5 */
 196:../system/include/stm32l4-hal-driver/stm32l4xx_ll_gpio.h **** #define LL_GPIO_AF_6                       (0x0000006U) /*!< Select alternate function 6 */
 197:../system/include/stm32l4-hal-driver/stm32l4xx_ll_gpio.h **** #define LL_GPIO_AF_7                       (0x0000007U) /*!< Select alternate function 7 */
 198:../system/include/stm32l4-hal-driver/stm32l4xx_ll_gpio.h **** #define LL_GPIO_AF_8                       (0x0000008U) /*!< Select alternate function 8 */
 199:../system/include/stm32l4-hal-driver/stm32l4xx_ll_gpio.h **** #define LL_GPIO_AF_9                       (0x0000009U) /*!< Select alternate function 9 */
 200:../system/include/stm32l4-hal-driver/stm32l4xx_ll_gpio.h **** #define LL_GPIO_AF_10                      (0x000000AU) /*!< Select alternate function 10 */
 201:../system/include/stm32l4-hal-driver/stm32l4xx_ll_gpio.h **** #define LL_GPIO_AF_11                      (0x000000BU) /*!< Select alternate function 11 */
 202:../system/include/stm32l4-hal-driver/stm32l4xx_ll_gpio.h **** #define LL_GPIO_AF_12                      (0x000000CU) /*!< Select alternate function 12 */
 203:../system/include/stm32l4-hal-driver/stm32l4xx_ll_gpio.h **** #define LL_GPIO_AF_13                      (0x000000DU) /*!< Select alternate function 13 */
 204:../system/include/stm32l4-hal-driver/stm32l4xx_ll_gpio.h **** #define LL_GPIO_AF_14                      (0x000000EU) /*!< Select alternate function 14 */
 205:../system/include/stm32l4-hal-driver/stm32l4xx_ll_gpio.h **** #define LL_GPIO_AF_15                      (0x000000FU) /*!< Select alternate function 15 */
 206:../system/include/stm32l4-hal-driver/stm32l4xx_ll_gpio.h **** /**
 207:../system/include/stm32l4-hal-driver/stm32l4xx_ll_gpio.h ****   * @}
 208:../system/include/stm32l4-hal-driver/stm32l4xx_ll_gpio.h ****   */
 209:../system/include/stm32l4-hal-driver/stm32l4xx_ll_gpio.h **** 
 210:../system/include/stm32l4-hal-driver/stm32l4xx_ll_gpio.h **** /**
 211:../system/include/stm32l4-hal-driver/stm32l4xx_ll_gpio.h ****   * @}
 212:../system/include/stm32l4-hal-driver/stm32l4xx_ll_gpio.h ****   */
 213:../system/include/stm32l4-hal-driver/stm32l4xx_ll_gpio.h **** 
 214:../system/include/stm32l4-hal-driver/stm32l4xx_ll_gpio.h **** /* Exported macro ------------------------------------------------------------*/
 215:../system/include/stm32l4-hal-driver/stm32l4xx_ll_gpio.h **** /** @defgroup GPIO_LL_Exported_Macros GPIO Exported Macros
 216:../system/include/stm32l4-hal-driver/stm32l4xx_ll_gpio.h ****   * @{
 217:../system/include/stm32l4-hal-driver/stm32l4xx_ll_gpio.h ****   */
 218:../system/include/stm32l4-hal-driver/stm32l4xx_ll_gpio.h **** 
 219:../system/include/stm32l4-hal-driver/stm32l4xx_ll_gpio.h **** /** @defgroup GPIO_LL_EM_WRITE_READ Common Write and read registers Macros
 220:../system/include/stm32l4-hal-driver/stm32l4xx_ll_gpio.h ****   * @{
 221:../system/include/stm32l4-hal-driver/stm32l4xx_ll_gpio.h ****   */
 222:../system/include/stm32l4-hal-driver/stm32l4xx_ll_gpio.h **** 
 223:../system/include/stm32l4-hal-driver/stm32l4xx_ll_gpio.h **** /**
 224:../system/include/stm32l4-hal-driver/stm32l4xx_ll_gpio.h ****   * @brief  Write a value in GPIO register
 225:../system/include/stm32l4-hal-driver/stm32l4xx_ll_gpio.h ****   * @param  __INSTANCE__ GPIO Instance
 226:../system/include/stm32l4-hal-driver/stm32l4xx_ll_gpio.h ****   * @param  __REG__ Register to be written
 227:../system/include/stm32l4-hal-driver/stm32l4xx_ll_gpio.h ****   * @param  __VALUE__ Value to be written in the register
 228:../system/include/stm32l4-hal-driver/stm32l4xx_ll_gpio.h ****   * @retval None
 229:../system/include/stm32l4-hal-driver/stm32l4xx_ll_gpio.h ****   */
 230:../system/include/stm32l4-hal-driver/stm32l4xx_ll_gpio.h **** #define LL_GPIO_WriteReg(__INSTANCE__, __REG__, __VALUE__) WRITE_REG(__INSTANCE__->__REG__, (__VALU
 231:../system/include/stm32l4-hal-driver/stm32l4xx_ll_gpio.h **** 
 232:../system/include/stm32l4-hal-driver/stm32l4xx_ll_gpio.h **** /**
 233:../system/include/stm32l4-hal-driver/stm32l4xx_ll_gpio.h ****   * @brief  Read a value in GPIO register
 234:../system/include/stm32l4-hal-driver/stm32l4xx_ll_gpio.h ****   * @param  __INSTANCE__ GPIO Instance
 235:../system/include/stm32l4-hal-driver/stm32l4xx_ll_gpio.h ****   * @param  __REG__ Register to be read
 236:../system/include/stm32l4-hal-driver/stm32l4xx_ll_gpio.h ****   * @retval Register value
 237:../system/include/stm32l4-hal-driver/stm32l4xx_ll_gpio.h ****   */
 238:../system/include/stm32l4-hal-driver/stm32l4xx_ll_gpio.h **** #define LL_GPIO_ReadReg(__INSTANCE__, __REG__) READ_REG(__INSTANCE__->__REG__)
 239:../system/include/stm32l4-hal-driver/stm32l4xx_ll_gpio.h **** /**
 240:../system/include/stm32l4-hal-driver/stm32l4xx_ll_gpio.h ****   * @}
 241:../system/include/stm32l4-hal-driver/stm32l4xx_ll_gpio.h ****   */
 242:../system/include/stm32l4-hal-driver/stm32l4xx_ll_gpio.h **** 
 243:../system/include/stm32l4-hal-driver/stm32l4xx_ll_gpio.h **** /**
 244:../system/include/stm32l4-hal-driver/stm32l4xx_ll_gpio.h ****   * @}
 245:../system/include/stm32l4-hal-driver/stm32l4xx_ll_gpio.h ****   */
 246:../system/include/stm32l4-hal-driver/stm32l4xx_ll_gpio.h **** 
 247:../system/include/stm32l4-hal-driver/stm32l4xx_ll_gpio.h **** /* Exported functions --------------------------------------------------------*/
 248:../system/include/stm32l4-hal-driver/stm32l4xx_ll_gpio.h **** /** @defgroup GPIO_LL_Exported_Functions GPIO Exported Functions
 249:../system/include/stm32l4-hal-driver/stm32l4xx_ll_gpio.h ****   * @{
 250:../system/include/stm32l4-hal-driver/stm32l4xx_ll_gpio.h ****   */
 251:../system/include/stm32l4-hal-driver/stm32l4xx_ll_gpio.h **** 
 252:../system/include/stm32l4-hal-driver/stm32l4xx_ll_gpio.h **** /** @defgroup GPIO_LL_EF_Port_Configuration Port Configuration
 253:../system/include/stm32l4-hal-driver/stm32l4xx_ll_gpio.h ****   * @{
 254:../system/include/stm32l4-hal-driver/stm32l4xx_ll_gpio.h ****   */
 255:../system/include/stm32l4-hal-driver/stm32l4xx_ll_gpio.h **** 
 256:../system/include/stm32l4-hal-driver/stm32l4xx_ll_gpio.h **** /**
 257:../system/include/stm32l4-hal-driver/stm32l4xx_ll_gpio.h ****   * @brief  Configure gpio mode for a dedicated pin on dedicated port.
 258:../system/include/stm32l4-hal-driver/stm32l4xx_ll_gpio.h ****   * @note   I/O mode can be Input mode, General purpose output, Alternate function mode or Analog.
 259:../system/include/stm32l4-hal-driver/stm32l4xx_ll_gpio.h ****   * @note   Warning: only one pin can be passed as parameter.
 260:../system/include/stm32l4-hal-driver/stm32l4xx_ll_gpio.h ****   * @rmtoll MODER        MODEy         LL_GPIO_SetPinMode
 261:../system/include/stm32l4-hal-driver/stm32l4xx_ll_gpio.h ****   * @param  GPIOx GPIO Port
 262:../system/include/stm32l4-hal-driver/stm32l4xx_ll_gpio.h ****   * @param  Pin This parameter can be one of the following values:
 263:../system/include/stm32l4-hal-driver/stm32l4xx_ll_gpio.h ****   *         @arg @ref LL_GPIO_PIN_0
 264:../system/include/stm32l4-hal-driver/stm32l4xx_ll_gpio.h ****   *         @arg @ref LL_GPIO_PIN_1
 265:../system/include/stm32l4-hal-driver/stm32l4xx_ll_gpio.h ****   *         @arg @ref LL_GPIO_PIN_2
 266:../system/include/stm32l4-hal-driver/stm32l4xx_ll_gpio.h ****   *         @arg @ref LL_GPIO_PIN_3
 267:../system/include/stm32l4-hal-driver/stm32l4xx_ll_gpio.h ****   *         @arg @ref LL_GPIO_PIN_4
 268:../system/include/stm32l4-hal-driver/stm32l4xx_ll_gpio.h ****   *         @arg @ref LL_GPIO_PIN_5
 269:../system/include/stm32l4-hal-driver/stm32l4xx_ll_gpio.h ****   *         @arg @ref LL_GPIO_PIN_6
 270:../system/include/stm32l4-hal-driver/stm32l4xx_ll_gpio.h ****   *         @arg @ref LL_GPIO_PIN_7
 271:../system/include/stm32l4-hal-driver/stm32l4xx_ll_gpio.h ****   *         @arg @ref LL_GPIO_PIN_8
 272:../system/include/stm32l4-hal-driver/stm32l4xx_ll_gpio.h ****   *         @arg @ref LL_GPIO_PIN_9
 273:../system/include/stm32l4-hal-driver/stm32l4xx_ll_gpio.h ****   *         @arg @ref LL_GPIO_PIN_10
 274:../system/include/stm32l4-hal-driver/stm32l4xx_ll_gpio.h ****   *         @arg @ref LL_GPIO_PIN_11
 275:../system/include/stm32l4-hal-driver/stm32l4xx_ll_gpio.h ****   *         @arg @ref LL_GPIO_PIN_12
 276:../system/include/stm32l4-hal-driver/stm32l4xx_ll_gpio.h ****   *         @arg @ref LL_GPIO_PIN_13
 277:../system/include/stm32l4-hal-driver/stm32l4xx_ll_gpio.h ****   *         @arg @ref LL_GPIO_PIN_14
 278:../system/include/stm32l4-hal-driver/stm32l4xx_ll_gpio.h ****   *         @arg @ref LL_GPIO_PIN_15
 279:../system/include/stm32l4-hal-driver/stm32l4xx_ll_gpio.h ****   * @param  Mode This parameter can be one of the following values:
 280:../system/include/stm32l4-hal-driver/stm32l4xx_ll_gpio.h ****   *         @arg @ref LL_GPIO_MODE_INPUT
 281:../system/include/stm32l4-hal-driver/stm32l4xx_ll_gpio.h ****   *         @arg @ref LL_GPIO_MODE_OUTPUT
 282:../system/include/stm32l4-hal-driver/stm32l4xx_ll_gpio.h ****   *         @arg @ref LL_GPIO_MODE_ALTERNATE
 283:../system/include/stm32l4-hal-driver/stm32l4xx_ll_gpio.h ****   *         @arg @ref LL_GPIO_MODE_ANALOG
 284:../system/include/stm32l4-hal-driver/stm32l4xx_ll_gpio.h ****   * @retval None
 285:../system/include/stm32l4-hal-driver/stm32l4xx_ll_gpio.h ****   */
 286:../system/include/stm32l4-hal-driver/stm32l4xx_ll_gpio.h **** __STATIC_INLINE void LL_GPIO_SetPinMode(GPIO_TypeDef *GPIOx, uint32_t Pin, uint32_t Mode)
 287:../system/include/stm32l4-hal-driver/stm32l4xx_ll_gpio.h **** {
 288:../system/include/stm32l4-hal-driver/stm32l4xx_ll_gpio.h ****   MODIFY_REG(GPIOx->MODER, (GPIO_MODER_MODE0 << (POSITION_VAL(Pin) * 2U)), (Mode << (POSITION_VAL(P
 289:../system/include/stm32l4-hal-driver/stm32l4xx_ll_gpio.h **** }
 290:../system/include/stm32l4-hal-driver/stm32l4xx_ll_gpio.h **** 
 291:../system/include/stm32l4-hal-driver/stm32l4xx_ll_gpio.h **** /**
 292:../system/include/stm32l4-hal-driver/stm32l4xx_ll_gpio.h ****   * @brief  Return gpio mode for a dedicated pin on dedicated port.
 293:../system/include/stm32l4-hal-driver/stm32l4xx_ll_gpio.h ****   * @note   I/O mode can be Input mode, General purpose output, Alternate function mode or Analog.
 294:../system/include/stm32l4-hal-driver/stm32l4xx_ll_gpio.h ****   * @note   Warning: only one pin can be passed as parameter.
 295:../system/include/stm32l4-hal-driver/stm32l4xx_ll_gpio.h ****   * @rmtoll MODER        MODEy         LL_GPIO_GetPinMode
 296:../system/include/stm32l4-hal-driver/stm32l4xx_ll_gpio.h ****   * @param  GPIOx GPIO Port
 297:../system/include/stm32l4-hal-driver/stm32l4xx_ll_gpio.h ****   * @param  Pin This parameter can be one of the following values:
 298:../system/include/stm32l4-hal-driver/stm32l4xx_ll_gpio.h ****   *         @arg @ref LL_GPIO_PIN_0
 299:../system/include/stm32l4-hal-driver/stm32l4xx_ll_gpio.h ****   *         @arg @ref LL_GPIO_PIN_1
 300:../system/include/stm32l4-hal-driver/stm32l4xx_ll_gpio.h ****   *         @arg @ref LL_GPIO_PIN_2
 301:../system/include/stm32l4-hal-driver/stm32l4xx_ll_gpio.h ****   *         @arg @ref LL_GPIO_PIN_3
 302:../system/include/stm32l4-hal-driver/stm32l4xx_ll_gpio.h ****   *         @arg @ref LL_GPIO_PIN_4
 303:../system/include/stm32l4-hal-driver/stm32l4xx_ll_gpio.h ****   *         @arg @ref LL_GPIO_PIN_5
 304:../system/include/stm32l4-hal-driver/stm32l4xx_ll_gpio.h ****   *         @arg @ref LL_GPIO_PIN_6
 305:../system/include/stm32l4-hal-driver/stm32l4xx_ll_gpio.h ****   *         @arg @ref LL_GPIO_PIN_7
 306:../system/include/stm32l4-hal-driver/stm32l4xx_ll_gpio.h ****   *         @arg @ref LL_GPIO_PIN_8
 307:../system/include/stm32l4-hal-driver/stm32l4xx_ll_gpio.h ****   *         @arg @ref LL_GPIO_PIN_9
 308:../system/include/stm32l4-hal-driver/stm32l4xx_ll_gpio.h ****   *         @arg @ref LL_GPIO_PIN_10
 309:../system/include/stm32l4-hal-driver/stm32l4xx_ll_gpio.h ****   *         @arg @ref LL_GPIO_PIN_11
 310:../system/include/stm32l4-hal-driver/stm32l4xx_ll_gpio.h ****   *         @arg @ref LL_GPIO_PIN_12
 311:../system/include/stm32l4-hal-driver/stm32l4xx_ll_gpio.h ****   *         @arg @ref LL_GPIO_PIN_13
 312:../system/include/stm32l4-hal-driver/stm32l4xx_ll_gpio.h ****   *         @arg @ref LL_GPIO_PIN_14
 313:../system/include/stm32l4-hal-driver/stm32l4xx_ll_gpio.h ****   *         @arg @ref LL_GPIO_PIN_15
 314:../system/include/stm32l4-hal-driver/stm32l4xx_ll_gpio.h ****   * @retval Returned value can be one of the following values:
 315:../system/include/stm32l4-hal-driver/stm32l4xx_ll_gpio.h ****   *         @arg @ref LL_GPIO_MODE_INPUT
 316:../system/include/stm32l4-hal-driver/stm32l4xx_ll_gpio.h ****   *         @arg @ref LL_GPIO_MODE_OUTPUT
 317:../system/include/stm32l4-hal-driver/stm32l4xx_ll_gpio.h ****   *         @arg @ref LL_GPIO_MODE_ALTERNATE
 318:../system/include/stm32l4-hal-driver/stm32l4xx_ll_gpio.h ****   *         @arg @ref LL_GPIO_MODE_ANALOG
 319:../system/include/stm32l4-hal-driver/stm32l4xx_ll_gpio.h ****   */
 320:../system/include/stm32l4-hal-driver/stm32l4xx_ll_gpio.h **** __STATIC_INLINE uint32_t LL_GPIO_GetPinMode(GPIO_TypeDef *GPIOx, uint32_t Pin)
 321:../system/include/stm32l4-hal-driver/stm32l4xx_ll_gpio.h **** {
 322:../system/include/stm32l4-hal-driver/stm32l4xx_ll_gpio.h ****   return (uint32_t)(READ_BIT(GPIOx->MODER,
 323:../system/include/stm32l4-hal-driver/stm32l4xx_ll_gpio.h ****                              (GPIO_MODER_MODE0 << (POSITION_VAL(Pin) * 2U))) >> (POSITION_VAL(Pin) 
 324:../system/include/stm32l4-hal-driver/stm32l4xx_ll_gpio.h **** }
 325:../system/include/stm32l4-hal-driver/stm32l4xx_ll_gpio.h **** 
 326:../system/include/stm32l4-hal-driver/stm32l4xx_ll_gpio.h **** /**
 327:../system/include/stm32l4-hal-driver/stm32l4xx_ll_gpio.h ****   * @brief  Configure gpio output type for several pins on dedicated port.
 328:../system/include/stm32l4-hal-driver/stm32l4xx_ll_gpio.h ****   * @note   Output type as to be set when gpio pin is in output or
 329:../system/include/stm32l4-hal-driver/stm32l4xx_ll_gpio.h ****   *         alternate modes. Possible type are Push-pull or Open-drain.
 330:../system/include/stm32l4-hal-driver/stm32l4xx_ll_gpio.h ****   * @rmtoll OTYPER       OTy           LL_GPIO_SetPinOutputType
 331:../system/include/stm32l4-hal-driver/stm32l4xx_ll_gpio.h ****   * @param  GPIOx GPIO Port
 332:../system/include/stm32l4-hal-driver/stm32l4xx_ll_gpio.h ****   * @param  PinMask This parameter can be a combination of the following values:
 333:../system/include/stm32l4-hal-driver/stm32l4xx_ll_gpio.h ****   *         @arg @ref LL_GPIO_PIN_0
 334:../system/include/stm32l4-hal-driver/stm32l4xx_ll_gpio.h ****   *         @arg @ref LL_GPIO_PIN_1
 335:../system/include/stm32l4-hal-driver/stm32l4xx_ll_gpio.h ****   *         @arg @ref LL_GPIO_PIN_2
 336:../system/include/stm32l4-hal-driver/stm32l4xx_ll_gpio.h ****   *         @arg @ref LL_GPIO_PIN_3
 337:../system/include/stm32l4-hal-driver/stm32l4xx_ll_gpio.h ****   *         @arg @ref LL_GPIO_PIN_4
 338:../system/include/stm32l4-hal-driver/stm32l4xx_ll_gpio.h ****   *         @arg @ref LL_GPIO_PIN_5
 339:../system/include/stm32l4-hal-driver/stm32l4xx_ll_gpio.h ****   *         @arg @ref LL_GPIO_PIN_6
 340:../system/include/stm32l4-hal-driver/stm32l4xx_ll_gpio.h ****   *         @arg @ref LL_GPIO_PIN_7
 341:../system/include/stm32l4-hal-driver/stm32l4xx_ll_gpio.h ****   *         @arg @ref LL_GPIO_PIN_8
 342:../system/include/stm32l4-hal-driver/stm32l4xx_ll_gpio.h ****   *         @arg @ref LL_GPIO_PIN_9
 343:../system/include/stm32l4-hal-driver/stm32l4xx_ll_gpio.h ****   *         @arg @ref LL_GPIO_PIN_10
 344:../system/include/stm32l4-hal-driver/stm32l4xx_ll_gpio.h ****   *         @arg @ref LL_GPIO_PIN_11
 345:../system/include/stm32l4-hal-driver/stm32l4xx_ll_gpio.h ****   *         @arg @ref LL_GPIO_PIN_12
 346:../system/include/stm32l4-hal-driver/stm32l4xx_ll_gpio.h ****   *         @arg @ref LL_GPIO_PIN_13
 347:../system/include/stm32l4-hal-driver/stm32l4xx_ll_gpio.h ****   *         @arg @ref LL_GPIO_PIN_14
 348:../system/include/stm32l4-hal-driver/stm32l4xx_ll_gpio.h ****   *         @arg @ref LL_GPIO_PIN_15
 349:../system/include/stm32l4-hal-driver/stm32l4xx_ll_gpio.h ****   *         @arg @ref LL_GPIO_PIN_ALL
 350:../system/include/stm32l4-hal-driver/stm32l4xx_ll_gpio.h ****   * @param  OutputType This parameter can be one of the following values:
 351:../system/include/stm32l4-hal-driver/stm32l4xx_ll_gpio.h ****   *         @arg @ref LL_GPIO_OUTPUT_PUSHPULL
 352:../system/include/stm32l4-hal-driver/stm32l4xx_ll_gpio.h ****   *         @arg @ref LL_GPIO_OUTPUT_OPENDRAIN
 353:../system/include/stm32l4-hal-driver/stm32l4xx_ll_gpio.h ****   * @retval None
 354:../system/include/stm32l4-hal-driver/stm32l4xx_ll_gpio.h ****   */
 355:../system/include/stm32l4-hal-driver/stm32l4xx_ll_gpio.h **** __STATIC_INLINE void LL_GPIO_SetPinOutputType(GPIO_TypeDef *GPIOx, uint32_t PinMask, uint32_t Outpu
 356:../system/include/stm32l4-hal-driver/stm32l4xx_ll_gpio.h **** {
 357:../system/include/stm32l4-hal-driver/stm32l4xx_ll_gpio.h ****   MODIFY_REG(GPIOx->OTYPER, PinMask, (PinMask * OutputType));
 358:../system/include/stm32l4-hal-driver/stm32l4xx_ll_gpio.h **** }
 359:../system/include/stm32l4-hal-driver/stm32l4xx_ll_gpio.h **** 
 360:../system/include/stm32l4-hal-driver/stm32l4xx_ll_gpio.h **** /**
 361:../system/include/stm32l4-hal-driver/stm32l4xx_ll_gpio.h ****   * @brief  Return gpio output type for several pins on dedicated port.
 362:../system/include/stm32l4-hal-driver/stm32l4xx_ll_gpio.h ****   * @note   Output type as to be set when gpio pin is in output or
 363:../system/include/stm32l4-hal-driver/stm32l4xx_ll_gpio.h ****   *         alternate modes. Possible type are Push-pull or Open-drain.
 364:../system/include/stm32l4-hal-driver/stm32l4xx_ll_gpio.h ****   * @note   Warning: only one pin can be passed as parameter.
 365:../system/include/stm32l4-hal-driver/stm32l4xx_ll_gpio.h ****   * @rmtoll OTYPER       OTy           LL_GPIO_GetPinOutputType
 366:../system/include/stm32l4-hal-driver/stm32l4xx_ll_gpio.h ****   * @param  GPIOx GPIO Port
 367:../system/include/stm32l4-hal-driver/stm32l4xx_ll_gpio.h ****   * @param  Pin This parameter can be one of the following values:
 368:../system/include/stm32l4-hal-driver/stm32l4xx_ll_gpio.h ****   *         @arg @ref LL_GPIO_PIN_0
 369:../system/include/stm32l4-hal-driver/stm32l4xx_ll_gpio.h ****   *         @arg @ref LL_GPIO_PIN_1
 370:../system/include/stm32l4-hal-driver/stm32l4xx_ll_gpio.h ****   *         @arg @ref LL_GPIO_PIN_2
 371:../system/include/stm32l4-hal-driver/stm32l4xx_ll_gpio.h ****   *         @arg @ref LL_GPIO_PIN_3
 372:../system/include/stm32l4-hal-driver/stm32l4xx_ll_gpio.h ****   *         @arg @ref LL_GPIO_PIN_4
 373:../system/include/stm32l4-hal-driver/stm32l4xx_ll_gpio.h ****   *         @arg @ref LL_GPIO_PIN_5
 374:../system/include/stm32l4-hal-driver/stm32l4xx_ll_gpio.h ****   *         @arg @ref LL_GPIO_PIN_6
 375:../system/include/stm32l4-hal-driver/stm32l4xx_ll_gpio.h ****   *         @arg @ref LL_GPIO_PIN_7
 376:../system/include/stm32l4-hal-driver/stm32l4xx_ll_gpio.h ****   *         @arg @ref LL_GPIO_PIN_8
 377:../system/include/stm32l4-hal-driver/stm32l4xx_ll_gpio.h ****   *         @arg @ref LL_GPIO_PIN_9
 378:../system/include/stm32l4-hal-driver/stm32l4xx_ll_gpio.h ****   *         @arg @ref LL_GPIO_PIN_10
 379:../system/include/stm32l4-hal-driver/stm32l4xx_ll_gpio.h ****   *         @arg @ref LL_GPIO_PIN_11
 380:../system/include/stm32l4-hal-driver/stm32l4xx_ll_gpio.h ****   *         @arg @ref LL_GPIO_PIN_12
 381:../system/include/stm32l4-hal-driver/stm32l4xx_ll_gpio.h ****   *         @arg @ref LL_GPIO_PIN_13
 382:../system/include/stm32l4-hal-driver/stm32l4xx_ll_gpio.h ****   *         @arg @ref LL_GPIO_PIN_14
 383:../system/include/stm32l4-hal-driver/stm32l4xx_ll_gpio.h ****   *         @arg @ref LL_GPIO_PIN_15
 384:../system/include/stm32l4-hal-driver/stm32l4xx_ll_gpio.h ****   *         @arg @ref LL_GPIO_PIN_ALL
 385:../system/include/stm32l4-hal-driver/stm32l4xx_ll_gpio.h ****   * @retval Returned value can be one of the following values:
 386:../system/include/stm32l4-hal-driver/stm32l4xx_ll_gpio.h ****   *         @arg @ref LL_GPIO_OUTPUT_PUSHPULL
 387:../system/include/stm32l4-hal-driver/stm32l4xx_ll_gpio.h ****   *         @arg @ref LL_GPIO_OUTPUT_OPENDRAIN
 388:../system/include/stm32l4-hal-driver/stm32l4xx_ll_gpio.h ****   */
 389:../system/include/stm32l4-hal-driver/stm32l4xx_ll_gpio.h **** __STATIC_INLINE uint32_t LL_GPIO_GetPinOutputType(GPIO_TypeDef *GPIOx, uint32_t Pin)
 390:../system/include/stm32l4-hal-driver/stm32l4xx_ll_gpio.h **** {
 391:../system/include/stm32l4-hal-driver/stm32l4xx_ll_gpio.h ****   return (uint32_t)(READ_BIT(GPIOx->OTYPER, Pin) >> POSITION_VAL(Pin));
 392:../system/include/stm32l4-hal-driver/stm32l4xx_ll_gpio.h **** }
 393:../system/include/stm32l4-hal-driver/stm32l4xx_ll_gpio.h **** 
 394:../system/include/stm32l4-hal-driver/stm32l4xx_ll_gpio.h **** /**
 395:../system/include/stm32l4-hal-driver/stm32l4xx_ll_gpio.h ****   * @brief  Configure gpio speed for a dedicated pin on dedicated port.
 396:../system/include/stm32l4-hal-driver/stm32l4xx_ll_gpio.h ****   * @note   I/O speed can be Low, Medium, Fast or High speed.
 397:../system/include/stm32l4-hal-driver/stm32l4xx_ll_gpio.h ****   * @note   Warning: only one pin can be passed as parameter.
 398:../system/include/stm32l4-hal-driver/stm32l4xx_ll_gpio.h ****   * @note   Refer to datasheet for frequency specifications and the power
 399:../system/include/stm32l4-hal-driver/stm32l4xx_ll_gpio.h ****   *         supply and load conditions for each speed.
 400:../system/include/stm32l4-hal-driver/stm32l4xx_ll_gpio.h ****   * @rmtoll OSPEEDR      OSPEEDy       LL_GPIO_SetPinSpeed
 401:../system/include/stm32l4-hal-driver/stm32l4xx_ll_gpio.h ****   * @param  GPIOx GPIO Port
 402:../system/include/stm32l4-hal-driver/stm32l4xx_ll_gpio.h ****   * @param  Pin This parameter can be one of the following values:
 403:../system/include/stm32l4-hal-driver/stm32l4xx_ll_gpio.h ****   *         @arg @ref LL_GPIO_PIN_0
 404:../system/include/stm32l4-hal-driver/stm32l4xx_ll_gpio.h ****   *         @arg @ref LL_GPIO_PIN_1
 405:../system/include/stm32l4-hal-driver/stm32l4xx_ll_gpio.h ****   *         @arg @ref LL_GPIO_PIN_2
 406:../system/include/stm32l4-hal-driver/stm32l4xx_ll_gpio.h ****   *         @arg @ref LL_GPIO_PIN_3
 407:../system/include/stm32l4-hal-driver/stm32l4xx_ll_gpio.h ****   *         @arg @ref LL_GPIO_PIN_4
 408:../system/include/stm32l4-hal-driver/stm32l4xx_ll_gpio.h ****   *         @arg @ref LL_GPIO_PIN_5
 409:../system/include/stm32l4-hal-driver/stm32l4xx_ll_gpio.h ****   *         @arg @ref LL_GPIO_PIN_6
 410:../system/include/stm32l4-hal-driver/stm32l4xx_ll_gpio.h ****   *         @arg @ref LL_GPIO_PIN_7
 411:../system/include/stm32l4-hal-driver/stm32l4xx_ll_gpio.h ****   *         @arg @ref LL_GPIO_PIN_8
 412:../system/include/stm32l4-hal-driver/stm32l4xx_ll_gpio.h ****   *         @arg @ref LL_GPIO_PIN_9
 413:../system/include/stm32l4-hal-driver/stm32l4xx_ll_gpio.h ****   *         @arg @ref LL_GPIO_PIN_10
 414:../system/include/stm32l4-hal-driver/stm32l4xx_ll_gpio.h ****   *         @arg @ref LL_GPIO_PIN_11
 415:../system/include/stm32l4-hal-driver/stm32l4xx_ll_gpio.h ****   *         @arg @ref LL_GPIO_PIN_12
 416:../system/include/stm32l4-hal-driver/stm32l4xx_ll_gpio.h ****   *         @arg @ref LL_GPIO_PIN_13
 417:../system/include/stm32l4-hal-driver/stm32l4xx_ll_gpio.h ****   *         @arg @ref LL_GPIO_PIN_14
 418:../system/include/stm32l4-hal-driver/stm32l4xx_ll_gpio.h ****   *         @arg @ref LL_GPIO_PIN_15
 419:../system/include/stm32l4-hal-driver/stm32l4xx_ll_gpio.h ****   * @param  Speed This parameter can be one of the following values:
 420:../system/include/stm32l4-hal-driver/stm32l4xx_ll_gpio.h ****   *         @arg @ref LL_GPIO_SPEED_FREQ_LOW
 421:../system/include/stm32l4-hal-driver/stm32l4xx_ll_gpio.h ****   *         @arg @ref LL_GPIO_SPEED_FREQ_MEDIUM
 422:../system/include/stm32l4-hal-driver/stm32l4xx_ll_gpio.h ****   *         @arg @ref LL_GPIO_SPEED_FREQ_HIGH
 423:../system/include/stm32l4-hal-driver/stm32l4xx_ll_gpio.h ****   *         @arg @ref LL_GPIO_SPEED_FREQ_VERY_HIGH
 424:../system/include/stm32l4-hal-driver/stm32l4xx_ll_gpio.h ****   * @retval None
 425:../system/include/stm32l4-hal-driver/stm32l4xx_ll_gpio.h ****   */
 426:../system/include/stm32l4-hal-driver/stm32l4xx_ll_gpio.h **** __STATIC_INLINE void LL_GPIO_SetPinSpeed(GPIO_TypeDef *GPIOx, uint32_t Pin, uint32_t  Speed)
 427:../system/include/stm32l4-hal-driver/stm32l4xx_ll_gpio.h **** {
 428:../system/include/stm32l4-hal-driver/stm32l4xx_ll_gpio.h ****   MODIFY_REG(GPIOx->OSPEEDR, (GPIO_OSPEEDR_OSPEED0 << (POSITION_VAL(Pin) * 2U)),
 429:../system/include/stm32l4-hal-driver/stm32l4xx_ll_gpio.h ****              (Speed << (POSITION_VAL(Pin) * 2U)));
 430:../system/include/stm32l4-hal-driver/stm32l4xx_ll_gpio.h **** }
 431:../system/include/stm32l4-hal-driver/stm32l4xx_ll_gpio.h **** 
 432:../system/include/stm32l4-hal-driver/stm32l4xx_ll_gpio.h **** /**
 433:../system/include/stm32l4-hal-driver/stm32l4xx_ll_gpio.h ****   * @brief  Return gpio speed for a dedicated pin on dedicated port.
 434:../system/include/stm32l4-hal-driver/stm32l4xx_ll_gpio.h ****   * @note   I/O speed can be Low, Medium, Fast or High speed.
