   1              		.cpu cortex-m3
   2              		.eabi_attribute 20, 1
   3              		.eabi_attribute 21, 1
   4              		.eabi_attribute 23, 3
   5              		.eabi_attribute 24, 1
   6              		.eabi_attribute 25, 1
   7              		.eabi_attribute 26, 1
   8              		.eabi_attribute 30, 1
   9              		.eabi_attribute 34, 1
  10              		.eabi_attribute 18, 4
  11              		.file	"umb_0x23_offline_data.c"
  12              		.text
  13              	.Ltext0:
  14              		.cfi_sections	.debug_frame
  15              		.section	.text.umb_0x23_offline_data_request,"ax",%progbits
  16              		.align	1
  17              		.global	umb_0x23_offline_data_request
  18              		.syntax unified
  19              		.thumb
  20              		.thumb_func
  21              		.fpu softvfp
  23              	umb_0x23_offline_data_request:
  24              	.LFB91:
  25              		.file 1 "../system/src/umb_master/umb_0x23_offline_data.c"
   1:../system/src/umb_master/umb_0x23_offline_data.c **** /*
   2:../system/src/umb_master/umb_0x23_offline_data.c ****  * umb_0x23_offline_data.c
   3:../system/src/umb_master/umb_0x23_offline_data.c ****  *
   4:../system/src/umb_master/umb_0x23_offline_data.c ****  *  Created on: 20.03.2020
   5:../system/src/umb_master/umb_0x23_offline_data.c ****  *      Author: mateusz
   6:../system/src/umb_master/umb_0x23_offline_data.c ****  */
   7:../system/src/umb_master/umb_0x23_offline_data.c **** 
   8:../system/src/umb_master/umb_0x23_offline_data.c **** #include "../umb_master/umb_master.h"
   9:../system/src/umb_master/umb_0x23_offline_data.c **** #include "../umb_master/umb_0x23_offline_data.h"
  10:../system/src/umb_master/umb_0x23_offline_data.c **** #include "rte_wx.h"
  11:../system/src/umb_master/umb_0x23_offline_data.c **** #include "main.h"
  12:../system/src/umb_master/umb_0x23_offline_data.c **** 
  13:../system/src/umb_master/umb_0x23_offline_data.c **** #define UNSIGNED_CHAR 	0x10
  14:../system/src/umb_master/umb_0x23_offline_data.c **** #define SIGNED_CHAR		0x11
  15:../system/src/umb_master/umb_0x23_offline_data.c **** #define UNSIGNED_SHORT	0x12
  16:../system/src/umb_master/umb_0x23_offline_data.c **** #define SIGNED_SHORT	0x13
  17:../system/src/umb_master/umb_0x23_offline_data.c **** #define UNSIGNED_LONG	0x14
  18:../system/src/umb_master/umb_0x23_offline_data.c **** #define SIGNED_LONG		0x15
  19:../system/src/umb_master/umb_0x23_offline_data.c **** #define FLOAT			0x16
  20:../system/src/umb_master/umb_0x23_offline_data.c **** 
  21:../system/src/umb_master/umb_0x23_offline_data.c **** #define UNSIGNED_CHAR_LN	1
  22:../system/src/umb_master/umb_0x23_offline_data.c **** #define SIGNED_CHAR_LN		1
  23:../system/src/umb_master/umb_0x23_offline_data.c **** #define UNSIGNED_SHORT_LN	2
  24:../system/src/umb_master/umb_0x23_offline_data.c **** #define SIGNED_SHORT_LN		2
  25:../system/src/umb_master/umb_0x23_offline_data.c **** #define	UNSIGNED_LONG_LN	4
  26:../system/src/umb_master/umb_0x23_offline_data.c **** #define SIGNED_LONG_LN		4
  27:../system/src/umb_master/umb_0x23_offline_data.c **** #define FLOAT_LN			4
  28:../system/src/umb_master/umb_0x23_offline_data.c **** 
  29:../system/src/umb_master/umb_0x23_offline_data.c **** umb_retval_t umb_0x23_offline_data_request(umb_frame_t* frame, umb_context_t* ctx, uint16_t channel
  26              		.loc 1 29 0
  27              		.cfi_startproc
  28              		@ args = 0, pretend = 0, frame = 0
  29              		@ frame_needed = 0, uses_anonymous_args = 0
  30              		@ link register save eliminated.
  31              	.LVL0:
  32 0000 30B4     		push	{r4, r5}
  33              		.cfi_def_cfa_offset 8
  34              		.cfi_offset 4, -8
  35              		.cfi_offset 5, -4
  30:../system/src/umb_master/umb_0x23_offline_data.c **** 
  31:../system/src/umb_master/umb_0x23_offline_data.c **** 	if (ctx->state != UMB_STATUS_IDLE && ctx->state != UMB_STATUS_ERROR) {
  36              		.loc 1 31 0
  37 0002 0C7E     		ldrb	r4, [r1, #24]	@ zero_extendqisi2
  38 0004 0CB1     		cbz	r4, .L2
  39              		.loc 1 31 0 is_stmt 0 discriminator 1
  40 0006 062C     		cmp	r4, #6
  41 0008 10D1     		bne	.L4
  42              	.L2:
  32:../system/src/umb_master/umb_0x23_offline_data.c **** 		return UMB_BUSY;
  33:../system/src/umb_master/umb_0x23_offline_data.c **** 	}
  34:../system/src/umb_master/umb_0x23_offline_data.c **** 
  35:../system/src/umb_master/umb_0x23_offline_data.c **** 	frame->command_id = 0x23;
  43              		.loc 1 35 0 is_stmt 1
  44 000a 2324     		movs	r4, #35
  45 000c 0471     		strb	r4, [r0, #4]
  36:../system/src/umb_master/umb_0x23_offline_data.c **** 	frame->slave_class = (uint8_t)(config_umb->slave_class & 0xFF);
  46              		.loc 1 36 0
  47 000e 1D78     		ldrb	r5, [r3]	@ zero_extendqisi2
  48 0010 8570     		strb	r5, [r0, #2]
  37:../system/src/umb_master/umb_0x23_offline_data.c **** 	frame->slave_id = (uint8_t)(config_umb->slave_id & 0xFF);
  49              		.loc 1 37 0
  50 0012 9B78     		ldrb	r3, [r3, #2]	@ zero_extendqisi2
  51              	.LVL1:
  52 0014 4370     		strb	r3, [r0, #1]
  38:../system/src/umb_master/umb_0x23_offline_data.c **** 	frame->lenght = 2;
  53              		.loc 1 38 0
  54 0016 0223     		movs	r3, #2
  55 0018 C370     		strb	r3, [r0, #3]
  39:../system/src/umb_master/umb_0x23_offline_data.c **** 
  40:../system/src/umb_master/umb_0x23_offline_data.c **** 	// channels are little endian 16 bit unsigned integer
  41:../system/src/umb_master/umb_0x23_offline_data.c **** 	frame->payload[0] = channel_number & 0xFF;
  56              		.loc 1 41 0
  57 001a 4271     		strb	r2, [r0, #5]
  42:../system/src/umb_master/umb_0x23_offline_data.c **** 	frame->payload[1] = (channel_number & 0xFF00) >> 8;
  58              		.loc 1 42 0
  59 001c 120A     		lsrs	r2, r2, #8
  60              	.LVL2:
  61 001e 8271     		strb	r2, [r0, #6]
  43:../system/src/umb_master/umb_0x23_offline_data.c **** 
  44:../system/src/umb_master/umb_0x23_offline_data.c **** 	ctx->state = UMB_STATUS_READY_TO_SEND;
  62              		.loc 1 44 0
  63 0020 0123     		movs	r3, #1
  64 0022 0B76     		strb	r3, [r1, #24]
  45:../system/src/umb_master/umb_0x23_offline_data.c **** 	ctx->current_routine = 0x23;
  65              		.loc 1 45 0
  66 0024 0C80     		strh	r4, [r1]	@ movhi
  46:../system/src/umb_master/umb_0x23_offline_data.c **** 
  47:../system/src/umb_master/umb_0x23_offline_data.c **** 	return UMB_OK;
  67              		.loc 1 47 0
  68 0026 0020     		movs	r0, #0
  69              	.LVL3:
  70              	.L3:
  48:../system/src/umb_master/umb_0x23_offline_data.c **** }
  71              		.loc 1 48 0
  72 0028 30BC     		pop	{r4, r5}
  73              		.cfi_remember_state
  74              		.cfi_restore 5
  75              		.cfi_restore 4
  76              		.cfi_def_cfa_offset 0
  77 002a 7047     		bx	lr
  78              	.LVL4:
  79              	.L4:
  80              		.cfi_restore_state
  32:../system/src/umb_master/umb_0x23_offline_data.c **** 	}
  81              		.loc 1 32 0
  82 002c 6FF00500 		mvn	r0, #5
  83              	.LVL5:
  84 0030 FAE7     		b	.L3
  85              		.cfi_endproc
  86              	.LFE91:
  88              		.global	__aeabi_fmul
  89              		.global	__aeabi_f2iz
  90              		.section	.text.umb_0x23_offline_data_callback,"ax",%progbits
  91              		.align	1
  92              		.global	umb_0x23_offline_data_callback
  93              		.syntax unified
  94              		.thumb
  95              		.thumb_func
  96              		.fpu softvfp
  98              	umb_0x23_offline_data_callback:
  99              	.LFB92:
  49:../system/src/umb_master/umb_0x23_offline_data.c **** 
  50:../system/src/umb_master/umb_0x23_offline_data.c **** umb_retval_t umb_0x23_offline_data_callback(umb_frame_t* frame, umb_context_t* ctx) {
 100              		.loc 1 50 0
 101              		.cfi_startproc
 102              		@ args = 0, pretend = 0, frame = 0
 103              		@ frame_needed = 0, uses_anonymous_args = 0
 104              	.LVL6:
 105 0000 38B5     		push	{r3, r4, r5, lr}
 106              		.cfi_def_cfa_offset 16
 107              		.cfi_offset 3, -16
 108              		.cfi_offset 4, -12
 109              		.cfi_offset 5, -8
 110              		.cfi_offset 14, -4
 111              	.LVL7:
  51:../system/src/umb_master/umb_0x23_offline_data.c **** 
  52:../system/src/umb_master/umb_0x23_offline_data.c **** 	// return value
  53:../system/src/umb_master/umb_0x23_offline_data.c **** 	umb_retval_t output = UMB_OK;
  54:../system/src/umb_master/umb_0x23_offline_data.c **** 
  55:../system/src/umb_master/umb_0x23_offline_data.c **** 	// status from sensor
  56:../system/src/umb_master/umb_0x23_offline_data.c **** 	uint8_t status = frame->payload[0];
 112              		.loc 1 56 0
 113 0002 4379     		ldrb	r3, [r0, #5]	@ zero_extendqisi2
 114              	.LVL8:
  57:../system/src/umb_master/umb_0x23_offline_data.c **** 
  58:../system/src/umb_master/umb_0x23_offline_data.c **** 	// value type
  59:../system/src/umb_master/umb_0x23_offline_data.c **** 	uint8_t type = 0;
  60:../system/src/umb_master/umb_0x23_offline_data.c **** 
  61:../system/src/umb_master/umb_0x23_offline_data.c **** 	// channel from response
  62:../system/src/umb_master/umb_0x23_offline_data.c **** 	uint16_t channel = 0;
  63:../system/src/umb_master/umb_0x23_offline_data.c **** 
  64:../system/src/umb_master/umb_0x23_offline_data.c **** 	// raw value from sensor
  65:../system/src/umb_master/umb_0x23_offline_data.c **** 	uint32_t raw_value = 0;
  66:../system/src/umb_master/umb_0x23_offline_data.c **** 
  67:../system/src/umb_master/umb_0x23_offline_data.c **** 	// signed value to be written in RTE
  68:../system/src/umb_master/umb_0x23_offline_data.c **** 	int32_t value_for_rte = 0;
  69:../system/src/umb_master/umb_0x23_offline_data.c **** 
  70:../system/src/umb_master/umb_0x23_offline_data.c **** 	// temporary float point buffer to handle this type
  71:../system/src/umb_master/umb_0x23_offline_data.c **** 	float temp = 0.0f;
  72:../system/src/umb_master/umb_0x23_offline_data.c **** 
  73:../system/src/umb_master/umb_0x23_offline_data.c **** 	// fetch the channel number
  74:../system/src/umb_master/umb_0x23_offline_data.c **** 	channel = frame->payload[1] | (frame->payload[2] << 8);
 115              		.loc 1 74 0
 116 0004 8479     		ldrb	r4, [r0, #6]	@ zero_extendqisi2
 117 0006 C279     		ldrb	r2, [r0, #7]	@ zero_extendqisi2
 118 0008 44EA0224 		orr	r4, r4, r2, lsl #8
 119 000c 24B2     		sxth	r4, r4
 120              	.LVL9:
  75:../system/src/umb_master/umb_0x23_offline_data.c **** 
  76:../system/src/umb_master/umb_0x23_offline_data.c **** 	// check if status is OK
  77:../system/src/umb_master/umb_0x23_offline_data.c **** 	if (status == 0x00) {
 121              		.loc 1 77 0
 122 000e 002B     		cmp	r3, #0
 123 0010 72D1     		bne	.L7
  78:../system/src/umb_master/umb_0x23_offline_data.c **** 
  79:../system/src/umb_master/umb_0x23_offline_data.c **** 		// fetch the value type
  80:../system/src/umb_master/umb_0x23_offline_data.c **** 		type = frame->payload[3];
 124              		.loc 1 80 0
 125 0012 027A     		ldrb	r2, [r0, #8]	@ zero_extendqisi2
 126              	.LVL10:
  81:../system/src/umb_master/umb_0x23_offline_data.c **** 
  82:../system/src/umb_master/umb_0x23_offline_data.c **** 		// fetch the raw value into temporary storage
  83:../system/src/umb_master/umb_0x23_offline_data.c **** 		switch (type) {
 127              		.loc 1 83 0
 128 0014 A2F11003 		sub	r3, r2, #16
 129              	.LVL11:
 130 0018 062B     		cmp	r3, #6
 131 001a 2BD8     		bhi	.L8
 132 001c DFE803F0 		tbb	[pc, r3]
 133              	.L10:
 134 0020 04       		.byte	(.L9-.L10)/2
 135 0021 04       		.byte	(.L9-.L10)/2
 136 0022 0F       		.byte	(.L11-.L10)/2
 137 0023 0F       		.byte	(.L11-.L10)/2
 138 0024 14       		.byte	(.L12-.L10)/2
 139 0025 14       		.byte	(.L12-.L10)/2
 140 0026 1F       		.byte	(.L13-.L10)/2
 141 0027 00       		.p2align 1
 142              	.L9:
  84:../system/src/umb_master/umb_0x23_offline_data.c **** 			case UNSIGNED_CHAR:
  85:../system/src/umb_master/umb_0x23_offline_data.c **** 			case SIGNED_CHAR: {
  86:../system/src/umb_master/umb_0x23_offline_data.c **** 				raw_value = frame->payload[4];
 143              		.loc 1 86 0
 144 0028 407A     		ldrb	r0, [r0, #9]	@ zero_extendqisi2
 145              	.LVL12:
 146              	.L14:
 147 002a 0D46     		mov	r5, r1
  87:../system/src/umb_master/umb_0x23_offline_data.c **** 				break;
  88:../system/src/umb_master/umb_0x23_offline_data.c **** 			}
  89:../system/src/umb_master/umb_0x23_offline_data.c **** 			case UNSIGNED_SHORT:
  90:../system/src/umb_master/umb_0x23_offline_data.c **** 			case SIGNED_SHORT: {
  91:../system/src/umb_master/umb_0x23_offline_data.c **** 				raw_value = frame->payload[4] | (frame->payload[5] << 8);
  92:../system/src/umb_master/umb_0x23_offline_data.c **** 				break;
  93:../system/src/umb_master/umb_0x23_offline_data.c **** 			}
  94:../system/src/umb_master/umb_0x23_offline_data.c **** 			case UNSIGNED_LONG:
  95:../system/src/umb_master/umb_0x23_offline_data.c **** 			case SIGNED_LONG: {
  96:../system/src/umb_master/umb_0x23_offline_data.c **** 				raw_value = frame->payload[4] | (frame->payload[5] << 8) | (frame->payload[6] << 16) | (frame->
  97:../system/src/umb_master/umb_0x23_offline_data.c **** 				break;
  98:../system/src/umb_master/umb_0x23_offline_data.c **** 			}
  99:../system/src/umb_master/umb_0x23_offline_data.c **** 			case FLOAT: {
 100:../system/src/umb_master/umb_0x23_offline_data.c **** 				raw_value = frame->payload[4] | (frame->payload[5] << 8) | (frame->payload[6] << 16) | (frame->
 101:../system/src/umb_master/umb_0x23_offline_data.c **** 				break;
 102:../system/src/umb_master/umb_0x23_offline_data.c **** 			}
 103:../system/src/umb_master/umb_0x23_offline_data.c **** 			default: {
 104:../system/src/umb_master/umb_0x23_offline_data.c **** 				ctx->state = UMB_STATUS_ERROR;
 105:../system/src/umb_master/umb_0x23_offline_data.c **** 
 106:../system/src/umb_master/umb_0x23_offline_data.c **** 				output = UMB_GENERAL_ERROR;
 107:../system/src/umb_master/umb_0x23_offline_data.c **** 
 108:../system/src/umb_master/umb_0x23_offline_data.c **** 				return output;
 109:../system/src/umb_master/umb_0x23_offline_data.c **** 			}
 110:../system/src/umb_master/umb_0x23_offline_data.c **** 		}
 111:../system/src/umb_master/umb_0x23_offline_data.c **** 
 112:../system/src/umb_master/umb_0x23_offline_data.c **** 		// convert a raw value to a value to be stored in the rte as an integer multiplicity of .1
 113:../system/src/umb_master/umb_0x23_offline_data.c **** 		switch (type) {
 148              		.loc 1 113 0
 149 002c 103A     		subs	r2, r2, #16
 150              	.LVL13:
 151 002e 062A     		cmp	r2, #6
 152 0030 51D8     		bhi	.L27
 153 0032 DFE802F0 		tbb	[pc, r2]
 154              	.L18:
 155 0036 24       		.byte	(.L17-.L18)/2
 156 0037 3B       		.byte	(.L19-.L18)/2
 157 0038 24       		.byte	(.L17-.L18)/2
 158 0039 40       		.byte	(.L20-.L18)/2
 159 003a 24       		.byte	(.L17-.L18)/2
 160 003b 24       		.byte	(.L17-.L18)/2
 161 003c 45       		.byte	(.L21-.L18)/2
 162              	.LVL14:
 163 003d 00       		.p2align 1
 164              	.L11:
  91:../system/src/umb_master/umb_0x23_offline_data.c **** 				break;
 165              		.loc 1 91 0
 166 003e 437A     		ldrb	r3, [r0, #9]	@ zero_extendqisi2
 167 0040 807A     		ldrb	r0, [r0, #10]	@ zero_extendqisi2
 168              	.LVL15:
 169 0042 43EA0020 		orr	r0, r3, r0, lsl #8
 170              	.LVL16:
  92:../system/src/umb_master/umb_0x23_offline_data.c **** 			}
 171              		.loc 1 92 0
 172 0046 F0E7     		b	.L14
 173              	.LVL17:
 174              	.L12:
  96:../system/src/umb_master/umb_0x23_offline_data.c **** 				break;
 175              		.loc 1 96 0
 176 0048 437A     		ldrb	r3, [r0, #9]	@ zero_extendqisi2
 177 004a 857A     		ldrb	r5, [r0, #10]	@ zero_extendqisi2
 178 004c 43EA0523 		orr	r3, r3, r5, lsl #8
 179 0050 C57A     		ldrb	r5, [r0, #11]	@ zero_extendqisi2
 180 0052 43EA0543 		orr	r3, r3, r5, lsl #16
 181 0056 007B     		ldrb	r0, [r0, #12]	@ zero_extendqisi2
 182              	.LVL18:
 183 0058 43EA0060 		orr	r0, r3, r0, lsl #24
 184              	.LVL19:
  97:../system/src/umb_master/umb_0x23_offline_data.c **** 			}
 185              		.loc 1 97 0
 186 005c E5E7     		b	.L14
 187              	.LVL20:
 188              	.L13:
 100:../system/src/umb_master/umb_0x23_offline_data.c **** 				break;
 189              		.loc 1 100 0
 190 005e 437A     		ldrb	r3, [r0, #9]	@ zero_extendqisi2
 191 0060 857A     		ldrb	r5, [r0, #10]	@ zero_extendqisi2
 192 0062 43EA0523 		orr	r3, r3, r5, lsl #8
 193 0066 C57A     		ldrb	r5, [r0, #11]	@ zero_extendqisi2
 194 0068 43EA0543 		orr	r3, r3, r5, lsl #16
 195 006c 007B     		ldrb	r0, [r0, #12]	@ zero_extendqisi2
 196              	.LVL21:
 197 006e 43EA0060 		orr	r0, r3, r0, lsl #24
 198              	.LVL22:
 101:../system/src/umb_master/umb_0x23_offline_data.c **** 			}
 199              		.loc 1 101 0
 200 0072 DAE7     		b	.L14
 201              	.LVL23:
 202              	.L8:
 104:../system/src/umb_master/umb_0x23_offline_data.c **** 
 203              		.loc 1 104 0
 204 0074 0623     		movs	r3, #6
 205 0076 0B76     		strb	r3, [r1, #24]
 206              	.LVL24:
 108:../system/src/umb_master/umb_0x23_offline_data.c **** 			}
 207              		.loc 1 108 0
 208 0078 6FF03E00 		mvn	r0, #62
 209              	.LVL25:
 210 007c 3BE0     		b	.L15
 211              	.LVL26:
 212              	.L17:
 114:../system/src/umb_master/umb_0x23_offline_data.c **** 			case UNSIGNED_CHAR:
 115:../system/src/umb_master/umb_0x23_offline_data.c **** 			case UNSIGNED_SHORT:
 116:../system/src/umb_master/umb_0x23_offline_data.c **** 			case UNSIGNED_LONG:
 117:../system/src/umb_master/umb_0x23_offline_data.c **** 			case SIGNED_LONG: {
 118:../system/src/umb_master/umb_0x23_offline_data.c **** 				// multiply this by the factor of ten
 119:../system/src/umb_master/umb_0x23_offline_data.c **** 				value_for_rte = raw_value * 10;
 213              		.loc 1 119 0
 214 007e 00EB8000 		add	r0, r0, r0, lsl #2
 215              	.LVL27:
 216 0082 4300     		lsls	r3, r0, #1
 217 0084 1846     		mov	r0, r3
 218              	.LVL28:
 219              	.L22:
 120:../system/src/umb_master/umb_0x23_offline_data.c **** 				break;
 121:../system/src/umb_master/umb_0x23_offline_data.c **** 			}
 122:../system/src/umb_master/umb_0x23_offline_data.c **** 			// for signed types do a conversion to intermediate signed variable to take care about
 123:../system/src/umb_master/umb_0x23_offline_data.c **** 			// negative numbers
 124:../system/src/umb_master/umb_0x23_offline_data.c **** 			case SIGNED_CHAR: {
 125:../system/src/umb_master/umb_0x23_offline_data.c **** 				value_for_rte = (int32_t)(((int8_t)(raw_value & 0xFF)) * 10);
 126:../system/src/umb_master/umb_0x23_offline_data.c **** 				break;
 127:../system/src/umb_master/umb_0x23_offline_data.c **** 			}
 128:../system/src/umb_master/umb_0x23_offline_data.c **** 			case SIGNED_SHORT: {
 129:../system/src/umb_master/umb_0x23_offline_data.c **** 				value_for_rte = (int32_t)(((int16_t)(raw_value & 0xFFFF)) * 10);
 130:../system/src/umb_master/umb_0x23_offline_data.c **** 				break;
 131:../system/src/umb_master/umb_0x23_offline_data.c **** 			}
 132:../system/src/umb_master/umb_0x23_offline_data.c **** 			case FLOAT: {
 133:../system/src/umb_master/umb_0x23_offline_data.c **** 				temp = *(float*)&raw_value;
 134:../system/src/umb_master/umb_0x23_offline_data.c **** 				value_for_rte = (int32_t)(temp * 10.0f);
 135:../system/src/umb_master/umb_0x23_offline_data.c **** 				break;
 136:../system/src/umb_master/umb_0x23_offline_data.c **** 			}
 137:../system/src/umb_master/umb_0x23_offline_data.c **** 			// there is no default case here as if a type was any different from supported the function woul
 138:../system/src/umb_master/umb_0x23_offline_data.c **** 			// quit before, in previous switch
 139:../system/src/umb_master/umb_0x23_offline_data.c **** 		}
 140:../system/src/umb_master/umb_0x23_offline_data.c **** 
 141:../system/src/umb_master/umb_0x23_offline_data.c **** 		// limit the value as rte stores only 16 bit signed integers
 142:../system/src/umb_master/umb_0x23_offline_data.c **** 		if (value_for_rte > 32767) {
 220              		.loc 1 142 0
 221 0086 B0F5004F 		cmp	r0, #32768
 222 008a 1FDA     		bge	.L30
 223              	.LVL29:
 224              	.L16:
 143:../system/src/umb_master/umb_0x23_offline_data.c **** 			ctx->state = UMB_STATUS_ERROR;
 144:../system/src/umb_master/umb_0x23_offline_data.c **** 
 145:../system/src/umb_master/umb_0x23_offline_data.c **** 			return UMB_VALUE_OUT_OF_RANGE;
 146:../system/src/umb_master/umb_0x23_offline_data.c **** 		}
 147:../system/src/umb_master/umb_0x23_offline_data.c **** 		else if (value_for_rte < (int32_t)-32767) {
 225              		.loc 1 147 0
 226 008c 10F5004F 		cmn	r0, #32768
 227 0090 23DD     		ble	.L31
 228              	.LBB5:
 148:../system/src/umb_master/umb_0x23_offline_data.c **** 			ctx->state = UMB_STATUS_ERROR;
 149:../system/src/umb_master/umb_0x23_offline_data.c **** 
 150:../system/src/umb_master/umb_0x23_offline_data.c **** 			return UMB_VALUE_OUT_OF_RANGE;
 151:../system/src/umb_master/umb_0x23_offline_data.c **** 		}
 152:../system/src/umb_master/umb_0x23_offline_data.c **** 
 153:../system/src/umb_master/umb_0x23_offline_data.c **** 		for (int i = 0; i < UMB_CHANNELS_STORAGE_CAPAC; i++) {
 229              		.loc 1 153 0
 230 0092 0023     		movs	r3, #0
 231              	.L23:
 232              	.LVL30:
 233              		.loc 1 153 0 is_stmt 0 discriminator 1
 234 0094 052B     		cmp	r3, #5
 235 0096 2DDC     		bgt	.L32
 154:../system/src/umb_master/umb_0x23_offline_data.c **** 			// look for free slot in channel values storage
 155:../system/src/umb_master/umb_0x23_offline_data.c **** 			if(	rte_wx_umb_channel_values[i][0] == (int16_t)0xFFFF ||
 236              		.loc 1 155 0 is_stmt 1
 237 0098 214A     		ldr	r2, .L33
 238 009a 32F92320 		ldrsh	r2, [r2, r3, lsl #2]
 239 009e B2F1FF3F 		cmp	r2, #-1
 240 00a2 1FD0     		beq	.L24
 241              		.loc 1 155 0 is_stmt 0 discriminator 1
 242 00a4 9442     		cmp	r4, r2
 243 00a6 1DD0     		beq	.L24
 153:../system/src/umb_master/umb_0x23_offline_data.c **** 			// look for free slot in channel values storage
 244              		.loc 1 153 0 is_stmt 1 discriminator 2
 245 00a8 0133     		adds	r3, r3, #1
 246              	.LVL31:
 247 00aa F3E7     		b	.L23
 248              	.LVL32:
 249              	.L19:
 250              	.LBE5:
 125:../system/src/umb_master/umb_0x23_offline_data.c **** 				break;
 251              		.loc 1 125 0
 252 00ac 43B2     		sxtb	r3, r0
 253 00ae 03EB8303 		add	r3, r3, r3, lsl #2
 254 00b2 5800     		lsls	r0, r3, #1
 255              	.LVL33:
 126:../system/src/umb_master/umb_0x23_offline_data.c **** 			}
 256              		.loc 1 126 0
 257 00b4 E7E7     		b	.L22
 258              	.LVL34:
 259              	.L20:
 129:../system/src/umb_master/umb_0x23_offline_data.c **** 				break;
 260              		.loc 1 129 0
 261 00b6 03B2     		sxth	r3, r0
 262 00b8 03EB8303 		add	r3, r3, r3, lsl #2
 263 00bc 5800     		lsls	r0, r3, #1
 264              	.LVL35:
 130:../system/src/umb_master/umb_0x23_offline_data.c **** 			}
 265              		.loc 1 130 0
 266 00be E2E7     		b	.L22
 267              	.LVL36:
 268              	.L21:
 134:../system/src/umb_master/umb_0x23_offline_data.c **** 				break;
 269              		.loc 1 134 0
 270 00c0 1849     		ldr	r1, .L33+4
 271              	.LVL37:
 272 00c2 FFF7FEFF 		bl	__aeabi_fmul
 273              	.LVL38:
 274 00c6 FFF7FEFF 		bl	__aeabi_f2iz
 275              	.LVL39:
 135:../system/src/umb_master/umb_0x23_offline_data.c **** 			}
 276              		.loc 1 135 0
 277 00ca DCE7     		b	.L22
 278              	.L30:
 143:../system/src/umb_master/umb_0x23_offline_data.c **** 
 279              		.loc 1 143 0
 280 00cc 0623     		movs	r3, #6
 281 00ce 2B76     		strb	r3, [r5, #24]
 145:../system/src/umb_master/umb_0x23_offline_data.c **** 		}
 282              		.loc 1 145 0
 283 00d0 6FF00700 		mvn	r0, #7
 284              	.LVL40:
 285 00d4 0FE0     		b	.L15
 286              	.LVL41:
 287              	.L27:
  68:../system/src/umb_master/umb_0x23_offline_data.c **** 
 288              		.loc 1 68 0
 289 00d6 0020     		movs	r0, #0
 290              	.LVL42:
 291 00d8 D8E7     		b	.L16
 292              	.LVL43:
 293              	.L31:
 148:../system/src/umb_master/umb_0x23_offline_data.c **** 
 294              		.loc 1 148 0
 295 00da 0623     		movs	r3, #6
 296 00dc 2B76     		strb	r3, [r5, #24]
 150:../system/src/umb_master/umb_0x23_offline_data.c **** 		}
 297              		.loc 1 150 0
 298 00de 6FF00700 		mvn	r0, #7
 299 00e2 08E0     		b	.L15
 300              	.LVL44:
 301              	.L24:
 302              	.LBB6:
 156:../system/src/umb_master/umb_0x23_offline_data.c **** 				rte_wx_umb_channel_values[i][0] == (int16_t)channel	)
 157:../system/src/umb_master/umb_0x23_offline_data.c **** 			{
 158:../system/src/umb_master/umb_0x23_offline_data.c **** 				// if found store the value and then break the loop execution
 159:../system/src/umb_master/umb_0x23_offline_data.c **** 				rte_wx_umb_channel_values[i][0] = channel;
 303              		.loc 1 159 0
 304 00e4 0E4A     		ldr	r2, .L33
 305 00e6 22F82340 		strh	r4, [r2, r3, lsl #2]	@ movhi
 160:../system/src/umb_master/umb_0x23_offline_data.c **** 				rte_wx_umb_channel_values[i][1] = (int16_t)value_for_rte;
 306              		.loc 1 160 0
 307 00ea 02EB8303 		add	r3, r2, r3, lsl #2
 308              	.LVL45:
 309 00ee 5880     		strh	r0, [r3, #2]	@ movhi
 310              	.LBE6:
  53:../system/src/umb_master/umb_0x23_offline_data.c **** 
 311              		.loc 1 53 0
 312 00f0 0020     		movs	r0, #0
 313              	.LBB7:
 161:../system/src/umb_master/umb_0x23_offline_data.c **** 				break;
 314              		.loc 1 161 0
 315 00f2 00E0     		b	.L15
 316              	.LVL46:
 317              	.L32:
 318              	.LBE7:
  53:../system/src/umb_master/umb_0x23_offline_data.c **** 
 319              		.loc 1 53 0
 320 00f4 0020     		movs	r0, #0
 321              	.LVL47:
 322              	.L15:
 162:../system/src/umb_master/umb_0x23_offline_data.c **** 			}
 163:../system/src/umb_master/umb_0x23_offline_data.c **** 		}
 164:../system/src/umb_master/umb_0x23_offline_data.c **** 
 165:../system/src/umb_master/umb_0x23_offline_data.c **** 	}
 166:../system/src/umb_master/umb_0x23_offline_data.c **** 	else {
 167:../system/src/umb_master/umb_0x23_offline_data.c **** 		// if not stop further processing
 168:../system/src/umb_master/umb_0x23_offline_data.c **** 		ctx->state = UMB_STATUS_ERROR;
 169:../system/src/umb_master/umb_0x23_offline_data.c **** 
 170:../system/src/umb_master/umb_0x23_offline_data.c **** 		ctx->last_fault_channel = channel;
 171:../system/src/umb_master/umb_0x23_offline_data.c **** 
 172:../system/src/umb_master/umb_0x23_offline_data.c **** 		// copy current error code to the buffer
 173:../system/src/umb_master/umb_0x23_offline_data.c **** 		ctx->nok_error_codes[ctx->nok_error_it] = status;
 174:../system/src/umb_master/umb_0x23_offline_data.c **** 
 175:../system/src/umb_master/umb_0x23_offline_data.c **** 		// move the iterator through the buffer
 176:../system/src/umb_master/umb_0x23_offline_data.c **** 		ctx->nok_error_it++;
 177:../system/src/umb_master/umb_0x23_offline_data.c **** 
 178:../system/src/umb_master/umb_0x23_offline_data.c **** 		// check if and end of the buffer is reach here
 179:../system/src/umb_master/umb_0x23_offline_data.c **** 		ctx->nok_error_it %= UMB_CONTEXT_ERR_HISTORY_LN;
 180:../system/src/umb_master/umb_0x23_offline_data.c **** 
 181:../system/src/umb_master/umb_0x23_offline_data.c **** 		// trigger the status frame
 182:../system/src/umb_master/umb_0x23_offline_data.c **** 		ctx->trigger_status_msg = 1;
 183:../system/src/umb_master/umb_0x23_offline_data.c **** 
 184:../system/src/umb_master/umb_0x23_offline_data.c **** 		ctx->time_of_last_nok = main_get_master_time();
 185:../system/src/umb_master/umb_0x23_offline_data.c **** 
 186:../system/src/umb_master/umb_0x23_offline_data.c **** 		output = UMB_NOK_STATUS_GOT_WITH_RESP;
 187:../system/src/umb_master/umb_0x23_offline_data.c **** 	}
 188:../system/src/umb_master/umb_0x23_offline_data.c **** 
 189:../system/src/umb_master/umb_0x23_offline_data.c **** 	return output;
 190:../system/src/umb_master/umb_0x23_offline_data.c **** 
 191:../system/src/umb_master/umb_0x23_offline_data.c **** }
 323              		.loc 1 191 0
 324 00f6 38BD     		pop	{r3, r4, r5, pc}
 325              	.LVL48:
 326              	.L7:
 327 00f8 A2B2     		uxth	r2, r4
 168:../system/src/umb_master/umb_0x23_offline_data.c **** 
 328              		.loc 1 168 0
 329 00fa 0620     		movs	r0, #6
 330              	.LVL49:
 331 00fc 0876     		strb	r0, [r1, #24]
 170:../system/src/umb_master/umb_0x23_offline_data.c **** 
 332              		.loc 1 170 0
 333 00fe 0A81     		strh	r2, [r1, #8]	@ movhi
 173:../system/src/umb_master/umb_0x23_offline_data.c **** 
 334              		.loc 1 173 0
 335 0100 8A79     		ldrb	r2, [r1, #6]	@ zero_extendqisi2
 336 0102 8818     		adds	r0, r1, r2
 337 0104 8370     		strb	r3, [r0, #2]
 176:../system/src/umb_master/umb_0x23_offline_data.c **** 
 338              		.loc 1 176 0
 339 0106 531C     		adds	r3, r2, #1
 340              	.LVL50:
 179:../system/src/umb_master/umb_0x23_offline_data.c **** 
 341              		.loc 1 179 0
 342 0108 03F00303 		and	r3, r3, #3
 343 010c 8B71     		strb	r3, [r1, #6]
 344              	.LVL51:
 182:../system/src/umb_master/umb_0x23_offline_data.c **** 
 345              		.loc 1 182 0
 346 010e 0123     		movs	r3, #1
 347 0110 81F82A30 		strb	r3, [r1, #42]
 348              	.LBB8:
 349              	.LBB9:
 350              		.file 2 "../include/main.h"
   1:../include/main.h **** #ifndef MAIN_H_
   2:../include/main.h **** #define MAIN_H_
   3:../include/main.h **** 
   4:../include/main.h **** #include "aprs/ax25.h"
   5:../include/main.h **** #include "drivers/serial.h"
   6:../include/main.h **** #include "config_data.h"
   7:../include/main.h **** 
   8:../include/main.h **** #define SW_VER "EA00"
   9:../include/main.h **** #define SW_DATE "23052021"
  10:../include/main.h **** 
  11:../include/main.h **** #define SYSTICK_TICKS_PER_SECONDS 100
  12:../include/main.h **** #define SYSTICK_TICKS_PERIOD 10
  13:../include/main.h **** 
  14:../include/main.h **** #define INTERNAL_WATCHDOG
  15:../include/main.h **** #define EXTERNAL_WATCHDOG
  16:../include/main.h **** 
  17:../include/main.h **** #define PWR_SWITCH_BOTH
  18:../include/main.h **** 
  19:../include/main.h **** #define OWN_APRS_MSG_LN 	160
  20:../include/main.h **** 
  21:../include/main.h **** extern uint32_t master_time;
  22:../include/main.h **** 
  23:../include/main.h **** extern const config_data_mode_t * main_config_data_mode;
  24:../include/main.h **** extern const config_data_basic_t * main_config_data_basic;
  25:../include/main.h **** extern const config_data_wx_sources_t * main_config_data_wx_sources;
  26:../include/main.h **** extern const config_data_umb_t * main_config_data_umb;
  27:../include/main.h **** extern const config_data_rtu_t * main_config_data_rtu;
  28:../include/main.h **** 
  29:../include/main.h **** extern int32_t main_wx_sensors_pool_timer;
  30:../include/main.h **** extern int32_t main_one_minute_pool_timer;
  31:../include/main.h **** extern int32_t main_one_second_pool_timer;
  32:../include/main.h **** extern int32_t main_two_second_pool_timer;
  33:../include/main.h **** extern int32_t main_ten_second_pool_timer;
  34:../include/main.h **** 
  35:../include/main.h **** extern AX25Ctx main_ax25;
  36:../include/main.h **** extern Afsk main_afsk;
  37:../include/main.h **** 
  38:../include/main.h **** extern AX25Call main_own_path[3];
  39:../include/main.h **** extern uint8_t main_own_path_ln;
  40:../include/main.h **** extern uint8_t main_own_aprs_msg_len;
  41:../include/main.h **** extern char main_own_aprs_msg[OWN_APRS_MSG_LN];
  42:../include/main.h **** 
  43:../include/main.h **** extern char main_string_latitude[9];
  44:../include/main.h **** extern char main_string_longitude[9];
  45:../include/main.h **** 
  46:../include/main.h **** extern char main_symbol_f;
  47:../include/main.h **** extern char main_symbol_s;
  48:../include/main.h **** 
  49:../include/main.h **** extern srl_context_t* main_kiss_srl_ctx_ptr;
  50:../include/main.h **** extern srl_context_t* main_wx_srl_ctx_ptr;
  51:../include/main.h **** 
  52:../include/main.h **** extern  uint8_t main_kiss_enabled;
  53:../include/main.h **** 
  54:../include/main.h **** extern char after_tx_lock;
  55:../include/main.h **** 
  56:../include/main.h **** extern unsigned short rx10m, tx10m, digi10m, digidrop10m, kiss10m;
  57:../include/main.h **** 
  58:../include/main.h **** uint16_t main_get_adc_sample(void);
  59:../include/main.h **** 
  60:../include/main.h **** void main_service_cpu_load_ticks(void);
  61:../include/main.h **** 
  62:../include/main.h **** inline uint32_t main_get_master_time(void) {
  63:../include/main.h **** 	return master_time;
 351              		.loc 2 63 0
 352 0114 044B     		ldr	r3, .L33+8
 353 0116 1B68     		ldr	r3, [r3]
 354              	.LBE9:
 355              	.LBE8:
 184:../system/src/umb_master/umb_0x23_offline_data.c **** 
 356              		.loc 1 184 0
 357 0118 CB60     		str	r3, [r1, #12]
 358              	.LVL52:
 186:../system/src/umb_master/umb_0x23_offline_data.c **** 	}
 359              		.loc 1 186 0
 360 011a 6FF00600 		mvn	r0, #6
 361 011e EAE7     		b	.L15
 362              	.L34:
 363              		.align	2
 364              	.L33:
 365 0120 00000000 		.word	rte_wx_umb_channel_values
 366 0124 00002041 		.word	1092616192
 367 0128 00000000 		.word	master_time
 368              		.cfi_endproc
 369              	.LFE92:
 371              		.text
 372              	.Letext0:
 373              		.file 3 "/usr/local/bin/gcc-arm-none-eabi-7-2018-q2-update/lib/gcc/arm-none-eabi/7.3.1/include/std
 374              		.file 4 "../system/include/umb_master/umb_frame_t.h"
 375              		.file 5 "../system/include/umb_master/umb_retval_t.h"
 376              		.file 6 "../system/include/umb_master/umb_state_t.h"
 377              		.file 7 "../system/include/cmsis/core_cm3.h"
 378              		.file 8 "../system/include/cmsis/system_stm32f10x.h"
 379              		.file 9 "../system/include/cmsis/stm32f10x.h"
 380              		.file 10 "../system/include/drivers/serial.h"
 381              		.file 11 "../system/include/umb_master/umb_context_t.h"
 382              		.file 12 "../system/include/umb_master/umb_qf_t.h"
 383              		.file 13 "../include/config_data.h"
 384              		.file 14 "../system/include/drivers/dallas.h"
 385              		.file 15 "../system/include/drivers/analog_anemometer.h"
 386              		.file 16 "../system/include/davis_vantage/davis_loop_t.h"
 387              		.file 17 "/usr/local/bin/gcc-arm-none-eabi-7-2018-q2-update/arm-none-eabi/include/sys/lock.h"
 388              		.file 18 "/usr/local/bin/gcc-arm-none-eabi-7-2018-q2-update/arm-none-eabi/include/sys/_types.h"
 389              		.file 19 "/usr/local/bin/gcc-arm-none-eabi-7-2018-q2-update/lib/gcc/arm-none-eabi/7.3.1/include/st
 390              		.file 20 "/usr/local/bin/gcc-arm-none-eabi-7-2018-q2-update/arm-none-eabi/include/sys/reent.h"
 391              		.file 21 "/usr/local/bin/gcc-arm-none-eabi-7-2018-q2-update/arm-none-eabi/include/math.h"
 392              		.file 22 "../system/include/drivers/ms5611.h"
 393              		.file 23 "../system/include/drivers/bme280.h"
 394              		.file 24 "../include/rte_wx.h"
 395              		.file 25 "../system/include/aprs/cfifo.h"
 396              		.file 26 "../system/include/aprs/afsk.h"
 397              		.file 27 "../system/include/aprs/ax25.h"