   1              		.cpu cortex-m4
   2              		.eabi_attribute 27, 1
   3              		.eabi_attribute 28, 1
   4              		.eabi_attribute 20, 1
   5              		.eabi_attribute 21, 1
   6              		.eabi_attribute 23, 3
   7              		.eabi_attribute 24, 1
   8              		.eabi_attribute 25, 1
   9              		.eabi_attribute 26, 1
  10              		.eabi_attribute 30, 1
  11              		.eabi_attribute 34, 1
  12              		.eabi_attribute 18, 4
  13              		.file	"stm32l4xx_it.c"
  14              		.text
  15              	.Ltext0:
  16              		.cfi_sections	.debug_frame
  17              		.section	.text.NMI_Handler,"ax",%progbits
  18              		.align	1
  19              		.global	NMI_Handler
  20              		.syntax unified
  21              		.thumb
  22              		.thumb_func
  23              		.fpu fpv4-sp-d16
  25              	NMI_Handler:
  26              	.LFB351:
  27              		.file 1 "../system/src/cmsis/stm32l4xx/stm32l4xx_it.c"
   1:../system/src/cmsis/stm32l4xx/stm32l4xx_it.c **** /* USER CODE BEGIN Header */
   2:../system/src/cmsis/stm32l4xx/stm32l4xx_it.c **** /**
   3:../system/src/cmsis/stm32l4xx/stm32l4xx_it.c ****   ******************************************************************************
   4:../system/src/cmsis/stm32l4xx/stm32l4xx_it.c ****   * @file    stm32l4xx_it.c
   5:../system/src/cmsis/stm32l4xx/stm32l4xx_it.c ****   * @brief   Interrupt Service Routines.
   6:../system/src/cmsis/stm32l4xx/stm32l4xx_it.c ****   ******************************************************************************
   7:../system/src/cmsis/stm32l4xx/stm32l4xx_it.c ****   * @attention
   8:../system/src/cmsis/stm32l4xx/stm32l4xx_it.c ****   *
   9:../system/src/cmsis/stm32l4xx/stm32l4xx_it.c ****   * <h2><center>&copy; Copyright (c) 2021 STMicroelectronics.
  10:../system/src/cmsis/stm32l4xx/stm32l4xx_it.c ****   * All rights reserved.</center></h2>
  11:../system/src/cmsis/stm32l4xx/stm32l4xx_it.c ****   *
  12:../system/src/cmsis/stm32l4xx/stm32l4xx_it.c ****   * This software component is licensed by ST under BSD 3-Clause license,
  13:../system/src/cmsis/stm32l4xx/stm32l4xx_it.c ****   * the "License"; You may not use this file except in compliance with the
  14:../system/src/cmsis/stm32l4xx/stm32l4xx_it.c ****   * License. You may obtain a copy of the License at:
  15:../system/src/cmsis/stm32l4xx/stm32l4xx_it.c ****   *                        opensource.org/licenses/BSD-3-Clause
  16:../system/src/cmsis/stm32l4xx/stm32l4xx_it.c ****   *
  17:../system/src/cmsis/stm32l4xx/stm32l4xx_it.c ****   ******************************************************************************
  18:../system/src/cmsis/stm32l4xx/stm32l4xx_it.c ****   */
  19:../system/src/cmsis/stm32l4xx/stm32l4xx_it.c **** /* USER CODE END Header */
  20:../system/src/cmsis/stm32l4xx/stm32l4xx_it.c **** 
  21:../system/src/cmsis/stm32l4xx/stm32l4xx_it.c **** /* Includes ------------------------------------------------------------------*/
  22:../system/src/cmsis/stm32l4xx/stm32l4xx_it.c **** #include "main.h"
  23:../system/src/cmsis/stm32l4xx/stm32l4xx_it.c **** #include "stm32l4xx_it.h"
  24:../system/src/cmsis/stm32l4xx/stm32l4xx_it.c **** /* Private includes ----------------------------------------------------------*/
  25:../system/src/cmsis/stm32l4xx/stm32l4xx_it.c **** /* USER CODE BEGIN Includes */
  26:../system/src/cmsis/stm32l4xx/stm32l4xx_it.c **** /* USER CODE END Includes */
  27:../system/src/cmsis/stm32l4xx/stm32l4xx_it.c **** 
  28:../system/src/cmsis/stm32l4xx/stm32l4xx_it.c **** /* Private typedef -----------------------------------------------------------*/
  29:../system/src/cmsis/stm32l4xx/stm32l4xx_it.c **** /* USER CODE BEGIN TD */
  30:../system/src/cmsis/stm32l4xx/stm32l4xx_it.c **** 
  31:../system/src/cmsis/stm32l4xx/stm32l4xx_it.c **** /* USER CODE END TD */
  32:../system/src/cmsis/stm32l4xx/stm32l4xx_it.c **** 
  33:../system/src/cmsis/stm32l4xx/stm32l4xx_it.c **** /* Private define ------------------------------------------------------------*/
  34:../system/src/cmsis/stm32l4xx/stm32l4xx_it.c **** /* USER CODE BEGIN PD */
  35:../system/src/cmsis/stm32l4xx/stm32l4xx_it.c **** 
  36:../system/src/cmsis/stm32l4xx/stm32l4xx_it.c **** /* USER CODE END PD */
  37:../system/src/cmsis/stm32l4xx/stm32l4xx_it.c **** 
  38:../system/src/cmsis/stm32l4xx/stm32l4xx_it.c **** /* Private macro -------------------------------------------------------------*/
  39:../system/src/cmsis/stm32l4xx/stm32l4xx_it.c **** /* USER CODE BEGIN PM */
  40:../system/src/cmsis/stm32l4xx/stm32l4xx_it.c **** 
  41:../system/src/cmsis/stm32l4xx/stm32l4xx_it.c **** /* USER CODE END PM */
  42:../system/src/cmsis/stm32l4xx/stm32l4xx_it.c **** 
  43:../system/src/cmsis/stm32l4xx/stm32l4xx_it.c **** /* Private variables ---------------------------------------------------------*/
  44:../system/src/cmsis/stm32l4xx/stm32l4xx_it.c **** /* USER CODE BEGIN PV */
  45:../system/src/cmsis/stm32l4xx/stm32l4xx_it.c **** 
  46:../system/src/cmsis/stm32l4xx/stm32l4xx_it.c **** /* USER CODE END PV */
  47:../system/src/cmsis/stm32l4xx/stm32l4xx_it.c **** 
  48:../system/src/cmsis/stm32l4xx/stm32l4xx_it.c **** /* Private function prototypes -----------------------------------------------*/
  49:../system/src/cmsis/stm32l4xx/stm32l4xx_it.c **** /* USER CODE BEGIN PFP */
  50:../system/src/cmsis/stm32l4xx/stm32l4xx_it.c **** 
  51:../system/src/cmsis/stm32l4xx/stm32l4xx_it.c **** /* USER CODE END PFP */
  52:../system/src/cmsis/stm32l4xx/stm32l4xx_it.c **** 
  53:../system/src/cmsis/stm32l4xx/stm32l4xx_it.c **** /* Private user code ---------------------------------------------------------*/
  54:../system/src/cmsis/stm32l4xx/stm32l4xx_it.c **** /* USER CODE BEGIN 0 */
  55:../system/src/cmsis/stm32l4xx/stm32l4xx_it.c **** 
  56:../system/src/cmsis/stm32l4xx/stm32l4xx_it.c **** /* USER CODE END 0 */
  57:../system/src/cmsis/stm32l4xx/stm32l4xx_it.c **** 
  58:../system/src/cmsis/stm32l4xx/stm32l4xx_it.c **** /* External variables --------------------------------------------------------*/
  59:../system/src/cmsis/stm32l4xx/stm32l4xx_it.c **** 
  60:../system/src/cmsis/stm32l4xx/stm32l4xx_it.c **** /* USER CODE BEGIN EV */
  61:../system/src/cmsis/stm32l4xx/stm32l4xx_it.c **** 
  62:../system/src/cmsis/stm32l4xx/stm32l4xx_it.c **** /* USER CODE END EV */
  63:../system/src/cmsis/stm32l4xx/stm32l4xx_it.c **** 
  64:../system/src/cmsis/stm32l4xx/stm32l4xx_it.c **** /******************************************************************************/
  65:../system/src/cmsis/stm32l4xx/stm32l4xx_it.c **** /*           Cortex-M4 Processor Interruption and Exception Handlers          */
  66:../system/src/cmsis/stm32l4xx/stm32l4xx_it.c **** /******************************************************************************/
  67:../system/src/cmsis/stm32l4xx/stm32l4xx_it.c **** /**
  68:../system/src/cmsis/stm32l4xx/stm32l4xx_it.c ****   * @brief This function handles Non maskable interrupt.
  69:../system/src/cmsis/stm32l4xx/stm32l4xx_it.c ****   */
  70:../system/src/cmsis/stm32l4xx/stm32l4xx_it.c **** void NMI_Handler(void)
  71:../system/src/cmsis/stm32l4xx/stm32l4xx_it.c **** {
  28              		.loc 1 71 0
  29              		.cfi_startproc
  30              		@ Volatile: function does not return.
  31              		@ args = 0, pretend = 0, frame = 0
  32              		@ frame_needed = 0, uses_anonymous_args = 0
  33              		@ link register save eliminated.
  34              	.L2:
  35 0000 FEE7     		b	.L2
  36              		.cfi_endproc
  37              	.LFE351:
  39              		.section	.text.HardFault_Handler,"ax",%progbits
  40              		.align	1
  41              		.global	HardFault_Handler
  42              		.syntax unified
  43              		.thumb
  44              		.thumb_func
  45              		.fpu fpv4-sp-d16
  47              	HardFault_Handler:
  48              	.LFB352:
  72:../system/src/cmsis/stm32l4xx/stm32l4xx_it.c ****   /* USER CODE BEGIN NonMaskableInt_IRQn 0 */
  73:../system/src/cmsis/stm32l4xx/stm32l4xx_it.c **** 
  74:../system/src/cmsis/stm32l4xx/stm32l4xx_it.c ****   /* USER CODE END NonMaskableInt_IRQn 0 */
  75:../system/src/cmsis/stm32l4xx/stm32l4xx_it.c ****   /* USER CODE BEGIN NonMaskableInt_IRQn 1 */
  76:../system/src/cmsis/stm32l4xx/stm32l4xx_it.c ****   while (1)
  77:../system/src/cmsis/stm32l4xx/stm32l4xx_it.c ****   {
  78:../system/src/cmsis/stm32l4xx/stm32l4xx_it.c ****   }
  79:../system/src/cmsis/stm32l4xx/stm32l4xx_it.c ****   /* USER CODE END NonMaskableInt_IRQn 1 */
  80:../system/src/cmsis/stm32l4xx/stm32l4xx_it.c **** }
  81:../system/src/cmsis/stm32l4xx/stm32l4xx_it.c **** 
  82:../system/src/cmsis/stm32l4xx/stm32l4xx_it.c **** /**
  83:../system/src/cmsis/stm32l4xx/stm32l4xx_it.c ****   * @brief This function handles Hard fault interrupt.
  84:../system/src/cmsis/stm32l4xx/stm32l4xx_it.c ****   */
  85:../system/src/cmsis/stm32l4xx/stm32l4xx_it.c **** void HardFault_Handler(void)
  86:../system/src/cmsis/stm32l4xx/stm32l4xx_it.c **** {
  49              		.loc 1 86 0
  50              		.cfi_startproc
  51              		@ Volatile: function does not return.
  52              		@ args = 0, pretend = 0, frame = 0
  53              		@ frame_needed = 0, uses_anonymous_args = 0
  54              		@ link register save eliminated.
  55              	.L4:
  56 0000 FEE7     		b	.L4
  57              		.cfi_endproc
  58              	.LFE352:
  60              		.section	.text.MemManage_Handler,"ax",%progbits
  61              		.align	1
  62              		.global	MemManage_Handler
  63              		.syntax unified
  64              		.thumb
  65              		.thumb_func
  66              		.fpu fpv4-sp-d16
  68              	MemManage_Handler:
  69              	.LFB353:
  87:../system/src/cmsis/stm32l4xx/stm32l4xx_it.c ****   /* USER CODE BEGIN HardFault_IRQn 0 */
  88:../system/src/cmsis/stm32l4xx/stm32l4xx_it.c **** 
  89:../system/src/cmsis/stm32l4xx/stm32l4xx_it.c ****   /* USER CODE END HardFault_IRQn 0 */
  90:../system/src/cmsis/stm32l4xx/stm32l4xx_it.c ****   while (1)
  91:../system/src/cmsis/stm32l4xx/stm32l4xx_it.c ****   {
  92:../system/src/cmsis/stm32l4xx/stm32l4xx_it.c ****     /* USER CODE BEGIN W1_HardFault_IRQn 0 */
  93:../system/src/cmsis/stm32l4xx/stm32l4xx_it.c ****     /* USER CODE END W1_HardFault_IRQn 0 */
  94:../system/src/cmsis/stm32l4xx/stm32l4xx_it.c ****   }
  95:../system/src/cmsis/stm32l4xx/stm32l4xx_it.c **** }
  96:../system/src/cmsis/stm32l4xx/stm32l4xx_it.c **** 
  97:../system/src/cmsis/stm32l4xx/stm32l4xx_it.c **** /**
  98:../system/src/cmsis/stm32l4xx/stm32l4xx_it.c ****   * @brief This function handles Memory management fault.
  99:../system/src/cmsis/stm32l4xx/stm32l4xx_it.c ****   */
 100:../system/src/cmsis/stm32l4xx/stm32l4xx_it.c **** void MemManage_Handler(void)
 101:../system/src/cmsis/stm32l4xx/stm32l4xx_it.c **** {
  70              		.loc 1 101 0
  71              		.cfi_startproc
  72              		@ Volatile: function does not return.
  73              		@ args = 0, pretend = 0, frame = 0
  74              		@ frame_needed = 0, uses_anonymous_args = 0
  75              		@ link register save eliminated.
  76              	.L6:
  77 0000 FEE7     		b	.L6
  78              		.cfi_endproc
  79              	.LFE353:
  81              		.section	.text.BusFault_Handler,"ax",%progbits
  82              		.align	1
  83              		.global	BusFault_Handler
  84              		.syntax unified
  85              		.thumb
  86              		.thumb_func
  87              		.fpu fpv4-sp-d16
  89              	BusFault_Handler:
  90              	.LFB354:
 102:../system/src/cmsis/stm32l4xx/stm32l4xx_it.c ****   /* USER CODE BEGIN MemoryManagement_IRQn 0 */
 103:../system/src/cmsis/stm32l4xx/stm32l4xx_it.c **** 
 104:../system/src/cmsis/stm32l4xx/stm32l4xx_it.c ****   /* USER CODE END MemoryManagement_IRQn 0 */
 105:../system/src/cmsis/stm32l4xx/stm32l4xx_it.c ****   while (1)
 106:../system/src/cmsis/stm32l4xx/stm32l4xx_it.c ****   {
 107:../system/src/cmsis/stm32l4xx/stm32l4xx_it.c ****     /* USER CODE BEGIN W1_MemoryManagement_IRQn 0 */
 108:../system/src/cmsis/stm32l4xx/stm32l4xx_it.c ****     /* USER CODE END W1_MemoryManagement_IRQn 0 */
 109:../system/src/cmsis/stm32l4xx/stm32l4xx_it.c ****   }
 110:../system/src/cmsis/stm32l4xx/stm32l4xx_it.c **** }
 111:../system/src/cmsis/stm32l4xx/stm32l4xx_it.c **** 
 112:../system/src/cmsis/stm32l4xx/stm32l4xx_it.c **** /**
 113:../system/src/cmsis/stm32l4xx/stm32l4xx_it.c ****   * @brief This function handles Prefetch fault, memory access fault.
 114:../system/src/cmsis/stm32l4xx/stm32l4xx_it.c ****   */
 115:../system/src/cmsis/stm32l4xx/stm32l4xx_it.c **** void BusFault_Handler(void)
 116:../system/src/cmsis/stm32l4xx/stm32l4xx_it.c **** {
  91              		.loc 1 116 0
  92              		.cfi_startproc
  93              		@ Volatile: function does not return.
  94              		@ args = 0, pretend = 0, frame = 0
  95              		@ frame_needed = 0, uses_anonymous_args = 0
  96              		@ link register save eliminated.
  97              	.L8:
  98 0000 FEE7     		b	.L8
  99              		.cfi_endproc
 100              	.LFE354:
 102              		.section	.text.UsageFault_Handler,"ax",%progbits
 103              		.align	1
 104              		.global	UsageFault_Handler
 105              		.syntax unified
 106              		.thumb
 107              		.thumb_func
 108              		.fpu fpv4-sp-d16
 110              	UsageFault_Handler:
 111              	.LFB355:
 117:../system/src/cmsis/stm32l4xx/stm32l4xx_it.c ****   /* USER CODE BEGIN BusFault_IRQn 0 */
 118:../system/src/cmsis/stm32l4xx/stm32l4xx_it.c **** 
 119:../system/src/cmsis/stm32l4xx/stm32l4xx_it.c ****   /* USER CODE END BusFault_IRQn 0 */
 120:../system/src/cmsis/stm32l4xx/stm32l4xx_it.c ****   while (1)
 121:../system/src/cmsis/stm32l4xx/stm32l4xx_it.c ****   {
 122:../system/src/cmsis/stm32l4xx/stm32l4xx_it.c ****     /* USER CODE BEGIN W1_BusFault_IRQn 0 */
 123:../system/src/cmsis/stm32l4xx/stm32l4xx_it.c ****     /* USER CODE END W1_BusFault_IRQn 0 */
 124:../system/src/cmsis/stm32l4xx/stm32l4xx_it.c ****   }
 125:../system/src/cmsis/stm32l4xx/stm32l4xx_it.c **** }
 126:../system/src/cmsis/stm32l4xx/stm32l4xx_it.c **** 
 127:../system/src/cmsis/stm32l4xx/stm32l4xx_it.c **** /**
 128:../system/src/cmsis/stm32l4xx/stm32l4xx_it.c ****   * @brief This function handles Undefined instruction or illegal state.
 129:../system/src/cmsis/stm32l4xx/stm32l4xx_it.c ****   */
 130:../system/src/cmsis/stm32l4xx/stm32l4xx_it.c **** void UsageFault_Handler(void)
 131:../system/src/cmsis/stm32l4xx/stm32l4xx_it.c **** {
 112              		.loc 1 131 0
 113              		.cfi_startproc
 114              		@ Volatile: function does not return.
 115              		@ args = 0, pretend = 0, frame = 0
 116              		@ frame_needed = 0, uses_anonymous_args = 0
 117              		@ link register save eliminated.
 118              	.L10:
 119 0000 FEE7     		b	.L10
 120              		.cfi_endproc
 121              	.LFE355:
 123              		.section	.text.SVC_Handler,"ax",%progbits
 124              		.align	1
 125              		.global	SVC_Handler
 126              		.syntax unified
 127              		.thumb
 128              		.thumb_func
 129              		.fpu fpv4-sp-d16
 131              	SVC_Handler:
 132              	.LFB356:
 132:../system/src/cmsis/stm32l4xx/stm32l4xx_it.c ****   /* USER CODE BEGIN UsageFault_IRQn 0 */
 133:../system/src/cmsis/stm32l4xx/stm32l4xx_it.c **** 
 134:../system/src/cmsis/stm32l4xx/stm32l4xx_it.c ****   /* USER CODE END UsageFault_IRQn 0 */
 135:../system/src/cmsis/stm32l4xx/stm32l4xx_it.c ****   while (1)
 136:../system/src/cmsis/stm32l4xx/stm32l4xx_it.c ****   {
 137:../system/src/cmsis/stm32l4xx/stm32l4xx_it.c ****     /* USER CODE BEGIN W1_UsageFault_IRQn 0 */
 138:../system/src/cmsis/stm32l4xx/stm32l4xx_it.c ****     /* USER CODE END W1_UsageFault_IRQn 0 */
 139:../system/src/cmsis/stm32l4xx/stm32l4xx_it.c ****   }
 140:../system/src/cmsis/stm32l4xx/stm32l4xx_it.c **** }
 141:../system/src/cmsis/stm32l4xx/stm32l4xx_it.c **** 
 142:../system/src/cmsis/stm32l4xx/stm32l4xx_it.c **** /**
 143:../system/src/cmsis/stm32l4xx/stm32l4xx_it.c ****   * @brief This function handles System service call via SWI instruction.
 144:../system/src/cmsis/stm32l4xx/stm32l4xx_it.c ****   */
 145:../system/src/cmsis/stm32l4xx/stm32l4xx_it.c **** void SVC_Handler(void)
 146:../system/src/cmsis/stm32l4xx/stm32l4xx_it.c **** {
 133              		.loc 1 146 0
 134              		.cfi_startproc
 135              		@ args = 0, pretend = 0, frame = 0
 136              		@ frame_needed = 0, uses_anonymous_args = 0
 137              		@ link register save eliminated.
 147:../system/src/cmsis/stm32l4xx/stm32l4xx_it.c ****   /* USER CODE BEGIN SVCall_IRQn 0 */
 148:../system/src/cmsis/stm32l4xx/stm32l4xx_it.c **** 
 149:../system/src/cmsis/stm32l4xx/stm32l4xx_it.c ****   /* USER CODE END SVCall_IRQn 0 */
 150:../system/src/cmsis/stm32l4xx/stm32l4xx_it.c ****   /* USER CODE BEGIN SVCall_IRQn 1 */
 151:../system/src/cmsis/stm32l4xx/stm32l4xx_it.c **** 
 152:../system/src/cmsis/stm32l4xx/stm32l4xx_it.c ****   /* USER CODE END SVCall_IRQn 1 */
 153:../system/src/cmsis/stm32l4xx/stm32l4xx_it.c **** }
 138              		.loc 1 153 0
 139 0000 7047     		bx	lr
 140              		.cfi_endproc
 141              	.LFE356:
 143              		.section	.text.DebugMon_Handler,"ax",%progbits
 144              		.align	1
 145              		.global	DebugMon_Handler
 146              		.syntax unified
 147              		.thumb
 148              		.thumb_func
 149              		.fpu fpv4-sp-d16
 151              	DebugMon_Handler:
 152              	.LFB357:
 154:../system/src/cmsis/stm32l4xx/stm32l4xx_it.c **** 
 155:../system/src/cmsis/stm32l4xx/stm32l4xx_it.c **** /**
 156:../system/src/cmsis/stm32l4xx/stm32l4xx_it.c ****   * @brief This function handles Debug monitor.
 157:../system/src/cmsis/stm32l4xx/stm32l4xx_it.c ****   */
 158:../system/src/cmsis/stm32l4xx/stm32l4xx_it.c **** void DebugMon_Handler(void)
 159:../system/src/cmsis/stm32l4xx/stm32l4xx_it.c **** {
 153              		.loc 1 159 0
 154              		.cfi_startproc
 155              		@ args = 0, pretend = 0, frame = 0
 156              		@ frame_needed = 0, uses_anonymous_args = 0
 157              		@ link register save eliminated.
 160:../system/src/cmsis/stm32l4xx/stm32l4xx_it.c ****   /* USER CODE BEGIN DebugMonitor_IRQn 0 */
 161:../system/src/cmsis/stm32l4xx/stm32l4xx_it.c **** 
 162:../system/src/cmsis/stm32l4xx/stm32l4xx_it.c ****   /* USER CODE END DebugMonitor_IRQn 0 */
 163:../system/src/cmsis/stm32l4xx/stm32l4xx_it.c ****   /* USER CODE BEGIN DebugMonitor_IRQn 1 */
 164:../system/src/cmsis/stm32l4xx/stm32l4xx_it.c **** 
 165:../system/src/cmsis/stm32l4xx/stm32l4xx_it.c ****   /* USER CODE END DebugMonitor_IRQn 1 */
 166:../system/src/cmsis/stm32l4xx/stm32l4xx_it.c **** }
 158              		.loc 1 166 0
 159 0000 7047     		bx	lr
 160              		.cfi_endproc
 161              	.LFE357:
 163              		.section	.text.PendSV_Handler,"ax",%progbits
 164              		.align	1
 165              		.global	PendSV_Handler
 166              		.syntax unified
 167              		.thumb
 168              		.thumb_func
 169              		.fpu fpv4-sp-d16
 171              	PendSV_Handler:
 172              	.LFB358:
 167:../system/src/cmsis/stm32l4xx/stm32l4xx_it.c **** 
 168:../system/src/cmsis/stm32l4xx/stm32l4xx_it.c **** /**
 169:../system/src/cmsis/stm32l4xx/stm32l4xx_it.c ****   * @brief This function handles Pendable request for system service.
 170:../system/src/cmsis/stm32l4xx/stm32l4xx_it.c ****   */
 171:../system/src/cmsis/stm32l4xx/stm32l4xx_it.c **** void PendSV_Handler(void)
 172:../system/src/cmsis/stm32l4xx/stm32l4xx_it.c **** {
 173              		.loc 1 172 0
 174              		.cfi_startproc
 175              		@ args = 0, pretend = 0, frame = 0
 176              		@ frame_needed = 0, uses_anonymous_args = 0
 177              		@ link register save eliminated.
 173:../system/src/cmsis/stm32l4xx/stm32l4xx_it.c ****   /* USER CODE BEGIN PendSV_IRQn 0 */
 174:../system/src/cmsis/stm32l4xx/stm32l4xx_it.c **** 
 175:../system/src/cmsis/stm32l4xx/stm32l4xx_it.c ****   /* USER CODE END PendSV_IRQn 0 */
 176:../system/src/cmsis/stm32l4xx/stm32l4xx_it.c ****   /* USER CODE BEGIN PendSV_IRQn 1 */
 177:../system/src/cmsis/stm32l4xx/stm32l4xx_it.c **** 
 178:../system/src/cmsis/stm32l4xx/stm32l4xx_it.c ****   /* USER CODE END PendSV_IRQn 1 */
 179:../system/src/cmsis/stm32l4xx/stm32l4xx_it.c **** }
 178              		.loc 1 179 0
 179 0000 7047     		bx	lr
 180              		.cfi_endproc
 181              	.LFE358:
 183              		.section	.text.SysTick_Handler,"ax",%progbits
 184              		.align	1
 185              		.global	SysTick_Handler
 186              		.syntax unified
 187              		.thumb
 188              		.thumb_func
 189              		.fpu fpv4-sp-d16
 191              	SysTick_Handler:
 192              	.LFB359:
 180:../system/src/cmsis/stm32l4xx/stm32l4xx_it.c **** 
 181:../system/src/cmsis/stm32l4xx/stm32l4xx_it.c **** /**
 182:../system/src/cmsis/stm32l4xx/stm32l4xx_it.c ****   * @brief This function handles System tick timer.
 183:../system/src/cmsis/stm32l4xx/stm32l4xx_it.c ****   */
 184:../system/src/cmsis/stm32l4xx/stm32l4xx_it.c **** void SysTick_Handler(void)
 185:../system/src/cmsis/stm32l4xx/stm32l4xx_it.c **** {
 193              		.loc 1 185 0
 194              		.cfi_startproc
 195              		@ args = 0, pretend = 0, frame = 0
 196              		@ frame_needed = 0, uses_anonymous_args = 0
 197              		@ link register save eliminated.
 186:../system/src/cmsis/stm32l4xx/stm32l4xx_it.c ****   /* USER CODE BEGIN SysTick_IRQn 0 */
 187:../system/src/cmsis/stm32l4xx/stm32l4xx_it.c **** 
 188:../system/src/cmsis/stm32l4xx/stm32l4xx_it.c ****   /* USER CODE END SysTick_IRQn 0 */
 189:../system/src/cmsis/stm32l4xx/stm32l4xx_it.c ****   //HAL_IncTick();
 190:../system/src/cmsis/stm32l4xx/stm32l4xx_it.c ****   /* USER CODE BEGIN SysTick_IRQn 1 */
 191:../system/src/cmsis/stm32l4xx/stm32l4xx_it.c **** 
 192:../system/src/cmsis/stm32l4xx/stm32l4xx_it.c ****   /* USER CODE END SysTick_IRQn 1 */
 193:../system/src/cmsis/stm32l4xx/stm32l4xx_it.c **** }
 198              		.loc 1 193 0
 199 0000 7047     		bx	lr
 200              		.cfi_endproc
 201              	.LFE359:
 203              		.text
 204              	.Letext0:
 205              		.file 2 "/usr/local/bin/gcc-arm-none-eabi-7-2018-q2-update/lib/gcc/arm-none-eabi/7.3.1/include/std
 206              		.file 3 "../system/include/aprs/cfifo.h"
 207              		.file 4 "../system/include/aprs/afsk.h"
 208              		.file 5 "../system/include/aprs/ax25.h"
 209              		.file 6 "../system/include/cmsis/stm32l4xx/core_cm4.h"
 210              		.file 7 "../system/include/cmsis/stm32l4xx/device/system_stm32l4xx.h"
 211              		.file 8 "../system/include/cmsis/stm32l4xx/device/stm32l471xx.h"
 212              		.file 9 "../system/include/drivers/serial.h"
 213              		.file 10 "../include/config_data.h"
 214              		.file 11 "../include/main.h"