   1              		.cpu cortex-m4
   2              		.eabi_attribute 27, 1
   3              		.eabi_attribute 28, 1
   4              		.eabi_attribute 20, 1
   5              		.eabi_attribute 21, 1
   6              		.eabi_attribute 23, 3
   7              		.eabi_attribute 24, 1
   8              		.eabi_attribute 25, 1
   9              		.eabi_attribute 26, 1
  10              		.eabi_attribute 30, 1
  11              		.eabi_attribute 34, 1
  12              		.eabi_attribute 18, 4
  13              		.file	"dma_helper_functions.c"
  14              		.text
  15              	.Ltext0:
  16              		.cfi_sections	.debug_frame
  17              		.section	.text.dma_helper_start_ch7,"ax",%progbits
  18              		.align	1
  19              		.global	dma_helper_start_ch7
  20              		.syntax unified
  21              		.thumb
  22              		.thumb_func
  23              		.fpu fpv4-sp-d16
  25              	dma_helper_start_ch7:
  26              	.LFB228:
  27              		.file 1 "../system/src/drivers/dma_helper_functions.c"
   1:../system/src/drivers/dma_helper_functions.c **** /*
   2:../system/src/drivers/dma_helper_functions.c ****  * dma_helper_functions.c
   3:../system/src/drivers/dma_helper_functions.c ****  *
   4:../system/src/drivers/dma_helper_functions.c ****  *  Created on: 28.12.2019
   5:../system/src/drivers/dma_helper_functions.c ****  *      Author: mateusz
   6:../system/src/drivers/dma_helper_functions.c ****  */
   7:../system/src/drivers/dma_helper_functions.c **** 
   8:../system/src/drivers/dma_helper_functions.c **** #include "./drivers/dma_helper_functions.h"
   9:../system/src/drivers/dma_helper_functions.c **** #include "station_config_target_hw.h"
  10:../system/src/drivers/dma_helper_functions.c **** #ifdef STM32F10X_MD_VL
  11:../system/src/drivers/dma_helper_functions.c **** 
  12:../system/src/drivers/dma_helper_functions.c **** void dma_helper_start_ch7(DMA_InitTypeDef* DMA_InitStruct) {
  13:../system/src/drivers/dma_helper_functions.c **** 	DMA_DeInit(DMA1_Channel7);
  14:../system/src/drivers/dma_helper_functions.c **** 	DMA_Init(DMA1_Channel7, DMA_InitStruct);
  15:../system/src/drivers/dma_helper_functions.c **** 	DMA1_Channel7->CCR |= DMA_CCR7_EN;
  16:../system/src/drivers/dma_helper_functions.c **** 	DMA1_Channel7->CCR |= DMA_CCR7_TCIE;
  17:../system/src/drivers/dma_helper_functions.c **** }
  18:../system/src/drivers/dma_helper_functions.c **** 
  19:../system/src/drivers/dma_helper_functions.c **** #endif
  20:../system/src/drivers/dma_helper_functions.c **** 
  21:../system/src/drivers/dma_helper_functions.c **** #ifdef STM32L471xx
  22:../system/src/drivers/dma_helper_functions.c **** 
  23:../system/src/drivers/dma_helper_functions.c **** void dma_helper_start_ch7(LL_DMA_InitTypeDef* DMA_InitStruct) {
  28              		.loc 1 23 0
  29              		.cfi_startproc
  30              		@ args = 0, pretend = 0, frame = 0
  31              		@ frame_needed = 0, uses_anonymous_args = 0
  32              	.LVL0:
  33 0000 38B5     		push	{r3, r4, r5, lr}
  34              		.cfi_def_cfa_offset 16
  35              		.cfi_offset 3, -16
  36              		.cfi_offset 4, -12
  37              		.cfi_offset 5, -8
  38              		.cfi_offset 14, -4
  39 0002 0546     		mov	r5, r0
  24:../system/src/drivers/dma_helper_functions.c **** 	//DMA_DeInit(DMA1_Channel7);
  25:../system/src/drivers/dma_helper_functions.c **** 	LL_DMA_DeInit(DMA1, LL_DMA_CHANNEL_5);
  40              		.loc 1 25 0
  41 0004 094C     		ldr	r4, .L3
  42 0006 0421     		movs	r1, #4
  43 0008 2046     		mov	r0, r4
  44              	.LVL1:
  45 000a FFF7FEFF 		bl	LL_DMA_DeInit
  46              	.LVL2:
  26:../system/src/drivers/dma_helper_functions.c **** 	LL_DMA_Init(DMA1, LL_DMA_CHANNEL_5, DMA_InitStruct);
  47              		.loc 1 26 0
  48 000e 2A46     		mov	r2, r5
  49 0010 0421     		movs	r1, #4
  50 0012 2046     		mov	r0, r4
  51 0014 FFF7FEFF 		bl	LL_DMA_Init
  52              	.LVL3:
  53              	.LBB6:
  54              	.LBB7:
  55              		.file 2 "../system/include/stm32l4-hal-driver/stm32l4xx_ll_dma.h"
   1:../system/include/stm32l4-hal-driver/stm32l4xx_ll_dma.h **** /**
   2:../system/include/stm32l4-hal-driver/stm32l4xx_ll_dma.h ****   ******************************************************************************
   3:../system/include/stm32l4-hal-driver/stm32l4xx_ll_dma.h ****   * @file    stm32l4xx_ll_dma.h
   4:../system/include/stm32l4-hal-driver/stm32l4xx_ll_dma.h ****   * @author  MCD Application Team
   5:../system/include/stm32l4-hal-driver/stm32l4xx_ll_dma.h ****   * @brief   Header file of DMA LL module.
   6:../system/include/stm32l4-hal-driver/stm32l4xx_ll_dma.h ****   ******************************************************************************
   7:../system/include/stm32l4-hal-driver/stm32l4xx_ll_dma.h ****   * @attention
   8:../system/include/stm32l4-hal-driver/stm32l4xx_ll_dma.h ****   *
   9:../system/include/stm32l4-hal-driver/stm32l4xx_ll_dma.h ****   * <h2><center>&copy; Copyright (c) 2017 STMicroelectronics.
  10:../system/include/stm32l4-hal-driver/stm32l4xx_ll_dma.h ****   * All rights reserved.</center></h2>
  11:../system/include/stm32l4-hal-driver/stm32l4xx_ll_dma.h ****   *
  12:../system/include/stm32l4-hal-driver/stm32l4xx_ll_dma.h ****   * This software component is licensed by ST under BSD 3-Clause license,
  13:../system/include/stm32l4-hal-driver/stm32l4xx_ll_dma.h ****   * the "License"; You may not use this file except in compliance with the
  14:../system/include/stm32l4-hal-driver/stm32l4xx_ll_dma.h ****   * License. You may obtain a copy of the License at:
  15:../system/include/stm32l4-hal-driver/stm32l4xx_ll_dma.h ****   *                        opensource.org/licenses/BSD-3-Clause
  16:../system/include/stm32l4-hal-driver/stm32l4xx_ll_dma.h ****   *
  17:../system/include/stm32l4-hal-driver/stm32l4xx_ll_dma.h ****   ******************************************************************************
  18:../system/include/stm32l4-hal-driver/stm32l4xx_ll_dma.h ****   */
  19:../system/include/stm32l4-hal-driver/stm32l4xx_ll_dma.h **** 
  20:../system/include/stm32l4-hal-driver/stm32l4xx_ll_dma.h **** /* Define to prevent recursive inclusion -------------------------------------*/
  21:../system/include/stm32l4-hal-driver/stm32l4xx_ll_dma.h **** #ifndef STM32L4xx_LL_DMA_H
  22:../system/include/stm32l4-hal-driver/stm32l4xx_ll_dma.h **** #define STM32L4xx_LL_DMA_H
  23:../system/include/stm32l4-hal-driver/stm32l4xx_ll_dma.h **** 
  24:../system/include/stm32l4-hal-driver/stm32l4xx_ll_dma.h **** #ifdef __cplusplus
  25:../system/include/stm32l4-hal-driver/stm32l4xx_ll_dma.h **** extern "C" {
  26:../system/include/stm32l4-hal-driver/stm32l4xx_ll_dma.h **** #endif
  27:../system/include/stm32l4-hal-driver/stm32l4xx_ll_dma.h **** 
  28:../system/include/stm32l4-hal-driver/stm32l4xx_ll_dma.h **** /* Includes ------------------------------------------------------------------*/
  29:../system/include/stm32l4-hal-driver/stm32l4xx_ll_dma.h **** #include "stm32l4xx.h"
  30:../system/include/stm32l4-hal-driver/stm32l4xx_ll_dma.h **** #if defined(DMAMUX1)
  31:../system/include/stm32l4-hal-driver/stm32l4xx_ll_dma.h **** #include "stm32l4xx_ll_dmamux.h"
  32:../system/include/stm32l4-hal-driver/stm32l4xx_ll_dma.h **** #endif /* DMAMUX1 */
  33:../system/include/stm32l4-hal-driver/stm32l4xx_ll_dma.h **** 
  34:../system/include/stm32l4-hal-driver/stm32l4xx_ll_dma.h **** /** @addtogroup STM32L4xx_LL_Driver
  35:../system/include/stm32l4-hal-driver/stm32l4xx_ll_dma.h ****   * @{
  36:../system/include/stm32l4-hal-driver/stm32l4xx_ll_dma.h ****   */
  37:../system/include/stm32l4-hal-driver/stm32l4xx_ll_dma.h **** 
  38:../system/include/stm32l4-hal-driver/stm32l4xx_ll_dma.h **** #if defined (DMA1) || defined (DMA2)
  39:../system/include/stm32l4-hal-driver/stm32l4xx_ll_dma.h **** 
  40:../system/include/stm32l4-hal-driver/stm32l4xx_ll_dma.h **** /** @defgroup DMA_LL DMA
  41:../system/include/stm32l4-hal-driver/stm32l4xx_ll_dma.h ****   * @{
  42:../system/include/stm32l4-hal-driver/stm32l4xx_ll_dma.h ****   */
  43:../system/include/stm32l4-hal-driver/stm32l4xx_ll_dma.h **** 
  44:../system/include/stm32l4-hal-driver/stm32l4xx_ll_dma.h **** /* Private types -------------------------------------------------------------*/
  45:../system/include/stm32l4-hal-driver/stm32l4xx_ll_dma.h **** /* Private variables ---------------------------------------------------------*/
  46:../system/include/stm32l4-hal-driver/stm32l4xx_ll_dma.h **** /** @defgroup DMA_LL_Private_Variables DMA Private Variables
  47:../system/include/stm32l4-hal-driver/stm32l4xx_ll_dma.h ****   * @{
  48:../system/include/stm32l4-hal-driver/stm32l4xx_ll_dma.h ****   */
  49:../system/include/stm32l4-hal-driver/stm32l4xx_ll_dma.h **** /* Array used to get the DMA channel register offset versus channel index LL_DMA_CHANNEL_x */
  50:../system/include/stm32l4-hal-driver/stm32l4xx_ll_dma.h **** static const uint8_t CHANNEL_OFFSET_TAB[] =
  51:../system/include/stm32l4-hal-driver/stm32l4xx_ll_dma.h **** {
  52:../system/include/stm32l4-hal-driver/stm32l4xx_ll_dma.h ****   (uint8_t)(DMA1_Channel1_BASE - DMA1_BASE),
  53:../system/include/stm32l4-hal-driver/stm32l4xx_ll_dma.h ****   (uint8_t)(DMA1_Channel2_BASE - DMA1_BASE),
  54:../system/include/stm32l4-hal-driver/stm32l4xx_ll_dma.h ****   (uint8_t)(DMA1_Channel3_BASE - DMA1_BASE),
  55:../system/include/stm32l4-hal-driver/stm32l4xx_ll_dma.h ****   (uint8_t)(DMA1_Channel4_BASE - DMA1_BASE),
  56:../system/include/stm32l4-hal-driver/stm32l4xx_ll_dma.h ****   (uint8_t)(DMA1_Channel5_BASE - DMA1_BASE),
  57:../system/include/stm32l4-hal-driver/stm32l4xx_ll_dma.h ****   (uint8_t)(DMA1_Channel6_BASE - DMA1_BASE),
  58:../system/include/stm32l4-hal-driver/stm32l4xx_ll_dma.h ****   (uint8_t)(DMA1_Channel7_BASE - DMA1_BASE)
  59:../system/include/stm32l4-hal-driver/stm32l4xx_ll_dma.h **** };
  60:../system/include/stm32l4-hal-driver/stm32l4xx_ll_dma.h **** /**
  61:../system/include/stm32l4-hal-driver/stm32l4xx_ll_dma.h ****   * @}
  62:../system/include/stm32l4-hal-driver/stm32l4xx_ll_dma.h ****   */
  63:../system/include/stm32l4-hal-driver/stm32l4xx_ll_dma.h **** 
  64:../system/include/stm32l4-hal-driver/stm32l4xx_ll_dma.h **** /* Private constants ---------------------------------------------------------*/
  65:../system/include/stm32l4-hal-driver/stm32l4xx_ll_dma.h **** #if defined(DMAMUX1)
  66:../system/include/stm32l4-hal-driver/stm32l4xx_ll_dma.h **** #else
  67:../system/include/stm32l4-hal-driver/stm32l4xx_ll_dma.h **** /** @defgroup DMA_LL_Private_Constants DMA Private Constants
  68:../system/include/stm32l4-hal-driver/stm32l4xx_ll_dma.h ****   * @{
  69:../system/include/stm32l4-hal-driver/stm32l4xx_ll_dma.h ****   */
  70:../system/include/stm32l4-hal-driver/stm32l4xx_ll_dma.h **** /* Define used to get CSELR register offset */
  71:../system/include/stm32l4-hal-driver/stm32l4xx_ll_dma.h **** #define DMA_CSELR_OFFSET                  (uint32_t)(DMA1_CSELR_BASE - DMA1_BASE)
  72:../system/include/stm32l4-hal-driver/stm32l4xx_ll_dma.h **** 
  73:../system/include/stm32l4-hal-driver/stm32l4xx_ll_dma.h **** /* Defines used for the bit position in the register and perform offsets */
  74:../system/include/stm32l4-hal-driver/stm32l4xx_ll_dma.h **** #define DMA_POSITION_CSELR_CXS            POSITION_VAL(DMA_CSELR_C1S << (Channel*4U))
  75:../system/include/stm32l4-hal-driver/stm32l4xx_ll_dma.h **** /**
  76:../system/include/stm32l4-hal-driver/stm32l4xx_ll_dma.h ****   * @}
  77:../system/include/stm32l4-hal-driver/stm32l4xx_ll_dma.h ****   */
  78:../system/include/stm32l4-hal-driver/stm32l4xx_ll_dma.h **** #endif /* DMAMUX1 */
  79:../system/include/stm32l4-hal-driver/stm32l4xx_ll_dma.h **** /* Private macros ------------------------------------------------------------*/
  80:../system/include/stm32l4-hal-driver/stm32l4xx_ll_dma.h **** #if defined(DMAMUX1)
  81:../system/include/stm32l4-hal-driver/stm32l4xx_ll_dma.h **** 
  82:../system/include/stm32l4-hal-driver/stm32l4xx_ll_dma.h **** /** @defgroup DMA_LL_Private_Macros DMA Private Macros
  83:../system/include/stm32l4-hal-driver/stm32l4xx_ll_dma.h ****   * @{
  84:../system/include/stm32l4-hal-driver/stm32l4xx_ll_dma.h ****   */
  85:../system/include/stm32l4-hal-driver/stm32l4xx_ll_dma.h **** /**
  86:../system/include/stm32l4-hal-driver/stm32l4xx_ll_dma.h ****   * @brief  Helper macro to convert DMA Instance DMAx into DMAMUX channel
  87:../system/include/stm32l4-hal-driver/stm32l4xx_ll_dma.h ****   * @note   DMAMUX channel 0 to 6 are mapped to DMA1 channel 1 to 7.
  88:../system/include/stm32l4-hal-driver/stm32l4xx_ll_dma.h ****   *         DMAMUX channel 7 to 13 are mapped to DMA2 channel 1 to 7.
  89:../system/include/stm32l4-hal-driver/stm32l4xx_ll_dma.h ****   * @param  __DMA_INSTANCE__ DMAx
  90:../system/include/stm32l4-hal-driver/stm32l4xx_ll_dma.h ****   * @retval Channel_Offset (LL_DMA_CHANNEL_7 or 0).
  91:../system/include/stm32l4-hal-driver/stm32l4xx_ll_dma.h ****   */
  92:../system/include/stm32l4-hal-driver/stm32l4xx_ll_dma.h **** #define __LL_DMA_INSTANCE_TO_DMAMUX_CHANNEL(__DMA_INSTANCE__)   \
  93:../system/include/stm32l4-hal-driver/stm32l4xx_ll_dma.h **** (((__DMA_INSTANCE__) == DMA1) ? 0x00000000U : LL_DMA_CHANNEL_7)
  94:../system/include/stm32l4-hal-driver/stm32l4xx_ll_dma.h **** 
  95:../system/include/stm32l4-hal-driver/stm32l4xx_ll_dma.h **** /**
  96:../system/include/stm32l4-hal-driver/stm32l4xx_ll_dma.h ****   * @}
  97:../system/include/stm32l4-hal-driver/stm32l4xx_ll_dma.h ****   */
  98:../system/include/stm32l4-hal-driver/stm32l4xx_ll_dma.h **** #else
  99:../system/include/stm32l4-hal-driver/stm32l4xx_ll_dma.h **** #if defined(USE_FULL_LL_DRIVER)
 100:../system/include/stm32l4-hal-driver/stm32l4xx_ll_dma.h **** /** @defgroup DMA_LL_Private_Macros DMA Private Macros
 101:../system/include/stm32l4-hal-driver/stm32l4xx_ll_dma.h ****   * @{
 102:../system/include/stm32l4-hal-driver/stm32l4xx_ll_dma.h ****   */
 103:../system/include/stm32l4-hal-driver/stm32l4xx_ll_dma.h **** /**
 104:../system/include/stm32l4-hal-driver/stm32l4xx_ll_dma.h ****   * @}
 105:../system/include/stm32l4-hal-driver/stm32l4xx_ll_dma.h ****   */
 106:../system/include/stm32l4-hal-driver/stm32l4xx_ll_dma.h **** #endif /*USE_FULL_LL_DRIVER*/
 107:../system/include/stm32l4-hal-driver/stm32l4xx_ll_dma.h **** #endif /* DMAMUX1 */
 108:../system/include/stm32l4-hal-driver/stm32l4xx_ll_dma.h **** /* Exported types ------------------------------------------------------------*/
 109:../system/include/stm32l4-hal-driver/stm32l4xx_ll_dma.h **** #if defined(USE_FULL_LL_DRIVER)
 110:../system/include/stm32l4-hal-driver/stm32l4xx_ll_dma.h **** /** @defgroup DMA_LL_ES_INIT DMA Exported Init structure
 111:../system/include/stm32l4-hal-driver/stm32l4xx_ll_dma.h ****   * @{
 112:../system/include/stm32l4-hal-driver/stm32l4xx_ll_dma.h ****   */
 113:../system/include/stm32l4-hal-driver/stm32l4xx_ll_dma.h **** typedef struct
 114:../system/include/stm32l4-hal-driver/stm32l4xx_ll_dma.h **** {
 115:../system/include/stm32l4-hal-driver/stm32l4xx_ll_dma.h ****   uint32_t PeriphOrM2MSrcAddress;  /*!< Specifies the peripheral base address for DMA transfer
 116:../system/include/stm32l4-hal-driver/stm32l4xx_ll_dma.h ****                                         or as Source base address in case of memory to memory trans
 117:../system/include/stm32l4-hal-driver/stm32l4xx_ll_dma.h **** 
 118:../system/include/stm32l4-hal-driver/stm32l4xx_ll_dma.h ****                                         This parameter must be a value between Min_Data = 0 and Max
 119:../system/include/stm32l4-hal-driver/stm32l4xx_ll_dma.h **** 
 120:../system/include/stm32l4-hal-driver/stm32l4xx_ll_dma.h ****   uint32_t MemoryOrM2MDstAddress;  /*!< Specifies the memory base address for DMA transfer
 121:../system/include/stm32l4-hal-driver/stm32l4xx_ll_dma.h ****                                         or as Destination base address in case of memory to memory 
 122:../system/include/stm32l4-hal-driver/stm32l4xx_ll_dma.h **** 
 123:../system/include/stm32l4-hal-driver/stm32l4xx_ll_dma.h ****                                         This parameter must be a value between Min_Data = 0 and Max
 124:../system/include/stm32l4-hal-driver/stm32l4xx_ll_dma.h **** 
 125:../system/include/stm32l4-hal-driver/stm32l4xx_ll_dma.h ****   uint32_t Direction;              /*!< Specifies if the data will be transferred from memory to pe
 126:../system/include/stm32l4-hal-driver/stm32l4xx_ll_dma.h ****                                         from memory to memory or from peripheral to memory.
 127:../system/include/stm32l4-hal-driver/stm32l4xx_ll_dma.h ****                                         This parameter can be a value of @ref DMA_LL_EC_DIRECTION
 128:../system/include/stm32l4-hal-driver/stm32l4xx_ll_dma.h **** 
 129:../system/include/stm32l4-hal-driver/stm32l4xx_ll_dma.h ****                                         This feature can be modified afterwards using unitary funct
 130:../system/include/stm32l4-hal-driver/stm32l4xx_ll_dma.h **** 
 131:../system/include/stm32l4-hal-driver/stm32l4xx_ll_dma.h ****   uint32_t Mode;                   /*!< Specifies the normal or circular operation mode.
 132:../system/include/stm32l4-hal-driver/stm32l4xx_ll_dma.h ****                                         This parameter can be a value of @ref DMA_LL_EC_MODE
 133:../system/include/stm32l4-hal-driver/stm32l4xx_ll_dma.h ****                                         @note: The circular buffer mode cannot be used if the memor
 134:../system/include/stm32l4-hal-driver/stm32l4xx_ll_dma.h ****                                                data transfer direction is configured on the selecte
 135:../system/include/stm32l4-hal-driver/stm32l4xx_ll_dma.h **** 
 136:../system/include/stm32l4-hal-driver/stm32l4xx_ll_dma.h ****                                         This feature can be modified afterwards using unitary funct
 137:../system/include/stm32l4-hal-driver/stm32l4xx_ll_dma.h **** 
 138:../system/include/stm32l4-hal-driver/stm32l4xx_ll_dma.h ****   uint32_t PeriphOrM2MSrcIncMode;  /*!< Specifies whether the Peripheral address or Source address 
 139:../system/include/stm32l4-hal-driver/stm32l4xx_ll_dma.h ****                                         is incremented or not.
 140:../system/include/stm32l4-hal-driver/stm32l4xx_ll_dma.h ****                                         This parameter can be a value of @ref DMA_LL_EC_PERIPH
 141:../system/include/stm32l4-hal-driver/stm32l4xx_ll_dma.h **** 
 142:../system/include/stm32l4-hal-driver/stm32l4xx_ll_dma.h ****                                         This feature can be modified afterwards using unitary funct
 143:../system/include/stm32l4-hal-driver/stm32l4xx_ll_dma.h **** 
 144:../system/include/stm32l4-hal-driver/stm32l4xx_ll_dma.h ****   uint32_t MemoryOrM2MDstIncMode;  /*!< Specifies whether the Memory address or Destination address
 145:../system/include/stm32l4-hal-driver/stm32l4xx_ll_dma.h ****                                         is incremented or not.
 146:../system/include/stm32l4-hal-driver/stm32l4xx_ll_dma.h ****                                         This parameter can be a value of @ref DMA_LL_EC_MEMORY
 147:../system/include/stm32l4-hal-driver/stm32l4xx_ll_dma.h **** 
 148:../system/include/stm32l4-hal-driver/stm32l4xx_ll_dma.h ****                                         This feature can be modified afterwards using unitary funct
 149:../system/include/stm32l4-hal-driver/stm32l4xx_ll_dma.h **** 
 150:../system/include/stm32l4-hal-driver/stm32l4xx_ll_dma.h ****   uint32_t PeriphOrM2MSrcDataSize; /*!< Specifies the Peripheral data size alignment or Source data
 151:../system/include/stm32l4-hal-driver/stm32l4xx_ll_dma.h ****                                         in case of memory to memory transfer direction.
 152:../system/include/stm32l4-hal-driver/stm32l4xx_ll_dma.h ****                                         This parameter can be a value of @ref DMA_LL_EC_PDATAALIGN
 153:../system/include/stm32l4-hal-driver/stm32l4xx_ll_dma.h **** 
 154:../system/include/stm32l4-hal-driver/stm32l4xx_ll_dma.h ****                                         This feature can be modified afterwards using unitary funct
 155:../system/include/stm32l4-hal-driver/stm32l4xx_ll_dma.h **** 
 156:../system/include/stm32l4-hal-driver/stm32l4xx_ll_dma.h ****   uint32_t MemoryOrM2MDstDataSize; /*!< Specifies the Memory data size alignment or Destination dat
 157:../system/include/stm32l4-hal-driver/stm32l4xx_ll_dma.h ****                                         in case of memory to memory transfer direction.
 158:../system/include/stm32l4-hal-driver/stm32l4xx_ll_dma.h ****                                         This parameter can be a value of @ref DMA_LL_EC_MDATAALIGN
 159:../system/include/stm32l4-hal-driver/stm32l4xx_ll_dma.h **** 
 160:../system/include/stm32l4-hal-driver/stm32l4xx_ll_dma.h ****                                         This feature can be modified afterwards using unitary funct
 161:../system/include/stm32l4-hal-driver/stm32l4xx_ll_dma.h **** 
 162:../system/include/stm32l4-hal-driver/stm32l4xx_ll_dma.h ****   uint32_t NbData;                 /*!< Specifies the number of data to transfer, in data unit.
 163:../system/include/stm32l4-hal-driver/stm32l4xx_ll_dma.h ****                                         The data unit is equal to the source buffer configuration s
 164:../system/include/stm32l4-hal-driver/stm32l4xx_ll_dma.h ****                                         or MemorySize parameters depending in the transfer directio
 165:../system/include/stm32l4-hal-driver/stm32l4xx_ll_dma.h ****                                         This parameter must be a value between Min_Data = 0 and Max
 166:../system/include/stm32l4-hal-driver/stm32l4xx_ll_dma.h **** 
 167:../system/include/stm32l4-hal-driver/stm32l4xx_ll_dma.h ****                                         This feature can be modified afterwards using unitary funct
 168:../system/include/stm32l4-hal-driver/stm32l4xx_ll_dma.h **** 
 169:../system/include/stm32l4-hal-driver/stm32l4xx_ll_dma.h **** #if defined(DMAMUX1)
 170:../system/include/stm32l4-hal-driver/stm32l4xx_ll_dma.h ****   uint32_t PeriphRequest;          /*!< Specifies the peripheral request.
 171:../system/include/stm32l4-hal-driver/stm32l4xx_ll_dma.h ****                                         This parameter can be a value of @ref DMAMUX_LL_EC_REQUEST
 172:../system/include/stm32l4-hal-driver/stm32l4xx_ll_dma.h **** 
 173:../system/include/stm32l4-hal-driver/stm32l4xx_ll_dma.h ****                                         This feature can be modified afterwards using unitary funct
 174:../system/include/stm32l4-hal-driver/stm32l4xx_ll_dma.h **** #else
 175:../system/include/stm32l4-hal-driver/stm32l4xx_ll_dma.h ****   uint32_t PeriphRequest;          /*!< Specifies the peripheral request.
 176:../system/include/stm32l4-hal-driver/stm32l4xx_ll_dma.h ****                                         This parameter can be a value of @ref DMA_LL_EC_REQUEST
 177:../system/include/stm32l4-hal-driver/stm32l4xx_ll_dma.h **** 
 178:../system/include/stm32l4-hal-driver/stm32l4xx_ll_dma.h ****                                         This feature can be modified afterwards using unitary funct
 179:../system/include/stm32l4-hal-driver/stm32l4xx_ll_dma.h **** #endif /* DMAMUX1 */
 180:../system/include/stm32l4-hal-driver/stm32l4xx_ll_dma.h **** 
 181:../system/include/stm32l4-hal-driver/stm32l4xx_ll_dma.h ****   uint32_t Priority;               /*!< Specifies the channel priority level.
 182:../system/include/stm32l4-hal-driver/stm32l4xx_ll_dma.h ****                                         This parameter can be a value of @ref DMA_LL_EC_PRIORITY
 183:../system/include/stm32l4-hal-driver/stm32l4xx_ll_dma.h **** 
 184:../system/include/stm32l4-hal-driver/stm32l4xx_ll_dma.h ****                                         This feature can be modified afterwards using unitary funct
 185:../system/include/stm32l4-hal-driver/stm32l4xx_ll_dma.h **** 
 186:../system/include/stm32l4-hal-driver/stm32l4xx_ll_dma.h **** } LL_DMA_InitTypeDef;
 187:../system/include/stm32l4-hal-driver/stm32l4xx_ll_dma.h **** /**
 188:../system/include/stm32l4-hal-driver/stm32l4xx_ll_dma.h ****   * @}
 189:../system/include/stm32l4-hal-driver/stm32l4xx_ll_dma.h ****   */
 190:../system/include/stm32l4-hal-driver/stm32l4xx_ll_dma.h **** #endif /*USE_FULL_LL_DRIVER*/
 191:../system/include/stm32l4-hal-driver/stm32l4xx_ll_dma.h **** 
 192:../system/include/stm32l4-hal-driver/stm32l4xx_ll_dma.h **** /* Exported constants --------------------------------------------------------*/
 193:../system/include/stm32l4-hal-driver/stm32l4xx_ll_dma.h **** /** @defgroup DMA_LL_Exported_Constants DMA Exported Constants
 194:../system/include/stm32l4-hal-driver/stm32l4xx_ll_dma.h ****   * @{
 195:../system/include/stm32l4-hal-driver/stm32l4xx_ll_dma.h ****   */
 196:../system/include/stm32l4-hal-driver/stm32l4xx_ll_dma.h **** /** @defgroup DMA_LL_EC_CLEAR_FLAG Clear Flags Defines
 197:../system/include/stm32l4-hal-driver/stm32l4xx_ll_dma.h ****   * @brief    Flags defines which can be used with LL_DMA_WriteReg function
 198:../system/include/stm32l4-hal-driver/stm32l4xx_ll_dma.h ****   * @{
 199:../system/include/stm32l4-hal-driver/stm32l4xx_ll_dma.h ****   */
 200:../system/include/stm32l4-hal-driver/stm32l4xx_ll_dma.h **** #define LL_DMA_IFCR_CGIF1                 DMA_IFCR_CGIF1        /*!< Channel 1 global flag         
 201:../system/include/stm32l4-hal-driver/stm32l4xx_ll_dma.h **** #define LL_DMA_IFCR_CTCIF1                DMA_IFCR_CTCIF1       /*!< Channel 1 transfer complete fl
 202:../system/include/stm32l4-hal-driver/stm32l4xx_ll_dma.h **** #define LL_DMA_IFCR_CHTIF1                DMA_IFCR_CHTIF1       /*!< Channel 1 half transfer flag  
 203:../system/include/stm32l4-hal-driver/stm32l4xx_ll_dma.h **** #define LL_DMA_IFCR_CTEIF1                DMA_IFCR_CTEIF1       /*!< Channel 1 transfer error flag 
 204:../system/include/stm32l4-hal-driver/stm32l4xx_ll_dma.h **** #define LL_DMA_IFCR_CGIF2                 DMA_IFCR_CGIF2        /*!< Channel 2 global flag         
 205:../system/include/stm32l4-hal-driver/stm32l4xx_ll_dma.h **** #define LL_DMA_IFCR_CTCIF2                DMA_IFCR_CTCIF2       /*!< Channel 2 transfer complete fl
 206:../system/include/stm32l4-hal-driver/stm32l4xx_ll_dma.h **** #define LL_DMA_IFCR_CHTIF2                DMA_IFCR_CHTIF2       /*!< Channel 2 half transfer flag  
 207:../system/include/stm32l4-hal-driver/stm32l4xx_ll_dma.h **** #define LL_DMA_IFCR_CTEIF2                DMA_IFCR_CTEIF2       /*!< Channel 2 transfer error flag 
 208:../system/include/stm32l4-hal-driver/stm32l4xx_ll_dma.h **** #define LL_DMA_IFCR_CGIF3                 DMA_IFCR_CGIF3        /*!< Channel 3 global flag         
 209:../system/include/stm32l4-hal-driver/stm32l4xx_ll_dma.h **** #define LL_DMA_IFCR_CTCIF3                DMA_IFCR_CTCIF3       /*!< Channel 3 transfer complete fl
 210:../system/include/stm32l4-hal-driver/stm32l4xx_ll_dma.h **** #define LL_DMA_IFCR_CHTIF3                DMA_IFCR_CHTIF3       /*!< Channel 3 half transfer flag  
 211:../system/include/stm32l4-hal-driver/stm32l4xx_ll_dma.h **** #define LL_DMA_IFCR_CTEIF3                DMA_IFCR_CTEIF3       /*!< Channel 3 transfer error flag 
 212:../system/include/stm32l4-hal-driver/stm32l4xx_ll_dma.h **** #define LL_DMA_IFCR_CGIF4                 DMA_IFCR_CGIF4        /*!< Channel 4 global flag         
 213:../system/include/stm32l4-hal-driver/stm32l4xx_ll_dma.h **** #define LL_DMA_IFCR_CTCIF4                DMA_IFCR_CTCIF4       /*!< Channel 4 transfer complete fl
 214:../system/include/stm32l4-hal-driver/stm32l4xx_ll_dma.h **** #define LL_DMA_IFCR_CHTIF4                DMA_IFCR_CHTIF4       /*!< Channel 4 half transfer flag  
 215:../system/include/stm32l4-hal-driver/stm32l4xx_ll_dma.h **** #define LL_DMA_IFCR_CTEIF4                DMA_IFCR_CTEIF4       /*!< Channel 4 transfer error flag 
 216:../system/include/stm32l4-hal-driver/stm32l4xx_ll_dma.h **** #define LL_DMA_IFCR_CGIF5                 DMA_IFCR_CGIF5        /*!< Channel 5 global flag         
 217:../system/include/stm32l4-hal-driver/stm32l4xx_ll_dma.h **** #define LL_DMA_IFCR_CTCIF5                DMA_IFCR_CTCIF5       /*!< Channel 5 transfer complete fl
 218:../system/include/stm32l4-hal-driver/stm32l4xx_ll_dma.h **** #define LL_DMA_IFCR_CHTIF5                DMA_IFCR_CHTIF5       /*!< Channel 5 half transfer flag  
 219:../system/include/stm32l4-hal-driver/stm32l4xx_ll_dma.h **** #define LL_DMA_IFCR_CTEIF5                DMA_IFCR_CTEIF5       /*!< Channel 5 transfer error flag 
 220:../system/include/stm32l4-hal-driver/stm32l4xx_ll_dma.h **** #define LL_DMA_IFCR_CGIF6                 DMA_IFCR_CGIF6        /*!< Channel 6 global flag         
 221:../system/include/stm32l4-hal-driver/stm32l4xx_ll_dma.h **** #define LL_DMA_IFCR_CTCIF6                DMA_IFCR_CTCIF6       /*!< Channel 6 transfer complete fl
 222:../system/include/stm32l4-hal-driver/stm32l4xx_ll_dma.h **** #define LL_DMA_IFCR_CHTIF6                DMA_IFCR_CHTIF6       /*!< Channel 6 half transfer flag  
 223:../system/include/stm32l4-hal-driver/stm32l4xx_ll_dma.h **** #define LL_DMA_IFCR_CTEIF6                DMA_IFCR_CTEIF6       /*!< Channel 6 transfer error flag 
 224:../system/include/stm32l4-hal-driver/stm32l4xx_ll_dma.h **** #define LL_DMA_IFCR_CGIF7                 DMA_IFCR_CGIF7        /*!< Channel 7 global flag         
 225:../system/include/stm32l4-hal-driver/stm32l4xx_ll_dma.h **** #define LL_DMA_IFCR_CTCIF7                DMA_IFCR_CTCIF7       /*!< Channel 7 transfer complete fl
 226:../system/include/stm32l4-hal-driver/stm32l4xx_ll_dma.h **** #define LL_DMA_IFCR_CHTIF7                DMA_IFCR_CHTIF7       /*!< Channel 7 half transfer flag  
 227:../system/include/stm32l4-hal-driver/stm32l4xx_ll_dma.h **** #define LL_DMA_IFCR_CTEIF7                DMA_IFCR_CTEIF7       /*!< Channel 7 transfer error flag 
 228:../system/include/stm32l4-hal-driver/stm32l4xx_ll_dma.h **** /**
 229:../system/include/stm32l4-hal-driver/stm32l4xx_ll_dma.h ****   * @}
 230:../system/include/stm32l4-hal-driver/stm32l4xx_ll_dma.h ****   */
 231:../system/include/stm32l4-hal-driver/stm32l4xx_ll_dma.h **** 
 232:../system/include/stm32l4-hal-driver/stm32l4xx_ll_dma.h **** /** @defgroup DMA_LL_EC_GET_FLAG Get Flags Defines
 233:../system/include/stm32l4-hal-driver/stm32l4xx_ll_dma.h ****   * @brief    Flags defines which can be used with LL_DMA_ReadReg function
 234:../system/include/stm32l4-hal-driver/stm32l4xx_ll_dma.h ****   * @{
 235:../system/include/stm32l4-hal-driver/stm32l4xx_ll_dma.h ****   */
 236:../system/include/stm32l4-hal-driver/stm32l4xx_ll_dma.h **** #define LL_DMA_ISR_GIF1                   DMA_ISR_GIF1          /*!< Channel 1 global flag         
 237:../system/include/stm32l4-hal-driver/stm32l4xx_ll_dma.h **** #define LL_DMA_ISR_TCIF1                  DMA_ISR_TCIF1         /*!< Channel 1 transfer complete fl
 238:../system/include/stm32l4-hal-driver/stm32l4xx_ll_dma.h **** #define LL_DMA_ISR_HTIF1                  DMA_ISR_HTIF1         /*!< Channel 1 half transfer flag  
 239:../system/include/stm32l4-hal-driver/stm32l4xx_ll_dma.h **** #define LL_DMA_ISR_TEIF1                  DMA_ISR_TEIF1         /*!< Channel 1 transfer error flag 
 240:../system/include/stm32l4-hal-driver/stm32l4xx_ll_dma.h **** #define LL_DMA_ISR_GIF2                   DMA_ISR_GIF2          /*!< Channel 2 global flag         
 241:../system/include/stm32l4-hal-driver/stm32l4xx_ll_dma.h **** #define LL_DMA_ISR_TCIF2                  DMA_ISR_TCIF2         /*!< Channel 2 transfer complete fl
 242:../system/include/stm32l4-hal-driver/stm32l4xx_ll_dma.h **** #define LL_DMA_ISR_HTIF2                  DMA_ISR_HTIF2         /*!< Channel 2 half transfer flag  
 243:../system/include/stm32l4-hal-driver/stm32l4xx_ll_dma.h **** #define LL_DMA_ISR_TEIF2                  DMA_ISR_TEIF2         /*!< Channel 2 transfer error flag 
 244:../system/include/stm32l4-hal-driver/stm32l4xx_ll_dma.h **** #define LL_DMA_ISR_GIF3                   DMA_ISR_GIF3          /*!< Channel 3 global flag         
 245:../system/include/stm32l4-hal-driver/stm32l4xx_ll_dma.h **** #define LL_DMA_ISR_TCIF3                  DMA_ISR_TCIF3         /*!< Channel 3 transfer complete fl
 246:../system/include/stm32l4-hal-driver/stm32l4xx_ll_dma.h **** #define LL_DMA_ISR_HTIF3                  DMA_ISR_HTIF3         /*!< Channel 3 half transfer flag  
 247:../system/include/stm32l4-hal-driver/stm32l4xx_ll_dma.h **** #define LL_DMA_ISR_TEIF3                  DMA_ISR_TEIF3         /*!< Channel 3 transfer error flag 
 248:../system/include/stm32l4-hal-driver/stm32l4xx_ll_dma.h **** #define LL_DMA_ISR_GIF4                   DMA_ISR_GIF4          /*!< Channel 4 global flag         
 249:../system/include/stm32l4-hal-driver/stm32l4xx_ll_dma.h **** #define LL_DMA_ISR_TCIF4                  DMA_ISR_TCIF4         /*!< Channel 4 transfer complete fl
 250:../system/include/stm32l4-hal-driver/stm32l4xx_ll_dma.h **** #define LL_DMA_ISR_HTIF4                  DMA_ISR_HTIF4         /*!< Channel 4 half transfer flag  
 251:../system/include/stm32l4-hal-driver/stm32l4xx_ll_dma.h **** #define LL_DMA_ISR_TEIF4                  DMA_ISR_TEIF4         /*!< Channel 4 transfer error flag 
 252:../system/include/stm32l4-hal-driver/stm32l4xx_ll_dma.h **** #define LL_DMA_ISR_GIF5                   DMA_ISR_GIF5          /*!< Channel 5 global flag         
 253:../system/include/stm32l4-hal-driver/stm32l4xx_ll_dma.h **** #define LL_DMA_ISR_TCIF5                  DMA_ISR_TCIF5         /*!< Channel 5 transfer complete fl
 254:../system/include/stm32l4-hal-driver/stm32l4xx_ll_dma.h **** #define LL_DMA_ISR_HTIF5                  DMA_ISR_HTIF5         /*!< Channel 5 half transfer flag  
 255:../system/include/stm32l4-hal-driver/stm32l4xx_ll_dma.h **** #define LL_DMA_ISR_TEIF5                  DMA_ISR_TEIF5         /*!< Channel 5 transfer error flag 
 256:../system/include/stm32l4-hal-driver/stm32l4xx_ll_dma.h **** #define LL_DMA_ISR_GIF6                   DMA_ISR_GIF6          /*!< Channel 6 global flag         
 257:../system/include/stm32l4-hal-driver/stm32l4xx_ll_dma.h **** #define LL_DMA_ISR_TCIF6                  DMA_ISR_TCIF6         /*!< Channel 6 transfer complete fl
 258:../system/include/stm32l4-hal-driver/stm32l4xx_ll_dma.h **** #define LL_DMA_ISR_HTIF6                  DMA_ISR_HTIF6         /*!< Channel 6 half transfer flag  
 259:../system/include/stm32l4-hal-driver/stm32l4xx_ll_dma.h **** #define LL_DMA_ISR_TEIF6                  DMA_ISR_TEIF6         /*!< Channel 6 transfer error flag 
 260:../system/include/stm32l4-hal-driver/stm32l4xx_ll_dma.h **** #define LL_DMA_ISR_GIF7                   DMA_ISR_GIF7          /*!< Channel 7 global flag         
 261:../system/include/stm32l4-hal-driver/stm32l4xx_ll_dma.h **** #define LL_DMA_ISR_TCIF7                  DMA_ISR_TCIF7         /*!< Channel 7 transfer complete fl
 262:../system/include/stm32l4-hal-driver/stm32l4xx_ll_dma.h **** #define LL_DMA_ISR_HTIF7                  DMA_ISR_HTIF7         /*!< Channel 7 half transfer flag  
 263:../system/include/stm32l4-hal-driver/stm32l4xx_ll_dma.h **** #define LL_DMA_ISR_TEIF7                  DMA_ISR_TEIF7         /*!< Channel 7 transfer error flag 
 264:../system/include/stm32l4-hal-driver/stm32l4xx_ll_dma.h **** /**
 265:../system/include/stm32l4-hal-driver/stm32l4xx_ll_dma.h ****   * @}
 266:../system/include/stm32l4-hal-driver/stm32l4xx_ll_dma.h ****   */
 267:../system/include/stm32l4-hal-driver/stm32l4xx_ll_dma.h **** 
 268:../system/include/stm32l4-hal-driver/stm32l4xx_ll_dma.h **** /** @defgroup DMA_LL_EC_IT IT Defines
 269:../system/include/stm32l4-hal-driver/stm32l4xx_ll_dma.h ****   * @brief    IT defines which can be used with LL_DMA_ReadReg and  LL_DMA_WriteReg functions
 270:../system/include/stm32l4-hal-driver/stm32l4xx_ll_dma.h ****   * @{
 271:../system/include/stm32l4-hal-driver/stm32l4xx_ll_dma.h ****   */
 272:../system/include/stm32l4-hal-driver/stm32l4xx_ll_dma.h **** #define LL_DMA_CCR_TCIE                   DMA_CCR_TCIE          /*!< Transfer complete interrupt */
 273:../system/include/stm32l4-hal-driver/stm32l4xx_ll_dma.h **** #define LL_DMA_CCR_HTIE                   DMA_CCR_HTIE          /*!< Half Transfer interrupt     */
 274:../system/include/stm32l4-hal-driver/stm32l4xx_ll_dma.h **** #define LL_DMA_CCR_TEIE                   DMA_CCR_TEIE          /*!< Transfer error interrupt    */
 275:../system/include/stm32l4-hal-driver/stm32l4xx_ll_dma.h **** /**
 276:../system/include/stm32l4-hal-driver/stm32l4xx_ll_dma.h ****   * @}
 277:../system/include/stm32l4-hal-driver/stm32l4xx_ll_dma.h ****   */
 278:../system/include/stm32l4-hal-driver/stm32l4xx_ll_dma.h **** 
 279:../system/include/stm32l4-hal-driver/stm32l4xx_ll_dma.h **** /** @defgroup DMA_LL_EC_CHANNEL CHANNEL
 280:../system/include/stm32l4-hal-driver/stm32l4xx_ll_dma.h ****   * @{
 281:../system/include/stm32l4-hal-driver/stm32l4xx_ll_dma.h ****   */
 282:../system/include/stm32l4-hal-driver/stm32l4xx_ll_dma.h **** #define LL_DMA_CHANNEL_1                  0x00000000U /*!< DMA Channel 1 */
 283:../system/include/stm32l4-hal-driver/stm32l4xx_ll_dma.h **** #define LL_DMA_CHANNEL_2                  0x00000001U /*!< DMA Channel 2 */
 284:../system/include/stm32l4-hal-driver/stm32l4xx_ll_dma.h **** #define LL_DMA_CHANNEL_3                  0x00000002U /*!< DMA Channel 3 */
 285:../system/include/stm32l4-hal-driver/stm32l4xx_ll_dma.h **** #define LL_DMA_CHANNEL_4                  0x00000003U /*!< DMA Channel 4 */
 286:../system/include/stm32l4-hal-driver/stm32l4xx_ll_dma.h **** #define LL_DMA_CHANNEL_5                  0x00000004U /*!< DMA Channel 5 */
 287:../system/include/stm32l4-hal-driver/stm32l4xx_ll_dma.h **** #define LL_DMA_CHANNEL_6                  0x00000005U /*!< DMA Channel 6 */
 288:../system/include/stm32l4-hal-driver/stm32l4xx_ll_dma.h **** #define LL_DMA_CHANNEL_7                  0x00000006U /*!< DMA Channel 7 */
 289:../system/include/stm32l4-hal-driver/stm32l4xx_ll_dma.h **** #if defined(USE_FULL_LL_DRIVER)
 290:../system/include/stm32l4-hal-driver/stm32l4xx_ll_dma.h **** #define LL_DMA_CHANNEL_ALL                0xFFFF0000U /*!< DMA Channel all (used only for function 
 291:../system/include/stm32l4-hal-driver/stm32l4xx_ll_dma.h **** #endif /*USE_FULL_LL_DRIVER*/
 292:../system/include/stm32l4-hal-driver/stm32l4xx_ll_dma.h **** /**
 293:../system/include/stm32l4-hal-driver/stm32l4xx_ll_dma.h ****   * @}
 294:../system/include/stm32l4-hal-driver/stm32l4xx_ll_dma.h ****   */
 295:../system/include/stm32l4-hal-driver/stm32l4xx_ll_dma.h **** 
 296:../system/include/stm32l4-hal-driver/stm32l4xx_ll_dma.h **** /** @defgroup DMA_LL_EC_DIRECTION Transfer Direction
 297:../system/include/stm32l4-hal-driver/stm32l4xx_ll_dma.h ****   * @{
 298:../system/include/stm32l4-hal-driver/stm32l4xx_ll_dma.h ****   */
 299:../system/include/stm32l4-hal-driver/stm32l4xx_ll_dma.h **** #define LL_DMA_DIRECTION_PERIPH_TO_MEMORY 0x00000000U             /*!< Peripheral to memory directi
 300:../system/include/stm32l4-hal-driver/stm32l4xx_ll_dma.h **** #define LL_DMA_DIRECTION_MEMORY_TO_PERIPH DMA_CCR_DIR             /*!< Memory to peripheral directi
 301:../system/include/stm32l4-hal-driver/stm32l4xx_ll_dma.h **** #define LL_DMA_DIRECTION_MEMORY_TO_MEMORY DMA_CCR_MEM2MEM         /*!< Memory to memory direction  
 302:../system/include/stm32l4-hal-driver/stm32l4xx_ll_dma.h **** /**
 303:../system/include/stm32l4-hal-driver/stm32l4xx_ll_dma.h ****   * @}
 304:../system/include/stm32l4-hal-driver/stm32l4xx_ll_dma.h ****   */
 305:../system/include/stm32l4-hal-driver/stm32l4xx_ll_dma.h **** 
 306:../system/include/stm32l4-hal-driver/stm32l4xx_ll_dma.h **** /** @defgroup DMA_LL_EC_MODE Transfer mode
 307:../system/include/stm32l4-hal-driver/stm32l4xx_ll_dma.h ****   * @{
 308:../system/include/stm32l4-hal-driver/stm32l4xx_ll_dma.h ****   */
 309:../system/include/stm32l4-hal-driver/stm32l4xx_ll_dma.h **** #define LL_DMA_MODE_NORMAL                0x00000000U             /*!< Normal Mode                 
 310:../system/include/stm32l4-hal-driver/stm32l4xx_ll_dma.h **** #define LL_DMA_MODE_CIRCULAR              DMA_CCR_CIRC            /*!< Circular Mode               
 311:../system/include/stm32l4-hal-driver/stm32l4xx_ll_dma.h **** /**
 312:../system/include/stm32l4-hal-driver/stm32l4xx_ll_dma.h ****   * @}
 313:../system/include/stm32l4-hal-driver/stm32l4xx_ll_dma.h ****   */
 314:../system/include/stm32l4-hal-driver/stm32l4xx_ll_dma.h **** 
 315:../system/include/stm32l4-hal-driver/stm32l4xx_ll_dma.h **** /** @defgroup DMA_LL_EC_PERIPH Peripheral increment mode
 316:../system/include/stm32l4-hal-driver/stm32l4xx_ll_dma.h ****   * @{
 317:../system/include/stm32l4-hal-driver/stm32l4xx_ll_dma.h ****   */
 318:../system/include/stm32l4-hal-driver/stm32l4xx_ll_dma.h **** #define LL_DMA_PERIPH_INCREMENT           DMA_CCR_PINC            /*!< Peripheral increment mode En
 319:../system/include/stm32l4-hal-driver/stm32l4xx_ll_dma.h **** #define LL_DMA_PERIPH_NOINCREMENT         0x00000000U             /*!< Peripheral increment mode Di
 320:../system/include/stm32l4-hal-driver/stm32l4xx_ll_dma.h **** /**
 321:../system/include/stm32l4-hal-driver/stm32l4xx_ll_dma.h ****   * @}
 322:../system/include/stm32l4-hal-driver/stm32l4xx_ll_dma.h ****   */
 323:../system/include/stm32l4-hal-driver/stm32l4xx_ll_dma.h **** 
 324:../system/include/stm32l4-hal-driver/stm32l4xx_ll_dma.h **** /** @defgroup DMA_LL_EC_MEMORY Memory increment mode
 325:../system/include/stm32l4-hal-driver/stm32l4xx_ll_dma.h ****   * @{
 326:../system/include/stm32l4-hal-driver/stm32l4xx_ll_dma.h ****   */
 327:../system/include/stm32l4-hal-driver/stm32l4xx_ll_dma.h **** #define LL_DMA_MEMORY_INCREMENT           DMA_CCR_MINC            /*!< Memory increment mode Enable
 328:../system/include/stm32l4-hal-driver/stm32l4xx_ll_dma.h **** #define LL_DMA_MEMORY_NOINCREMENT         0x00000000U             /*!< Memory increment mode Disabl
 329:../system/include/stm32l4-hal-driver/stm32l4xx_ll_dma.h **** /**
 330:../system/include/stm32l4-hal-driver/stm32l4xx_ll_dma.h ****   * @}
 331:../system/include/stm32l4-hal-driver/stm32l4xx_ll_dma.h ****   */
 332:../system/include/stm32l4-hal-driver/stm32l4xx_ll_dma.h **** 
 333:../system/include/stm32l4-hal-driver/stm32l4xx_ll_dma.h **** /** @defgroup DMA_LL_EC_PDATAALIGN Peripheral data alignment
 334:../system/include/stm32l4-hal-driver/stm32l4xx_ll_dma.h ****   * @{
 335:../system/include/stm32l4-hal-driver/stm32l4xx_ll_dma.h ****   */
 336:../system/include/stm32l4-hal-driver/stm32l4xx_ll_dma.h **** #define LL_DMA_PDATAALIGN_BYTE            0x00000000U             /*!< Peripheral data alignment : 
 337:../system/include/stm32l4-hal-driver/stm32l4xx_ll_dma.h **** #define LL_DMA_PDATAALIGN_HALFWORD        DMA_CCR_PSIZE_0         /*!< Peripheral data alignment : 
 338:../system/include/stm32l4-hal-driver/stm32l4xx_ll_dma.h **** #define LL_DMA_PDATAALIGN_WORD            DMA_CCR_PSIZE_1         /*!< Peripheral data alignment : 
 339:../system/include/stm32l4-hal-driver/stm32l4xx_ll_dma.h **** /**
 340:../system/include/stm32l4-hal-driver/stm32l4xx_ll_dma.h ****   * @}
 341:../system/include/stm32l4-hal-driver/stm32l4xx_ll_dma.h ****   */
 342:../system/include/stm32l4-hal-driver/stm32l4xx_ll_dma.h **** 
 343:../system/include/stm32l4-hal-driver/stm32l4xx_ll_dma.h **** /** @defgroup DMA_LL_EC_MDATAALIGN Memory data alignment
 344:../system/include/stm32l4-hal-driver/stm32l4xx_ll_dma.h ****   * @{
 345:../system/include/stm32l4-hal-driver/stm32l4xx_ll_dma.h ****   */
 346:../system/include/stm32l4-hal-driver/stm32l4xx_ll_dma.h **** #define LL_DMA_MDATAALIGN_BYTE            0x00000000U             /*!< Memory data alignment : Byte
 347:../system/include/stm32l4-hal-driver/stm32l4xx_ll_dma.h **** #define LL_DMA_MDATAALIGN_HALFWORD        DMA_CCR_MSIZE_0         /*!< Memory data alignment : Half
 348:../system/include/stm32l4-hal-driver/stm32l4xx_ll_dma.h **** #define LL_DMA_MDATAALIGN_WORD            DMA_CCR_MSIZE_1         /*!< Memory data alignment : Word
 349:../system/include/stm32l4-hal-driver/stm32l4xx_ll_dma.h **** /**
 350:../system/include/stm32l4-hal-driver/stm32l4xx_ll_dma.h ****   * @}
 351:../system/include/stm32l4-hal-driver/stm32l4xx_ll_dma.h ****   */
 352:../system/include/stm32l4-hal-driver/stm32l4xx_ll_dma.h **** 
 353:../system/include/stm32l4-hal-driver/stm32l4xx_ll_dma.h **** /** @defgroup DMA_LL_EC_PRIORITY Transfer Priority level
 354:../system/include/stm32l4-hal-driver/stm32l4xx_ll_dma.h ****   * @{
 355:../system/include/stm32l4-hal-driver/stm32l4xx_ll_dma.h ****   */
 356:../system/include/stm32l4-hal-driver/stm32l4xx_ll_dma.h **** #define LL_DMA_PRIORITY_LOW               0x00000000U             /*!< Priority level : Low       *
 357:../system/include/stm32l4-hal-driver/stm32l4xx_ll_dma.h **** #define LL_DMA_PRIORITY_MEDIUM            DMA_CCR_PL_0            /*!< Priority level : Medium    *
 358:../system/include/stm32l4-hal-driver/stm32l4xx_ll_dma.h **** #define LL_DMA_PRIORITY_HIGH              DMA_CCR_PL_1            /*!< Priority level : High      *
 359:../system/include/stm32l4-hal-driver/stm32l4xx_ll_dma.h **** #define LL_DMA_PRIORITY_VERYHIGH          DMA_CCR_PL              /*!< Priority level : Very_High *
 360:../system/include/stm32l4-hal-driver/stm32l4xx_ll_dma.h **** /**
 361:../system/include/stm32l4-hal-driver/stm32l4xx_ll_dma.h ****   * @}
 362:../system/include/stm32l4-hal-driver/stm32l4xx_ll_dma.h ****   */
 363:../system/include/stm32l4-hal-driver/stm32l4xx_ll_dma.h **** 
 364:../system/include/stm32l4-hal-driver/stm32l4xx_ll_dma.h **** #if !defined  (DMAMUX1)
 365:../system/include/stm32l4-hal-driver/stm32l4xx_ll_dma.h **** /** @defgroup DMA_LL_EC_REQUEST Transfer peripheral request
 366:../system/include/stm32l4-hal-driver/stm32l4xx_ll_dma.h ****   * @{
 367:../system/include/stm32l4-hal-driver/stm32l4xx_ll_dma.h ****   */
 368:../system/include/stm32l4-hal-driver/stm32l4xx_ll_dma.h **** #define LL_DMA_REQUEST_0                  0x00000000U /*!< DMA peripheral request 0  */
 369:../system/include/stm32l4-hal-driver/stm32l4xx_ll_dma.h **** #define LL_DMA_REQUEST_1                  0x00000001U /*!< DMA peripheral request 1  */
 370:../system/include/stm32l4-hal-driver/stm32l4xx_ll_dma.h **** #define LL_DMA_REQUEST_2                  0x00000002U /*!< DMA peripheral request 2  */
 371:../system/include/stm32l4-hal-driver/stm32l4xx_ll_dma.h **** #define LL_DMA_REQUEST_3                  0x00000003U /*!< DMA peripheral request 3  */
 372:../system/include/stm32l4-hal-driver/stm32l4xx_ll_dma.h **** #define LL_DMA_REQUEST_4                  0x00000004U /*!< DMA peripheral request 4  */
 373:../system/include/stm32l4-hal-driver/stm32l4xx_ll_dma.h **** #define LL_DMA_REQUEST_5                  0x00000005U /*!< DMA peripheral request 5  */
 374:../system/include/stm32l4-hal-driver/stm32l4xx_ll_dma.h **** #define LL_DMA_REQUEST_6                  0x00000006U /*!< DMA peripheral request 6  */
 375:../system/include/stm32l4-hal-driver/stm32l4xx_ll_dma.h **** #define LL_DMA_REQUEST_7                  0x00000007U /*!< DMA peripheral request 7  */
 376:../system/include/stm32l4-hal-driver/stm32l4xx_ll_dma.h **** /**
 377:../system/include/stm32l4-hal-driver/stm32l4xx_ll_dma.h ****   * @}
 378:../system/include/stm32l4-hal-driver/stm32l4xx_ll_dma.h ****   */
 379:../system/include/stm32l4-hal-driver/stm32l4xx_ll_dma.h **** #endif /* !defined DMAMUX1 */
 380:../system/include/stm32l4-hal-driver/stm32l4xx_ll_dma.h **** /**
 381:../system/include/stm32l4-hal-driver/stm32l4xx_ll_dma.h ****   * @}
 382:../system/include/stm32l4-hal-driver/stm32l4xx_ll_dma.h ****   */
 383:../system/include/stm32l4-hal-driver/stm32l4xx_ll_dma.h **** 
 384:../system/include/stm32l4-hal-driver/stm32l4xx_ll_dma.h **** /* Exported macro ------------------------------------------------------------*/
 385:../system/include/stm32l4-hal-driver/stm32l4xx_ll_dma.h **** /** @defgroup DMA_LL_Exported_Macros DMA Exported Macros
 386:../system/include/stm32l4-hal-driver/stm32l4xx_ll_dma.h ****   * @{
 387:../system/include/stm32l4-hal-driver/stm32l4xx_ll_dma.h ****   */
 388:../system/include/stm32l4-hal-driver/stm32l4xx_ll_dma.h **** 
 389:../system/include/stm32l4-hal-driver/stm32l4xx_ll_dma.h **** /** @defgroup DMA_LL_EM_WRITE_READ Common Write and read registers macros
 390:../system/include/stm32l4-hal-driver/stm32l4xx_ll_dma.h ****   * @{
 391:../system/include/stm32l4-hal-driver/stm32l4xx_ll_dma.h ****   */
 392:../system/include/stm32l4-hal-driver/stm32l4xx_ll_dma.h **** /**
 393:../system/include/stm32l4-hal-driver/stm32l4xx_ll_dma.h ****   * @brief  Write a value in DMA register
 394:../system/include/stm32l4-hal-driver/stm32l4xx_ll_dma.h ****   * @param  __INSTANCE__ DMA Instance
 395:../system/include/stm32l4-hal-driver/stm32l4xx_ll_dma.h ****   * @param  __REG__ Register to be written
 396:../system/include/stm32l4-hal-driver/stm32l4xx_ll_dma.h ****   * @param  __VALUE__ Value to be written in the register
 397:../system/include/stm32l4-hal-driver/stm32l4xx_ll_dma.h ****   * @retval None
 398:../system/include/stm32l4-hal-driver/stm32l4xx_ll_dma.h ****   */
 399:../system/include/stm32l4-hal-driver/stm32l4xx_ll_dma.h **** #define LL_DMA_WriteReg(__INSTANCE__, __REG__, __VALUE__) WRITE_REG(__INSTANCE__->__REG__, (__VALUE
 400:../system/include/stm32l4-hal-driver/stm32l4xx_ll_dma.h **** 
 401:../system/include/stm32l4-hal-driver/stm32l4xx_ll_dma.h **** /**
 402:../system/include/stm32l4-hal-driver/stm32l4xx_ll_dma.h ****   * @brief  Read a value in DMA register
 403:../system/include/stm32l4-hal-driver/stm32l4xx_ll_dma.h ****   * @param  __INSTANCE__ DMA Instance
 404:../system/include/stm32l4-hal-driver/stm32l4xx_ll_dma.h ****   * @param  __REG__ Register to be read
 405:../system/include/stm32l4-hal-driver/stm32l4xx_ll_dma.h ****   * @retval Register value
 406:../system/include/stm32l4-hal-driver/stm32l4xx_ll_dma.h ****   */
 407:../system/include/stm32l4-hal-driver/stm32l4xx_ll_dma.h **** #define LL_DMA_ReadReg(__INSTANCE__, __REG__) READ_REG(__INSTANCE__->__REG__)
 408:../system/include/stm32l4-hal-driver/stm32l4xx_ll_dma.h **** /**
 409:../system/include/stm32l4-hal-driver/stm32l4xx_ll_dma.h ****   * @}
 410:../system/include/stm32l4-hal-driver/stm32l4xx_ll_dma.h ****   */
 411:../system/include/stm32l4-hal-driver/stm32l4xx_ll_dma.h **** 
 412:../system/include/stm32l4-hal-driver/stm32l4xx_ll_dma.h **** /** @defgroup DMA_LL_EM_CONVERT_DMAxCHANNELy Convert DMAxChannely
 413:../system/include/stm32l4-hal-driver/stm32l4xx_ll_dma.h ****   * @{
 414:../system/include/stm32l4-hal-driver/stm32l4xx_ll_dma.h ****   */
 415:../system/include/stm32l4-hal-driver/stm32l4xx_ll_dma.h **** /**
 416:../system/include/stm32l4-hal-driver/stm32l4xx_ll_dma.h ****   * @brief  Convert DMAx_Channely into DMAx
 417:../system/include/stm32l4-hal-driver/stm32l4xx_ll_dma.h ****   * @param  __CHANNEL_INSTANCE__ DMAx_Channely
 418:../system/include/stm32l4-hal-driver/stm32l4xx_ll_dma.h ****   * @retval DMAx
 419:../system/include/stm32l4-hal-driver/stm32l4xx_ll_dma.h ****   */
 420:../system/include/stm32l4-hal-driver/stm32l4xx_ll_dma.h **** #if defined(DMA2)
 421:../system/include/stm32l4-hal-driver/stm32l4xx_ll_dma.h **** #define __LL_DMA_GET_INSTANCE(__CHANNEL_INSTANCE__)   \
 422:../system/include/stm32l4-hal-driver/stm32l4xx_ll_dma.h **** (((uint32_t)(__CHANNEL_INSTANCE__) > ((uint32_t)DMA1_Channel7)) ?  DMA2 : DMA1)
 423:../system/include/stm32l4-hal-driver/stm32l4xx_ll_dma.h **** #else
 424:../system/include/stm32l4-hal-driver/stm32l4xx_ll_dma.h **** #define __LL_DMA_GET_INSTANCE(__CHANNEL_INSTANCE__)  (DMA1)
 425:../system/include/stm32l4-hal-driver/stm32l4xx_ll_dma.h **** #endif
 426:../system/include/stm32l4-hal-driver/stm32l4xx_ll_dma.h **** 
 427:../system/include/stm32l4-hal-driver/stm32l4xx_ll_dma.h **** /**
 428:../system/include/stm32l4-hal-driver/stm32l4xx_ll_dma.h ****   * @brief  Convert DMAx_Channely into LL_DMA_CHANNEL_y
 429:../system/include/stm32l4-hal-driver/stm32l4xx_ll_dma.h ****   * @param  __CHANNEL_INSTANCE__ DMAx_Channely
 430:../system/include/stm32l4-hal-driver/stm32l4xx_ll_dma.h ****   * @retval LL_DMA_CHANNEL_y
 431:../system/include/stm32l4-hal-driver/stm32l4xx_ll_dma.h ****   */
 432:../system/include/stm32l4-hal-driver/stm32l4xx_ll_dma.h **** #if defined (DMA2)
 433:../system/include/stm32l4-hal-driver/stm32l4xx_ll_dma.h **** #if defined (DMA2_Channel6) && defined (DMA2_Channel7)
 434:../system/include/stm32l4-hal-driver/stm32l4xx_ll_dma.h **** #define __LL_DMA_GET_CHANNEL(__CHANNEL_INSTANCE__)   \
 435:../system/include/stm32l4-hal-driver/stm32l4xx_ll_dma.h **** (((uint32_t)(__CHANNEL_INSTANCE__) == ((uint32_t)DMA1_Channel1)) ? LL_DMA_CHANNEL_1 : \
 436:../system/include/stm32l4-hal-driver/stm32l4xx_ll_dma.h ****  ((uint32_t)(__CHANNEL_INSTANCE__) == ((uint32_t)DMA2_Channel1)) ? LL_DMA_CHANNEL_1 : \
 437:../system/include/stm32l4-hal-driver/stm32l4xx_ll_dma.h ****  ((uint32_t)(__CHANNEL_INSTANCE__) == ((uint32_t)DMA1_Channel2)) ? LL_DMA_CHANNEL_2 : \
 438:../system/include/stm32l4-hal-driver/stm32l4xx_ll_dma.h ****  ((uint32_t)(__CHANNEL_INSTANCE__) == ((uint32_t)DMA2_Channel2)) ? LL_DMA_CHANNEL_2 : \
 439:../system/include/stm32l4-hal-driver/stm32l4xx_ll_dma.h ****  ((uint32_t)(__CHANNEL_INSTANCE__) == ((uint32_t)DMA1_Channel3)) ? LL_DMA_CHANNEL_3 : \
 440:../system/include/stm32l4-hal-driver/stm32l4xx_ll_dma.h ****  ((uint32_t)(__CHANNEL_INSTANCE__) == ((uint32_t)DMA2_Channel3)) ? LL_DMA_CHANNEL_3 : \
 441:../system/include/stm32l4-hal-driver/stm32l4xx_ll_dma.h ****  ((uint32_t)(__CHANNEL_INSTANCE__) == ((uint32_t)DMA1_Channel4)) ? LL_DMA_CHANNEL_4 : \
 442:../system/include/stm32l4-hal-driver/stm32l4xx_ll_dma.h ****  ((uint32_t)(__CHANNEL_INSTANCE__) == ((uint32_t)DMA2_Channel4)) ? LL_DMA_CHANNEL_4 : \
 443:../system/include/stm32l4-hal-driver/stm32l4xx_ll_dma.h ****  ((uint32_t)(__CHANNEL_INSTANCE__) == ((uint32_t)DMA1_Channel5)) ? LL_DMA_CHANNEL_5 : \
 444:../system/include/stm32l4-hal-driver/stm32l4xx_ll_dma.h ****  ((uint32_t)(__CHANNEL_INSTANCE__) == ((uint32_t)DMA2_Channel5)) ? LL_DMA_CHANNEL_5 : \
 445:../system/include/stm32l4-hal-driver/stm32l4xx_ll_dma.h ****  ((uint32_t)(__CHANNEL_INSTANCE__) == ((uint32_t)DMA1_Channel6)) ? LL_DMA_CHANNEL_6 : \
 446:../system/include/stm32l4-hal-driver/stm32l4xx_ll_dma.h ****  ((uint32_t)(__CHANNEL_INSTANCE__) == ((uint32_t)DMA2_Channel6)) ? LL_DMA_CHANNEL_6 : \
 447:../system/include/stm32l4-hal-driver/stm32l4xx_ll_dma.h ****  LL_DMA_CHANNEL_7)
 448:../system/include/stm32l4-hal-driver/stm32l4xx_ll_dma.h **** #else
 449:../system/include/stm32l4-hal-driver/stm32l4xx_ll_dma.h **** #define __LL_DMA_GET_CHANNEL(__CHANNEL_INSTANCE__)   \
 450:../system/include/stm32l4-hal-driver/stm32l4xx_ll_dma.h **** (((uint32_t)(__CHANNEL_INSTANCE__) == ((uint32_t)DMA1_Channel1)) ? LL_DMA_CHANNEL_1 : \
 451:../system/include/stm32l4-hal-driver/stm32l4xx_ll_dma.h ****  ((uint32_t)(__CHANNEL_INSTANCE__) == ((uint32_t)DMA2_Channel1)) ? LL_DMA_CHANNEL_1 : \
 452:../system/include/stm32l4-hal-driver/stm32l4xx_ll_dma.h ****  ((uint32_t)(__CHANNEL_INSTANCE__) == ((uint32_t)DMA1_Channel2)) ? LL_DMA_CHANNEL_2 : \
 453:../system/include/stm32l4-hal-driver/stm32l4xx_ll_dma.h ****  ((uint32_t)(__CHANNEL_INSTANCE__) == ((uint32_t)DMA2_Channel2)) ? LL_DMA_CHANNEL_2 : \
 454:../system/include/stm32l4-hal-driver/stm32l4xx_ll_dma.h ****  ((uint32_t)(__CHANNEL_INSTANCE__) == ((uint32_t)DMA1_Channel3)) ? LL_DMA_CHANNEL_3 : \
 455:../system/include/stm32l4-hal-driver/stm32l4xx_ll_dma.h ****  ((uint32_t)(__CHANNEL_INSTANCE__) == ((uint32_t)DMA2_Channel3)) ? LL_DMA_CHANNEL_3 : \
 456:../system/include/stm32l4-hal-driver/stm32l4xx_ll_dma.h ****  ((uint32_t)(__CHANNEL_INSTANCE__) == ((uint32_t)DMA1_Channel4)) ? LL_DMA_CHANNEL_4 : \
 457:../system/include/stm32l4-hal-driver/stm32l4xx_ll_dma.h ****  ((uint32_t)(__CHANNEL_INSTANCE__) == ((uint32_t)DMA2_Channel4)) ? LL_DMA_CHANNEL_4 : \
 458:../system/include/stm32l4-hal-driver/stm32l4xx_ll_dma.h ****  ((uint32_t)(__CHANNEL_INSTANCE__) == ((uint32_t)DMA1_Channel5)) ? LL_DMA_CHANNEL_5 : \
 459:../system/include/stm32l4-hal-driver/stm32l4xx_ll_dma.h ****  ((uint32_t)(__CHANNEL_INSTANCE__) == ((uint32_t)DMA2_Channel5)) ? LL_DMA_CHANNEL_5 : \
 460:../system/include/stm32l4-hal-driver/stm32l4xx_ll_dma.h ****  ((uint32_t)(__CHANNEL_INSTANCE__) == ((uint32_t)DMA1_Channel6)) ? LL_DMA_CHANNEL_6 : \
 461:../system/include/stm32l4-hal-driver/stm32l4xx_ll_dma.h ****  LL_DMA_CHANNEL_7)
 462:../system/include/stm32l4-hal-driver/stm32l4xx_ll_dma.h **** #endif
 463:../system/include/stm32l4-hal-driver/stm32l4xx_ll_dma.h **** #else
 464:../system/include/stm32l4-hal-driver/stm32l4xx_ll_dma.h **** #define __LL_DMA_GET_CHANNEL(__CHANNEL_INSTANCE__)   \
 465:../system/include/stm32l4-hal-driver/stm32l4xx_ll_dma.h **** (((uint32_t)(__CHANNEL_INSTANCE__) == ((uint32_t)DMA1_Channel1)) ? LL_DMA_CHANNEL_1 : \
 466:../system/include/stm32l4-hal-driver/stm32l4xx_ll_dma.h ****  ((uint32_t)(__CHANNEL_INSTANCE__) == ((uint32_t)DMA1_Channel2)) ? LL_DMA_CHANNEL_2 : \
 467:../system/include/stm32l4-hal-driver/stm32l4xx_ll_dma.h ****  ((uint32_t)(__CHANNEL_INSTANCE__) == ((uint32_t)DMA1_Channel3)) ? LL_DMA_CHANNEL_3 : \
 468:../system/include/stm32l4-hal-driver/stm32l4xx_ll_dma.h ****  ((uint32_t)(__CHANNEL_INSTANCE__) == ((uint32_t)DMA1_Channel4)) ? LL_DMA_CHANNEL_4 : \
 469:../system/include/stm32l4-hal-driver/stm32l4xx_ll_dma.h ****  ((uint32_t)(__CHANNEL_INSTANCE__) == ((uint32_t)DMA1_Channel5)) ? LL_DMA_CHANNEL_5 : \
 470:../system/include/stm32l4-hal-driver/stm32l4xx_ll_dma.h ****  ((uint32_t)(__CHANNEL_INSTANCE__) == ((uint32_t)DMA1_Channel6)) ? LL_DMA_CHANNEL_6 : \
 471:../system/include/stm32l4-hal-driver/stm32l4xx_ll_dma.h ****  LL_DMA_CHANNEL_7)
 472:../system/include/stm32l4-hal-driver/stm32l4xx_ll_dma.h **** #endif
 473:../system/include/stm32l4-hal-driver/stm32l4xx_ll_dma.h **** 
 474:../system/include/stm32l4-hal-driver/stm32l4xx_ll_dma.h **** /**
 475:../system/include/stm32l4-hal-driver/stm32l4xx_ll_dma.h ****   * @brief  Convert DMA Instance DMAx and LL_DMA_CHANNEL_y into DMAx_Channely
 476:../system/include/stm32l4-hal-driver/stm32l4xx_ll_dma.h ****   * @param  __DMA_INSTANCE__ DMAx
 477:../system/include/stm32l4-hal-driver/stm32l4xx_ll_dma.h ****   * @param  __CHANNEL__ LL_DMA_CHANNEL_y
 478:../system/include/stm32l4-hal-driver/stm32l4xx_ll_dma.h ****   * @retval DMAx_Channely
 479:../system/include/stm32l4-hal-driver/stm32l4xx_ll_dma.h ****   */
 480:../system/include/stm32l4-hal-driver/stm32l4xx_ll_dma.h **** #if defined (DMA2)
 481:../system/include/stm32l4-hal-driver/stm32l4xx_ll_dma.h **** #if defined (DMA2_Channel6) && defined (DMA2_Channel7)
 482:../system/include/stm32l4-hal-driver/stm32l4xx_ll_dma.h **** #define __LL_DMA_GET_CHANNEL_INSTANCE(__DMA_INSTANCE__, __CHANNEL__)   \
 483:../system/include/stm32l4-hal-driver/stm32l4xx_ll_dma.h **** ((((uint32_t)(__DMA_INSTANCE__) == ((uint32_t)DMA1)) && ((uint32_t)(__CHANNEL__) == ((uint32_t)LL_D
 484:../system/include/stm32l4-hal-driver/stm32l4xx_ll_dma.h ****  (((uint32_t)(__DMA_INSTANCE__) == ((uint32_t)DMA2)) && ((uint32_t)(__CHANNEL__) == ((uint32_t)LL_D
 485:../system/include/stm32l4-hal-driver/stm32l4xx_ll_dma.h ****  (((uint32_t)(__DMA_INSTANCE__) == ((uint32_t)DMA1)) && ((uint32_t)(__CHANNEL__) == ((uint32_t)LL_D
 486:../system/include/stm32l4-hal-driver/stm32l4xx_ll_dma.h ****  (((uint32_t)(__DMA_INSTANCE__) == ((uint32_t)DMA2)) && ((uint32_t)(__CHANNEL__) == ((uint32_t)LL_D
 487:../system/include/stm32l4-hal-driver/stm32l4xx_ll_dma.h ****  (((uint32_t)(__DMA_INSTANCE__) == ((uint32_t)DMA1)) && ((uint32_t)(__CHANNEL__) == ((uint32_t)LL_D
 488:../system/include/stm32l4-hal-driver/stm32l4xx_ll_dma.h ****  (((uint32_t)(__DMA_INSTANCE__) == ((uint32_t)DMA2)) && ((uint32_t)(__CHANNEL__) == ((uint32_t)LL_D
 489:../system/include/stm32l4-hal-driver/stm32l4xx_ll_dma.h ****  (((uint32_t)(__DMA_INSTANCE__) == ((uint32_t)DMA1)) && ((uint32_t)(__CHANNEL__) == ((uint32_t)LL_D
 490:../system/include/stm32l4-hal-driver/stm32l4xx_ll_dma.h ****  (((uint32_t)(__DMA_INSTANCE__) == ((uint32_t)DMA2)) && ((uint32_t)(__CHANNEL__) == ((uint32_t)LL_D
 491:../system/include/stm32l4-hal-driver/stm32l4xx_ll_dma.h ****  (((uint32_t)(__DMA_INSTANCE__) == ((uint32_t)DMA1)) && ((uint32_t)(__CHANNEL__) == ((uint32_t)LL_D
 492:../system/include/stm32l4-hal-driver/stm32l4xx_ll_dma.h ****  (((uint32_t)(__DMA_INSTANCE__) == ((uint32_t)DMA2)) && ((uint32_t)(__CHANNEL__) == ((uint32_t)LL_D
 493:../system/include/stm32l4-hal-driver/stm32l4xx_ll_dma.h ****  (((uint32_t)(__DMA_INSTANCE__) == ((uint32_t)DMA1)) && ((uint32_t)(__CHANNEL__) == ((uint32_t)LL_D
 494:../system/include/stm32l4-hal-driver/stm32l4xx_ll_dma.h ****  (((uint32_t)(__DMA_INSTANCE__) == ((uint32_t)DMA2)) && ((uint32_t)(__CHANNEL__) == ((uint32_t)LL_D
 495:../system/include/stm32l4-hal-driver/stm32l4xx_ll_dma.h ****  (((uint32_t)(__DMA_INSTANCE__) == ((uint32_t)DMA1)) && ((uint32_t)(__CHANNEL__) == ((uint32_t)LL_D
 496:../system/include/stm32l4-hal-driver/stm32l4xx_ll_dma.h ****  DMA2_Channel7)
 497:../system/include/stm32l4-hal-driver/stm32l4xx_ll_dma.h **** #else
 498:../system/include/stm32l4-hal-driver/stm32l4xx_ll_dma.h **** #define __LL_DMA_GET_CHANNEL_INSTANCE(__DMA_INSTANCE__, __CHANNEL__)   \
 499:../system/include/stm32l4-hal-driver/stm32l4xx_ll_dma.h **** ((((uint32_t)(__DMA_INSTANCE__) == ((uint32_t)DMA1)) && ((uint32_t)(__CHANNEL__) == ((uint32_t)LL_D
 500:../system/include/stm32l4-hal-driver/stm32l4xx_ll_dma.h ****  (((uint32_t)(__DMA_INSTANCE__) == ((uint32_t)DMA2)) && ((uint32_t)(__CHANNEL__) == ((uint32_t)LL_D
 501:../system/include/stm32l4-hal-driver/stm32l4xx_ll_dma.h ****  (((uint32_t)(__DMA_INSTANCE__) == ((uint32_t)DMA1)) && ((uint32_t)(__CHANNEL__) == ((uint32_t)LL_D
 502:../system/include/stm32l4-hal-driver/stm32l4xx_ll_dma.h ****  (((uint32_t)(__DMA_INSTANCE__) == ((uint32_t)DMA2)) && ((uint32_t)(__CHANNEL__) == ((uint32_t)LL_D
 503:../system/include/stm32l4-hal-driver/stm32l4xx_ll_dma.h ****  (((uint32_t)(__DMA_INSTANCE__) == ((uint32_t)DMA1)) && ((uint32_t)(__CHANNEL__) == ((uint32_t)LL_D
 504:../system/include/stm32l4-hal-driver/stm32l4xx_ll_dma.h ****  (((uint32_t)(__DMA_INSTANCE__) == ((uint32_t)DMA2)) && ((uint32_t)(__CHANNEL__) == ((uint32_t)LL_D
 505:../system/include/stm32l4-hal-driver/stm32l4xx_ll_dma.h ****  (((uint32_t)(__DMA_INSTANCE__) == ((uint32_t)DMA1)) && ((uint32_t)(__CHANNEL__) == ((uint32_t)LL_D
 506:../system/include/stm32l4-hal-driver/stm32l4xx_ll_dma.h ****  (((uint32_t)(__DMA_INSTANCE__) == ((uint32_t)DMA2)) && ((uint32_t)(__CHANNEL__) == ((uint32_t)LL_D
 507:../system/include/stm32l4-hal-driver/stm32l4xx_ll_dma.h ****  (((uint32_t)(__DMA_INSTANCE__) == ((uint32_t)DMA1)) && ((uint32_t)(__CHANNEL__) == ((uint32_t)LL_D
 508:../system/include/stm32l4-hal-driver/stm32l4xx_ll_dma.h ****  (((uint32_t)(__DMA_INSTANCE__) == ((uint32_t)DMA2)) && ((uint32_t)(__CHANNEL__) == ((uint32_t)LL_D
 509:../system/include/stm32l4-hal-driver/stm32l4xx_ll_dma.h ****  (((uint32_t)(__DMA_INSTANCE__) == ((uint32_t)DMA1)) && ((uint32_t)(__CHANNEL__) == ((uint32_t)LL_D
 510:../system/include/stm32l4-hal-driver/stm32l4xx_ll_dma.h ****  DMA1_Channel7)
 511:../system/include/stm32l4-hal-driver/stm32l4xx_ll_dma.h **** #endif
 512:../system/include/stm32l4-hal-driver/stm32l4xx_ll_dma.h **** #else
 513:../system/include/stm32l4-hal-driver/stm32l4xx_ll_dma.h **** #define __LL_DMA_GET_CHANNEL_INSTANCE(__DMA_INSTANCE__, __CHANNEL__)   \
 514:../system/include/stm32l4-hal-driver/stm32l4xx_ll_dma.h **** ((((uint32_t)(__DMA_INSTANCE__) == ((uint32_t)DMA1)) && ((uint32_t)(__CHANNEL__) == ((uint32_t)LL_D
 515:../system/include/stm32l4-hal-driver/stm32l4xx_ll_dma.h ****  (((uint32_t)(__DMA_INSTANCE__) == ((uint32_t)DMA1)) && ((uint32_t)(__CHANNEL__) == ((uint32_t)LL_D
 516:../system/include/stm32l4-hal-driver/stm32l4xx_ll_dma.h ****  (((uint32_t)(__DMA_INSTANCE__) == ((uint32_t)DMA1)) && ((uint32_t)(__CHANNEL__) == ((uint32_t)LL_D
 517:../system/include/stm32l4-hal-driver/stm32l4xx_ll_dma.h ****  (((uint32_t)(__DMA_INSTANCE__) == ((uint32_t)DMA1)) && ((uint32_t)(__CHANNEL__) == ((uint32_t)LL_D
 518:../system/include/stm32l4-hal-driver/stm32l4xx_ll_dma.h ****  (((uint32_t)(__DMA_INSTANCE__) == ((uint32_t)DMA1)) && ((uint32_t)(__CHANNEL__) == ((uint32_t)LL_D
 519:../system/include/stm32l4-hal-driver/stm32l4xx_ll_dma.h ****  (((uint32_t)(__DMA_INSTANCE__) == ((uint32_t)DMA1)) && ((uint32_t)(__CHANNEL__) == ((uint32_t)LL_D
 520:../system/include/stm32l4-hal-driver/stm32l4xx_ll_dma.h ****  DMA1_Channel7)
 521:../system/include/stm32l4-hal-driver/stm32l4xx_ll_dma.h **** #endif
 522:../system/include/stm32l4-hal-driver/stm32l4xx_ll_dma.h **** 
 523:../system/include/stm32l4-hal-driver/stm32l4xx_ll_dma.h **** /**
 524:../system/include/stm32l4-hal-driver/stm32l4xx_ll_dma.h ****   * @}
 525:../system/include/stm32l4-hal-driver/stm32l4xx_ll_dma.h ****   */
 526:../system/include/stm32l4-hal-driver/stm32l4xx_ll_dma.h **** 
 527:../system/include/stm32l4-hal-driver/stm32l4xx_ll_dma.h **** /**
 528:../system/include/stm32l4-hal-driver/stm32l4xx_ll_dma.h ****   * @}
 529:../system/include/stm32l4-hal-driver/stm32l4xx_ll_dma.h ****   */
 530:../system/include/stm32l4-hal-driver/stm32l4xx_ll_dma.h **** 
 531:../system/include/stm32l4-hal-driver/stm32l4xx_ll_dma.h **** /* Exported functions --------------------------------------------------------*/
 532:../system/include/stm32l4-hal-driver/stm32l4xx_ll_dma.h **** /** @defgroup DMA_LL_Exported_Functions DMA Exported Functions
 533:../system/include/stm32l4-hal-driver/stm32l4xx_ll_dma.h ****  * @{
 534:../system/include/stm32l4-hal-driver/stm32l4xx_ll_dma.h ****  */
 535:../system/include/stm32l4-hal-driver/stm32l4xx_ll_dma.h **** 
 536:../system/include/stm32l4-hal-driver/stm32l4xx_ll_dma.h **** /** @defgroup DMA_LL_EF_Configuration Configuration
 537:../system/include/stm32l4-hal-driver/stm32l4xx_ll_dma.h ****   * @{
 538:../system/include/stm32l4-hal-driver/stm32l4xx_ll_dma.h ****   */
 539:../system/include/stm32l4-hal-driver/stm32l4xx_ll_dma.h **** /**
 540:../system/include/stm32l4-hal-driver/stm32l4xx_ll_dma.h ****   * @brief  Enable DMA channel.
 541:../system/include/stm32l4-hal-driver/stm32l4xx_ll_dma.h ****   * @rmtoll CCR          EN            LL_DMA_EnableChannel
 542:../system/include/stm32l4-hal-driver/stm32l4xx_ll_dma.h ****   * @param  DMAx DMAx Instance
 543:../system/include/stm32l4-hal-driver/stm32l4xx_ll_dma.h ****   * @param  Channel This parameter can be one of the following values:
 544:../system/include/stm32l4-hal-driver/stm32l4xx_ll_dma.h ****   *         @arg @ref LL_DMA_CHANNEL_1
 545:../system/include/stm32l4-hal-driver/stm32l4xx_ll_dma.h ****   *         @arg @ref LL_DMA_CHANNEL_2
 546:../system/include/stm32l4-hal-driver/stm32l4xx_ll_dma.h ****   *         @arg @ref LL_DMA_CHANNEL_3
 547:../system/include/stm32l4-hal-driver/stm32l4xx_ll_dma.h ****   *         @arg @ref LL_DMA_CHANNEL_4
 548:../system/include/stm32l4-hal-driver/stm32l4xx_ll_dma.h ****   *         @arg @ref LL_DMA_CHANNEL_5
 549:../system/include/stm32l4-hal-driver/stm32l4xx_ll_dma.h ****   *         @arg @ref LL_DMA_CHANNEL_6
 550:../system/include/stm32l4-hal-driver/stm32l4xx_ll_dma.h ****   *         @arg @ref LL_DMA_CHANNEL_7
 551:../system/include/stm32l4-hal-driver/stm32l4xx_ll_dma.h ****   * @retval None
 552:../system/include/stm32l4-hal-driver/stm32l4xx_ll_dma.h ****   */
 553:../system/include/stm32l4-hal-driver/stm32l4xx_ll_dma.h **** __STATIC_INLINE void LL_DMA_EnableChannel(DMA_TypeDef *DMAx, uint32_t Channel)
 554:../system/include/stm32l4-hal-driver/stm32l4xx_ll_dma.h **** {
 555:../system/include/stm32l4-hal-driver/stm32l4xx_ll_dma.h ****   uint32_t dma_base_addr = (uint32_t)DMAx;
 556:../system/include/stm32l4-hal-driver/stm32l4xx_ll_dma.h ****   SET_BIT(((DMA_Channel_TypeDef *)(dma_base_addr + CHANNEL_OFFSET_TAB[Channel]))->CCR, DMA_CCR_EN);
 557:../system/include/stm32l4-hal-driver/stm32l4xx_ll_dma.h **** }
 558:../system/include/stm32l4-hal-driver/stm32l4xx_ll_dma.h **** 
 559:../system/include/stm32l4-hal-driver/stm32l4xx_ll_dma.h **** /**
 560:../system/include/stm32l4-hal-driver/stm32l4xx_ll_dma.h ****   * @brief  Disable DMA channel.
 561:../system/include/stm32l4-hal-driver/stm32l4xx_ll_dma.h ****   * @rmtoll CCR          EN            LL_DMA_DisableChannel
 562:../system/include/stm32l4-hal-driver/stm32l4xx_ll_dma.h ****   * @param  DMAx DMAx Instance
 563:../system/include/stm32l4-hal-driver/stm32l4xx_ll_dma.h ****   * @param  Channel This parameter can be one of the following values:
 564:../system/include/stm32l4-hal-driver/stm32l4xx_ll_dma.h ****   *         @arg @ref LL_DMA_CHANNEL_1
 565:../system/include/stm32l4-hal-driver/stm32l4xx_ll_dma.h ****   *         @arg @ref LL_DMA_CHANNEL_2
 566:../system/include/stm32l4-hal-driver/stm32l4xx_ll_dma.h ****   *         @arg @ref LL_DMA_CHANNEL_3
 567:../system/include/stm32l4-hal-driver/stm32l4xx_ll_dma.h ****   *         @arg @ref LL_DMA_CHANNEL_4
 568:../system/include/stm32l4-hal-driver/stm32l4xx_ll_dma.h ****   *         @arg @ref LL_DMA_CHANNEL_5
 569:../system/include/stm32l4-hal-driver/stm32l4xx_ll_dma.h ****   *         @arg @ref LL_DMA_CHANNEL_6
 570:../system/include/stm32l4-hal-driver/stm32l4xx_ll_dma.h ****   *         @arg @ref LL_DMA_CHANNEL_7
 571:../system/include/stm32l4-hal-driver/stm32l4xx_ll_dma.h ****   * @retval None
 572:../system/include/stm32l4-hal-driver/stm32l4xx_ll_dma.h ****   */
 573:../system/include/stm32l4-hal-driver/stm32l4xx_ll_dma.h **** __STATIC_INLINE void LL_DMA_DisableChannel(DMA_TypeDef *DMAx, uint32_t Channel)
 574:../system/include/stm32l4-hal-driver/stm32l4xx_ll_dma.h **** {
 575:../system/include/stm32l4-hal-driver/stm32l4xx_ll_dma.h ****   uint32_t dma_base_addr = (uint32_t)DMAx;
 576:../system/include/stm32l4-hal-driver/stm32l4xx_ll_dma.h ****   CLEAR_BIT(((DMA_Channel_TypeDef *)(dma_base_addr + CHANNEL_OFFSET_TAB[Channel]))->CCR, DMA_CCR_EN
 577:../system/include/stm32l4-hal-driver/stm32l4xx_ll_dma.h **** }
 578:../system/include/stm32l4-hal-driver/stm32l4xx_ll_dma.h **** 
 579:../system/include/stm32l4-hal-driver/stm32l4xx_ll_dma.h **** /**
 580:../system/include/stm32l4-hal-driver/stm32l4xx_ll_dma.h ****   * @brief  Check if DMA channel is enabled or disabled.
 581:../system/include/stm32l4-hal-driver/stm32l4xx_ll_dma.h ****   * @rmtoll CCR          EN            LL_DMA_IsEnabledChannel
 582:../system/include/stm32l4-hal-driver/stm32l4xx_ll_dma.h ****   * @param  DMAx DMAx Instance
 583:../system/include/stm32l4-hal-driver/stm32l4xx_ll_dma.h ****   * @param  Channel This parameter can be one of the following values:
 584:../system/include/stm32l4-hal-driver/stm32l4xx_ll_dma.h ****   *         @arg @ref LL_DMA_CHANNEL_1
 585:../system/include/stm32l4-hal-driver/stm32l4xx_ll_dma.h ****   *         @arg @ref LL_DMA_CHANNEL_2
 586:../system/include/stm32l4-hal-driver/stm32l4xx_ll_dma.h ****   *         @arg @ref LL_DMA_CHANNEL_3
 587:../system/include/stm32l4-hal-driver/stm32l4xx_ll_dma.h ****   *         @arg @ref LL_DMA_CHANNEL_4
 588:../system/include/stm32l4-hal-driver/stm32l4xx_ll_dma.h ****   *         @arg @ref LL_DMA_CHANNEL_5
 589:../system/include/stm32l4-hal-driver/stm32l4xx_ll_dma.h ****   *         @arg @ref LL_DMA_CHANNEL_6
 590:../system/include/stm32l4-hal-driver/stm32l4xx_ll_dma.h ****   *         @arg @ref LL_DMA_CHANNEL_7
 591:../system/include/stm32l4-hal-driver/stm32l4xx_ll_dma.h ****   * @retval State of bit (1 or 0).
 592:../system/include/stm32l4-hal-driver/stm32l4xx_ll_dma.h ****   */
 593:../system/include/stm32l4-hal-driver/stm32l4xx_ll_dma.h **** __STATIC_INLINE uint32_t LL_DMA_IsEnabledChannel(DMA_TypeDef *DMAx, uint32_t Channel)
 594:../system/include/stm32l4-hal-driver/stm32l4xx_ll_dma.h **** {
 595:../system/include/stm32l4-hal-driver/stm32l4xx_ll_dma.h ****   uint32_t dma_base_addr = (uint32_t)DMAx;
 596:../system/include/stm32l4-hal-driver/stm32l4xx_ll_dma.h ****   return ((READ_BIT(((DMA_Channel_TypeDef *)(dma_base_addr + CHANNEL_OFFSET_TAB[Channel]))->CCR,
 597:../system/include/stm32l4-hal-driver/stm32l4xx_ll_dma.h ****                   DMA_CCR_EN) == (DMA_CCR_EN)) ? 1UL : 0UL);
 598:../system/include/stm32l4-hal-driver/stm32l4xx_ll_dma.h **** }
 599:../system/include/stm32l4-hal-driver/stm32l4xx_ll_dma.h **** 
 600:../system/include/stm32l4-hal-driver/stm32l4xx_ll_dma.h **** /**
 601:../system/include/stm32l4-hal-driver/stm32l4xx_ll_dma.h ****   * @brief  Configure all parameters link to DMA transfer.
 602:../system/include/stm32l4-hal-driver/stm32l4xx_ll_dma.h ****   * @rmtoll CCR          DIR           LL_DMA_ConfigTransfer\n
 603:../system/include/stm32l4-hal-driver/stm32l4xx_ll_dma.h ****   *         CCR          MEM2MEM       LL_DMA_ConfigTransfer\n
 604:../system/include/stm32l4-hal-driver/stm32l4xx_ll_dma.h ****   *         CCR          CIRC          LL_DMA_ConfigTransfer\n
 605:../system/include/stm32l4-hal-driver/stm32l4xx_ll_dma.h ****   *         CCR          PINC          LL_DMA_ConfigTransfer\n
 606:../system/include/stm32l4-hal-driver/stm32l4xx_ll_dma.h ****   *         CCR          MINC          LL_DMA_ConfigTransfer\n
 607:../system/include/stm32l4-hal-driver/stm32l4xx_ll_dma.h ****   *         CCR          PSIZE         LL_DMA_ConfigTransfer\n
 608:../system/include/stm32l4-hal-driver/stm32l4xx_ll_dma.h ****   *         CCR          MSIZE         LL_DMA_ConfigTransfer\n
 609:../system/include/stm32l4-hal-driver/stm32l4xx_ll_dma.h ****   *         CCR          PL            LL_DMA_ConfigTransfer
 610:../system/include/stm32l4-hal-driver/stm32l4xx_ll_dma.h ****   * @param  DMAx DMAx Instance
 611:../system/include/stm32l4-hal-driver/stm32l4xx_ll_dma.h ****   * @param  Channel This parameter can be one of the following values:
 612:../system/include/stm32l4-hal-driver/stm32l4xx_ll_dma.h ****   *         @arg @ref LL_DMA_CHANNEL_1
 613:../system/include/stm32l4-hal-driver/stm32l4xx_ll_dma.h ****   *         @arg @ref LL_DMA_CHANNEL_2
 614:../system/include/stm32l4-hal-driver/stm32l4xx_ll_dma.h ****   *         @arg @ref LL_DMA_CHANNEL_3
 615:../system/include/stm32l4-hal-driver/stm32l4xx_ll_dma.h ****   *         @arg @ref LL_DMA_CHANNEL_4
 616:../system/include/stm32l4-hal-driver/stm32l4xx_ll_dma.h ****   *         @arg @ref LL_DMA_CHANNEL_5
 617:../system/include/stm32l4-hal-driver/stm32l4xx_ll_dma.h ****   *         @arg @ref LL_DMA_CHANNEL_6
 618:../system/include/stm32l4-hal-driver/stm32l4xx_ll_dma.h ****   *         @arg @ref LL_DMA_CHANNEL_7
 619:../system/include/stm32l4-hal-driver/stm32l4xx_ll_dma.h ****   * @param  Configuration This parameter must be a combination of all the following values:
 620:../system/include/stm32l4-hal-driver/stm32l4xx_ll_dma.h ****   *         @arg @ref LL_DMA_DIRECTION_PERIPH_TO_MEMORY or @ref LL_DMA_DIRECTION_MEMORY_TO_PERIPH o
 621:../system/include/stm32l4-hal-driver/stm32l4xx_ll_dma.h ****   *         @arg @ref LL_DMA_MODE_NORMAL or @ref LL_DMA_MODE_CIRCULAR
 622:../system/include/stm32l4-hal-driver/stm32l4xx_ll_dma.h ****   *         @arg @ref LL_DMA_PERIPH_INCREMENT or @ref LL_DMA_PERIPH_NOINCREMENT
 623:../system/include/stm32l4-hal-driver/stm32l4xx_ll_dma.h ****   *         @arg @ref LL_DMA_MEMORY_INCREMENT or @ref LL_DMA_MEMORY_NOINCREMENT
 624:../system/include/stm32l4-hal-driver/stm32l4xx_ll_dma.h ****   *         @arg @ref LL_DMA_PDATAALIGN_BYTE or @ref LL_DMA_PDATAALIGN_HALFWORD or @ref LL_DMA_PDAT
 625:../system/include/stm32l4-hal-driver/stm32l4xx_ll_dma.h ****   *         @arg @ref LL_DMA_MDATAALIGN_BYTE or @ref LL_DMA_MDATAALIGN_HALFWORD or @ref LL_DMA_MDAT
 626:../system/include/stm32l4-hal-driver/stm32l4xx_ll_dma.h ****   *         @arg @ref LL_DMA_PRIORITY_LOW or @ref LL_DMA_PRIORITY_MEDIUM or @ref LL_DMA_PRIORITY_HI
 627:../system/include/stm32l4-hal-driver/stm32l4xx_ll_dma.h ****   * @retval None
 628:../system/include/stm32l4-hal-driver/stm32l4xx_ll_dma.h ****   */
 629:../system/include/stm32l4-hal-driver/stm32l4xx_ll_dma.h **** __STATIC_INLINE void LL_DMA_ConfigTransfer(DMA_TypeDef *DMAx, uint32_t Channel, uint32_t Configurat
 630:../system/include/stm32l4-hal-driver/stm32l4xx_ll_dma.h **** {
 631:../system/include/stm32l4-hal-driver/stm32l4xx_ll_dma.h ****   uint32_t dma_base_addr = (uint32_t)DMAx;
 632:../system/include/stm32l4-hal-driver/stm32l4xx_ll_dma.h ****   MODIFY_REG(((DMA_Channel_TypeDef *)(dma_base_addr + CHANNEL_OFFSET_TAB[Channel]))->CCR,
 633:../system/include/stm32l4-hal-driver/stm32l4xx_ll_dma.h ****              DMA_CCR_DIR | DMA_CCR_MEM2MEM | DMA_CCR_CIRC | DMA_CCR_PINC | DMA_CCR_MINC | DMA_CCR_P
 634:../system/include/stm32l4-hal-driver/stm32l4xx_ll_dma.h ****              Configuration);
 635:../system/include/stm32l4-hal-driver/stm32l4xx_ll_dma.h **** }
 636:../system/include/stm32l4-hal-driver/stm32l4xx_ll_dma.h **** 
 637:../system/include/stm32l4-hal-driver/stm32l4xx_ll_dma.h **** /**
 638:../system/include/stm32l4-hal-driver/stm32l4xx_ll_dma.h ****   * @brief  Set Data transfer direction (read from peripheral or from memory).
 639:../system/include/stm32l4-hal-driver/stm32l4xx_ll_dma.h ****   * @rmtoll CCR          DIR           LL_DMA_SetDataTransferDirection\n
 640:../system/include/stm32l4-hal-driver/stm32l4xx_ll_dma.h ****   *         CCR          MEM2MEM       LL_DMA_SetDataTransferDirection
 641:../system/include/stm32l4-hal-driver/stm32l4xx_ll_dma.h ****   * @param  DMAx DMAx Instance
 642:../system/include/stm32l4-hal-driver/stm32l4xx_ll_dma.h ****   * @param  Channel This parameter can be one of the following values:
 643:../system/include/stm32l4-hal-driver/stm32l4xx_ll_dma.h ****   *         @arg @ref LL_DMA_CHANNEL_1
 644:../system/include/stm32l4-hal-driver/stm32l4xx_ll_dma.h ****   *         @arg @ref LL_DMA_CHANNEL_2
 645:../system/include/stm32l4-hal-driver/stm32l4xx_ll_dma.h ****   *         @arg @ref LL_DMA_CHANNEL_3
 646:../system/include/stm32l4-hal-driver/stm32l4xx_ll_dma.h ****   *         @arg @ref LL_DMA_CHANNEL_4
 647:../system/include/stm32l4-hal-driver/stm32l4xx_ll_dma.h ****   *         @arg @ref LL_DMA_CHANNEL_5
 648:../system/include/stm32l4-hal-driver/stm32l4xx_ll_dma.h ****   *         @arg @ref LL_DMA_CHANNEL_6
 649:../system/include/stm32l4-hal-driver/stm32l4xx_ll_dma.h ****   *         @arg @ref LL_DMA_CHANNEL_7
 650:../system/include/stm32l4-hal-driver/stm32l4xx_ll_dma.h ****   * @param  Direction This parameter can be one of the following values:
 651:../system/include/stm32l4-hal-driver/stm32l4xx_ll_dma.h ****   *         @arg @ref LL_DMA_DIRECTION_PERIPH_TO_MEMORY
 652:../system/include/stm32l4-hal-driver/stm32l4xx_ll_dma.h ****   *         @arg @ref LL_DMA_DIRECTION_MEMORY_TO_PERIPH
 653:../system/include/stm32l4-hal-driver/stm32l4xx_ll_dma.h ****   *         @arg @ref LL_DMA_DIRECTION_MEMORY_TO_MEMORY
 654:../system/include/stm32l4-hal-driver/stm32l4xx_ll_dma.h ****   * @retval None
 655:../system/include/stm32l4-hal-driver/stm32l4xx_ll_dma.h ****   */
 656:../system/include/stm32l4-hal-driver/stm32l4xx_ll_dma.h **** __STATIC_INLINE void LL_DMA_SetDataTransferDirection(DMA_TypeDef *DMAx, uint32_t Channel, uint32_t 
 657:../system/include/stm32l4-hal-driver/stm32l4xx_ll_dma.h **** {
 658:../system/include/stm32l4-hal-driver/stm32l4xx_ll_dma.h ****   uint32_t dma_base_addr = (uint32_t)DMAx;
 659:../system/include/stm32l4-hal-driver/stm32l4xx_ll_dma.h ****   MODIFY_REG(((DMA_Channel_TypeDef *)(dma_base_addr + CHANNEL_OFFSET_TAB[Channel]))->CCR,
 660:../system/include/stm32l4-hal-driver/stm32l4xx_ll_dma.h ****              DMA_CCR_DIR | DMA_CCR_MEM2MEM, Direction);
 661:../system/include/stm32l4-hal-driver/stm32l4xx_ll_dma.h **** }
 662:../system/include/stm32l4-hal-driver/stm32l4xx_ll_dma.h **** 
 663:../system/include/stm32l4-hal-driver/stm32l4xx_ll_dma.h **** /**
 664:../system/include/stm32l4-hal-driver/stm32l4xx_ll_dma.h ****   * @brief  Get Data transfer direction (read from peripheral or from memory).
 665:../system/include/stm32l4-hal-driver/stm32l4xx_ll_dma.h ****   * @rmtoll CCR          DIR           LL_DMA_GetDataTransferDirection\n
 666:../system/include/stm32l4-hal-driver/stm32l4xx_ll_dma.h ****   *         CCR          MEM2MEM       LL_DMA_GetDataTransferDirection
 667:../system/include/stm32l4-hal-driver/stm32l4xx_ll_dma.h ****   * @param  DMAx DMAx Instance
 668:../system/include/stm32l4-hal-driver/stm32l4xx_ll_dma.h ****   * @param  Channel This parameter can be one of the following values:
 669:../system/include/stm32l4-hal-driver/stm32l4xx_ll_dma.h ****   *         @arg @ref LL_DMA_CHANNEL_1
 670:../system/include/stm32l4-hal-driver/stm32l4xx_ll_dma.h ****   *         @arg @ref LL_DMA_CHANNEL_2
 671:../system/include/stm32l4-hal-driver/stm32l4xx_ll_dma.h ****   *         @arg @ref LL_DMA_CHANNEL_3
 672:../system/include/stm32l4-hal-driver/stm32l4xx_ll_dma.h ****   *         @arg @ref LL_DMA_CHANNEL_4
 673:../system/include/stm32l4-hal-driver/stm32l4xx_ll_dma.h ****   *         @arg @ref LL_DMA_CHANNEL_5
 674:../system/include/stm32l4-hal-driver/stm32l4xx_ll_dma.h ****   *         @arg @ref LL_DMA_CHANNEL_6
 675:../system/include/stm32l4-hal-driver/stm32l4xx_ll_dma.h ****   *         @arg @ref LL_DMA_CHANNEL_7
 676:../system/include/stm32l4-hal-driver/stm32l4xx_ll_dma.h ****   * @retval Returned value can be one of the following values:
 677:../system/include/stm32l4-hal-driver/stm32l4xx_ll_dma.h ****   *         @arg @ref LL_DMA_DIRECTION_PERIPH_TO_MEMORY
 678:../system/include/stm32l4-hal-driver/stm32l4xx_ll_dma.h ****   *         @arg @ref LL_DMA_DIRECTION_MEMORY_TO_PERIPH
 679:../system/include/stm32l4-hal-driver/stm32l4xx_ll_dma.h ****   *         @arg @ref LL_DMA_DIRECTION_MEMORY_TO_MEMORY
 680:../system/include/stm32l4-hal-driver/stm32l4xx_ll_dma.h ****   */
 681:../system/include/stm32l4-hal-driver/stm32l4xx_ll_dma.h **** __STATIC_INLINE uint32_t LL_DMA_GetDataTransferDirection(DMA_TypeDef *DMAx, uint32_t Channel)
 682:../system/include/stm32l4-hal-driver/stm32l4xx_ll_dma.h **** {
 683:../system/include/stm32l4-hal-driver/stm32l4xx_ll_dma.h ****   uint32_t dma_base_addr = (uint32_t)DMAx;
 684:../system/include/stm32l4-hal-driver/stm32l4xx_ll_dma.h ****   return (READ_BIT(((DMA_Channel_TypeDef *)(dma_base_addr + CHANNEL_OFFSET_TAB[Channel]))->CCR,
 685:../system/include/stm32l4-hal-driver/stm32l4xx_ll_dma.h ****                    DMA_CCR_DIR | DMA_CCR_MEM2MEM));
 686:../system/include/stm32l4-hal-driver/stm32l4xx_ll_dma.h **** }
 687:../system/include/stm32l4-hal-driver/stm32l4xx_ll_dma.h **** 
 688:../system/include/stm32l4-hal-driver/stm32l4xx_ll_dma.h **** /**
 689:../system/include/stm32l4-hal-driver/stm32l4xx_ll_dma.h ****   * @brief  Set DMA mode circular or normal.
 690:../system/include/stm32l4-hal-driver/stm32l4xx_ll_dma.h ****   * @note The circular buffer mode cannot be used if the memory-to-memory
 691:../system/include/stm32l4-hal-driver/stm32l4xx_ll_dma.h ****   * data transfer is configured on the selected Channel.
 692:../system/include/stm32l4-hal-driver/stm32l4xx_ll_dma.h ****   * @rmtoll CCR          CIRC          LL_DMA_SetMode
 693:../system/include/stm32l4-hal-driver/stm32l4xx_ll_dma.h ****   * @param  DMAx DMAx Instance
 694:../system/include/stm32l4-hal-driver/stm32l4xx_ll_dma.h ****   * @param  Channel This parameter can be one of the following values:
 695:../system/include/stm32l4-hal-driver/stm32l4xx_ll_dma.h ****   *         @arg @ref LL_DMA_CHANNEL_1
 696:../system/include/stm32l4-hal-driver/stm32l4xx_ll_dma.h ****   *         @arg @ref LL_DMA_CHANNEL_2
 697:../system/include/stm32l4-hal-driver/stm32l4xx_ll_dma.h ****   *         @arg @ref LL_DMA_CHANNEL_3
 698:../system/include/stm32l4-hal-driver/stm32l4xx_ll_dma.h ****   *         @arg @ref LL_DMA_CHANNEL_4
 699:../system/include/stm32l4-hal-driver/stm32l4xx_ll_dma.h ****   *         @arg @ref LL_DMA_CHANNEL_5
 700:../system/include/stm32l4-hal-driver/stm32l4xx_ll_dma.h ****   *         @arg @ref LL_DMA_CHANNEL_6
 701:../system/include/stm32l4-hal-driver/stm32l4xx_ll_dma.h ****   *         @arg @ref LL_DMA_CHANNEL_7
 702:../system/include/stm32l4-hal-driver/stm32l4xx_ll_dma.h ****   * @param  Mode This parameter can be one of the following values:
 703:../system/include/stm32l4-hal-driver/stm32l4xx_ll_dma.h ****   *         @arg @ref LL_DMA_MODE_NORMAL
 704:../system/include/stm32l4-hal-driver/stm32l4xx_ll_dma.h ****   *         @arg @ref LL_DMA_MODE_CIRCULAR
 705:../system/include/stm32l4-hal-driver/stm32l4xx_ll_dma.h ****   * @retval None
 706:../system/include/stm32l4-hal-driver/stm32l4xx_ll_dma.h ****   */
 707:../system/include/stm32l4-hal-driver/stm32l4xx_ll_dma.h **** __STATIC_INLINE void LL_DMA_SetMode(DMA_TypeDef *DMAx, uint32_t Channel, uint32_t Mode)
 708:../system/include/stm32l4-hal-driver/stm32l4xx_ll_dma.h **** {
 709:../system/include/stm32l4-hal-driver/stm32l4xx_ll_dma.h ****   uint32_t dma_base_addr = (uint32_t)DMAx;
 710:../system/include/stm32l4-hal-driver/stm32l4xx_ll_dma.h ****   MODIFY_REG(((DMA_Channel_TypeDef *)(dma_base_addr + CHANNEL_OFFSET_TAB[Channel]))->CCR, DMA_CCR_C
 711:../system/include/stm32l4-hal-driver/stm32l4xx_ll_dma.h ****              Mode);
 712:../system/include/stm32l4-hal-driver/stm32l4xx_ll_dma.h **** }
 713:../system/include/stm32l4-hal-driver/stm32l4xx_ll_dma.h **** 
 714:../system/include/stm32l4-hal-driver/stm32l4xx_ll_dma.h **** /**
 715:../system/include/stm32l4-hal-driver/stm32l4xx_ll_dma.h ****   * @brief  Get DMA mode circular or normal.
 716:../system/include/stm32l4-hal-driver/stm32l4xx_ll_dma.h ****   * @rmtoll CCR          CIRC          LL_DMA_GetMode
 717:../system/include/stm32l4-hal-driver/stm32l4xx_ll_dma.h ****   * @param  DMAx DMAx Instance
 718:../system/include/stm32l4-hal-driver/stm32l4xx_ll_dma.h ****   * @param  Channel This parameter can be one of the following values:
 719:../system/include/stm32l4-hal-driver/stm32l4xx_ll_dma.h ****   *         @arg @ref LL_DMA_CHANNEL_1
 720:../system/include/stm32l4-hal-driver/stm32l4xx_ll_dma.h ****   *         @arg @ref LL_DMA_CHANNEL_2
 721:../system/include/stm32l4-hal-driver/stm32l4xx_ll_dma.h ****   *         @arg @ref LL_DMA_CHANNEL_3
 722:../system/include/stm32l4-hal-driver/stm32l4xx_ll_dma.h ****   *         @arg @ref LL_DMA_CHANNEL_4
 723:../system/include/stm32l4-hal-driver/stm32l4xx_ll_dma.h ****   *         @arg @ref LL_DMA_CHANNEL_5
 724:../system/include/stm32l4-hal-driver/stm32l4xx_ll_dma.h ****   *         @arg @ref LL_DMA_CHANNEL_6
 725:../system/include/stm32l4-hal-driver/stm32l4xx_ll_dma.h ****   *         @arg @ref LL_DMA_CHANNEL_7
 726:../system/include/stm32l4-hal-driver/stm32l4xx_ll_dma.h ****   * @retval Returned value can be one of the following values:
 727:../system/include/stm32l4-hal-driver/stm32l4xx_ll_dma.h ****   *         @arg @ref LL_DMA_MODE_NORMAL
 728:../system/include/stm32l4-hal-driver/stm32l4xx_ll_dma.h ****   *         @arg @ref LL_DMA_MODE_CIRCULAR
 729:../system/include/stm32l4-hal-driver/stm32l4xx_ll_dma.h ****   */
 730:../system/include/stm32l4-hal-driver/stm32l4xx_ll_dma.h **** __STATIC_INLINE uint32_t LL_DMA_GetMode(DMA_TypeDef *DMAx, uint32_t Channel)
 731:../system/include/stm32l4-hal-driver/stm32l4xx_ll_dma.h **** {
 732:../system/include/stm32l4-hal-driver/stm32l4xx_ll_dma.h ****   uint32_t dma_base_addr = (uint32_t)DMAx;
 733:../system/include/stm32l4-hal-driver/stm32l4xx_ll_dma.h ****   return (READ_BIT(((DMA_Channel_TypeDef *)(dma_base_addr + CHANNEL_OFFSET_TAB[Channel]))->CCR,
 734:../system/include/stm32l4-hal-driver/stm32l4xx_ll_dma.h ****                    DMA_CCR_CIRC));
 735:../system/include/stm32l4-hal-driver/stm32l4xx_ll_dma.h **** }
 736:../system/include/stm32l4-hal-driver/stm32l4xx_ll_dma.h **** 
 737:../system/include/stm32l4-hal-driver/stm32l4xx_ll_dma.h **** /**
 738:../system/include/stm32l4-hal-driver/stm32l4xx_ll_dma.h ****   * @brief  Set Peripheral increment mode.
 739:../system/include/stm32l4-hal-driver/stm32l4xx_ll_dma.h ****   * @rmtoll CCR          PINC          LL_DMA_SetPeriphIncMode
 740:../system/include/stm32l4-hal-driver/stm32l4xx_ll_dma.h ****   * @param  DMAx DMAx Instance
 741:../system/include/stm32l4-hal-driver/stm32l4xx_ll_dma.h ****   * @param  Channel This parameter can be one of the following values:
 742:../system/include/stm32l4-hal-driver/stm32l4xx_ll_dma.h ****   *         @arg @ref LL_DMA_CHANNEL_1
 743:../system/include/stm32l4-hal-driver/stm32l4xx_ll_dma.h ****   *         @arg @ref LL_DMA_CHANNEL_2
 744:../system/include/stm32l4-hal-driver/stm32l4xx_ll_dma.h ****   *         @arg @ref LL_DMA_CHANNEL_3
 745:../system/include/stm32l4-hal-driver/stm32l4xx_ll_dma.h ****   *         @arg @ref LL_DMA_CHANNEL_4
 746:../system/include/stm32l4-hal-driver/stm32l4xx_ll_dma.h ****   *         @arg @ref LL_DMA_CHANNEL_5
 747:../system/include/stm32l4-hal-driver/stm32l4xx_ll_dma.h ****   *         @arg @ref LL_DMA_CHANNEL_6
 748:../system/include/stm32l4-hal-driver/stm32l4xx_ll_dma.h ****   *         @arg @ref LL_DMA_CHANNEL_7
 749:../system/include/stm32l4-hal-driver/stm32l4xx_ll_dma.h ****   * @param  PeriphOrM2MSrcIncMode This parameter can be one of the following values:
 750:../system/include/stm32l4-hal-driver/stm32l4xx_ll_dma.h ****   *         @arg @ref LL_DMA_PERIPH_INCREMENT
 751:../system/include/stm32l4-hal-driver/stm32l4xx_ll_dma.h ****   *         @arg @ref LL_DMA_PERIPH_NOINCREMENT
 752:../system/include/stm32l4-hal-driver/stm32l4xx_ll_dma.h ****   * @retval None
 753:../system/include/stm32l4-hal-driver/stm32l4xx_ll_dma.h ****   */
 754:../system/include/stm32l4-hal-driver/stm32l4xx_ll_dma.h **** __STATIC_INLINE void LL_DMA_SetPeriphIncMode(DMA_TypeDef *DMAx, uint32_t Channel, uint32_t PeriphOr
 755:../system/include/stm32l4-hal-driver/stm32l4xx_ll_dma.h **** {
 756:../system/include/stm32l4-hal-driver/stm32l4xx_ll_dma.h ****     uint32_t dma_base_addr = (uint32_t)DMAx;
 757:../system/include/stm32l4-hal-driver/stm32l4xx_ll_dma.h ****     MODIFY_REG(((DMA_Channel_TypeDef *)(dma_base_addr + CHANNEL_OFFSET_TAB[Channel]))->CCR, DMA_CCR
 758:../system/include/stm32l4-hal-driver/stm32l4xx_ll_dma.h ****              PeriphOrM2MSrcIncMode);
 759:../system/include/stm32l4-hal-driver/stm32l4xx_ll_dma.h **** }
 760:../system/include/stm32l4-hal-driver/stm32l4xx_ll_dma.h **** 
 761:../system/include/stm32l4-hal-driver/stm32l4xx_ll_dma.h **** /**
 762:../system/include/stm32l4-hal-driver/stm32l4xx_ll_dma.h ****   * @brief  Get Peripheral increment mode.
 763:../system/include/stm32l4-hal-driver/stm32l4xx_ll_dma.h ****   * @rmtoll CCR          PINC          LL_DMA_GetPeriphIncMode
 764:../system/include/stm32l4-hal-driver/stm32l4xx_ll_dma.h ****   * @param  DMAx DMAx Instance
 765:../system/include/stm32l4-hal-driver/stm32l4xx_ll_dma.h ****   * @param  Channel This parameter can be one of the following values:
 766:../system/include/stm32l4-hal-driver/stm32l4xx_ll_dma.h ****   *         @arg @ref LL_DMA_CHANNEL_1
 767:../system/include/stm32l4-hal-driver/stm32l4xx_ll_dma.h ****   *         @arg @ref LL_DMA_CHANNEL_2
 768:../system/include/stm32l4-hal-driver/stm32l4xx_ll_dma.h ****   *         @arg @ref LL_DMA_CHANNEL_3
 769:../system/include/stm32l4-hal-driver/stm32l4xx_ll_dma.h ****   *         @arg @ref LL_DMA_CHANNEL_4
 770:../system/include/stm32l4-hal-driver/stm32l4xx_ll_dma.h ****   *         @arg @ref LL_DMA_CHANNEL_5
 771:../system/include/stm32l4-hal-driver/stm32l4xx_ll_dma.h ****   *         @arg @ref LL_DMA_CHANNEL_6
 772:../system/include/stm32l4-hal-driver/stm32l4xx_ll_dma.h ****   *         @arg @ref LL_DMA_CHANNEL_7
 773:../system/include/stm32l4-hal-driver/stm32l4xx_ll_dma.h ****   * @retval Returned value can be one of the following values:
 774:../system/include/stm32l4-hal-driver/stm32l4xx_ll_dma.h ****   *         @arg @ref LL_DMA_PERIPH_INCREMENT
 775:../system/include/stm32l4-hal-driver/stm32l4xx_ll_dma.h ****   *         @arg @ref LL_DMA_PERIPH_NOINCREMENT
 776:../system/include/stm32l4-hal-driver/stm32l4xx_ll_dma.h ****   */
 777:../system/include/stm32l4-hal-driver/stm32l4xx_ll_dma.h **** __STATIC_INLINE uint32_t LL_DMA_GetPeriphIncMode(DMA_TypeDef *DMAx, uint32_t Channel)
 778:../system/include/stm32l4-hal-driver/stm32l4xx_ll_dma.h **** {
 779:../system/include/stm32l4-hal-driver/stm32l4xx_ll_dma.h ****   uint32_t dma_base_addr = (uint32_t)DMAx;
 780:../system/include/stm32l4-hal-driver/stm32l4xx_ll_dma.h ****   return (READ_BIT(((DMA_Channel_TypeDef *)(dma_base_addr + CHANNEL_OFFSET_TAB[Channel]))->CCR,
 781:../system/include/stm32l4-hal-driver/stm32l4xx_ll_dma.h ****                    DMA_CCR_PINC));
 782:../system/include/stm32l4-hal-driver/stm32l4xx_ll_dma.h **** }
 783:../system/include/stm32l4-hal-driver/stm32l4xx_ll_dma.h **** 
 784:../system/include/stm32l4-hal-driver/stm32l4xx_ll_dma.h **** /**
 785:../system/include/stm32l4-hal-driver/stm32l4xx_ll_dma.h ****   * @brief  Set Memory increment mode.
 786:../system/include/stm32l4-hal-driver/stm32l4xx_ll_dma.h ****   * @rmtoll CCR          MINC          LL_DMA_SetMemoryIncMode
 787:../system/include/stm32l4-hal-driver/stm32l4xx_ll_dma.h ****   * @param  DMAx DMAx Instance
 788:../system/include/stm32l4-hal-driver/stm32l4xx_ll_dma.h ****   * @param  Channel This parameter can be one of the following values:
 789:../system/include/stm32l4-hal-driver/stm32l4xx_ll_dma.h ****   *         @arg @ref LL_DMA_CHANNEL_1
 790:../system/include/stm32l4-hal-driver/stm32l4xx_ll_dma.h ****   *         @arg @ref LL_DMA_CHANNEL_2
 791:../system/include/stm32l4-hal-driver/stm32l4xx_ll_dma.h ****   *         @arg @ref LL_DMA_CHANNEL_3
 792:../system/include/stm32l4-hal-driver/stm32l4xx_ll_dma.h ****   *         @arg @ref LL_DMA_CHANNEL_4
 793:../system/include/stm32l4-hal-driver/stm32l4xx_ll_dma.h ****   *         @arg @ref LL_DMA_CHANNEL_5
 794:../system/include/stm32l4-hal-driver/stm32l4xx_ll_dma.h ****   *         @arg @ref LL_DMA_CHANNEL_6
 795:../system/include/stm32l4-hal-driver/stm32l4xx_ll_dma.h ****   *         @arg @ref LL_DMA_CHANNEL_7
 796:../system/include/stm32l4-hal-driver/stm32l4xx_ll_dma.h ****   * @param  MemoryOrM2MDstIncMode This parameter can be one of the following values:
 797:../system/include/stm32l4-hal-driver/stm32l4xx_ll_dma.h ****   *         @arg @ref LL_DMA_MEMORY_INCREMENT
 798:../system/include/stm32l4-hal-driver/stm32l4xx_ll_dma.h ****   *         @arg @ref LL_DMA_MEMORY_NOINCREMENT
 799:../system/include/stm32l4-hal-driver/stm32l4xx_ll_dma.h ****   * @retval None
 800:../system/include/stm32l4-hal-driver/stm32l4xx_ll_dma.h ****   */
 801:../system/include/stm32l4-hal-driver/stm32l4xx_ll_dma.h **** __STATIC_INLINE void LL_DMA_SetMemoryIncMode(DMA_TypeDef *DMAx, uint32_t Channel, uint32_t MemoryOr
 802:../system/include/stm32l4-hal-driver/stm32l4xx_ll_dma.h **** {
 803:../system/include/stm32l4-hal-driver/stm32l4xx_ll_dma.h ****   uint32_t dma_base_addr = (uint32_t)DMAx;
 804:../system/include/stm32l4-hal-driver/stm32l4xx_ll_dma.h ****   MODIFY_REG(((DMA_Channel_TypeDef *)(dma_base_addr + CHANNEL_OFFSET_TAB[Channel]))->CCR, DMA_CCR_M
 805:../system/include/stm32l4-hal-driver/stm32l4xx_ll_dma.h ****              MemoryOrM2MDstIncMode);
 806:../system/include/stm32l4-hal-driver/stm32l4xx_ll_dma.h **** }
 807:../system/include/stm32l4-hal-driver/stm32l4xx_ll_dma.h **** 
 808:../system/include/stm32l4-hal-driver/stm32l4xx_ll_dma.h **** /**
 809:../system/include/stm32l4-hal-driver/stm32l4xx_ll_dma.h ****   * @brief  Get Memory increment mode.
 810:../system/include/stm32l4-hal-driver/stm32l4xx_ll_dma.h ****   * @rmtoll CCR          MINC          LL_DMA_GetMemoryIncMode
 811:../system/include/stm32l4-hal-driver/stm32l4xx_ll_dma.h ****   * @param  DMAx DMAx Instance
 812:../system/include/stm32l4-hal-driver/stm32l4xx_ll_dma.h ****   * @param  Channel This parameter can be one of the following values:
 813:../system/include/stm32l4-hal-driver/stm32l4xx_ll_dma.h ****   *         @arg @ref LL_DMA_CHANNEL_1
 814:../system/include/stm32l4-hal-driver/stm32l4xx_ll_dma.h ****   *         @arg @ref LL_DMA_CHANNEL_2
 815:../system/include/stm32l4-hal-driver/stm32l4xx_ll_dma.h ****   *         @arg @ref LL_DMA_CHANNEL_3
 816:../system/include/stm32l4-hal-driver/stm32l4xx_ll_dma.h ****   *         @arg @ref LL_DMA_CHANNEL_4
 817:../system/include/stm32l4-hal-driver/stm32l4xx_ll_dma.h ****   *         @arg @ref LL_DMA_CHANNEL_5
 818:../system/include/stm32l4-hal-driver/stm32l4xx_ll_dma.h ****   *         @arg @ref LL_DMA_CHANNEL_6
 819:../system/include/stm32l4-hal-driver/stm32l4xx_ll_dma.h ****   *         @arg @ref LL_DMA_CHANNEL_7
 820:../system/include/stm32l4-hal-driver/stm32l4xx_ll_dma.h ****   * @retval Returned value can be one of the following values:
 821:../system/include/stm32l4-hal-driver/stm32l4xx_ll_dma.h ****   *         @arg @ref LL_DMA_MEMORY_INCREMENT
 822:../system/include/stm32l4-hal-driver/stm32l4xx_ll_dma.h ****   *         @arg @ref LL_DMA_MEMORY_NOINCREMENT
 823:../system/include/stm32l4-hal-driver/stm32l4xx_ll_dma.h ****   */
 824:../system/include/stm32l4-hal-driver/stm32l4xx_ll_dma.h **** __STATIC_INLINE uint32_t LL_DMA_GetMemoryIncMode(DMA_TypeDef *DMAx, uint32_t Channel)
 825:../system/include/stm32l4-hal-driver/stm32l4xx_ll_dma.h **** {
 826:../system/include/stm32l4-hal-driver/stm32l4xx_ll_dma.h ****   uint32_t dma_base_addr = (uint32_t)DMAx;
 827:../system/include/stm32l4-hal-driver/stm32l4xx_ll_dma.h ****   return (READ_BIT(((DMA_Channel_TypeDef *)(dma_base_addr + CHANNEL_OFFSET_TAB[Channel]))->CCR,
 828:../system/include/stm32l4-hal-driver/stm32l4xx_ll_dma.h ****                    DMA_CCR_MINC));
 829:../system/include/stm32l4-hal-driver/stm32l4xx_ll_dma.h **** }
 830:../system/include/stm32l4-hal-driver/stm32l4xx_ll_dma.h **** 
 831:../system/include/stm32l4-hal-driver/stm32l4xx_ll_dma.h **** /**
 832:../system/include/stm32l4-hal-driver/stm32l4xx_ll_dma.h ****   * @brief  Set Peripheral size.
 833:../system/include/stm32l4-hal-driver/stm32l4xx_ll_dma.h ****   * @rmtoll CCR          PSIZE         LL_DMA_SetPeriphSize
 834:../system/include/stm32l4-hal-driver/stm32l4xx_ll_dma.h ****   * @param  DMAx DMAx Instance
 835:../system/include/stm32l4-hal-driver/stm32l4xx_ll_dma.h ****   * @param  Channel This parameter can be one of the following values:
 836:../system/include/stm32l4-hal-driver/stm32l4xx_ll_dma.h ****   *         @arg @ref LL_DMA_CHANNEL_1
 837:../system/include/stm32l4-hal-driver/stm32l4xx_ll_dma.h ****   *         @arg @ref LL_DMA_CHANNEL_2
 838:../system/include/stm32l4-hal-driver/stm32l4xx_ll_dma.h ****   *         @arg @ref LL_DMA_CHANNEL_3
 839:../system/include/stm32l4-hal-driver/stm32l4xx_ll_dma.h ****   *         @arg @ref LL_DMA_CHANNEL_4
 840:../system/include/stm32l4-hal-driver/stm32l4xx_ll_dma.h ****   *         @arg @ref LL_DMA_CHANNEL_5
 841:../system/include/stm32l4-hal-driver/stm32l4xx_ll_dma.h ****   *         @arg @ref LL_DMA_CHANNEL_6
 842:../system/include/stm32l4-hal-driver/stm32l4xx_ll_dma.h ****   *         @arg @ref LL_DMA_CHANNEL_7
 843:../system/include/stm32l4-hal-driver/stm32l4xx_ll_dma.h ****   * @param  PeriphOrM2MSrcDataSize This parameter can be one of the following values:
 844:../system/include/stm32l4-hal-driver/stm32l4xx_ll_dma.h ****   *         @arg @ref LL_DMA_PDATAALIGN_BYTE
 845:../system/include/stm32l4-hal-driver/stm32l4xx_ll_dma.h ****   *         @arg @ref LL_DMA_PDATAALIGN_HALFWORD
 846:../system/include/stm32l4-hal-driver/stm32l4xx_ll_dma.h ****   *         @arg @ref LL_DMA_PDATAALIGN_WORD
 847:../system/include/stm32l4-hal-driver/stm32l4xx_ll_dma.h ****   * @retval None
 848:../system/include/stm32l4-hal-driver/stm32l4xx_ll_dma.h ****   */
 849:../system/include/stm32l4-hal-driver/stm32l4xx_ll_dma.h **** __STATIC_INLINE void LL_DMA_SetPeriphSize(DMA_TypeDef *DMAx, uint32_t Channel, uint32_t PeriphOrM2M
 850:../system/include/stm32l4-hal-driver/stm32l4xx_ll_dma.h **** {
 851:../system/include/stm32l4-hal-driver/stm32l4xx_ll_dma.h ****   uint32_t dma_base_addr = (uint32_t)DMAx;
 852:../system/include/stm32l4-hal-driver/stm32l4xx_ll_dma.h ****   MODIFY_REG(((DMA_Channel_TypeDef *)(dma_base_addr + CHANNEL_OFFSET_TAB[Channel]))->CCR, DMA_CCR_P
 853:../system/include/stm32l4-hal-driver/stm32l4xx_ll_dma.h ****              PeriphOrM2MSrcDataSize);
 854:../system/include/stm32l4-hal-driver/stm32l4xx_ll_dma.h **** }
 855:../system/include/stm32l4-hal-driver/stm32l4xx_ll_dma.h **** 
 856:../system/include/stm32l4-hal-driver/stm32l4xx_ll_dma.h **** /**
 857:../system/include/stm32l4-hal-driver/stm32l4xx_ll_dma.h ****   * @brief  Get Peripheral size.
 858:../system/include/stm32l4-hal-driver/stm32l4xx_ll_dma.h ****   * @rmtoll CCR          PSIZE         LL_DMA_GetPeriphSize
 859:../system/include/stm32l4-hal-driver/stm32l4xx_ll_dma.h ****   * @param  DMAx DMAx Instance
 860:../system/include/stm32l4-hal-driver/stm32l4xx_ll_dma.h ****   * @param  Channel This parameter can be one of the following values:
 861:../system/include/stm32l4-hal-driver/stm32l4xx_ll_dma.h ****   *         @arg @ref LL_DMA_CHANNEL_1
 862:../system/include/stm32l4-hal-driver/stm32l4xx_ll_dma.h ****   *         @arg @ref LL_DMA_CHANNEL_2
 863:../system/include/stm32l4-hal-driver/stm32l4xx_ll_dma.h ****   *         @arg @ref LL_DMA_CHANNEL_3
 864:../system/include/stm32l4-hal-driver/stm32l4xx_ll_dma.h ****   *         @arg @ref LL_DMA_CHANNEL_4
 865:../system/include/stm32l4-hal-driver/stm32l4xx_ll_dma.h ****   *         @arg @ref LL_DMA_CHANNEL_5
 866:../system/include/stm32l4-hal-driver/stm32l4xx_ll_dma.h ****   *         @arg @ref LL_DMA_CHANNEL_6
 867:../system/include/stm32l4-hal-driver/stm32l4xx_ll_dma.h ****   *         @arg @ref LL_DMA_CHANNEL_7
 868:../system/include/stm32l4-hal-driver/stm32l4xx_ll_dma.h ****   * @retval Returned value can be one of the following values:
 869:../system/include/stm32l4-hal-driver/stm32l4xx_ll_dma.h ****   *         @arg @ref LL_DMA_PDATAALIGN_BYTE
 870:../system/include/stm32l4-hal-driver/stm32l4xx_ll_dma.h ****   *         @arg @ref LL_DMA_PDATAALIGN_HALFWORD
 871:../system/include/stm32l4-hal-driver/stm32l4xx_ll_dma.h ****   *         @arg @ref LL_DMA_PDATAALIGN_WORD
 872:../system/include/stm32l4-hal-driver/stm32l4xx_ll_dma.h ****   */
 873:../system/include/stm32l4-hal-driver/stm32l4xx_ll_dma.h **** __STATIC_INLINE uint32_t LL_DMA_GetPeriphSize(DMA_TypeDef *DMAx, uint32_t Channel)
 874:../system/include/stm32l4-hal-driver/stm32l4xx_ll_dma.h **** {
 875:../system/include/stm32l4-hal-driver/stm32l4xx_ll_dma.h ****   uint32_t dma_base_addr = (uint32_t)DMAx;
 876:../system/include/stm32l4-hal-driver/stm32l4xx_ll_dma.h ****   return (READ_BIT(((DMA_Channel_TypeDef *)(dma_base_addr + CHANNEL_OFFSET_TAB[Channel]))->CCR,
 877:../system/include/stm32l4-hal-driver/stm32l4xx_ll_dma.h ****                    DMA_CCR_PSIZE));
 878:../system/include/stm32l4-hal-driver/stm32l4xx_ll_dma.h **** }
 879:../system/include/stm32l4-hal-driver/stm32l4xx_ll_dma.h **** 
 880:../system/include/stm32l4-hal-driver/stm32l4xx_ll_dma.h **** /**
 881:../system/include/stm32l4-hal-driver/stm32l4xx_ll_dma.h ****   * @brief  Set Memory size.
 882:../system/include/stm32l4-hal-driver/stm32l4xx_ll_dma.h ****   * @rmtoll CCR          MSIZE         LL_DMA_SetMemorySize
 883:../system/include/stm32l4-hal-driver/stm32l4xx_ll_dma.h ****   * @param  DMAx DMAx Instance
 884:../system/include/stm32l4-hal-driver/stm32l4xx_ll_dma.h ****   * @param  Channel This parameter can be one of the following values:
 885:../system/include/stm32l4-hal-driver/stm32l4xx_ll_dma.h ****   *         @arg @ref LL_DMA_CHANNEL_1
 886:../system/include/stm32l4-hal-driver/stm32l4xx_ll_dma.h ****   *         @arg @ref LL_DMA_CHANNEL_2
 887:../system/include/stm32l4-hal-driver/stm32l4xx_ll_dma.h ****   *         @arg @ref LL_DMA_CHANNEL_3
 888:../system/include/stm32l4-hal-driver/stm32l4xx_ll_dma.h ****   *         @arg @ref LL_DMA_CHANNEL_4
 889:../system/include/stm32l4-hal-driver/stm32l4xx_ll_dma.h ****   *         @arg @ref LL_DMA_CHANNEL_5
 890:../system/include/stm32l4-hal-driver/stm32l4xx_ll_dma.h ****   *         @arg @ref LL_DMA_CHANNEL_6
 891:../system/include/stm32l4-hal-driver/stm32l4xx_ll_dma.h ****   *         @arg @ref LL_DMA_CHANNEL_7
 892:../system/include/stm32l4-hal-driver/stm32l4xx_ll_dma.h ****   * @param  MemoryOrM2MDstDataSize This parameter can be one of the following values:
 893:../system/include/stm32l4-hal-driver/stm32l4xx_ll_dma.h ****   *         @arg @ref LL_DMA_MDATAALIGN_BYTE
 894:../system/include/stm32l4-hal-driver/stm32l4xx_ll_dma.h ****   *         @arg @ref LL_DMA_MDATAALIGN_HALFWORD
 895:../system/include/stm32l4-hal-driver/stm32l4xx_ll_dma.h ****   *         @arg @ref LL_DMA_MDATAALIGN_WORD
 896:../system/include/stm32l4-hal-driver/stm32l4xx_ll_dma.h ****   * @retval None
 897:../system/include/stm32l4-hal-driver/stm32l4xx_ll_dma.h ****   */
 898:../system/include/stm32l4-hal-driver/stm32l4xx_ll_dma.h **** __STATIC_INLINE void LL_DMA_SetMemorySize(DMA_TypeDef *DMAx, uint32_t Channel, uint32_t MemoryOrM2M
 899:../system/include/stm32l4-hal-driver/stm32l4xx_ll_dma.h **** {
 900:../system/include/stm32l4-hal-driver/stm32l4xx_ll_dma.h ****   uint32_t dma_base_addr = (uint32_t)DMAx;
 901:../system/include/stm32l4-hal-driver/stm32l4xx_ll_dma.h ****   MODIFY_REG(((DMA_Channel_TypeDef *)(dma_base_addr + CHANNEL_OFFSET_TAB[Channel]))->CCR, DMA_CCR_M
 902:../system/include/stm32l4-hal-driver/stm32l4xx_ll_dma.h ****              MemoryOrM2MDstDataSize);
 903:../system/include/stm32l4-hal-driver/stm32l4xx_ll_dma.h **** }
 904:../system/include/stm32l4-hal-driver/stm32l4xx_ll_dma.h **** 
 905:../system/include/stm32l4-hal-driver/stm32l4xx_ll_dma.h **** /**
 906:../system/include/stm32l4-hal-driver/stm32l4xx_ll_dma.h ****   * @brief  Get Memory size.
 907:../system/include/stm32l4-hal-driver/stm32l4xx_ll_dma.h ****   * @rmtoll CCR          MSIZE         LL_DMA_GetMemorySize
 908:../system/include/stm32l4-hal-driver/stm32l4xx_ll_dma.h ****   * @param  DMAx DMAx Instance
 909:../system/include/stm32l4-hal-driver/stm32l4xx_ll_dma.h ****   * @param  Channel This parameter can be one of the following values:
 910:../system/include/stm32l4-hal-driver/stm32l4xx_ll_dma.h ****   *         @arg @ref LL_DMA_CHANNEL_1
 911:../system/include/stm32l4-hal-driver/stm32l4xx_ll_dma.h ****   *         @arg @ref LL_DMA_CHANNEL_2
 912:../system/include/stm32l4-hal-driver/stm32l4xx_ll_dma.h ****   *         @arg @ref LL_DMA_CHANNEL_3
 913:../system/include/stm32l4-hal-driver/stm32l4xx_ll_dma.h ****   *         @arg @ref LL_DMA_CHANNEL_4
 914:../system/include/stm32l4-hal-driver/stm32l4xx_ll_dma.h ****   *         @arg @ref LL_DMA_CHANNEL_5
 915:../system/include/stm32l4-hal-driver/stm32l4xx_ll_dma.h ****   *         @arg @ref LL_DMA_CHANNEL_6
 916:../system/include/stm32l4-hal-driver/stm32l4xx_ll_dma.h ****   *         @arg @ref LL_DMA_CHANNEL_7
 917:../system/include/stm32l4-hal-driver/stm32l4xx_ll_dma.h ****   * @retval Returned value can be one of the following values:
 918:../system/include/stm32l4-hal-driver/stm32l4xx_ll_dma.h ****   *         @arg @ref LL_DMA_MDATAALIGN_BYTE
 919:../system/include/stm32l4-hal-driver/stm32l4xx_ll_dma.h ****   *         @arg @ref LL_DMA_MDATAALIGN_HALFWORD
 920:../system/include/stm32l4-hal-driver/stm32l4xx_ll_dma.h ****   *         @arg @ref LL_DMA_MDATAALIGN_WORD
 921:../system/include/stm32l4-hal-driver/stm32l4xx_ll_dma.h ****   */
 922:../system/include/stm32l4-hal-driver/stm32l4xx_ll_dma.h **** __STATIC_INLINE uint32_t LL_DMA_GetMemorySize(DMA_TypeDef *DMAx, uint32_t Channel)
 923:../system/include/stm32l4-hal-driver/stm32l4xx_ll_dma.h **** {
 924:../system/include/stm32l4-hal-driver/stm32l4xx_ll_dma.h ****   uint32_t dma_base_addr = (uint32_t)DMAx;
 925:../system/include/stm32l4-hal-driver/stm32l4xx_ll_dma.h ****   return (READ_BIT(((DMA_Channel_TypeDef *)(dma_base_addr + CHANNEL_OFFSET_TAB[Channel]))->CCR,
 926:../system/include/stm32l4-hal-driver/stm32l4xx_ll_dma.h ****                    DMA_CCR_MSIZE));
 927:../system/include/stm32l4-hal-driver/stm32l4xx_ll_dma.h **** }
 928:../system/include/stm32l4-hal-driver/stm32l4xx_ll_dma.h **** 
 929:../system/include/stm32l4-hal-driver/stm32l4xx_ll_dma.h **** /**
 930:../system/include/stm32l4-hal-driver/stm32l4xx_ll_dma.h ****   * @brief  Set Channel priority level.
 931:../system/include/stm32l4-hal-driver/stm32l4xx_ll_dma.h ****   * @rmtoll CCR          PL            LL_DMA_SetChannelPriorityLevel
 932:../system/include/stm32l4-hal-driver/stm32l4xx_ll_dma.h ****   * @param  DMAx DMAx Instance
 933:../system/include/stm32l4-hal-driver/stm32l4xx_ll_dma.h ****   * @param  Channel This parameter can be one of the following values:
 934:../system/include/stm32l4-hal-driver/stm32l4xx_ll_dma.h ****   *         @arg @ref LL_DMA_CHANNEL_1
 935:../system/include/stm32l4-hal-driver/stm32l4xx_ll_dma.h ****   *         @arg @ref LL_DMA_CHANNEL_2
 936:../system/include/stm32l4-hal-driver/stm32l4xx_ll_dma.h ****   *         @arg @ref LL_DMA_CHANNEL_3
 937:../system/include/stm32l4-hal-driver/stm32l4xx_ll_dma.h ****   *         @arg @ref LL_DMA_CHANNEL_4
 938:../system/include/stm32l4-hal-driver/stm32l4xx_ll_dma.h ****   *         @arg @ref LL_DMA_CHANNEL_5
 939:../system/include/stm32l4-hal-driver/stm32l4xx_ll_dma.h ****   *         @arg @ref LL_DMA_CHANNEL_6
 940:../system/include/stm32l4-hal-driver/stm32l4xx_ll_dma.h ****   *         @arg @ref LL_DMA_CHANNEL_7
 941:../system/include/stm32l4-hal-driver/stm32l4xx_ll_dma.h ****   * @param  Priority This parameter can be one of the following values:
 942:../system/include/stm32l4-hal-driver/stm32l4xx_ll_dma.h ****   *         @arg @ref LL_DMA_PRIORITY_LOW
 943:../system/include/stm32l4-hal-driver/stm32l4xx_ll_dma.h ****   *         @arg @ref LL_DMA_PRIORITY_MEDIUM
 944:../system/include/stm32l4-hal-driver/stm32l4xx_ll_dma.h ****   *         @arg @ref LL_DMA_PRIORITY_HIGH
 945:../system/include/stm32l4-hal-driver/stm32l4xx_ll_dma.h ****   *         @arg @ref LL_DMA_PRIORITY_VERYHIGH
 946:../system/include/stm32l4-hal-driver/stm32l4xx_ll_dma.h ****   * @retval None
 947:../system/include/stm32l4-hal-driver/stm32l4xx_ll_dma.h ****   */
 948:../system/include/stm32l4-hal-driver/stm32l4xx_ll_dma.h **** __STATIC_INLINE void LL_DMA_SetChannelPriorityLevel(DMA_TypeDef *DMAx, uint32_t Channel, uint32_t P
 949:../system/include/stm32l4-hal-driver/stm32l4xx_ll_dma.h **** {
 950:../system/include/stm32l4-hal-driver/stm32l4xx_ll_dma.h ****   uint32_t dma_base_addr = (uint32_t)DMAx;
 951:../system/include/stm32l4-hal-driver/stm32l4xx_ll_dma.h ****   MODIFY_REG(((DMA_Channel_TypeDef *)(dma_base_addr + CHANNEL_OFFSET_TAB[Channel]))->CCR, DMA_CCR_P
 952:../system/include/stm32l4-hal-driver/stm32l4xx_ll_dma.h ****              Priority);
 953:../system/include/stm32l4-hal-driver/stm32l4xx_ll_dma.h **** }
 954:../system/include/stm32l4-hal-driver/stm32l4xx_ll_dma.h **** 
 955:../system/include/stm32l4-hal-driver/stm32l4xx_ll_dma.h **** /**
 956:../system/include/stm32l4-hal-driver/stm32l4xx_ll_dma.h ****   * @brief  Get Channel priority level.
 957:../system/include/stm32l4-hal-driver/stm32l4xx_ll_dma.h ****   * @rmtoll CCR          PL            LL_DMA_GetChannelPriorityLevel
 958:../system/include/stm32l4-hal-driver/stm32l4xx_ll_dma.h ****   * @param  DMAx DMAx Instance
 959:../system/include/stm32l4-hal-driver/stm32l4xx_ll_dma.h ****   * @param  Channel This parameter can be one of the following values:
 960:../system/include/stm32l4-hal-driver/stm32l4xx_ll_dma.h ****   *         @arg @ref LL_DMA_CHANNEL_1
 961:../system/include/stm32l4-hal-driver/stm32l4xx_ll_dma.h ****   *         @arg @ref LL_DMA_CHANNEL_2
 962:../system/include/stm32l4-hal-driver/stm32l4xx_ll_dma.h ****   *         @arg @ref LL_DMA_CHANNEL_3
 963:../system/include/stm32l4-hal-driver/stm32l4xx_ll_dma.h ****   *         @arg @ref LL_DMA_CHANNEL_4
 964:../system/include/stm32l4-hal-driver/stm32l4xx_ll_dma.h ****   *         @arg @ref LL_DMA_CHANNEL_5
 965:../system/include/stm32l4-hal-driver/stm32l4xx_ll_dma.h ****   *         @arg @ref LL_DMA_CHANNEL_6
 966:../system/include/stm32l4-hal-driver/stm32l4xx_ll_dma.h ****   *         @arg @ref LL_DMA_CHANNEL_7
 967:../system/include/stm32l4-hal-driver/stm32l4xx_ll_dma.h ****   * @retval Returned value can be one of the following values:
 968:../system/include/stm32l4-hal-driver/stm32l4xx_ll_dma.h ****   *         @arg @ref LL_DMA_PRIORITY_LOW
 969:../system/include/stm32l4-hal-driver/stm32l4xx_ll_dma.h ****   *         @arg @ref LL_DMA_PRIORITY_MEDIUM
 970:../system/include/stm32l4-hal-driver/stm32l4xx_ll_dma.h ****   *         @arg @ref LL_DMA_PRIORITY_HIGH
 971:../system/include/stm32l4-hal-driver/stm32l4xx_ll_dma.h ****   *         @arg @ref LL_DMA_PRIORITY_VERYHIGH
 972:../system/include/stm32l4-hal-driver/stm32l4xx_ll_dma.h ****   */
 973:../system/include/stm32l4-hal-driver/stm32l4xx_ll_dma.h **** __STATIC_INLINE uint32_t LL_DMA_GetChannelPriorityLevel(DMA_TypeDef *DMAx, uint32_t Channel)
 974:../system/include/stm32l4-hal-driver/stm32l4xx_ll_dma.h **** {
 975:../system/include/stm32l4-hal-driver/stm32l4xx_ll_dma.h ****   uint32_t dma_base_addr = (uint32_t)DMAx;
 976:../system/include/stm32l4-hal-driver/stm32l4xx_ll_dma.h ****   return (READ_BIT(((DMA_Channel_TypeDef *)(dma_base_addr + CHANNEL_OFFSET_TAB[Channel]))->CCR,
 977:../system/include/stm32l4-hal-driver/stm32l4xx_ll_dma.h ****                    DMA_CCR_PL));
 978:../system/include/stm32l4-hal-driver/stm32l4xx_ll_dma.h **** }
 979:../system/include/stm32l4-hal-driver/stm32l4xx_ll_dma.h **** 
 980:../system/include/stm32l4-hal-driver/stm32l4xx_ll_dma.h **** /**
 981:../system/include/stm32l4-hal-driver/stm32l4xx_ll_dma.h ****   * @brief  Set Number of data to transfer.
 982:../system/include/stm32l4-hal-driver/stm32l4xx_ll_dma.h ****   * @note   This action has no effect if
 983:../system/include/stm32l4-hal-driver/stm32l4xx_ll_dma.h ****   *         channel is enabled.
 984:../system/include/stm32l4-hal-driver/stm32l4xx_ll_dma.h ****   * @rmtoll CNDTR        NDT           LL_DMA_SetDataLength
 985:../system/include/stm32l4-hal-driver/stm32l4xx_ll_dma.h ****   * @param  DMAx DMAx Instance
 986:../system/include/stm32l4-hal-driver/stm32l4xx_ll_dma.h ****   * @param  Channel This parameter can be one of the following values:
 987:../system/include/stm32l4-hal-driver/stm32l4xx_ll_dma.h ****   *         @arg @ref LL_DMA_CHANNEL_1
 988:../system/include/stm32l4-hal-driver/stm32l4xx_ll_dma.h ****   *         @arg @ref LL_DMA_CHANNEL_2
 989:../system/include/stm32l4-hal-driver/stm32l4xx_ll_dma.h ****   *         @arg @ref LL_DMA_CHANNEL_3
 990:../system/include/stm32l4-hal-driver/stm32l4xx_ll_dma.h ****   *         @arg @ref LL_DMA_CHANNEL_4
 991:../system/include/stm32l4-hal-driver/stm32l4xx_ll_dma.h ****   *         @arg @ref LL_DMA_CHANNEL_5
 992:../system/include/stm32l4-hal-driver/stm32l4xx_ll_dma.h ****   *         @arg @ref LL_DMA_CHANNEL_6
 993:../system/include/stm32l4-hal-driver/stm32l4xx_ll_dma.h ****   *         @arg @ref LL_DMA_CHANNEL_7
 994:../system/include/stm32l4-hal-driver/stm32l4xx_ll_dma.h ****   * @param  NbData Between Min_Data = 0 and Max_Data = 0x0000FFFF
 995:../system/include/stm32l4-hal-driver/stm32l4xx_ll_dma.h ****   * @retval None
 996:../system/include/stm32l4-hal-driver/stm32l4xx_ll_dma.h ****   */
 997:../system/include/stm32l4-hal-driver/stm32l4xx_ll_dma.h **** __STATIC_INLINE void LL_DMA_SetDataLength(DMA_TypeDef *DMAx, uint32_t Channel, uint32_t NbData)
 998:../system/include/stm32l4-hal-driver/stm32l4xx_ll_dma.h **** {
 999:../system/include/stm32l4-hal-driver/stm32l4xx_ll_dma.h ****   uint32_t dma_base_addr = (uint32_t)DMAx;
1000:../system/include/stm32l4-hal-driver/stm32l4xx_ll_dma.h ****   MODIFY_REG(((DMA_Channel_TypeDef *)(dma_base_addr + CHANNEL_OFFSET_TAB[Channel]))->CNDTR,
1001:../system/include/stm32l4-hal-driver/stm32l4xx_ll_dma.h ****              DMA_CNDTR_NDT, NbData);
1002:../system/include/stm32l4-hal-driver/stm32l4xx_ll_dma.h **** }
1003:../system/include/stm32l4-hal-driver/stm32l4xx_ll_dma.h **** 
1004:../system/include/stm32l4-hal-driver/stm32l4xx_ll_dma.h **** /**
1005:../system/include/stm32l4-hal-driver/stm32l4xx_ll_dma.h ****   * @brief  Get Number of data to transfer.
1006:../system/include/stm32l4-hal-driver/stm32l4xx_ll_dma.h ****   * @note   Once the channel is enabled, the return value indicate the
1007:../system/include/stm32l4-hal-driver/stm32l4xx_ll_dma.h ****   *         remaining bytes to be transmitted.
1008:../system/include/stm32l4-hal-driver/stm32l4xx_ll_dma.h ****   * @rmtoll CNDTR        NDT           LL_DMA_GetDataLength
1009:../system/include/stm32l4-hal-driver/stm32l4xx_ll_dma.h ****   * @param  DMAx DMAx Instance
1010:../system/include/stm32l4-hal-driver/stm32l4xx_ll_dma.h ****   * @param  Channel This parameter can be one of the following values:
1011:../system/include/stm32l4-hal-driver/stm32l4xx_ll_dma.h ****   *         @arg @ref LL_DMA_CHANNEL_1
1012:../system/include/stm32l4-hal-driver/stm32l4xx_ll_dma.h ****   *         @arg @ref LL_DMA_CHANNEL_2
1013:../system/include/stm32l4-hal-driver/stm32l4xx_ll_dma.h ****   *         @arg @ref LL_DMA_CHANNEL_3
1014:../system/include/stm32l4-hal-driver/stm32l4xx_ll_dma.h ****   *         @arg @ref LL_DMA_CHANNEL_4
1015:../system/include/stm32l4-hal-driver/stm32l4xx_ll_dma.h ****   *         @arg @ref LL_DMA_CHANNEL_5
1016:../system/include/stm32l4-hal-driver/stm32l4xx_ll_dma.h ****   *         @arg @ref LL_DMA_CHANNEL_6
1017:../system/include/stm32l4-hal-driver/stm32l4xx_ll_dma.h ****   *         @arg @ref LL_DMA_CHANNEL_7
1018:../system/include/stm32l4-hal-driver/stm32l4xx_ll_dma.h ****   * @retval Between Min_Data = 0 and Max_Data = 0xFFFFFFFF
1019:../system/include/stm32l4-hal-driver/stm32l4xx_ll_dma.h ****   */
1020:../system/include/stm32l4-hal-driver/stm32l4xx_ll_dma.h **** __STATIC_INLINE uint32_t LL_DMA_GetDataLength(DMA_TypeDef *DMAx, uint32_t Channel)
1021:../system/include/stm32l4-hal-driver/stm32l4xx_ll_dma.h **** {
1022:../system/include/stm32l4-hal-driver/stm32l4xx_ll_dma.h ****   uint32_t dma_base_addr = (uint32_t)DMAx;
1023:../system/include/stm32l4-hal-driver/stm32l4xx_ll_dma.h ****   return (READ_BIT(((DMA_Channel_TypeDef *)(dma_base_addr + CHANNEL_OFFSET_TAB[Channel]))->CNDTR,
1024:../system/include/stm32l4-hal-driver/stm32l4xx_ll_dma.h ****                    DMA_CNDTR_NDT));
1025:../system/include/stm32l4-hal-driver/stm32l4xx_ll_dma.h **** }
1026:../system/include/stm32l4-hal-driver/stm32l4xx_ll_dma.h **** 
1027:../system/include/stm32l4-hal-driver/stm32l4xx_ll_dma.h **** /**
1028:../system/include/stm32l4-hal-driver/stm32l4xx_ll_dma.h ****   * @brief  Configure the Source and Destination addresses.
1029:../system/include/stm32l4-hal-driver/stm32l4xx_ll_dma.h ****   * @note   This API must not be called when the DMA channel is enabled.
1030:../system/include/stm32l4-hal-driver/stm32l4xx_ll_dma.h ****   * @note   Each peripheral using DMA provides an API to get directly the register address (LL_PPP_
1031:../system/include/stm32l4-hal-driver/stm32l4xx_ll_dma.h ****   * @rmtoll CPAR         PA            LL_DMA_ConfigAddresses\n
1032:../system/include/stm32l4-hal-driver/stm32l4xx_ll_dma.h ****   *         CMAR         MA            LL_DMA_ConfigAddresses
1033:../system/include/stm32l4-hal-driver/stm32l4xx_ll_dma.h ****   * @param  DMAx DMAx Instance
1034:../system/include/stm32l4-hal-driver/stm32l4xx_ll_dma.h ****   * @param  Channel This parameter can be one of the following values:
1035:../system/include/stm32l4-hal-driver/stm32l4xx_ll_dma.h ****   *         @arg @ref LL_DMA_CHANNEL_1
1036:../system/include/stm32l4-hal-driver/stm32l4xx_ll_dma.h ****   *         @arg @ref LL_DMA_CHANNEL_2
1037:../system/include/stm32l4-hal-driver/stm32l4xx_ll_dma.h ****   *         @arg @ref LL_DMA_CHANNEL_3
1038:../system/include/stm32l4-hal-driver/stm32l4xx_ll_dma.h ****   *         @arg @ref LL_DMA_CHANNEL_4
1039:../system/include/stm32l4-hal-driver/stm32l4xx_ll_dma.h ****   *         @arg @ref LL_DMA_CHANNEL_5
1040:../system/include/stm32l4-hal-driver/stm32l4xx_ll_dma.h ****   *         @arg @ref LL_DMA_CHANNEL_6
1041:../system/include/stm32l4-hal-driver/stm32l4xx_ll_dma.h ****   *         @arg @ref LL_DMA_CHANNEL_7
1042:../system/include/stm32l4-hal-driver/stm32l4xx_ll_dma.h ****   * @param  SrcAddress Between Min_Data = 0 and Max_Data = 0xFFFFFFFF
1043:../system/include/stm32l4-hal-driver/stm32l4xx_ll_dma.h ****   * @param  DstAddress Between Min_Data = 0 and Max_Data = 0xFFFFFFFF
1044:../system/include/stm32l4-hal-driver/stm32l4xx_ll_dma.h ****   * @param  Direction This parameter can be one of the following values:
1045:../system/include/stm32l4-hal-driver/stm32l4xx_ll_dma.h ****   *         @arg @ref LL_DMA_DIRECTION_PERIPH_TO_MEMORY
1046:../system/include/stm32l4-hal-driver/stm32l4xx_ll_dma.h ****   *         @arg @ref LL_DMA_DIRECTION_MEMORY_TO_PERIPH
1047:../system/include/stm32l4-hal-driver/stm32l4xx_ll_dma.h ****   *         @arg @ref LL_DMA_DIRECTION_MEMORY_TO_MEMORY
1048:../system/include/stm32l4-hal-driver/stm32l4xx_ll_dma.h ****   * @retval None
1049:../system/include/stm32l4-hal-driver/stm32l4xx_ll_dma.h ****   */
1050:../system/include/stm32l4-hal-driver/stm32l4xx_ll_dma.h **** __STATIC_INLINE void LL_DMA_ConfigAddresses(DMA_TypeDef *DMAx, uint32_t Channel, uint32_t SrcAddres
1051:../system/include/stm32l4-hal-driver/stm32l4xx_ll_dma.h ****                                             uint32_t DstAddress, uint32_t Direction)
1052:../system/include/stm32l4-hal-driver/stm32l4xx_ll_dma.h **** {
1053:../system/include/stm32l4-hal-driver/stm32l4xx_ll_dma.h ****   uint32_t dma_base_addr = (uint32_t)DMAx;
1054:../system/include/stm32l4-hal-driver/stm32l4xx_ll_dma.h ****   /* Direction Memory to Periph */
1055:../system/include/stm32l4-hal-driver/stm32l4xx_ll_dma.h ****   if (Direction == LL_DMA_DIRECTION_MEMORY_TO_PERIPH)
1056:../system/include/stm32l4-hal-driver/stm32l4xx_ll_dma.h ****   {
1057:../system/include/stm32l4-hal-driver/stm32l4xx_ll_dma.h ****     WRITE_REG(((DMA_Channel_TypeDef *)(dma_base_addr + CHANNEL_OFFSET_TAB[Channel]))->CMAR, SrcAddr
1058:../system/include/stm32l4-hal-driver/stm32l4xx_ll_dma.h ****     WRITE_REG(((DMA_Channel_TypeDef *)(dma_base_addr + CHANNEL_OFFSET_TAB[Channel]))->CPAR, DstAddr
1059:../system/include/stm32l4-hal-driver/stm32l4xx_ll_dma.h ****   }
1060:../system/include/stm32l4-hal-driver/stm32l4xx_ll_dma.h ****   /* Direction Periph to Memory and Memory to Memory */
1061:../system/include/stm32l4-hal-driver/stm32l4xx_ll_dma.h ****   else
1062:../system/include/stm32l4-hal-driver/stm32l4xx_ll_dma.h ****   {
1063:../system/include/stm32l4-hal-driver/stm32l4xx_ll_dma.h ****     WRITE_REG(((DMA_Channel_TypeDef *)(dma_base_addr + CHANNEL_OFFSET_TAB[Channel]))->CPAR, SrcAddr
1064:../system/include/stm32l4-hal-driver/stm32l4xx_ll_dma.h ****     WRITE_REG(((DMA_Channel_TypeDef *)(dma_base_addr + CHANNEL_OFFSET_TAB[Channel]))->CMAR, DstAddr
1065:../system/include/stm32l4-hal-driver/stm32l4xx_ll_dma.h ****   }
1066:../system/include/stm32l4-hal-driver/stm32l4xx_ll_dma.h **** }
1067:../system/include/stm32l4-hal-driver/stm32l4xx_ll_dma.h **** 
1068:../system/include/stm32l4-hal-driver/stm32l4xx_ll_dma.h **** /**
1069:../system/include/stm32l4-hal-driver/stm32l4xx_ll_dma.h ****   * @brief  Set the Memory address.
1070:../system/include/stm32l4-hal-driver/stm32l4xx_ll_dma.h ****   * @note   Interface used for direction LL_DMA_DIRECTION_PERIPH_TO_MEMORY or LL_DMA_DIRECTION_MEMO
1071:../system/include/stm32l4-hal-driver/stm32l4xx_ll_dma.h ****   * @note   This API must not be called when the DMA channel is enabled.
1072:../system/include/stm32l4-hal-driver/stm32l4xx_ll_dma.h ****   * @rmtoll CMAR         MA            LL_DMA_SetMemoryAddress
1073:../system/include/stm32l4-hal-driver/stm32l4xx_ll_dma.h ****   * @param  DMAx DMAx Instance
1074:../system/include/stm32l4-hal-driver/stm32l4xx_ll_dma.h ****   * @param  Channel This parameter can be one of the following values:
1075:../system/include/stm32l4-hal-driver/stm32l4xx_ll_dma.h ****   *         @arg @ref LL_DMA_CHANNEL_1
1076:../system/include/stm32l4-hal-driver/stm32l4xx_ll_dma.h ****   *         @arg @ref LL_DMA_CHANNEL_2
1077:../system/include/stm32l4-hal-driver/stm32l4xx_ll_dma.h ****   *         @arg @ref LL_DMA_CHANNEL_3
1078:../system/include/stm32l4-hal-driver/stm32l4xx_ll_dma.h ****   *         @arg @ref LL_DMA_CHANNEL_4
1079:../system/include/stm32l4-hal-driver/stm32l4xx_ll_dma.h ****   *         @arg @ref LL_DMA_CHANNEL_5
1080:../system/include/stm32l4-hal-driver/stm32l4xx_ll_dma.h ****   *         @arg @ref LL_DMA_CHANNEL_6
1081:../system/include/stm32l4-hal-driver/stm32l4xx_ll_dma.h ****   *         @arg @ref LL_DMA_CHANNEL_7
1082:../system/include/stm32l4-hal-driver/stm32l4xx_ll_dma.h ****   * @param  MemoryAddress Between Min_Data = 0 and Max_Data = 0xFFFFFFFF
1083:../system/include/stm32l4-hal-driver/stm32l4xx_ll_dma.h ****   * @retval None
1084:../system/include/stm32l4-hal-driver/stm32l4xx_ll_dma.h ****   */
1085:../system/include/stm32l4-hal-driver/stm32l4xx_ll_dma.h **** __STATIC_INLINE void LL_DMA_SetMemoryAddress(DMA_TypeDef *DMAx, uint32_t Channel, uint32_t MemoryAd
1086:../system/include/stm32l4-hal-driver/stm32l4xx_ll_dma.h **** {
1087:../system/include/stm32l4-hal-driver/stm32l4xx_ll_dma.h ****   uint32_t dma_base_addr = (uint32_t)DMAx;
1088:../system/include/stm32l4-hal-driver/stm32l4xx_ll_dma.h ****   WRITE_REG(((DMA_Channel_TypeDef *)(dma_base_addr + CHANNEL_OFFSET_TAB[Channel]))->CMAR, MemoryAdd
1089:../system/include/stm32l4-hal-driver/stm32l4xx_ll_dma.h **** }
1090:../system/include/stm32l4-hal-driver/stm32l4xx_ll_dma.h **** 
1091:../system/include/stm32l4-hal-driver/stm32l4xx_ll_dma.h **** /**
1092:../system/include/stm32l4-hal-driver/stm32l4xx_ll_dma.h ****   * @brief  Set the Peripheral address.
1093:../system/include/stm32l4-hal-driver/stm32l4xx_ll_dma.h ****   * @note   Interface used for direction LL_DMA_DIRECTION_PERIPH_TO_MEMORY or LL_DMA_DIRECTION_MEMO
1094:../system/include/stm32l4-hal-driver/stm32l4xx_ll_dma.h ****   * @note   This API must not be called when the DMA channel is enabled.
1095:../system/include/stm32l4-hal-driver/stm32l4xx_ll_dma.h ****   * @rmtoll CPAR         PA            LL_DMA_SetPeriphAddress
1096:../system/include/stm32l4-hal-driver/stm32l4xx_ll_dma.h ****   * @param  DMAx DMAx Instance
1097:../system/include/stm32l4-hal-driver/stm32l4xx_ll_dma.h ****   * @param  Channel This parameter can be one of the following values:
1098:../system/include/stm32l4-hal-driver/stm32l4xx_ll_dma.h ****   *         @arg @ref LL_DMA_CHANNEL_1
1099:../system/include/stm32l4-hal-driver/stm32l4xx_ll_dma.h ****   *         @arg @ref LL_DMA_CHANNEL_2
1100:../system/include/stm32l4-hal-driver/stm32l4xx_ll_dma.h ****   *         @arg @ref LL_DMA_CHANNEL_3
1101:../system/include/stm32l4-hal-driver/stm32l4xx_ll_dma.h ****   *         @arg @ref LL_DMA_CHANNEL_4
1102:../system/include/stm32l4-hal-driver/stm32l4xx_ll_dma.h ****   *         @arg @ref LL_DMA_CHANNEL_5
1103:../system/include/stm32l4-hal-driver/stm32l4xx_ll_dma.h ****   *         @arg @ref LL_DMA_CHANNEL_6
1104:../system/include/stm32l4-hal-driver/stm32l4xx_ll_dma.h ****   *         @arg @ref LL_DMA_CHANNEL_7
1105:../system/include/stm32l4-hal-driver/stm32l4xx_ll_dma.h ****   * @param  PeriphAddress Between Min_Data = 0 and Max_Data = 0xFFFFFFFF
1106:../system/include/stm32l4-hal-driver/stm32l4xx_ll_dma.h ****   * @retval None
1107:../system/include/stm32l4-hal-driver/stm32l4xx_ll_dma.h ****   */
1108:../system/include/stm32l4-hal-driver/stm32l4xx_ll_dma.h **** __STATIC_INLINE void LL_DMA_SetPeriphAddress(DMA_TypeDef *DMAx, uint32_t Channel, uint32_t PeriphAd
1109:../system/include/stm32l4-hal-driver/stm32l4xx_ll_dma.h **** {
1110:../system/include/stm32l4-hal-driver/stm32l4xx_ll_dma.h ****   uint32_t dma_base_addr = (uint32_t)DMAx;
1111:../system/include/stm32l4-hal-driver/stm32l4xx_ll_dma.h ****   WRITE_REG(((DMA_Channel_TypeDef *)(dma_base_addr + CHANNEL_OFFSET_TAB[Channel]))->CPAR, PeriphAdd
1112:../system/include/stm32l4-hal-driver/stm32l4xx_ll_dma.h **** }
1113:../system/include/stm32l4-hal-driver/stm32l4xx_ll_dma.h **** 
1114:../system/include/stm32l4-hal-driver/stm32l4xx_ll_dma.h **** /**
1115:../system/include/stm32l4-hal-driver/stm32l4xx_ll_dma.h ****   * @brief  Get Memory address.
1116:../system/include/stm32l4-hal-driver/stm32l4xx_ll_dma.h ****   * @note   Interface used for direction LL_DMA_DIRECTION_PERIPH_TO_MEMORY or LL_DMA_DIRECTION_MEMO
1117:../system/include/stm32l4-hal-driver/stm32l4xx_ll_dma.h ****   * @rmtoll CMAR         MA            LL_DMA_GetMemoryAddress
1118:../system/include/stm32l4-hal-driver/stm32l4xx_ll_dma.h ****   * @param  DMAx DMAx Instance
1119:../system/include/stm32l4-hal-driver/stm32l4xx_ll_dma.h ****   * @param  Channel This parameter can be one of the following values:
1120:../system/include/stm32l4-hal-driver/stm32l4xx_ll_dma.h ****   *         @arg @ref LL_DMA_CHANNEL_1
1121:../system/include/stm32l4-hal-driver/stm32l4xx_ll_dma.h ****   *         @arg @ref LL_DMA_CHANNEL_2
1122:../system/include/stm32l4-hal-driver/stm32l4xx_ll_dma.h ****   *         @arg @ref LL_DMA_CHANNEL_3
1123:../system/include/stm32l4-hal-driver/stm32l4xx_ll_dma.h ****   *         @arg @ref LL_DMA_CHANNEL_4
1124:../system/include/stm32l4-hal-driver/stm32l4xx_ll_dma.h ****   *         @arg @ref LL_DMA_CHANNEL_5
1125:../system/include/stm32l4-hal-driver/stm32l4xx_ll_dma.h ****   *         @arg @ref LL_DMA_CHANNEL_6
1126:../system/include/stm32l4-hal-driver/stm32l4xx_ll_dma.h ****   *         @arg @ref LL_DMA_CHANNEL_7
1127:../system/include/stm32l4-hal-driver/stm32l4xx_ll_dma.h ****   * @retval Between Min_Data = 0 and Max_Data = 0xFFFFFFFF
1128:../system/include/stm32l4-hal-driver/stm32l4xx_ll_dma.h ****   */
1129:../system/include/stm32l4-hal-driver/stm32l4xx_ll_dma.h **** __STATIC_INLINE uint32_t LL_DMA_GetMemoryAddress(DMA_TypeDef *DMAx, uint32_t Channel)
1130:../system/include/stm32l4-hal-driver/stm32l4xx_ll_dma.h **** {
1131:../system/include/stm32l4-hal-driver/stm32l4xx_ll_dma.h ****   uint32_t dma_base_addr = (uint32_t)DMAx;
1132:../system/include/stm32l4-hal-driver/stm32l4xx_ll_dma.h ****   return (READ_REG(((DMA_Channel_TypeDef *)(dma_base_addr + CHANNEL_OFFSET_TAB[Channel]))->CMAR));
1133:../system/include/stm32l4-hal-driver/stm32l4xx_ll_dma.h **** }
1134:../system/include/stm32l4-hal-driver/stm32l4xx_ll_dma.h **** 
1135:../system/include/stm32l4-hal-driver/stm32l4xx_ll_dma.h **** /**
1136:../system/include/stm32l4-hal-driver/stm32l4xx_ll_dma.h ****   * @brief  Get Peripheral address.
1137:../system/include/stm32l4-hal-driver/stm32l4xx_ll_dma.h ****   * @note   Interface used for direction LL_DMA_DIRECTION_PERIPH_TO_MEMORY or LL_DMA_DIRECTION_MEMO
1138:../system/include/stm32l4-hal-driver/stm32l4xx_ll_dma.h ****   * @rmtoll CPAR         PA            LL_DMA_GetPeriphAddress
1139:../system/include/stm32l4-hal-driver/stm32l4xx_ll_dma.h ****   * @param  DMAx DMAx Instance
1140:../system/include/stm32l4-hal-driver/stm32l4xx_ll_dma.h ****   * @param  Channel This parameter can be one of the following values:
1141:../system/include/stm32l4-hal-driver/stm32l4xx_ll_dma.h ****   *         @arg @ref LL_DMA_CHANNEL_1
1142:../system/include/stm32l4-hal-driver/stm32l4xx_ll_dma.h ****   *         @arg @ref LL_DMA_CHANNEL_2
1143:../system/include/stm32l4-hal-driver/stm32l4xx_ll_dma.h ****   *         @arg @ref LL_DMA_CHANNEL_3
1144:../system/include/stm32l4-hal-driver/stm32l4xx_ll_dma.h ****   *         @arg @ref LL_DMA_CHANNEL_4
1145:../system/include/stm32l4-hal-driver/stm32l4xx_ll_dma.h ****   *         @arg @ref LL_DMA_CHANNEL_5
1146:../system/include/stm32l4-hal-driver/stm32l4xx_ll_dma.h ****   *         @arg @ref LL_DMA_CHANNEL_6
1147:../system/include/stm32l4-hal-driver/stm32l4xx_ll_dma.h ****   *         @arg @ref LL_DMA_CHANNEL_7
1148:../system/include/stm32l4-hal-driver/stm32l4xx_ll_dma.h ****   * @retval Between Min_Data = 0 and Max_Data = 0xFFFFFFFF
1149:../system/include/stm32l4-hal-driver/stm32l4xx_ll_dma.h ****   */
1150:../system/include/stm32l4-hal-driver/stm32l4xx_ll_dma.h **** __STATIC_INLINE uint32_t LL_DMA_GetPeriphAddress(DMA_TypeDef *DMAx, uint32_t Channel)
1151:../system/include/stm32l4-hal-driver/stm32l4xx_ll_dma.h **** {
1152:../system/include/stm32l4-hal-driver/stm32l4xx_ll_dma.h ****   uint32_t dma_base_addr = (uint32_t)DMAx;
1153:../system/include/stm32l4-hal-driver/stm32l4xx_ll_dma.h ****   return (READ_REG(((DMA_Channel_TypeDef *)(dma_base_addr + CHANNEL_OFFSET_TAB[Channel]))->CPAR));
1154:../system/include/stm32l4-hal-driver/stm32l4xx_ll_dma.h **** }
1155:../system/include/stm32l4-hal-driver/stm32l4xx_ll_dma.h **** 
1156:../system/include/stm32l4-hal-driver/stm32l4xx_ll_dma.h **** /**
1157:../system/include/stm32l4-hal-driver/stm32l4xx_ll_dma.h ****   * @brief  Set the Memory to Memory Source address.
1158:../system/include/stm32l4-hal-driver/stm32l4xx_ll_dma.h ****   * @note   Interface used for direction LL_DMA_DIRECTION_MEMORY_TO_MEMORY only.
1159:../system/include/stm32l4-hal-driver/stm32l4xx_ll_dma.h ****   * @note   This API must not be called when the DMA channel is enabled.
1160:../system/include/stm32l4-hal-driver/stm32l4xx_ll_dma.h ****   * @rmtoll CPAR         PA            LL_DMA_SetM2MSrcAddress
1161:../system/include/stm32l4-hal-driver/stm32l4xx_ll_dma.h ****   * @param  DMAx DMAx Instance
1162:../system/include/stm32l4-hal-driver/stm32l4xx_ll_dma.h ****   * @param  Channel This parameter can be one of the following values:
1163:../system/include/stm32l4-hal-driver/stm32l4xx_ll_dma.h ****   *         @arg @ref LL_DMA_CHANNEL_1
1164:../system/include/stm32l4-hal-driver/stm32l4xx_ll_dma.h ****   *         @arg @ref LL_DMA_CHANNEL_2
1165:../system/include/stm32l4-hal-driver/stm32l4xx_ll_dma.h ****   *         @arg @ref LL_DMA_CHANNEL_3
1166:../system/include/stm32l4-hal-driver/stm32l4xx_ll_dma.h ****   *         @arg @ref LL_DMA_CHANNEL_4
1167:../system/include/stm32l4-hal-driver/stm32l4xx_ll_dma.h ****   *         @arg @ref LL_DMA_CHANNEL_5
1168:../system/include/stm32l4-hal-driver/stm32l4xx_ll_dma.h ****   *         @arg @ref LL_DMA_CHANNEL_6
1169:../system/include/stm32l4-hal-driver/stm32l4xx_ll_dma.h ****   *         @arg @ref LL_DMA_CHANNEL_7
1170:../system/include/stm32l4-hal-driver/stm32l4xx_ll_dma.h ****   * @param  MemoryAddress Between Min_Data = 0 and Max_Data = 0xFFFFFFFF
1171:../system/include/stm32l4-hal-driver/stm32l4xx_ll_dma.h ****   * @retval None
1172:../system/include/stm32l4-hal-driver/stm32l4xx_ll_dma.h ****   */
1173:../system/include/stm32l4-hal-driver/stm32l4xx_ll_dma.h **** __STATIC_INLINE void LL_DMA_SetM2MSrcAddress(DMA_TypeDef *DMAx, uint32_t Channel, uint32_t MemoryAd
1174:../system/include/stm32l4-hal-driver/stm32l4xx_ll_dma.h **** {
1175:../system/include/stm32l4-hal-driver/stm32l4xx_ll_dma.h ****   uint32_t dma_base_addr = (uint32_t)DMAx;
1176:../system/include/stm32l4-hal-driver/stm32l4xx_ll_dma.h ****   WRITE_REG(((DMA_Channel_TypeDef *)(dma_base_addr + CHANNEL_OFFSET_TAB[Channel]))->CPAR, MemoryAdd
1177:../system/include/stm32l4-hal-driver/stm32l4xx_ll_dma.h **** }
1178:../system/include/stm32l4-hal-driver/stm32l4xx_ll_dma.h **** 
1179:../system/include/stm32l4-hal-driver/stm32l4xx_ll_dma.h **** /**
1180:../system/include/stm32l4-hal-driver/stm32l4xx_ll_dma.h ****   * @brief  Set the Memory to Memory Destination address.
1181:../system/include/stm32l4-hal-driver/stm32l4xx_ll_dma.h ****   * @note   Interface used for direction LL_DMA_DIRECTION_MEMORY_TO_MEMORY only.
1182:../system/include/stm32l4-hal-driver/stm32l4xx_ll_dma.h ****   * @note   This API must not be called when the DMA channel is enabled.
1183:../system/include/stm32l4-hal-driver/stm32l4xx_ll_dma.h ****   * @rmtoll CMAR         MA            LL_DMA_SetM2MDstAddress
1184:../system/include/stm32l4-hal-driver/stm32l4xx_ll_dma.h ****   * @param  DMAx DMAx Instance
1185:../system/include/stm32l4-hal-driver/stm32l4xx_ll_dma.h ****   * @param  Channel This parameter can be one of the following values:
1186:../system/include/stm32l4-hal-driver/stm32l4xx_ll_dma.h ****   *         @arg @ref LL_DMA_CHANNEL_1
1187:../system/include/stm32l4-hal-driver/stm32l4xx_ll_dma.h ****   *         @arg @ref LL_DMA_CHANNEL_2
1188:../system/include/stm32l4-hal-driver/stm32l4xx_ll_dma.h ****   *         @arg @ref LL_DMA_CHANNEL_3
1189:../system/include/stm32l4-hal-driver/stm32l4xx_ll_dma.h ****   *         @arg @ref LL_DMA_CHANNEL_4
1190:../system/include/stm32l4-hal-driver/stm32l4xx_ll_dma.h ****   *         @arg @ref LL_DMA_CHANNEL_5
1191:../system/include/stm32l4-hal-driver/stm32l4xx_ll_dma.h ****   *         @arg @ref LL_DMA_CHANNEL_6
1192:../system/include/stm32l4-hal-driver/stm32l4xx_ll_dma.h ****   *         @arg @ref LL_DMA_CHANNEL_7
1193:../system/include/stm32l4-hal-driver/stm32l4xx_ll_dma.h ****   * @param  MemoryAddress Between Min_Data = 0 and Max_Data = 0xFFFFFFFF
1194:../system/include/stm32l4-hal-driver/stm32l4xx_ll_dma.h ****   * @retval None
1195:../system/include/stm32l4-hal-driver/stm32l4xx_ll_dma.h ****   */
1196:../system/include/stm32l4-hal-driver/stm32l4xx_ll_dma.h **** __STATIC_INLINE void LL_DMA_SetM2MDstAddress(DMA_TypeDef *DMAx, uint32_t Channel, uint32_t MemoryAd
1197:../system/include/stm32l4-hal-driver/stm32l4xx_ll_dma.h **** {
1198:../system/include/stm32l4-hal-driver/stm32l4xx_ll_dma.h ****   uint32_t dma_base_addr = (uint32_t)DMAx;
1199:../system/include/stm32l4-hal-driver/stm32l4xx_ll_dma.h ****   WRITE_REG(((DMA_Channel_TypeDef *)(dma_base_addr + CHANNEL_OFFSET_TAB[Channel]))->CMAR, MemoryAdd
1200:../system/include/stm32l4-hal-driver/stm32l4xx_ll_dma.h **** }
1201:../system/include/stm32l4-hal-driver/stm32l4xx_ll_dma.h **** 
1202:../system/include/stm32l4-hal-driver/stm32l4xx_ll_dma.h **** /**
1203:../system/include/stm32l4-hal-driver/stm32l4xx_ll_dma.h ****   * @brief  Get the Memory to Memory Source address.
1204:../system/include/stm32l4-hal-driver/stm32l4xx_ll_dma.h ****   * @note   Interface used for direction LL_DMA_DIRECTION_MEMORY_TO_MEMORY only.
1205:../system/include/stm32l4-hal-driver/stm32l4xx_ll_dma.h ****   * @rmtoll CPAR         PA            LL_DMA_GetM2MSrcAddress
1206:../system/include/stm32l4-hal-driver/stm32l4xx_ll_dma.h ****   * @param  DMAx DMAx Instance
1207:../system/include/stm32l4-hal-driver/stm32l4xx_ll_dma.h ****   * @param  Channel This parameter can be one of the following values:
1208:../system/include/stm32l4-hal-driver/stm32l4xx_ll_dma.h ****   *         @arg @ref LL_DMA_CHANNEL_1
1209:../system/include/stm32l4-hal-driver/stm32l4xx_ll_dma.h ****   *         @arg @ref LL_DMA_CHANNEL_2
1210:../system/include/stm32l4-hal-driver/stm32l4xx_ll_dma.h ****   *         @arg @ref LL_DMA_CHANNEL_3
1211:../system/include/stm32l4-hal-driver/stm32l4xx_ll_dma.h ****   *         @arg @ref LL_DMA_CHANNEL_4
1212:../system/include/stm32l4-hal-driver/stm32l4xx_ll_dma.h ****   *         @arg @ref LL_DMA_CHANNEL_5
1213:../system/include/stm32l4-hal-driver/stm32l4xx_ll_dma.h ****   *         @arg @ref LL_DMA_CHANNEL_6
1214:../system/include/stm32l4-hal-driver/stm32l4xx_ll_dma.h ****   *         @arg @ref LL_DMA_CHANNEL_7
1215:../system/include/stm32l4-hal-driver/stm32l4xx_ll_dma.h ****   * @retval Between Min_Data = 0 and Max_Data = 0xFFFFFFFF
1216:../system/include/stm32l4-hal-driver/stm32l4xx_ll_dma.h ****   */
1217:../system/include/stm32l4-hal-driver/stm32l4xx_ll_dma.h **** __STATIC_INLINE uint32_t LL_DMA_GetM2MSrcAddress(DMA_TypeDef *DMAx, uint32_t Channel)
1218:../system/include/stm32l4-hal-driver/stm32l4xx_ll_dma.h **** {
1219:../system/include/stm32l4-hal-driver/stm32l4xx_ll_dma.h ****   uint32_t dma_base_addr = (uint32_t)DMAx;
1220:../system/include/stm32l4-hal-driver/stm32l4xx_ll_dma.h ****   return (READ_REG(((DMA_Channel_TypeDef *)(dma_base_addr + CHANNEL_OFFSET_TAB[Channel]))->CPAR));
1221:../system/include/stm32l4-hal-driver/stm32l4xx_ll_dma.h **** }
1222:../system/include/stm32l4-hal-driver/stm32l4xx_ll_dma.h **** 
1223:../system/include/stm32l4-hal-driver/stm32l4xx_ll_dma.h **** /**
1224:../system/include/stm32l4-hal-driver/stm32l4xx_ll_dma.h ****   * @brief  Get the Memory to Memory Destination address.
1225:../system/include/stm32l4-hal-driver/stm32l4xx_ll_dma.h ****   * @note   Interface used for direction LL_DMA_DIRECTION_MEMORY_TO_MEMORY only.
1226:../system/include/stm32l4-hal-driver/stm32l4xx_ll_dma.h ****   * @rmtoll CMAR         MA            LL_DMA_GetM2MDstAddress
1227:../system/include/stm32l4-hal-driver/stm32l4xx_ll_dma.h ****   * @param  DMAx DMAx Instance
1228:../system/include/stm32l4-hal-driver/stm32l4xx_ll_dma.h ****   * @param  Channel This parameter can be one of the following values:
1229:../system/include/stm32l4-hal-driver/stm32l4xx_ll_dma.h ****   *         @arg @ref LL_DMA_CHANNEL_1
1230:../system/include/stm32l4-hal-driver/stm32l4xx_ll_dma.h ****   *         @arg @ref LL_DMA_CHANNEL_2
1231:../system/include/stm32l4-hal-driver/stm32l4xx_ll_dma.h ****   *         @arg @ref LL_DMA_CHANNEL_3
1232:../system/include/stm32l4-hal-driver/stm32l4xx_ll_dma.h ****   *         @arg @ref LL_DMA_CHANNEL_4
1233:../system/include/stm32l4-hal-driver/stm32l4xx_ll_dma.h ****   *         @arg @ref LL_DMA_CHANNEL_5
1234:../system/include/stm32l4-hal-driver/stm32l4xx_ll_dma.h ****   *         @arg @ref LL_DMA_CHANNEL_6
1235:../system/include/stm32l4-hal-driver/stm32l4xx_ll_dma.h ****   *         @arg @ref LL_DMA_CHANNEL_7
1236:../system/include/stm32l4-hal-driver/stm32l4xx_ll_dma.h ****   * @retval Between Min_Data = 0 and Max_Data = 0xFFFFFFFF
1237:../system/include/stm32l4-hal-driver/stm32l4xx_ll_dma.h ****   */
1238:../system/include/stm32l4-hal-driver/stm32l4xx_ll_dma.h **** __STATIC_INLINE uint32_t LL_DMA_GetM2MDstAddress(DMA_TypeDef *DMAx, uint32_t Channel)
1239:../system/include/stm32l4-hal-driver/stm32l4xx_ll_dma.h **** {
1240:../system/include/stm32l4-hal-driver/stm32l4xx_ll_dma.h ****   uint32_t dma_base_addr = (uint32_t)DMAx;
1241:../system/include/stm32l4-hal-driver/stm32l4xx_ll_dma.h ****   return (READ_REG(((DMA_Channel_TypeDef *)(dma_base_addr + CHANNEL_OFFSET_TAB[Channel]))->CMAR));
1242:../system/include/stm32l4-hal-driver/stm32l4xx_ll_dma.h **** }
1243:../system/include/stm32l4-hal-driver/stm32l4xx_ll_dma.h **** 
1244:../system/include/stm32l4-hal-driver/stm32l4xx_ll_dma.h **** #if defined(DMAMUX1)
1245:../system/include/stm32l4-hal-driver/stm32l4xx_ll_dma.h **** /**
1246:../system/include/stm32l4-hal-driver/stm32l4xx_ll_dma.h ****   * @brief  Set DMA request for DMA Channels on DMAMUX Channel x.
1247:../system/include/stm32l4-hal-driver/stm32l4xx_ll_dma.h ****   * @note   DMAMUX channel 0 to 6 are mapped to DMA1 channel 1 to 7.
1248:../system/include/stm32l4-hal-driver/stm32l4xx_ll_dma.h ****   *         DMAMUX channel 7 to 13 are mapped to DMA2 channel 1 to 7.
1249:../system/include/stm32l4-hal-driver/stm32l4xx_ll_dma.h ****   * @rmtoll CxCR         DMAREQ_ID     LL_DMA_SetPeriphRequest
1250:../system/include/stm32l4-hal-driver/stm32l4xx_ll_dma.h ****   * @param  DMAx DMAx Instance
1251:../system/include/stm32l4-hal-driver/stm32l4xx_ll_dma.h ****   * @param  Channel This parameter can be one of the following values:
1252:../system/include/stm32l4-hal-driver/stm32l4xx_ll_dma.h ****   *         @arg @ref LL_DMA_CHANNEL_1
1253:../system/include/stm32l4-hal-driver/stm32l4xx_ll_dma.h ****   *         @arg @ref LL_DMA_CHANNEL_2
1254:../system/include/stm32l4-hal-driver/stm32l4xx_ll_dma.h ****   *         @arg @ref LL_DMA_CHANNEL_3
1255:../system/include/stm32l4-hal-driver/stm32l4xx_ll_dma.h ****   *         @arg @ref LL_DMA_CHANNEL_4
1256:../system/include/stm32l4-hal-driver/stm32l4xx_ll_dma.h ****   *         @arg @ref LL_DMA_CHANNEL_5
1257:../system/include/stm32l4-hal-driver/stm32l4xx_ll_dma.h ****   *         @arg @ref LL_DMA_CHANNEL_6
1258:../system/include/stm32l4-hal-driver/stm32l4xx_ll_dma.h ****   *         @arg @ref LL_DMA_CHANNEL_7
1259:../system/include/stm32l4-hal-driver/stm32l4xx_ll_dma.h ****   * @param  Request This parameter can be one of the following values:
1260:../system/include/stm32l4-hal-driver/stm32l4xx_ll_dma.h ****   *         @arg @ref LL_DMAMUX_REQ_MEM2MEM
1261:../system/include/stm32l4-hal-driver/stm32l4xx_ll_dma.h ****   *         @arg @ref LL_DMAMUX_REQ_GENERATOR0
1262:../system/include/stm32l4-hal-driver/stm32l4xx_ll_dma.h ****   *         @arg @ref LL_DMAMUX_REQ_GENERATOR1
1263:../system/include/stm32l4-hal-driver/stm32l4xx_ll_dma.h ****   *         @arg @ref LL_DMAMUX_REQ_GENERATOR2
1264:../system/include/stm32l4-hal-driver/stm32l4xx_ll_dma.h ****   *         @arg @ref LL_DMAMUX_REQ_GENERATOR3
1265:../system/include/stm32l4-hal-driver/stm32l4xx_ll_dma.h ****   *         @arg @ref LL_DMAMUX_REQ_ADC1
1266:../system/include/stm32l4-hal-driver/stm32l4xx_ll_dma.h ****   *         @arg @ref LL_DMAMUX_REQ_ADC2
1267:../system/include/stm32l4-hal-driver/stm32l4xx_ll_dma.h ****   *         @arg @ref LL_DMAMUX_REQ_DAC1_CH1
1268:../system/include/stm32l4-hal-driver/stm32l4xx_ll_dma.h ****   *         @arg @ref LL_DMAMUX_REQ_DAC1_CH2
1269:../system/include/stm32l4-hal-driver/stm32l4xx_ll_dma.h ****   *         @arg @ref LL_DMAMUX_REQ_TIM6_UP
1270:../system/include/stm32l4-hal-driver/stm32l4xx_ll_dma.h ****   *         @arg @ref LL_DMAMUX_REQ_TIM7_UP
1271:../system/include/stm32l4-hal-driver/stm32l4xx_ll_dma.h ****   *         @arg @ref LL_DMAMUX_REQ_SPI1_RX
1272:../system/include/stm32l4-hal-driver/stm32l4xx_ll_dma.h ****   *         @arg @ref LL_DMAMUX_REQ_SPI1_TX
1273:../system/include/stm32l4-hal-driver/stm32l4xx_ll_dma.h ****   *         @arg @ref LL_DMAMUX_REQ_SPI2_RX
1274:../system/include/stm32l4-hal-driver/stm32l4xx_ll_dma.h ****   *         @arg @ref LL_DMAMUX_REQ_SPI2_TX
1275:../system/include/stm32l4-hal-driver/stm32l4xx_ll_dma.h ****   *         @arg @ref LL_DMAMUX_REQ_SPI3_RX
1276:../system/include/stm32l4-hal-driver/stm32l4xx_ll_dma.h ****   *         @arg @ref LL_DMAMUX_REQ_SPI3_TX
1277:../system/include/stm32l4-hal-driver/stm32l4xx_ll_dma.h ****   *         @arg @ref LL_DMAMUX_REQ_I2C1_RX
1278:../system/include/stm32l4-hal-driver/stm32l4xx_ll_dma.h ****   *         @arg @ref LL_DMAMUX_REQ_I2C1_TX
1279:../system/include/stm32l4-hal-driver/stm32l4xx_ll_dma.h ****   *         @arg @ref LL_DMAMUX_REQ_I2C2_RX
1280:../system/include/stm32l4-hal-driver/stm32l4xx_ll_dma.h ****   *         @arg @ref LL_DMAMUX_REQ_I2C2_TX
1281:../system/include/stm32l4-hal-driver/stm32l4xx_ll_dma.h ****   *         @arg @ref LL_DMAMUX_REQ_I2C3_RX
1282:../system/include/stm32l4-hal-driver/stm32l4xx_ll_dma.h ****   *         @arg @ref LL_DMAMUX_REQ_I2C3_TX
1283:../system/include/stm32l4-hal-driver/stm32l4xx_ll_dma.h ****   *         @arg @ref LL_DMAMUX_REQ_I2C4_RX
1284:../system/include/stm32l4-hal-driver/stm32l4xx_ll_dma.h ****   *         @arg @ref LL_DMAMUX_REQ_I2C4_TX
1285:../system/include/stm32l4-hal-driver/stm32l4xx_ll_dma.h ****   *         @arg @ref LL_DMAMUX_REQ_USART1_RX
1286:../system/include/stm32l4-hal-driver/stm32l4xx_ll_dma.h ****   *         @arg @ref LL_DMAMUX_REQ_USART1_TX
1287:../system/include/stm32l4-hal-driver/stm32l4xx_ll_dma.h ****   *         @arg @ref LL_DMAMUX_REQ_USART2_RX
1288:../system/include/stm32l4-hal-driver/stm32l4xx_ll_dma.h ****   *         @arg @ref LL_DMAMUX_REQ_USART2_TX
1289:../system/include/stm32l4-hal-driver/stm32l4xx_ll_dma.h ****   *         @arg @ref LL_DMAMUX_REQ_USART3_RX
1290:../system/include/stm32l4-hal-driver/stm32l4xx_ll_dma.h ****   *         @arg @ref LL_DMAMUX_REQ_USART3_TX
1291:../system/include/stm32l4-hal-driver/stm32l4xx_ll_dma.h ****   *         @arg @ref LL_DMAMUX_REQ_UART4_RX
1292:../system/include/stm32l4-hal-driver/stm32l4xx_ll_dma.h ****   *         @arg @ref LL_DMAMUX_REQ_UART4_TX
1293:../system/include/stm32l4-hal-driver/stm32l4xx_ll_dma.h ****   *         @arg @ref LL_DMAMUX_REQ_UART5_RX
1294:../system/include/stm32l4-hal-driver/stm32l4xx_ll_dma.h ****   *         @arg @ref LL_DMAMUX_REQ_UART5_TX
1295:../system/include/stm32l4-hal-driver/stm32l4xx_ll_dma.h ****   *         @arg @ref LL_DMAMUX_REQ_LPUART1_RX
1296:../system/include/stm32l4-hal-driver/stm32l4xx_ll_dma.h ****   *         @arg @ref LL_DMAMUX_REQ_LPUART1_TX
1297:../system/include/stm32l4-hal-driver/stm32l4xx_ll_dma.h ****   *         @arg @ref LL_DMAMUX_REQ_SAI1_A
1298:../system/include/stm32l4-hal-driver/stm32l4xx_ll_dma.h ****   *         @arg @ref LL_DMAMUX_REQ_SAI1_B
1299:../system/include/stm32l4-hal-driver/stm32l4xx_ll_dma.h ****   *         @arg @ref LL_DMAMUX_REQ_SAI2_A
1300:../system/include/stm32l4-hal-driver/stm32l4xx_ll_dma.h ****   *         @arg @ref LL_DMAMUX_REQ_SAI2_B
1301:../system/include/stm32l4-hal-driver/stm32l4xx_ll_dma.h ****   *         @arg @ref LL_DMAMUX_REQ_OSPI1
1302:../system/include/stm32l4-hal-driver/stm32l4xx_ll_dma.h ****   *         @arg @ref LL_DMAMUX_REQ_OSPI2
1303:../system/include/stm32l4-hal-driver/stm32l4xx_ll_dma.h ****   *         @arg @ref LL_DMAMUX_REQ_TIM1_CH1
1304:../system/include/stm32l4-hal-driver/stm32l4xx_ll_dma.h ****   *         @arg @ref LL_DMAMUX_REQ_TIM1_CH2
1305:../system/include/stm32l4-hal-driver/stm32l4xx_ll_dma.h ****   *         @arg @ref LL_DMAMUX_REQ_TIM1_CH3
1306:../system/include/stm32l4-hal-driver/stm32l4xx_ll_dma.h ****   *         @arg @ref LL_DMAMUX_REQ_TIM1_CH4
1307:../system/include/stm32l4-hal-driver/stm32l4xx_ll_dma.h ****   *         @arg @ref LL_DMAMUX_REQ_TIM1_UP
1308:../system/include/stm32l4-hal-driver/stm32l4xx_ll_dma.h ****   *         @arg @ref LL_DMAMUX_REQ_TIM1_TRIG
1309:../system/include/stm32l4-hal-driver/stm32l4xx_ll_dma.h ****   *         @arg @ref LL_DMAMUX_REQ_TIM1_COM
1310:../system/include/stm32l4-hal-driver/stm32l4xx_ll_dma.h ****   *         @arg @ref LL_DMAMUX_REQ_TIM8_CH1
1311:../system/include/stm32l4-hal-driver/stm32l4xx_ll_dma.h ****   *         @arg @ref LL_DMAMUX_REQ_TIM8_CH2
1312:../system/include/stm32l4-hal-driver/stm32l4xx_ll_dma.h ****   *         @arg @ref LL_DMAMUX_REQ_TIM8_CH3
1313:../system/include/stm32l4-hal-driver/stm32l4xx_ll_dma.h ****   *         @arg @ref LL_DMAMUX_REQ_TIM8_CH4
1314:../system/include/stm32l4-hal-driver/stm32l4xx_ll_dma.h ****   *         @arg @ref LL_DMAMUX_REQ_TIM8_UP
1315:../system/include/stm32l4-hal-driver/stm32l4xx_ll_dma.h ****   *         @arg @ref LL_DMAMUX_REQ_TIM8_TRIG
1316:../system/include/stm32l4-hal-driver/stm32l4xx_ll_dma.h ****   *         @arg @ref LL_DMAMUX_REQ_TIM8_COM
1317:../system/include/stm32l4-hal-driver/stm32l4xx_ll_dma.h ****   *         @arg @ref LL_DMAMUX_REQ_TIM2_CH1
1318:../system/include/stm32l4-hal-driver/stm32l4xx_ll_dma.h ****   *         @arg @ref LL_DMAMUX_REQ_TIM2_CH2
1319:../system/include/stm32l4-hal-driver/stm32l4xx_ll_dma.h ****   *         @arg @ref LL_DMAMUX_REQ_TIM2_CH3
1320:../system/include/stm32l4-hal-driver/stm32l4xx_ll_dma.h ****   *         @arg @ref LL_DMAMUX_REQ_TIM2_CH4
1321:../system/include/stm32l4-hal-driver/stm32l4xx_ll_dma.h ****   *         @arg @ref LL_DMAMUX_REQ_TIM2_UP
1322:../system/include/stm32l4-hal-driver/stm32l4xx_ll_dma.h ****   *         @arg @ref LL_DMAMUX_REQ_TIM3_CH1
1323:../system/include/stm32l4-hal-driver/stm32l4xx_ll_dma.h ****   *         @arg @ref LL_DMAMUX_REQ_TIM3_CH2
1324:../system/include/stm32l4-hal-driver/stm32l4xx_ll_dma.h ****   *         @arg @ref LL_DMAMUX_REQ_TIM3_CH3
1325:../system/include/stm32l4-hal-driver/stm32l4xx_ll_dma.h ****   *         @arg @ref LL_DMAMUX_REQ_TIM3_CH4
1326:../system/include/stm32l4-hal-driver/stm32l4xx_ll_dma.h ****   *         @arg @ref LL_DMAMUX_REQ_TIM3_UP
1327:../system/include/stm32l4-hal-driver/stm32l4xx_ll_dma.h ****   *         @arg @ref LL_DMAMUX_REQ_TIM3_TRIG
1328:../system/include/stm32l4-hal-driver/stm32l4xx_ll_dma.h ****   *         @arg @ref LL_DMAMUX_REQ_TIM4_CH1
1329:../system/include/stm32l4-hal-driver/stm32l4xx_ll_dma.h ****   *         @arg @ref LL_DMAMUX_REQ_TIM4_CH2
1330:../system/include/stm32l4-hal-driver/stm32l4xx_ll_dma.h ****   *         @arg @ref LL_DMAMUX_REQ_TIM4_CH3
1331:../system/include/stm32l4-hal-driver/stm32l4xx_ll_dma.h ****   *         @arg @ref LL_DMAMUX_REQ_TIM4_CH4
1332:../system/include/stm32l4-hal-driver/stm32l4xx_ll_dma.h ****   *         @arg @ref LL_DMAMUX_REQ_TIM4_UP
1333:../system/include/stm32l4-hal-driver/stm32l4xx_ll_dma.h ****   *         @arg @ref LL_DMAMUX_REQ_TIM5_CH1
1334:../system/include/stm32l4-hal-driver/stm32l4xx_ll_dma.h ****   *         @arg @ref LL_DMAMUX_REQ_TIM5_CH2
1335:../system/include/stm32l4-hal-driver/stm32l4xx_ll_dma.h ****   *         @arg @ref LL_DMAMUX_REQ_TIM5_CH3
1336:../system/include/stm32l4-hal-driver/stm32l4xx_ll_dma.h ****   *         @arg @ref LL_DMAMUX_REQ_TIM5_CH4
1337:../system/include/stm32l4-hal-driver/stm32l4xx_ll_dma.h ****   *         @arg @ref LL_DMAMUX_REQ_TIM5_UP
1338:../system/include/stm32l4-hal-driver/stm32l4xx_ll_dma.h ****   *         @arg @ref LL_DMAMUX_REQ_TIM5_TRIG
1339:../system/include/stm32l4-hal-driver/stm32l4xx_ll_dma.h ****   *         @arg @ref LL_DMAMUX_REQ_TIM15_CH1
1340:../system/include/stm32l4-hal-driver/stm32l4xx_ll_dma.h ****   *         @arg @ref LL_DMAMUX_REQ_TIM15_UP
1341:../system/include/stm32l4-hal-driver/stm32l4xx_ll_dma.h ****   *         @arg @ref LL_DMAMUX_REQ_TIM15_TRIG
1342:../system/include/stm32l4-hal-driver/stm32l4xx_ll_dma.h ****   *         @arg @ref LL_DMAMUX_REQ_TIM15_COM
1343:../system/include/stm32l4-hal-driver/stm32l4xx_ll_dma.h ****   *         @arg @ref LL_DMAMUX_REQ_TIM16_CH1
1344:../system/include/stm32l4-hal-driver/stm32l4xx_ll_dma.h ****   *         @arg @ref LL_DMAMUX_REQ_TIM16_UP
1345:../system/include/stm32l4-hal-driver/stm32l4xx_ll_dma.h ****   *         @arg @ref LL_DMAMUX_REQ_TIM17_CH1
1346:../system/include/stm32l4-hal-driver/stm32l4xx_ll_dma.h ****   *         @arg @ref LL_DMAMUX_REQ_TIM17_UP
1347:../system/include/stm32l4-hal-driver/stm32l4xx_ll_dma.h ****   *         @arg @ref LL_DMAMUX_REQ_DFSDM1_FLT0
1348:../system/include/stm32l4-hal-driver/stm32l4xx_ll_dma.h ****   *         @arg @ref LL_DMAMUX_REQ_DFSDM1_FLT1
1349:../system/include/stm32l4-hal-driver/stm32l4xx_ll_dma.h ****   *         @arg @ref LL_DMAMUX_REQ_DFSDM1_FLT2
1350:../system/include/stm32l4-hal-driver/stm32l4xx_ll_dma.h ****   *         @arg @ref LL_DMAMUX_REQ_DFSDM1_FLT3
1351:../system/include/stm32l4-hal-driver/stm32l4xx_ll_dma.h ****   *         @arg @ref LL_DMAMUX_REQ_DCMI
1352:../system/include/stm32l4-hal-driver/stm32l4xx_ll_dma.h ****   *         @arg @ref LL_DMAMUX_REQ_DCMI_PSSI
1353:../system/include/stm32l4-hal-driver/stm32l4xx_ll_dma.h ****   *         @arg @ref LL_DMAMUX_REQ_AES_IN
1354:../system/include/stm32l4-hal-driver/stm32l4xx_ll_dma.h ****   *         @arg @ref LL_DMAMUX_REQ_AES_OUT
1355:../system/include/stm32l4-hal-driver/stm32l4xx_ll_dma.h ****   *         @arg @ref LL_DMAMUX_REQ_HASH_IN
1356:../system/include/stm32l4-hal-driver/stm32l4xx_ll_dma.h ****   * @retval None
1357:../system/include/stm32l4-hal-driver/stm32l4xx_ll_dma.h ****   */
1358:../system/include/stm32l4-hal-driver/stm32l4xx_ll_dma.h **** __STATIC_INLINE void LL_DMA_SetPeriphRequest(DMA_TypeDef *DMAx, uint32_t Channel, uint32_t Request)
1359:../system/include/stm32l4-hal-driver/stm32l4xx_ll_dma.h **** {
1360:../system/include/stm32l4-hal-driver/stm32l4xx_ll_dma.h ****   uint32_t dmamux_ccr_offset = ((((uint32_t)DMAx ^ (uint32_t)DMA1) >> 10U) * 7U);
1361:../system/include/stm32l4-hal-driver/stm32l4xx_ll_dma.h ****   MODIFY_REG((DMAMUX1_Channel0 + Channel + dmamux_ccr_offset)->CCR, DMAMUX_CxCR_DMAREQ_ID, Request)
1362:../system/include/stm32l4-hal-driver/stm32l4xx_ll_dma.h **** }
1363:../system/include/stm32l4-hal-driver/stm32l4xx_ll_dma.h **** 
1364:../system/include/stm32l4-hal-driver/stm32l4xx_ll_dma.h **** /**
1365:../system/include/stm32l4-hal-driver/stm32l4xx_ll_dma.h ****   * @brief  Get DMA request for DMA Channels on DMAMUX Channel x.
1366:../system/include/stm32l4-hal-driver/stm32l4xx_ll_dma.h ****   * @note   DMAMUX channel 0 to 6 are mapped to DMA1 channel 1 to 7.
1367:../system/include/stm32l4-hal-driver/stm32l4xx_ll_dma.h ****   *         DMAMUX channel 7 to 13 are mapped to DMA2 channel 1 to 7.
1368:../system/include/stm32l4-hal-driver/stm32l4xx_ll_dma.h ****   * @rmtoll CxCR         DMAREQ_ID     LL_DMA_GetPeriphRequest
1369:../system/include/stm32l4-hal-driver/stm32l4xx_ll_dma.h ****   * @param  DMAx DMAx Instance
1370:../system/include/stm32l4-hal-driver/stm32l4xx_ll_dma.h ****   * @param  Channel This parameter can be one of the following values:
1371:../system/include/stm32l4-hal-driver/stm32l4xx_ll_dma.h ****   *         @arg @ref LL_DMA_CHANNEL_1
1372:../system/include/stm32l4-hal-driver/stm32l4xx_ll_dma.h ****   *         @arg @ref LL_DMA_CHANNEL_2
1373:../system/include/stm32l4-hal-driver/stm32l4xx_ll_dma.h ****   *         @arg @ref LL_DMA_CHANNEL_3
1374:../system/include/stm32l4-hal-driver/stm32l4xx_ll_dma.h ****   *         @arg @ref LL_DMA_CHANNEL_4
1375:../system/include/stm32l4-hal-driver/stm32l4xx_ll_dma.h ****   *         @arg @ref LL_DMA_CHANNEL_5
1376:../system/include/stm32l4-hal-driver/stm32l4xx_ll_dma.h ****   *         @arg @ref LL_DMA_CHANNEL_6
1377:../system/include/stm32l4-hal-driver/stm32l4xx_ll_dma.h ****   *         @arg @ref LL_DMA_CHANNEL_7
1378:../system/include/stm32l4-hal-driver/stm32l4xx_ll_dma.h ****   * @retval Returned value can be one of the following values:
1379:../system/include/stm32l4-hal-driver/stm32l4xx_ll_dma.h ****   *         @arg @ref LL_DMAMUX_REQ_MEM2MEM
1380:../system/include/stm32l4-hal-driver/stm32l4xx_ll_dma.h ****   *         @arg @ref LL_DMAMUX_REQ_GENERATOR0
1381:../system/include/stm32l4-hal-driver/stm32l4xx_ll_dma.h ****   *         @arg @ref LL_DMAMUX_REQ_GENERATOR1
1382:../system/include/stm32l4-hal-driver/stm32l4xx_ll_dma.h ****   *         @arg @ref LL_DMAMUX_REQ_GENERATOR2
1383:../system/include/stm32l4-hal-driver/stm32l4xx_ll_dma.h ****   *         @arg @ref LL_DMAMUX_REQ_GENERATOR3
1384:../system/include/stm32l4-hal-driver/stm32l4xx_ll_dma.h ****   *         @arg @ref LL_DMAMUX_REQ_ADC1
1385:../system/include/stm32l4-hal-driver/stm32l4xx_ll_dma.h ****   *         @arg @ref LL_DMAMUX_REQ_ADC2
1386:../system/include/stm32l4-hal-driver/stm32l4xx_ll_dma.h ****   *         @arg @ref LL_DMAMUX_REQ_DAC1_CH1
1387:../system/include/stm32l4-hal-driver/stm32l4xx_ll_dma.h ****   *         @arg @ref LL_DMAMUX_REQ_DAC1_CH2
1388:../system/include/stm32l4-hal-driver/stm32l4xx_ll_dma.h ****   *         @arg @ref LL_DMAMUX_REQ_TIM6_UP
1389:../system/include/stm32l4-hal-driver/stm32l4xx_ll_dma.h ****   *         @arg @ref LL_DMAMUX_REQ_TIM7_UP
1390:../system/include/stm32l4-hal-driver/stm32l4xx_ll_dma.h ****   *         @arg @ref LL_DMAMUX_REQ_SPI1_RX
1391:../system/include/stm32l4-hal-driver/stm32l4xx_ll_dma.h ****   *         @arg @ref LL_DMAMUX_REQ_SPI1_TX
1392:../system/include/stm32l4-hal-driver/stm32l4xx_ll_dma.h ****   *         @arg @ref LL_DMAMUX_REQ_SPI2_RX
1393:../system/include/stm32l4-hal-driver/stm32l4xx_ll_dma.h ****   *         @arg @ref LL_DMAMUX_REQ_SPI2_TX
1394:../system/include/stm32l4-hal-driver/stm32l4xx_ll_dma.h ****   *         @arg @ref LL_DMAMUX_REQ_SPI3_RX
1395:../system/include/stm32l4-hal-driver/stm32l4xx_ll_dma.h ****   *         @arg @ref LL_DMAMUX_REQ_SPI3_TX
1396:../system/include/stm32l4-hal-driver/stm32l4xx_ll_dma.h ****   *         @arg @ref LL_DMAMUX_REQ_I2C1_RX
1397:../system/include/stm32l4-hal-driver/stm32l4xx_ll_dma.h ****   *         @arg @ref LL_DMAMUX_REQ_I2C1_TX
1398:../system/include/stm32l4-hal-driver/stm32l4xx_ll_dma.h ****   *         @arg @ref LL_DMAMUX_REQ_I2C2_RX
1399:../system/include/stm32l4-hal-driver/stm32l4xx_ll_dma.h ****   *         @arg @ref LL_DMAMUX_REQ_I2C2_TX
1400:../system/include/stm32l4-hal-driver/stm32l4xx_ll_dma.h ****   *         @arg @ref LL_DMAMUX_REQ_I2C3_RX
1401:../system/include/stm32l4-hal-driver/stm32l4xx_ll_dma.h ****   *         @arg @ref LL_DMAMUX_REQ_I2C3_TX
1402:../system/include/stm32l4-hal-driver/stm32l4xx_ll_dma.h ****   *         @arg @ref LL_DMAMUX_REQ_I2C4_RX
1403:../system/include/stm32l4-hal-driver/stm32l4xx_ll_dma.h ****   *         @arg @ref LL_DMAMUX_REQ_I2C4_TX
1404:../system/include/stm32l4-hal-driver/stm32l4xx_ll_dma.h ****   *         @arg @ref LL_DMAMUX_REQ_USART1_RX
1405:../system/include/stm32l4-hal-driver/stm32l4xx_ll_dma.h ****   *         @arg @ref LL_DMAMUX_REQ_USART1_TX
1406:../system/include/stm32l4-hal-driver/stm32l4xx_ll_dma.h ****   *         @arg @ref LL_DMAMUX_REQ_USART2_RX
1407:../system/include/stm32l4-hal-driver/stm32l4xx_ll_dma.h ****   *         @arg @ref LL_DMAMUX_REQ_USART2_TX
1408:../system/include/stm32l4-hal-driver/stm32l4xx_ll_dma.h ****   *         @arg @ref LL_DMAMUX_REQ_USART3_RX
1409:../system/include/stm32l4-hal-driver/stm32l4xx_ll_dma.h ****   *         @arg @ref LL_DMAMUX_REQ_USART3_TX
1410:../system/include/stm32l4-hal-driver/stm32l4xx_ll_dma.h ****   *         @arg @ref LL_DMAMUX_REQ_UART4_RX
1411:../system/include/stm32l4-hal-driver/stm32l4xx_ll_dma.h ****   *         @arg @ref LL_DMAMUX_REQ_UART4_TX
1412:../system/include/stm32l4-hal-driver/stm32l4xx_ll_dma.h ****   *         @arg @ref LL_DMAMUX_REQ_UART5_RX
1413:../system/include/stm32l4-hal-driver/stm32l4xx_ll_dma.h ****   *         @arg @ref LL_DMAMUX_REQ_UART5_TX
1414:../system/include/stm32l4-hal-driver/stm32l4xx_ll_dma.h ****   *         @arg @ref LL_DMAMUX_REQ_LPUART1_RX
1415:../system/include/stm32l4-hal-driver/stm32l4xx_ll_dma.h ****   *         @arg @ref LL_DMAMUX_REQ_LPUART1_TX
1416:../system/include/stm32l4-hal-driver/stm32l4xx_ll_dma.h ****   *         @arg @ref LL_DMAMUX_REQ_SAI1_A
1417:../system/include/stm32l4-hal-driver/stm32l4xx_ll_dma.h ****   *         @arg @ref LL_DMAMUX_REQ_SAI1_B
1418:../system/include/stm32l4-hal-driver/stm32l4xx_ll_dma.h ****   *         @arg @ref LL_DMAMUX_REQ_SAI2_A
1419:../system/include/stm32l4-hal-driver/stm32l4xx_ll_dma.h ****   *         @arg @ref LL_DMAMUX_REQ_SAI2_B
1420:../system/include/stm32l4-hal-driver/stm32l4xx_ll_dma.h ****   *         @arg @ref LL_DMAMUX_REQ_OSPI1
1421:../system/include/stm32l4-hal-driver/stm32l4xx_ll_dma.h ****   *         @arg @ref LL_DMAMUX_REQ_OSPI2
1422:../system/include/stm32l4-hal-driver/stm32l4xx_ll_dma.h ****   *         @arg @ref LL_DMAMUX_REQ_TIM1_CH1
1423:../system/include/stm32l4-hal-driver/stm32l4xx_ll_dma.h ****   *         @arg @ref LL_DMAMUX_REQ_TIM1_CH2
1424:../system/include/stm32l4-hal-driver/stm32l4xx_ll_dma.h ****   *         @arg @ref LL_DMAMUX_REQ_TIM1_CH3
1425:../system/include/stm32l4-hal-driver/stm32l4xx_ll_dma.h ****   *         @arg @ref LL_DMAMUX_REQ_TIM1_CH4
1426:../system/include/stm32l4-hal-driver/stm32l4xx_ll_dma.h ****   *         @arg @ref LL_DMAMUX_REQ_TIM1_UP
1427:../system/include/stm32l4-hal-driver/stm32l4xx_ll_dma.h ****   *         @arg @ref LL_DMAMUX_REQ_TIM1_TRIG
1428:../system/include/stm32l4-hal-driver/stm32l4xx_ll_dma.h ****   *         @arg @ref LL_DMAMUX_REQ_TIM1_COM
1429:../system/include/stm32l4-hal-driver/stm32l4xx_ll_dma.h ****   *         @arg @ref LL_DMAMUX_REQ_TIM8_CH1
1430:../system/include/stm32l4-hal-driver/stm32l4xx_ll_dma.h ****   *         @arg @ref LL_DMAMUX_REQ_TIM8_CH2
1431:../system/include/stm32l4-hal-driver/stm32l4xx_ll_dma.h ****   *         @arg @ref LL_DMAMUX_REQ_TIM8_CH3
1432:../system/include/stm32l4-hal-driver/stm32l4xx_ll_dma.h ****   *         @arg @ref LL_DMAMUX_REQ_TIM8_CH4
1433:../system/include/stm32l4-hal-driver/stm32l4xx_ll_dma.h ****   *         @arg @ref LL_DMAMUX_REQ_TIM8_UP
1434:../system/include/stm32l4-hal-driver/stm32l4xx_ll_dma.h ****   *         @arg @ref LL_DMAMUX_REQ_TIM8_TRIG
1435:../system/include/stm32l4-hal-driver/stm32l4xx_ll_dma.h ****   *         @arg @ref LL_DMAMUX_REQ_TIM8_COM
1436:../system/include/stm32l4-hal-driver/stm32l4xx_ll_dma.h ****   *         @arg @ref LL_DMAMUX_REQ_TIM2_CH1
1437:../system/include/stm32l4-hal-driver/stm32l4xx_ll_dma.h ****   *         @arg @ref LL_DMAMUX_REQ_TIM2_CH2
1438:../system/include/stm32l4-hal-driver/stm32l4xx_ll_dma.h ****   *         @arg @ref LL_DMAMUX_REQ_TIM2_CH3
1439:../system/include/stm32l4-hal-driver/stm32l4xx_ll_dma.h ****   *         @arg @ref LL_DMAMUX_REQ_TIM2_CH4
1440:../system/include/stm32l4-hal-driver/stm32l4xx_ll_dma.h ****   *         @arg @ref LL_DMAMUX_REQ_TIM2_UP
1441:../system/include/stm32l4-hal-driver/stm32l4xx_ll_dma.h ****   *         @arg @ref LL_DMAMUX_REQ_TIM3_CH1
1442:../system/include/stm32l4-hal-driver/stm32l4xx_ll_dma.h ****   *         @arg @ref LL_DMAMUX_REQ_TIM3_CH2
1443:../system/include/stm32l4-hal-driver/stm32l4xx_ll_dma.h ****   *         @arg @ref LL_DMAMUX_REQ_TIM3_CH3
1444:../system/include/stm32l4-hal-driver/stm32l4xx_ll_dma.h ****   *         @arg @ref LL_DMAMUX_REQ_TIM3_CH4
1445:../system/include/stm32l4-hal-driver/stm32l4xx_ll_dma.h ****   *         @arg @ref LL_DMAMUX_REQ_TIM3_UP
1446:../system/include/stm32l4-hal-driver/stm32l4xx_ll_dma.h ****   *         @arg @ref LL_DMAMUX_REQ_TIM3_TRIG
1447:../system/include/stm32l4-hal-driver/stm32l4xx_ll_dma.h ****   *         @arg @ref LL_DMAMUX_REQ_TIM4_CH1
1448:../system/include/stm32l4-hal-driver/stm32l4xx_ll_dma.h ****   *         @arg @ref LL_DMAMUX_REQ_TIM4_CH2
1449:../system/include/stm32l4-hal-driver/stm32l4xx_ll_dma.h ****   *         @arg @ref LL_DMAMUX_REQ_TIM4_CH3
1450:../system/include/stm32l4-hal-driver/stm32l4xx_ll_dma.h ****   *         @arg @ref LL_DMAMUX_REQ_TIM4_CH4
1451:../system/include/stm32l4-hal-driver/stm32l4xx_ll_dma.h ****   *         @arg @ref LL_DMAMUX_REQ_TIM4_UP
1452:../system/include/stm32l4-hal-driver/stm32l4xx_ll_dma.h ****   *         @arg @ref LL_DMAMUX_REQ_TIM5_CH1
1453:../system/include/stm32l4-hal-driver/stm32l4xx_ll_dma.h ****   *         @arg @ref LL_DMAMUX_REQ_TIM5_CH2
1454:../system/include/stm32l4-hal-driver/stm32l4xx_ll_dma.h ****   *         @arg @ref LL_DMAMUX_REQ_TIM5_CH3
1455:../system/include/stm32l4-hal-driver/stm32l4xx_ll_dma.h ****   *         @arg @ref LL_DMAMUX_REQ_TIM5_CH4
1456:../system/include/stm32l4-hal-driver/stm32l4xx_ll_dma.h ****   *         @arg @ref LL_DMAMUX_REQ_TIM5_UP
1457:../system/include/stm32l4-hal-driver/stm32l4xx_ll_dma.h ****   *         @arg @ref LL_DMAMUX_REQ_TIM5_TRIG
1458:../system/include/stm32l4-hal-driver/stm32l4xx_ll_dma.h ****   *         @arg @ref LL_DMAMUX_REQ_TIM15_CH1
1459:../system/include/stm32l4-hal-driver/stm32l4xx_ll_dma.h ****   *         @arg @ref LL_DMAMUX_REQ_TIM15_UP
1460:../system/include/stm32l4-hal-driver/stm32l4xx_ll_dma.h ****   *         @arg @ref LL_DMAMUX_REQ_TIM15_TRIG
1461:../system/include/stm32l4-hal-driver/stm32l4xx_ll_dma.h ****   *         @arg @ref LL_DMAMUX_REQ_TIM15_COM
1462:../system/include/stm32l4-hal-driver/stm32l4xx_ll_dma.h ****   *         @arg @ref LL_DMAMUX_REQ_TIM16_CH1
1463:../system/include/stm32l4-hal-driver/stm32l4xx_ll_dma.h ****   *         @arg @ref LL_DMAMUX_REQ_TIM16_UP
1464:../system/include/stm32l4-hal-driver/stm32l4xx_ll_dma.h ****   *         @arg @ref LL_DMAMUX_REQ_TIM17_CH1
1465:../system/include/stm32l4-hal-driver/stm32l4xx_ll_dma.h ****   *         @arg @ref LL_DMAMUX_REQ_TIM17_UP
1466:../system/include/stm32l4-hal-driver/stm32l4xx_ll_dma.h ****   *         @arg @ref LL_DMAMUX_REQ_DFSDM1_FLT0
1467:../system/include/stm32l4-hal-driver/stm32l4xx_ll_dma.h ****   *         @arg @ref LL_DMAMUX_REQ_DFSDM1_FLT1
1468:../system/include/stm32l4-hal-driver/stm32l4xx_ll_dma.h ****   *         @arg @ref LL_DMAMUX_REQ_DFSDM1_FLT2
1469:../system/include/stm32l4-hal-driver/stm32l4xx_ll_dma.h ****   *         @arg @ref LL_DMAMUX_REQ_DFSDM1_FLT3
1470:../system/include/stm32l4-hal-driver/stm32l4xx_ll_dma.h ****   *         @arg @ref LL_DMAMUX_REQ_DCMI
1471:../system/include/stm32l4-hal-driver/stm32l4xx_ll_dma.h ****   *         @arg @ref LL_DMAMUX_REQ_DCMI_PSSI
1472:../system/include/stm32l4-hal-driver/stm32l4xx_ll_dma.h ****   *         @arg @ref LL_DMAMUX_REQ_AES_IN
1473:../system/include/stm32l4-hal-driver/stm32l4xx_ll_dma.h ****   *         @arg @ref LL_DMAMUX_REQ_AES_OUT
1474:../system/include/stm32l4-hal-driver/stm32l4xx_ll_dma.h ****   *         @arg @ref LL_DMAMUX_REQ_HASH_IN
1475:../system/include/stm32l4-hal-driver/stm32l4xx_ll_dma.h ****   */
1476:../system/include/stm32l4-hal-driver/stm32l4xx_ll_dma.h **** __STATIC_INLINE uint32_t LL_DMA_GetPeriphRequest(DMA_TypeDef *DMAx, uint32_t Channel)
1477:../system/include/stm32l4-hal-driver/stm32l4xx_ll_dma.h **** {
1478:../system/include/stm32l4-hal-driver/stm32l4xx_ll_dma.h ****   uint32_t dmamux_ccr_offset = ((((uint32_t)DMAx ^ (uint32_t)DMA1) >> 10U) * 7U);
1479:../system/include/stm32l4-hal-driver/stm32l4xx_ll_dma.h ****   return (READ_BIT((DMAMUX1_Channel0 + Channel + dmamux_ccr_offset)->CCR, DMAMUX_CxCR_DMAREQ_ID));
1480:../system/include/stm32l4-hal-driver/stm32l4xx_ll_dma.h **** }
1481:../system/include/stm32l4-hal-driver/stm32l4xx_ll_dma.h **** 
1482:../system/include/stm32l4-hal-driver/stm32l4xx_ll_dma.h **** #else
1483:../system/include/stm32l4-hal-driver/stm32l4xx_ll_dma.h **** /**
1484:../system/include/stm32l4-hal-driver/stm32l4xx_ll_dma.h ****   * @brief  Set DMA request for DMA instance on Channel x.
1485:../system/include/stm32l4-hal-driver/stm32l4xx_ll_dma.h ****   * @note   Please refer to Reference Manual to get the available mapping of Request value link to 
1486:../system/include/stm32l4-hal-driver/stm32l4xx_ll_dma.h ****   * @rmtoll CSELR        C1S           LL_DMA_SetPeriphRequest\n
1487:../system/include/stm32l4-hal-driver/stm32l4xx_ll_dma.h ****   *         CSELR        C2S           LL_DMA_SetPeriphRequest\n
1488:../system/include/stm32l4-hal-driver/stm32l4xx_ll_dma.h ****   *         CSELR        C3S           LL_DMA_SetPeriphRequest\n
1489:../system/include/stm32l4-hal-driver/stm32l4xx_ll_dma.h ****   *         CSELR        C4S           LL_DMA_SetPeriphRequest\n
1490:../system/include/stm32l4-hal-driver/stm32l4xx_ll_dma.h ****   *         CSELR        C5S           LL_DMA_SetPeriphRequest\n
1491:../system/include/stm32l4-hal-driver/stm32l4xx_ll_dma.h ****   *         CSELR        C6S           LL_DMA_SetPeriphRequest\n
1492:../system/include/stm32l4-hal-driver/stm32l4xx_ll_dma.h ****   *         CSELR        C7S           LL_DMA_SetPeriphRequest
1493:../system/include/stm32l4-hal-driver/stm32l4xx_ll_dma.h ****   * @param  DMAx DMAx Instance
1494:../system/include/stm32l4-hal-driver/stm32l4xx_ll_dma.h ****   * @param  Channel This parameter can be one of the following values:
1495:../system/include/stm32l4-hal-driver/stm32l4xx_ll_dma.h ****   *         @arg @ref LL_DMA_CHANNEL_1
1496:../system/include/stm32l4-hal-driver/stm32l4xx_ll_dma.h ****   *         @arg @ref LL_DMA_CHANNEL_2
1497:../system/include/stm32l4-hal-driver/stm32l4xx_ll_dma.h ****   *         @arg @ref LL_DMA_CHANNEL_3
1498:../system/include/stm32l4-hal-driver/stm32l4xx_ll_dma.h ****   *         @arg @ref LL_DMA_CHANNEL_4
1499:../system/include/stm32l4-hal-driver/stm32l4xx_ll_dma.h ****   *         @arg @ref LL_DMA_CHANNEL_5
1500:../system/include/stm32l4-hal-driver/stm32l4xx_ll_dma.h ****   *         @arg @ref LL_DMA_CHANNEL_6
1501:../system/include/stm32l4-hal-driver/stm32l4xx_ll_dma.h ****   *         @arg @ref LL_DMA_CHANNEL_7
1502:../system/include/stm32l4-hal-driver/stm32l4xx_ll_dma.h ****   * @param  PeriphRequest This parameter can be one of the following values:
1503:../system/include/stm32l4-hal-driver/stm32l4xx_ll_dma.h ****   *         @arg @ref LL_DMA_REQUEST_0
1504:../system/include/stm32l4-hal-driver/stm32l4xx_ll_dma.h ****   *         @arg @ref LL_DMA_REQUEST_1
1505:../system/include/stm32l4-hal-driver/stm32l4xx_ll_dma.h ****   *         @arg @ref LL_DMA_REQUEST_2
1506:../system/include/stm32l4-hal-driver/stm32l4xx_ll_dma.h ****   *         @arg @ref LL_DMA_REQUEST_3
1507:../system/include/stm32l4-hal-driver/stm32l4xx_ll_dma.h ****   *         @arg @ref LL_DMA_REQUEST_4
1508:../system/include/stm32l4-hal-driver/stm32l4xx_ll_dma.h ****   *         @arg @ref LL_DMA_REQUEST_5
1509:../system/include/stm32l4-hal-driver/stm32l4xx_ll_dma.h ****   *         @arg @ref LL_DMA_REQUEST_6
1510:../system/include/stm32l4-hal-driver/stm32l4xx_ll_dma.h ****   *         @arg @ref LL_DMA_REQUEST_7
1511:../system/include/stm32l4-hal-driver/stm32l4xx_ll_dma.h ****   * @retval None
1512:../system/include/stm32l4-hal-driver/stm32l4xx_ll_dma.h ****   */
1513:../system/include/stm32l4-hal-driver/stm32l4xx_ll_dma.h **** __STATIC_INLINE void LL_DMA_SetPeriphRequest(DMA_TypeDef *DMAx, uint32_t Channel, uint32_t PeriphRe
1514:../system/include/stm32l4-hal-driver/stm32l4xx_ll_dma.h **** {
1515:../system/include/stm32l4-hal-driver/stm32l4xx_ll_dma.h ****   MODIFY_REG(((DMA_Request_TypeDef *)((uint32_t)((uint32_t)DMAx + DMA_CSELR_OFFSET)))->CSELR,
1516:../system/include/stm32l4-hal-driver/stm32l4xx_ll_dma.h ****              DMA_CSELR_C1S << ((Channel) * 4U), PeriphRequest << DMA_POSITION_CSELR_CXS);
1517:../system/include/stm32l4-hal-driver/stm32l4xx_ll_dma.h **** }
1518:../system/include/stm32l4-hal-driver/stm32l4xx_ll_dma.h **** 
1519:../system/include/stm32l4-hal-driver/stm32l4xx_ll_dma.h **** /**
1520:../system/include/stm32l4-hal-driver/stm32l4xx_ll_dma.h ****   * @brief  Get DMA request for DMA instance on Channel x.
1521:../system/include/stm32l4-hal-driver/stm32l4xx_ll_dma.h ****   * @rmtoll CSELR        C1S           LL_DMA_GetPeriphRequest\n
1522:../system/include/stm32l4-hal-driver/stm32l4xx_ll_dma.h ****   *         CSELR        C2S           LL_DMA_GetPeriphRequest\n
1523:../system/include/stm32l4-hal-driver/stm32l4xx_ll_dma.h ****   *         CSELR        C3S           LL_DMA_GetPeriphRequest\n
1524:../system/include/stm32l4-hal-driver/stm32l4xx_ll_dma.h ****   *         CSELR        C4S           LL_DMA_GetPeriphRequest\n
1525:../system/include/stm32l4-hal-driver/stm32l4xx_ll_dma.h ****   *         CSELR        C5S           LL_DMA_GetPeriphRequest\n
1526:../system/include/stm32l4-hal-driver/stm32l4xx_ll_dma.h ****   *         CSELR        C6S           LL_DMA_GetPeriphRequest\n
1527:../system/include/stm32l4-hal-driver/stm32l4xx_ll_dma.h ****   *         CSELR        C7S           LL_DMA_GetPeriphRequest
1528:../system/include/stm32l4-hal-driver/stm32l4xx_ll_dma.h ****   * @param  DMAx DMAx Instance
1529:../system/include/stm32l4-hal-driver/stm32l4xx_ll_dma.h ****   * @param  Channel This parameter can be one of the following values:
1530:../system/include/stm32l4-hal-driver/stm32l4xx_ll_dma.h ****   *         @arg @ref LL_DMA_CHANNEL_1
1531:../system/include/stm32l4-hal-driver/stm32l4xx_ll_dma.h ****   *         @arg @ref LL_DMA_CHANNEL_2
1532:../system/include/stm32l4-hal-driver/stm32l4xx_ll_dma.h ****   *         @arg @ref LL_DMA_CHANNEL_3
1533:../system/include/stm32l4-hal-driver/stm32l4xx_ll_dma.h ****   *         @arg @ref LL_DMA_CHANNEL_4
1534:../system/include/stm32l4-hal-driver/stm32l4xx_ll_dma.h ****   *         @arg @ref LL_DMA_CHANNEL_5
1535:../system/include/stm32l4-hal-driver/stm32l4xx_ll_dma.h ****   *         @arg @ref LL_DMA_CHANNEL_6
1536:../system/include/stm32l4-hal-driver/stm32l4xx_ll_dma.h ****   *         @arg @ref LL_DMA_CHANNEL_7
1537:../system/include/stm32l4-hal-driver/stm32l4xx_ll_dma.h ****   * @retval Returned value can be one of the following values:
1538:../system/include/stm32l4-hal-driver/stm32l4xx_ll_dma.h ****   *         @arg @ref LL_DMA_REQUEST_0
1539:../system/include/stm32l4-hal-driver/stm32l4xx_ll_dma.h ****   *         @arg @ref LL_DMA_REQUEST_1
1540:../system/include/stm32l4-hal-driver/stm32l4xx_ll_dma.h ****   *         @arg @ref LL_DMA_REQUEST_2
1541:../system/include/stm32l4-hal-driver/stm32l4xx_ll_dma.h ****   *         @arg @ref LL_DMA_REQUEST_3
1542:../system/include/stm32l4-hal-driver/stm32l4xx_ll_dma.h ****   *         @arg @ref LL_DMA_REQUEST_4
1543:../system/include/stm32l4-hal-driver/stm32l4xx_ll_dma.h ****   *         @arg @ref LL_DMA_REQUEST_5
1544:../system/include/stm32l4-hal-driver/stm32l4xx_ll_dma.h ****   *         @arg @ref LL_DMA_REQUEST_6
1545:../system/include/stm32l4-hal-driver/stm32l4xx_ll_dma.h ****   *         @arg @ref LL_DMA_REQUEST_7
1546:../system/include/stm32l4-hal-driver/stm32l4xx_ll_dma.h ****   */
1547:../system/include/stm32l4-hal-driver/stm32l4xx_ll_dma.h **** __STATIC_INLINE uint32_t LL_DMA_GetPeriphRequest(DMA_TypeDef *DMAx, uint32_t Channel)
1548:../system/include/stm32l4-hal-driver/stm32l4xx_ll_dma.h **** {
1549:../system/include/stm32l4-hal-driver/stm32l4xx_ll_dma.h ****   return (READ_BIT(((DMA_Request_TypeDef *)((uint32_t)((uint32_t)DMAx + DMA_CSELR_OFFSET)))->CSELR,
1550:../system/include/stm32l4-hal-driver/stm32l4xx_ll_dma.h ****                    DMA_CSELR_C1S << ((Channel) * 4U)) >> DMA_POSITION_CSELR_CXS);
1551:../system/include/stm32l4-hal-driver/stm32l4xx_ll_dma.h **** }
1552:../system/include/stm32l4-hal-driver/stm32l4xx_ll_dma.h **** 
1553:../system/include/stm32l4-hal-driver/stm32l4xx_ll_dma.h **** #endif /* DMAMUX1 */
1554:../system/include/stm32l4-hal-driver/stm32l4xx_ll_dma.h **** /**
1555:../system/include/stm32l4-hal-driver/stm32l4xx_ll_dma.h ****   * @}
1556:../system/include/stm32l4-hal-driver/stm32l4xx_ll_dma.h ****   */
1557:../system/include/stm32l4-hal-driver/stm32l4xx_ll_dma.h **** 
1558:../system/include/stm32l4-hal-driver/stm32l4xx_ll_dma.h **** /** @defgroup DMA_LL_EF_FLAG_Management FLAG_Management
1559:../system/include/stm32l4-hal-driver/stm32l4xx_ll_dma.h ****   * @{
1560:../system/include/stm32l4-hal-driver/stm32l4xx_ll_dma.h ****   */
1561:../system/include/stm32l4-hal-driver/stm32l4xx_ll_dma.h **** 
1562:../system/include/stm32l4-hal-driver/stm32l4xx_ll_dma.h **** /**
1563:../system/include/stm32l4-hal-driver/stm32l4xx_ll_dma.h ****   * @brief  Get Channel 1 global interrupt flag.
1564:../system/include/stm32l4-hal-driver/stm32l4xx_ll_dma.h ****   * @rmtoll ISR          GIF1          LL_DMA_IsActiveFlag_GI1
1565:../system/include/stm32l4-hal-driver/stm32l4xx_ll_dma.h ****   * @param  DMAx DMAx Instance
1566:../system/include/stm32l4-hal-driver/stm32l4xx_ll_dma.h ****   * @retval State of bit (1 or 0).
1567:../system/include/stm32l4-hal-driver/stm32l4xx_ll_dma.h ****   */
1568:../system/include/stm32l4-hal-driver/stm32l4xx_ll_dma.h **** __STATIC_INLINE uint32_t LL_DMA_IsActiveFlag_GI1(DMA_TypeDef *DMAx)
1569:../system/include/stm32l4-hal-driver/stm32l4xx_ll_dma.h **** {
1570:../system/include/stm32l4-hal-driver/stm32l4xx_ll_dma.h ****   return ((READ_BIT(DMAx->ISR, DMA_ISR_GIF1) == (DMA_ISR_GIF1)) ? 1UL : 0UL);
1571:../system/include/stm32l4-hal-driver/stm32l4xx_ll_dma.h **** }
1572:../system/include/stm32l4-hal-driver/stm32l4xx_ll_dma.h **** 
1573:../system/include/stm32l4-hal-driver/stm32l4xx_ll_dma.h **** /**
1574:../system/include/stm32l4-hal-driver/stm32l4xx_ll_dma.h ****   * @brief  Get Channel 2 global interrupt flag.
1575:../system/include/stm32l4-hal-driver/stm32l4xx_ll_dma.h ****   * @rmtoll ISR          GIF2          LL_DMA_IsActiveFlag_GI2
1576:../system/include/stm32l4-hal-driver/stm32l4xx_ll_dma.h ****   * @param  DMAx DMAx Instance
1577:../system/include/stm32l4-hal-driver/stm32l4xx_ll_dma.h ****   * @retval State of bit (1 or 0).
1578:../system/include/stm32l4-hal-driver/stm32l4xx_ll_dma.h ****   */
1579:../system/include/stm32l4-hal-driver/stm32l4xx_ll_dma.h **** __STATIC_INLINE uint32_t LL_DMA_IsActiveFlag_GI2(DMA_TypeDef *DMAx)
1580:../system/include/stm32l4-hal-driver/stm32l4xx_ll_dma.h **** {
1581:../system/include/stm32l4-hal-driver/stm32l4xx_ll_dma.h ****   return ((READ_BIT(DMAx->ISR, DMA_ISR_GIF2) == (DMA_ISR_GIF2)) ? 1UL : 0UL);
1582:../system/include/stm32l4-hal-driver/stm32l4xx_ll_dma.h **** }
1583:../system/include/stm32l4-hal-driver/stm32l4xx_ll_dma.h **** 
1584:../system/include/stm32l4-hal-driver/stm32l4xx_ll_dma.h **** /**
1585:../system/include/stm32l4-hal-driver/stm32l4xx_ll_dma.h ****   * @brief  Get Channel 3 global interrupt flag.
1586:../system/include/stm32l4-hal-driver/stm32l4xx_ll_dma.h ****   * @rmtoll ISR          GIF3          LL_DMA_IsActiveFlag_GI3
1587:../system/include/stm32l4-hal-driver/stm32l4xx_ll_dma.h ****   * @param  DMAx DMAx Instance
1588:../system/include/stm32l4-hal-driver/stm32l4xx_ll_dma.h ****   * @retval State of bit (1 or 0).
1589:../system/include/stm32l4-hal-driver/stm32l4xx_ll_dma.h ****   */
1590:../system/include/stm32l4-hal-driver/stm32l4xx_ll_dma.h **** __STATIC_INLINE uint32_t LL_DMA_IsActiveFlag_GI3(DMA_TypeDef *DMAx)
1591:../system/include/stm32l4-hal-driver/stm32l4xx_ll_dma.h **** {
1592:../system/include/stm32l4-hal-driver/stm32l4xx_ll_dma.h ****   return ((READ_BIT(DMAx->ISR, DMA_ISR_GIF3) == (DMA_ISR_GIF3)) ? 1UL : 0UL);
1593:../system/include/stm32l4-hal-driver/stm32l4xx_ll_dma.h **** }
1594:../system/include/stm32l4-hal-driver/stm32l4xx_ll_dma.h **** 
1595:../system/include/stm32l4-hal-driver/stm32l4xx_ll_dma.h **** /**
1596:../system/include/stm32l4-hal-driver/stm32l4xx_ll_dma.h ****   * @brief  Get Channel 4 global interrupt flag.
1597:../system/include/stm32l4-hal-driver/stm32l4xx_ll_dma.h ****   * @rmtoll ISR          GIF4          LL_DMA_IsActiveFlag_GI4
1598:../system/include/stm32l4-hal-driver/stm32l4xx_ll_dma.h ****   * @param  DMAx DMAx Instance
1599:../system/include/stm32l4-hal-driver/stm32l4xx_ll_dma.h ****   * @retval State of bit (1 or 0).
1600:../system/include/stm32l4-hal-driver/stm32l4xx_ll_dma.h ****   */
1601:../system/include/stm32l4-hal-driver/stm32l4xx_ll_dma.h **** __STATIC_INLINE uint32_t LL_DMA_IsActiveFlag_GI4(DMA_TypeDef *DMAx)
1602:../system/include/stm32l4-hal-driver/stm32l4xx_ll_dma.h **** {
1603:../system/include/stm32l4-hal-driver/stm32l4xx_ll_dma.h ****   return ((READ_BIT(DMAx->ISR, DMA_ISR_GIF4) == (DMA_ISR_GIF4)) ? 1UL : 0UL);
1604:../system/include/stm32l4-hal-driver/stm32l4xx_ll_dma.h **** }
1605:../system/include/stm32l4-hal-driver/stm32l4xx_ll_dma.h **** 
1606:../system/include/stm32l4-hal-driver/stm32l4xx_ll_dma.h **** /**
1607:../system/include/stm32l4-hal-driver/stm32l4xx_ll_dma.h ****   * @brief  Get Channel 5 global interrupt flag.
1608:../system/include/stm32l4-hal-driver/stm32l4xx_ll_dma.h ****   * @rmtoll ISR          GIF5          LL_DMA_IsActiveFlag_GI5
1609:../system/include/stm32l4-hal-driver/stm32l4xx_ll_dma.h ****   * @param  DMAx DMAx Instance
1610:../system/include/stm32l4-hal-driver/stm32l4xx_ll_dma.h ****   * @retval State of bit (1 or 0).
1611:../system/include/stm32l4-hal-driver/stm32l4xx_ll_dma.h ****   */
1612:../system/include/stm32l4-hal-driver/stm32l4xx_ll_dma.h **** __STATIC_INLINE uint32_t LL_DMA_IsActiveFlag_GI5(DMA_TypeDef *DMAx)
1613:../system/include/stm32l4-hal-driver/stm32l4xx_ll_dma.h **** {
1614:../system/include/stm32l4-hal-driver/stm32l4xx_ll_dma.h ****   return ((READ_BIT(DMAx->ISR, DMA_ISR_GIF5) == (DMA_ISR_GIF5)) ? 1UL : 0UL);
1615:../system/include/stm32l4-hal-driver/stm32l4xx_ll_dma.h **** }
1616:../system/include/stm32l4-hal-driver/stm32l4xx_ll_dma.h **** 
1617:../system/include/stm32l4-hal-driver/stm32l4xx_ll_dma.h **** /**
1618:../system/include/stm32l4-hal-driver/stm32l4xx_ll_dma.h ****   * @brief  Get Channel 6 global interrupt flag.
1619:../system/include/stm32l4-hal-driver/stm32l4xx_ll_dma.h ****   * @rmtoll ISR          GIF6          LL_DMA_IsActiveFlag_GI6
1620:../system/include/stm32l4-hal-driver/stm32l4xx_ll_dma.h ****   * @param  DMAx DMAx Instance
1621:../system/include/stm32l4-hal-driver/stm32l4xx_ll_dma.h ****   * @retval State of bit (1 or 0).
1622:../system/include/stm32l4-hal-driver/stm32l4xx_ll_dma.h ****   */
1623:../system/include/stm32l4-hal-driver/stm32l4xx_ll_dma.h **** __STATIC_INLINE uint32_t LL_DMA_IsActiveFlag_GI6(DMA_TypeDef *DMAx)
1624:../system/include/stm32l4-hal-driver/stm32l4xx_ll_dma.h **** {
1625:../system/include/stm32l4-hal-driver/stm32l4xx_ll_dma.h ****   return ((READ_BIT(DMAx->ISR, DMA_ISR_GIF6) == (DMA_ISR_GIF6)) ? 1UL : 0UL);
1626:../system/include/stm32l4-hal-driver/stm32l4xx_ll_dma.h **** }
1627:../system/include/stm32l4-hal-driver/stm32l4xx_ll_dma.h **** 
1628:../system/include/stm32l4-hal-driver/stm32l4xx_ll_dma.h **** /**
1629:../system/include/stm32l4-hal-driver/stm32l4xx_ll_dma.h ****   * @brief  Get Channel 7 global interrupt flag.
1630:../system/include/stm32l4-hal-driver/stm32l4xx_ll_dma.h ****   * @rmtoll ISR          GIF7          LL_DMA_IsActiveFlag_GI7
1631:../system/include/stm32l4-hal-driver/stm32l4xx_ll_dma.h ****   * @param  DMAx DMAx Instance
1632:../system/include/stm32l4-hal-driver/stm32l4xx_ll_dma.h ****   * @retval State of bit (1 or 0).
1633:../system/include/stm32l4-hal-driver/stm32l4xx_ll_dma.h ****   */
1634:../system/include/stm32l4-hal-driver/stm32l4xx_ll_dma.h **** __STATIC_INLINE uint32_t LL_DMA_IsActiveFlag_GI7(DMA_TypeDef *DMAx)
1635:../system/include/stm32l4-hal-driver/stm32l4xx_ll_dma.h **** {
1636:../system/include/stm32l4-hal-driver/stm32l4xx_ll_dma.h ****   return ((READ_BIT(DMAx->ISR, DMA_ISR_GIF7) == (DMA_ISR_GIF7)) ? 1UL : 0UL);
1637:../system/include/stm32l4-hal-driver/stm32l4xx_ll_dma.h **** }
1638:../system/include/stm32l4-hal-driver/stm32l4xx_ll_dma.h **** 
1639:../system/include/stm32l4-hal-driver/stm32l4xx_ll_dma.h **** /**
1640:../system/include/stm32l4-hal-driver/stm32l4xx_ll_dma.h ****   * @brief  Get Channel 1 transfer complete flag.
1641:../system/include/stm32l4-hal-driver/stm32l4xx_ll_dma.h ****   * @rmtoll ISR          TCIF1         LL_DMA_IsActiveFlag_TC1
1642:../system/include/stm32l4-hal-driver/stm32l4xx_ll_dma.h ****   * @param  DMAx DMAx Instance
1643:../system/include/stm32l4-hal-driver/stm32l4xx_ll_dma.h ****   * @retval State of bit (1 or 0).
1644:../system/include/stm32l4-hal-driver/stm32l4xx_ll_dma.h ****   */
1645:../system/include/stm32l4-hal-driver/stm32l4xx_ll_dma.h **** __STATIC_INLINE uint32_t LL_DMA_IsActiveFlag_TC1(DMA_TypeDef *DMAx)
1646:../system/include/stm32l4-hal-driver/stm32l4xx_ll_dma.h **** {
1647:../system/include/stm32l4-hal-driver/stm32l4xx_ll_dma.h ****   return ((READ_BIT(DMAx->ISR, DMA_ISR_TCIF1) == (DMA_ISR_TCIF1)) ? 1UL : 0UL);
1648:../system/include/stm32l4-hal-driver/stm32l4xx_ll_dma.h **** }
1649:../system/include/stm32l4-hal-driver/stm32l4xx_ll_dma.h **** 
1650:../system/include/stm32l4-hal-driver/stm32l4xx_ll_dma.h **** /**
1651:../system/include/stm32l4-hal-driver/stm32l4xx_ll_dma.h ****   * @brief  Get Channel 2 transfer complete flag.
1652:../system/include/stm32l4-hal-driver/stm32l4xx_ll_dma.h ****   * @rmtoll ISR          TCIF2         LL_DMA_IsActiveFlag_TC2
1653:../system/include/stm32l4-hal-driver/stm32l4xx_ll_dma.h ****   * @param  DMAx DMAx Instance
1654:../system/include/stm32l4-hal-driver/stm32l4xx_ll_dma.h ****   * @retval State of bit (1 or 0).
1655:../system/include/stm32l4-hal-driver/stm32l4xx_ll_dma.h ****   */
1656:../system/include/stm32l4-hal-driver/stm32l4xx_ll_dma.h **** __STATIC_INLINE uint32_t LL_DMA_IsActiveFlag_TC2(DMA_TypeDef *DMAx)
1657:../system/include/stm32l4-hal-driver/stm32l4xx_ll_dma.h **** {
1658:../system/include/stm32l4-hal-driver/stm32l4xx_ll_dma.h ****   return ((READ_BIT(DMAx->ISR, DMA_ISR_TCIF2) == (DMA_ISR_TCIF2)) ? 1UL : 0UL);
1659:../system/include/stm32l4-hal-driver/stm32l4xx_ll_dma.h **** }
1660:../system/include/stm32l4-hal-driver/stm32l4xx_ll_dma.h **** 
1661:../system/include/stm32l4-hal-driver/stm32l4xx_ll_dma.h **** /**
1662:../system/include/stm32l4-hal-driver/stm32l4xx_ll_dma.h ****   * @brief  Get Channel 3 transfer complete flag.
1663:../system/include/stm32l4-hal-driver/stm32l4xx_ll_dma.h ****   * @rmtoll ISR          TCIF3         LL_DMA_IsActiveFlag_TC3
1664:../system/include/stm32l4-hal-driver/stm32l4xx_ll_dma.h ****   * @param  DMAx DMAx Instance
1665:../system/include/stm32l4-hal-driver/stm32l4xx_ll_dma.h ****   * @retval State of bit (1 or 0).
1666:../system/include/stm32l4-hal-driver/stm32l4xx_ll_dma.h ****   */
1667:../system/include/stm32l4-hal-driver/stm32l4xx_ll_dma.h **** __STATIC_INLINE uint32_t LL_DMA_IsActiveFlag_TC3(DMA_TypeDef *DMAx)
1668:../system/include/stm32l4-hal-driver/stm32l4xx_ll_dma.h **** {
1669:../system/include/stm32l4-hal-driver/stm32l4xx_ll_dma.h ****   return ((READ_BIT(DMAx->ISR, DMA_ISR_TCIF3) == (DMA_ISR_TCIF3)) ? 1UL : 0UL);
1670:../system/include/stm32l4-hal-driver/stm32l4xx_ll_dma.h **** }
1671:../system/include/stm32l4-hal-driver/stm32l4xx_ll_dma.h **** 
1672:../system/include/stm32l4-hal-driver/stm32l4xx_ll_dma.h **** /**
1673:../system/include/stm32l4-hal-driver/stm32l4xx_ll_dma.h ****   * @brief  Get Channel 4 transfer complete flag.
1674:../system/include/stm32l4-hal-driver/stm32l4xx_ll_dma.h ****   * @rmtoll ISR          TCIF4         LL_DMA_IsActiveFlag_TC4
1675:../system/include/stm32l4-hal-driver/stm32l4xx_ll_dma.h ****   * @param  DMAx DMAx Instance
1676:../system/include/stm32l4-hal-driver/stm32l4xx_ll_dma.h ****   * @retval State of bit (1 or 0).
1677:../system/include/stm32l4-hal-driver/stm32l4xx_ll_dma.h ****   */
1678:../system/include/stm32l4-hal-driver/stm32l4xx_ll_dma.h **** __STATIC_INLINE uint32_t LL_DMA_IsActiveFlag_TC4(DMA_TypeDef *DMAx)
1679:../system/include/stm32l4-hal-driver/stm32l4xx_ll_dma.h **** {
1680:../system/include/stm32l4-hal-driver/stm32l4xx_ll_dma.h ****   return ((READ_BIT(DMAx->ISR, DMA_ISR_TCIF4) == (DMA_ISR_TCIF4)) ? 1UL : 0UL);
1681:../system/include/stm32l4-hal-driver/stm32l4xx_ll_dma.h **** }
1682:../system/include/stm32l4-hal-driver/stm32l4xx_ll_dma.h **** 
1683:../system/include/stm32l4-hal-driver/stm32l4xx_ll_dma.h **** /**
1684:../system/include/stm32l4-hal-driver/stm32l4xx_ll_dma.h ****   * @brief  Get Channel 5 transfer complete flag.
1685:../system/include/stm32l4-hal-driver/stm32l4xx_ll_dma.h ****   * @rmtoll ISR          TCIF5         LL_DMA_IsActiveFlag_TC5
1686:../system/include/stm32l4-hal-driver/stm32l4xx_ll_dma.h ****   * @param  DMAx DMAx Instance
1687:../system/include/stm32l4-hal-driver/stm32l4xx_ll_dma.h ****   * @retval State of bit (1 or 0).
1688:../system/include/stm32l4-hal-driver/stm32l4xx_ll_dma.h ****   */
1689:../system/include/stm32l4-hal-driver/stm32l4xx_ll_dma.h **** __STATIC_INLINE uint32_t LL_DMA_IsActiveFlag_TC5(DMA_TypeDef *DMAx)
1690:../system/include/stm32l4-hal-driver/stm32l4xx_ll_dma.h **** {
1691:../system/include/stm32l4-hal-driver/stm32l4xx_ll_dma.h ****   return ((READ_BIT(DMAx->ISR, DMA_ISR_TCIF5) == (DMA_ISR_TCIF5)) ? 1UL : 0UL);
1692:../system/include/stm32l4-hal-driver/stm32l4xx_ll_dma.h **** }
1693:../system/include/stm32l4-hal-driver/stm32l4xx_ll_dma.h **** 
1694:../system/include/stm32l4-hal-driver/stm32l4xx_ll_dma.h **** /**
1695:../system/include/stm32l4-hal-driver/stm32l4xx_ll_dma.h ****   * @brief  Get Channel 6 transfer complete flag.
1696:../system/include/stm32l4-hal-driver/stm32l4xx_ll_dma.h ****   * @rmtoll ISR          TCIF6         LL_DMA_IsActiveFlag_TC6
1697:../system/include/stm32l4-hal-driver/stm32l4xx_ll_dma.h ****   * @param  DMAx DMAx Instance
1698:../system/include/stm32l4-hal-driver/stm32l4xx_ll_dma.h ****   * @retval State of bit (1 or 0).
1699:../system/include/stm32l4-hal-driver/stm32l4xx_ll_dma.h ****   */
1700:../system/include/stm32l4-hal-driver/stm32l4xx_ll_dma.h **** __STATIC_INLINE uint32_t LL_DMA_IsActiveFlag_TC6(DMA_TypeDef *DMAx)
1701:../system/include/stm32l4-hal-driver/stm32l4xx_ll_dma.h **** {
1702:../system/include/stm32l4-hal-driver/stm32l4xx_ll_dma.h ****   return ((READ_BIT(DMAx->ISR, DMA_ISR_TCIF6) == (DMA_ISR_TCIF6)) ? 1UL : 0UL);
1703:../system/include/stm32l4-hal-driver/stm32l4xx_ll_dma.h **** }
1704:../system/include/stm32l4-hal-driver/stm32l4xx_ll_dma.h **** 
1705:../system/include/stm32l4-hal-driver/stm32l4xx_ll_dma.h **** /**
1706:../system/include/stm32l4-hal-driver/stm32l4xx_ll_dma.h ****   * @brief  Get Channel 7 transfer complete flag.
1707:../system/include/stm32l4-hal-driver/stm32l4xx_ll_dma.h ****   * @rmtoll ISR          TCIF7         LL_DMA_IsActiveFlag_TC7
1708:../system/include/stm32l4-hal-driver/stm32l4xx_ll_dma.h ****   * @param  DMAx DMAx Instance
1709:../system/include/stm32l4-hal-driver/stm32l4xx_ll_dma.h ****   * @retval State of bit (1 or 0).
1710:../system/include/stm32l4-hal-driver/stm32l4xx_ll_dma.h ****   */
1711:../system/include/stm32l4-hal-driver/stm32l4xx_ll_dma.h **** __STATIC_INLINE uint32_t LL_DMA_IsActiveFlag_TC7(DMA_TypeDef *DMAx)
1712:../system/include/stm32l4-hal-driver/stm32l4xx_ll_dma.h **** {
1713:../system/include/stm32l4-hal-driver/stm32l4xx_ll_dma.h ****   return ((READ_BIT(DMAx->ISR, DMA_ISR_TCIF7) == (DMA_ISR_TCIF7)) ? 1UL : 0UL);
1714:../system/include/stm32l4-hal-driver/stm32l4xx_ll_dma.h **** }
1715:../system/include/stm32l4-hal-driver/stm32l4xx_ll_dma.h **** 
1716:../system/include/stm32l4-hal-driver/stm32l4xx_ll_dma.h **** /**
1717:../system/include/stm32l4-hal-driver/stm32l4xx_ll_dma.h ****   * @brief  Get Channel 1 half transfer flag.
1718:../system/include/stm32l4-hal-driver/stm32l4xx_ll_dma.h ****   * @rmtoll ISR          HTIF1         LL_DMA_IsActiveFlag_HT1
1719:../system/include/stm32l4-hal-driver/stm32l4xx_ll_dma.h ****   * @param  DMAx DMAx Instance
1720:../system/include/stm32l4-hal-driver/stm32l4xx_ll_dma.h ****   * @retval State of bit (1 or 0).
1721:../system/include/stm32l4-hal-driver/stm32l4xx_ll_dma.h ****   */
1722:../system/include/stm32l4-hal-driver/stm32l4xx_ll_dma.h **** __STATIC_INLINE uint32_t LL_DMA_IsActiveFlag_HT1(DMA_TypeDef *DMAx)
1723:../system/include/stm32l4-hal-driver/stm32l4xx_ll_dma.h **** {
1724:../system/include/stm32l4-hal-driver/stm32l4xx_ll_dma.h ****   return ((READ_BIT(DMAx->ISR, DMA_ISR_HTIF1) == (DMA_ISR_HTIF1)) ? 1UL : 0UL);
1725:../system/include/stm32l4-hal-driver/stm32l4xx_ll_dma.h **** }
1726:../system/include/stm32l4-hal-driver/stm32l4xx_ll_dma.h **** 
1727:../system/include/stm32l4-hal-driver/stm32l4xx_ll_dma.h **** /**
1728:../system/include/stm32l4-hal-driver/stm32l4xx_ll_dma.h ****   * @brief  Get Channel 2 half transfer flag.
1729:../system/include/stm32l4-hal-driver/stm32l4xx_ll_dma.h ****   * @rmtoll ISR          HTIF2         LL_DMA_IsActiveFlag_HT2
1730:../system/include/stm32l4-hal-driver/stm32l4xx_ll_dma.h ****   * @param  DMAx DMAx Instance
1731:../system/include/stm32l4-hal-driver/stm32l4xx_ll_dma.h ****   * @retval State of bit (1 or 0).
1732:../system/include/stm32l4-hal-driver/stm32l4xx_ll_dma.h ****   */
1733:../system/include/stm32l4-hal-driver/stm32l4xx_ll_dma.h **** __STATIC_INLINE uint32_t LL_DMA_IsActiveFlag_HT2(DMA_TypeDef *DMAx)
1734:../system/include/stm32l4-hal-driver/stm32l4xx_ll_dma.h **** {
1735:../system/include/stm32l4-hal-driver/stm32l4xx_ll_dma.h ****   return ((READ_BIT(DMAx->ISR, DMA_ISR_HTIF2) == (DMA_ISR_HTIF2)) ? 1UL : 0UL);
1736:../system/include/stm32l4-hal-driver/stm32l4xx_ll_dma.h **** }
1737:../system/include/stm32l4-hal-driver/stm32l4xx_ll_dma.h **** 
1738:../system/include/stm32l4-hal-driver/stm32l4xx_ll_dma.h **** /**
1739:../system/include/stm32l4-hal-driver/stm32l4xx_ll_dma.h ****   * @brief  Get Channel 3 half transfer flag.
1740:../system/include/stm32l4-hal-driver/stm32l4xx_ll_dma.h ****   * @rmtoll ISR          HTIF3         LL_DMA_IsActiveFlag_HT3
1741:../system/include/stm32l4-hal-driver/stm32l4xx_ll_dma.h ****   * @param  DMAx DMAx Instance
1742:../system/include/stm32l4-hal-driver/stm32l4xx_ll_dma.h ****   * @retval State of bit (1 or 0).
1743:../system/include/stm32l4-hal-driver/stm32l4xx_ll_dma.h ****   */
1744:../system/include/stm32l4-hal-driver/stm32l4xx_ll_dma.h **** __STATIC_INLINE uint32_t LL_DMA_IsActiveFlag_HT3(DMA_TypeDef *DMAx)
1745:../system/include/stm32l4-hal-driver/stm32l4xx_ll_dma.h **** {
1746:../system/include/stm32l4-hal-driver/stm32l4xx_ll_dma.h ****   return ((READ_BIT(DMAx->ISR, DMA_ISR_HTIF3) == (DMA_ISR_HTIF3)) ? 1UL : 0UL);
1747:../system/include/stm32l4-hal-driver/stm32l4xx_ll_dma.h **** }
1748:../system/include/stm32l4-hal-driver/stm32l4xx_ll_dma.h **** 
1749:../system/include/stm32l4-hal-driver/stm32l4xx_ll_dma.h **** /**
1750:../system/include/stm32l4-hal-driver/stm32l4xx_ll_dma.h ****   * @brief  Get Channel 4 half transfer flag.
1751:../system/include/stm32l4-hal-driver/stm32l4xx_ll_dma.h ****   * @rmtoll ISR          HTIF4         LL_DMA_IsActiveFlag_HT4
1752:../system/include/stm32l4-hal-driver/stm32l4xx_ll_dma.h ****   * @param  DMAx DMAx Instance
1753:../system/include/stm32l4-hal-driver/stm32l4xx_ll_dma.h ****   * @retval State of bit (1 or 0).
1754:../system/include/stm32l4-hal-driver/stm32l4xx_ll_dma.h ****   */
1755:../system/include/stm32l4-hal-driver/stm32l4xx_ll_dma.h **** __STATIC_INLINE uint32_t LL_DMA_IsActiveFlag_HT4(DMA_TypeDef *DMAx)
1756:../system/include/stm32l4-hal-driver/stm32l4xx_ll_dma.h **** {
1757:../system/include/stm32l4-hal-driver/stm32l4xx_ll_dma.h ****   return ((READ_BIT(DMAx->ISR, DMA_ISR_HTIF4) == (DMA_ISR_HTIF4)) ? 1UL : 0UL);
1758:../system/include/stm32l4-hal-driver/stm32l4xx_ll_dma.h **** }
1759:../system/include/stm32l4-hal-driver/stm32l4xx_ll_dma.h **** 
1760:../system/include/stm32l4-hal-driver/stm32l4xx_ll_dma.h **** /**
1761:../system/include/stm32l4-hal-driver/stm32l4xx_ll_dma.h ****   * @brief  Get Channel 5 half transfer flag.
1762:../system/include/stm32l4-hal-driver/stm32l4xx_ll_dma.h ****   * @rmtoll ISR          HTIF5         LL_DMA_IsActiveFlag_HT5
1763:../system/include/stm32l4-hal-driver/stm32l4xx_ll_dma.h ****   * @param  DMAx DMAx Instance
1764:../system/include/stm32l4-hal-driver/stm32l4xx_ll_dma.h ****   * @retval State of bit (1 or 0).
1765:../system/include/stm32l4-hal-driver/stm32l4xx_ll_dma.h ****   */
1766:../system/include/stm32l4-hal-driver/stm32l4xx_ll_dma.h **** __STATIC_INLINE uint32_t LL_DMA_IsActiveFlag_HT5(DMA_TypeDef *DMAx)
1767:../system/include/stm32l4-hal-driver/stm32l4xx_ll_dma.h **** {
1768:../system/include/stm32l4-hal-driver/stm32l4xx_ll_dma.h ****   return ((READ_BIT(DMAx->ISR, DMA_ISR_HTIF5) == (DMA_ISR_HTIF5)) ? 1UL : 0UL);
1769:../system/include/stm32l4-hal-driver/stm32l4xx_ll_dma.h **** }
1770:../system/include/stm32l4-hal-driver/stm32l4xx_ll_dma.h **** 
1771:../system/include/stm32l4-hal-driver/stm32l4xx_ll_dma.h **** /**
1772:../system/include/stm32l4-hal-driver/stm32l4xx_ll_dma.h ****   * @brief  Get Channel 6 half transfer flag.
1773:../system/include/stm32l4-hal-driver/stm32l4xx_ll_dma.h ****   * @rmtoll ISR          HTIF6         LL_DMA_IsActiveFlag_HT6
1774:../system/include/stm32l4-hal-driver/stm32l4xx_ll_dma.h ****   * @param  DMAx DMAx Instance
1775:../system/include/stm32l4-hal-driver/stm32l4xx_ll_dma.h ****   * @retval State of bit (1 or 0).
1776:../system/include/stm32l4-hal-driver/stm32l4xx_ll_dma.h ****   */
1777:../system/include/stm32l4-hal-driver/stm32l4xx_ll_dma.h **** __STATIC_INLINE uint32_t LL_DMA_IsActiveFlag_HT6(DMA_TypeDef *DMAx)
1778:../system/include/stm32l4-hal-driver/stm32l4xx_ll_dma.h **** {
1779:../system/include/stm32l4-hal-driver/stm32l4xx_ll_dma.h ****   return ((READ_BIT(DMAx->ISR, DMA_ISR_HTIF6) == (DMA_ISR_HTIF6)) ? 1UL : 0UL);
1780:../system/include/stm32l4-hal-driver/stm32l4xx_ll_dma.h **** }
1781:../system/include/stm32l4-hal-driver/stm32l4xx_ll_dma.h **** 
1782:../system/include/stm32l4-hal-driver/stm32l4xx_ll_dma.h **** /**
1783:../system/include/stm32l4-hal-driver/stm32l4xx_ll_dma.h ****   * @brief  Get Channel 7 half transfer flag.
1784:../system/include/stm32l4-hal-driver/stm32l4xx_ll_dma.h ****   * @rmtoll ISR          HTIF7         LL_DMA_IsActiveFlag_HT7
1785:../system/include/stm32l4-hal-driver/stm32l4xx_ll_dma.h ****   * @param  DMAx DMAx Instance
1786:../system/include/stm32l4-hal-driver/stm32l4xx_ll_dma.h ****   * @retval State of bit (1 or 0).
1787:../system/include/stm32l4-hal-driver/stm32l4xx_ll_dma.h ****   */
1788:../system/include/stm32l4-hal-driver/stm32l4xx_ll_dma.h **** __STATIC_INLINE uint32_t LL_DMA_IsActiveFlag_HT7(DMA_TypeDef *DMAx)
1789:../system/include/stm32l4-hal-driver/stm32l4xx_ll_dma.h **** {
1790:../system/include/stm32l4-hal-driver/stm32l4xx_ll_dma.h ****   return ((READ_BIT(DMAx->ISR, DMA_ISR_HTIF7) == (DMA_ISR_HTIF7)) ? 1UL : 0UL);
1791:../system/include/stm32l4-hal-driver/stm32l4xx_ll_dma.h **** }
1792:../system/include/stm32l4-hal-driver/stm32l4xx_ll_dma.h **** 
1793:../system/include/stm32l4-hal-driver/stm32l4xx_ll_dma.h **** /**
1794:../system/include/stm32l4-hal-driver/stm32l4xx_ll_dma.h ****   * @brief  Get Channel 1 transfer error flag.
1795:../system/include/stm32l4-hal-driver/stm32l4xx_ll_dma.h ****   * @rmtoll ISR          TEIF1         LL_DMA_IsActiveFlag_TE1
1796:../system/include/stm32l4-hal-driver/stm32l4xx_ll_dma.h ****   * @param  DMAx DMAx Instance
1797:../system/include/stm32l4-hal-driver/stm32l4xx_ll_dma.h ****   * @retval State of bit (1 or 0).
1798:../system/include/stm32l4-hal-driver/stm32l4xx_ll_dma.h ****   */
1799:../system/include/stm32l4-hal-driver/stm32l4xx_ll_dma.h **** __STATIC_INLINE uint32_t LL_DMA_IsActiveFlag_TE1(DMA_TypeDef *DMAx)
1800:../system/include/stm32l4-hal-driver/stm32l4xx_ll_dma.h **** {
1801:../system/include/stm32l4-hal-driver/stm32l4xx_ll_dma.h ****   return ((READ_BIT(DMAx->ISR, DMA_ISR_TEIF1) == (DMA_ISR_TEIF1)) ? 1UL : 0UL);
1802:../system/include/stm32l4-hal-driver/stm32l4xx_ll_dma.h **** }
1803:../system/include/stm32l4-hal-driver/stm32l4xx_ll_dma.h **** 
1804:../system/include/stm32l4-hal-driver/stm32l4xx_ll_dma.h **** /**
1805:../system/include/stm32l4-hal-driver/stm32l4xx_ll_dma.h ****   * @brief  Get Channel 2 transfer error flag.
1806:../system/include/stm32l4-hal-driver/stm32l4xx_ll_dma.h ****   * @rmtoll ISR          TEIF2         LL_DMA_IsActiveFlag_TE2
1807:../system/include/stm32l4-hal-driver/stm32l4xx_ll_dma.h ****   * @param  DMAx DMAx Instance
1808:../system/include/stm32l4-hal-driver/stm32l4xx_ll_dma.h ****   * @retval State of bit (1 or 0).
1809:../system/include/stm32l4-hal-driver/stm32l4xx_ll_dma.h ****   */
1810:../system/include/stm32l4-hal-driver/stm32l4xx_ll_dma.h **** __STATIC_INLINE uint32_t LL_DMA_IsActiveFlag_TE2(DMA_TypeDef *DMAx)
1811:../system/include/stm32l4-hal-driver/stm32l4xx_ll_dma.h **** {
1812:../system/include/stm32l4-hal-driver/stm32l4xx_ll_dma.h ****   return ((READ_BIT(DMAx->ISR, DMA_ISR_TEIF2) == (DMA_ISR_TEIF2)) ? 1UL : 0UL);
1813:../system/include/stm32l4-hal-driver/stm32l4xx_ll_dma.h **** }
1814:../system/include/stm32l4-hal-driver/stm32l4xx_ll_dma.h **** 
1815:../system/include/stm32l4-hal-driver/stm32l4xx_ll_dma.h **** /**
1816:../system/include/stm32l4-hal-driver/stm32l4xx_ll_dma.h ****   * @brief  Get Channel 3 transfer error flag.
1817:../system/include/stm32l4-hal-driver/stm32l4xx_ll_dma.h ****   * @rmtoll ISR          TEIF3         LL_DMA_IsActiveFlag_TE3
1818:../system/include/stm32l4-hal-driver/stm32l4xx_ll_dma.h ****   * @param  DMAx DMAx Instance
1819:../system/include/stm32l4-hal-driver/stm32l4xx_ll_dma.h ****   * @retval State of bit (1 or 0).
1820:../system/include/stm32l4-hal-driver/stm32l4xx_ll_dma.h ****   */
1821:../system/include/stm32l4-hal-driver/stm32l4xx_ll_dma.h **** __STATIC_INLINE uint32_t LL_DMA_IsActiveFlag_TE3(DMA_TypeDef *DMAx)
1822:../system/include/stm32l4-hal-driver/stm32l4xx_ll_dma.h **** {
1823:../system/include/stm32l4-hal-driver/stm32l4xx_ll_dma.h ****   return ((READ_BIT(DMAx->ISR, DMA_ISR_TEIF3) == (DMA_ISR_TEIF3)) ? 1UL : 0UL);
1824:../system/include/stm32l4-hal-driver/stm32l4xx_ll_dma.h **** }
1825:../system/include/stm32l4-hal-driver/stm32l4xx_ll_dma.h **** 
1826:../system/include/stm32l4-hal-driver/stm32l4xx_ll_dma.h **** /**
1827:../system/include/stm32l4-hal-driver/stm32l4xx_ll_dma.h ****   * @brief  Get Channel 4 transfer error flag.
1828:../system/include/stm32l4-hal-driver/stm32l4xx_ll_dma.h ****   * @rmtoll ISR          TEIF4         LL_DMA_IsActiveFlag_TE4
1829:../system/include/stm32l4-hal-driver/stm32l4xx_ll_dma.h ****   * @param  DMAx DMAx Instance
1830:../system/include/stm32l4-hal-driver/stm32l4xx_ll_dma.h ****   * @retval State of bit (1 or 0).
1831:../system/include/stm32l4-hal-driver/stm32l4xx_ll_dma.h ****   */
1832:../system/include/stm32l4-hal-driver/stm32l4xx_ll_dma.h **** __STATIC_INLINE uint32_t LL_DMA_IsActiveFlag_TE4(DMA_TypeDef *DMAx)
1833:../system/include/stm32l4-hal-driver/stm32l4xx_ll_dma.h **** {
1834:../system/include/stm32l4-hal-driver/stm32l4xx_ll_dma.h ****   return ((READ_BIT(DMAx->ISR, DMA_ISR_TEIF4) == (DMA_ISR_TEIF4)) ? 1UL : 0UL);
1835:../system/include/stm32l4-hal-driver/stm32l4xx_ll_dma.h **** }
1836:../system/include/stm32l4-hal-driver/stm32l4xx_ll_dma.h **** 
1837:../system/include/stm32l4-hal-driver/stm32l4xx_ll_dma.h **** /**
1838:../system/include/stm32l4-hal-driver/stm32l4xx_ll_dma.h ****   * @brief  Get Channel 5 transfer error flag.
1839:../system/include/stm32l4-hal-driver/stm32l4xx_ll_dma.h ****   * @rmtoll ISR          TEIF5         LL_DMA_IsActiveFlag_TE5
1840:../system/include/stm32l4-hal-driver/stm32l4xx_ll_dma.h ****   * @param  DMAx DMAx Instance
1841:../system/include/stm32l4-hal-driver/stm32l4xx_ll_dma.h ****   * @retval State of bit (1 or 0).
1842:../system/include/stm32l4-hal-driver/stm32l4xx_ll_dma.h ****   */
1843:../system/include/stm32l4-hal-driver/stm32l4xx_ll_dma.h **** __STATIC_INLINE uint32_t LL_DMA_IsActiveFlag_TE5(DMA_TypeDef *DMAx)
1844:../system/include/stm32l4-hal-driver/stm32l4xx_ll_dma.h **** {
1845:../system/include/stm32l4-hal-driver/stm32l4xx_ll_dma.h ****   return ((READ_BIT(DMAx->ISR, DMA_ISR_TEIF5) == (DMA_ISR_TEIF5)) ? 1UL : 0UL);
1846:../system/include/stm32l4-hal-driver/stm32l4xx_ll_dma.h **** }
1847:../system/include/stm32l4-hal-driver/stm32l4xx_ll_dma.h **** 
1848:../system/include/stm32l4-hal-driver/stm32l4xx_ll_dma.h **** /**
1849:../system/include/stm32l4-hal-driver/stm32l4xx_ll_dma.h ****   * @brief  Get Channel 6 transfer error flag.
1850:../system/include/stm32l4-hal-driver/stm32l4xx_ll_dma.h ****   * @rmtoll ISR          TEIF6         LL_DMA_IsActiveFlag_TE6
1851:../system/include/stm32l4-hal-driver/stm32l4xx_ll_dma.h ****   * @param  DMAx DMAx Instance
1852:../system/include/stm32l4-hal-driver/stm32l4xx_ll_dma.h ****   * @retval State of bit (1 or 0).
1853:../system/include/stm32l4-hal-driver/stm32l4xx_ll_dma.h ****   */
1854:../system/include/stm32l4-hal-driver/stm32l4xx_ll_dma.h **** __STATIC_INLINE uint32_t LL_DMA_IsActiveFlag_TE6(DMA_TypeDef *DMAx)
1855:../system/include/stm32l4-hal-driver/stm32l4xx_ll_dma.h **** {
1856:../system/include/stm32l4-hal-driver/stm32l4xx_ll_dma.h ****   return ((READ_BIT(DMAx->ISR, DMA_ISR_TEIF6) == (DMA_ISR_TEIF6)) ? 1UL : 0UL);
1857:../system/include/stm32l4-hal-driver/stm32l4xx_ll_dma.h **** }
1858:../system/include/stm32l4-hal-driver/stm32l4xx_ll_dma.h **** 
1859:../system/include/stm32l4-hal-driver/stm32l4xx_ll_dma.h **** /**
1860:../system/include/stm32l4-hal-driver/stm32l4xx_ll_dma.h ****   * @brief  Get Channel 7 transfer error flag.
1861:../system/include/stm32l4-hal-driver/stm32l4xx_ll_dma.h ****   * @rmtoll ISR          TEIF7         LL_DMA_IsActiveFlag_TE7
1862:../system/include/stm32l4-hal-driver/stm32l4xx_ll_dma.h ****   * @param  DMAx DMAx Instance
1863:../system/include/stm32l4-hal-driver/stm32l4xx_ll_dma.h ****   * @retval State of bit (1 or 0).
1864:../system/include/stm32l4-hal-driver/stm32l4xx_ll_dma.h ****   */
1865:../system/include/stm32l4-hal-driver/stm32l4xx_ll_dma.h **** __STATIC_INLINE uint32_t LL_DMA_IsActiveFlag_TE7(DMA_TypeDef *DMAx)
1866:../system/include/stm32l4-hal-driver/stm32l4xx_ll_dma.h **** {
1867:../system/include/stm32l4-hal-driver/stm32l4xx_ll_dma.h ****   return ((READ_BIT(DMAx->ISR, DMA_ISR_TEIF7) == (DMA_ISR_TEIF7)) ? 1UL : 0UL);
1868:../system/include/stm32l4-hal-driver/stm32l4xx_ll_dma.h **** }
1869:../system/include/stm32l4-hal-driver/stm32l4xx_ll_dma.h **** 
1870:../system/include/stm32l4-hal-driver/stm32l4xx_ll_dma.h **** /**
1871:../system/include/stm32l4-hal-driver/stm32l4xx_ll_dma.h ****   * @brief  Clear Channel 1 global interrupt flag.
1872:../system/include/stm32l4-hal-driver/stm32l4xx_ll_dma.h ****   * @note Do not Clear Channel 1 global interrupt flag when the channel in ON.
1873:../system/include/stm32l4-hal-driver/stm32l4xx_ll_dma.h ****     Instead clear specific flags transfer complete, half transfer & transfer
1874:../system/include/stm32l4-hal-driver/stm32l4xx_ll_dma.h ****     error flag with LL_DMA_ClearFlag_TC1, LL_DMA_ClearFlag_HT1,
1875:../system/include/stm32l4-hal-driver/stm32l4xx_ll_dma.h ****     LL_DMA_ClearFlag_TE1. bug 2.4.1/2.5.1 in Product Errata Sheet.
1876:../system/include/stm32l4-hal-driver/stm32l4xx_ll_dma.h ****   * @rmtoll IFCR         CGIF1         LL_DMA_ClearFlag_GI1
1877:../system/include/stm32l4-hal-driver/stm32l4xx_ll_dma.h ****   * @param  DMAx DMAx Instance
1878:../system/include/stm32l4-hal-driver/stm32l4xx_ll_dma.h ****   * @retval None
1879:../system/include/stm32l4-hal-driver/stm32l4xx_ll_dma.h ****   */
1880:../system/include/stm32l4-hal-driver/stm32l4xx_ll_dma.h **** __STATIC_INLINE void LL_DMA_ClearFlag_GI1(DMA_TypeDef *DMAx)
1881:../system/include/stm32l4-hal-driver/stm32l4xx_ll_dma.h **** {
1882:../system/include/stm32l4-hal-driver/stm32l4xx_ll_dma.h ****   WRITE_REG(DMAx->IFCR, DMA_IFCR_CGIF1);
1883:../system/include/stm32l4-hal-driver/stm32l4xx_ll_dma.h **** }
1884:../system/include/stm32l4-hal-driver/stm32l4xx_ll_dma.h **** 
1885:../system/include/stm32l4-hal-driver/stm32l4xx_ll_dma.h **** /**
1886:../system/include/stm32l4-hal-driver/stm32l4xx_ll_dma.h ****   * @brief  Clear Channel 2 global interrupt flag.
1887:../system/include/stm32l4-hal-driver/stm32l4xx_ll_dma.h ****   * @note Do not Clear Channel 2 global interrupt flag when the channel in ON.
1888:../system/include/stm32l4-hal-driver/stm32l4xx_ll_dma.h ****     Instead clear specific flags transfer complete, half transfer & transfer
1889:../system/include/stm32l4-hal-driver/stm32l4xx_ll_dma.h ****     error flag with LL_DMA_ClearFlag_TC2, LL_DMA_ClearFlag_HT2,
1890:../system/include/stm32l4-hal-driver/stm32l4xx_ll_dma.h ****     LL_DMA_ClearFlag_TE2. bug id 2.4.1/2.5.1 in Product Errata Sheet.
1891:../system/include/stm32l4-hal-driver/stm32l4xx_ll_dma.h ****   * @rmtoll IFCR         CGIF2         LL_DMA_ClearFlag_GI2
1892:../system/include/stm32l4-hal-driver/stm32l4xx_ll_dma.h ****   * @param  DMAx DMAx Instance
1893:../system/include/stm32l4-hal-driver/stm32l4xx_ll_dma.h ****   * @retval None
1894:../system/include/stm32l4-hal-driver/stm32l4xx_ll_dma.h ****   */
1895:../system/include/stm32l4-hal-driver/stm32l4xx_ll_dma.h **** __STATIC_INLINE void LL_DMA_ClearFlag_GI2(DMA_TypeDef *DMAx)
1896:../system/include/stm32l4-hal-driver/stm32l4xx_ll_dma.h **** {
1897:../system/include/stm32l4-hal-driver/stm32l4xx_ll_dma.h ****   WRITE_REG(DMAx->IFCR, DMA_IFCR_CGIF2);
1898:../system/include/stm32l4-hal-driver/stm32l4xx_ll_dma.h **** }
1899:../system/include/stm32l4-hal-driver/stm32l4xx_ll_dma.h **** 
1900:../system/include/stm32l4-hal-driver/stm32l4xx_ll_dma.h **** /**
1901:../system/include/stm32l4-hal-driver/stm32l4xx_ll_dma.h ****   * @brief  Clear Channel 3 global interrupt flag.
1902:../system/include/stm32l4-hal-driver/stm32l4xx_ll_dma.h ****   * @note Do not Clear Channel 3 global interrupt flag when the channel in ON.
1903:../system/include/stm32l4-hal-driver/stm32l4xx_ll_dma.h ****     Instead clear specific flags transfer complete, half transfer & transfer
1904:../system/include/stm32l4-hal-driver/stm32l4xx_ll_dma.h ****     error flag with LL_DMA_ClearFlag_TC3, LL_DMA_ClearFlag_HT3,
1905:../system/include/stm32l4-hal-driver/stm32l4xx_ll_dma.h ****     LL_DMA_ClearFlag_TE3. bug id 2.4.1/2.5.1 in Product Errata Sheet.
1906:../system/include/stm32l4-hal-driver/stm32l4xx_ll_dma.h ****   * @rmtoll IFCR         CGIF3         LL_DMA_ClearFlag_GI3
1907:../system/include/stm32l4-hal-driver/stm32l4xx_ll_dma.h ****   * @param  DMAx DMAx Instance
1908:../system/include/stm32l4-hal-driver/stm32l4xx_ll_dma.h ****   * @retval None
1909:../system/include/stm32l4-hal-driver/stm32l4xx_ll_dma.h ****   */
1910:../system/include/stm32l4-hal-driver/stm32l4xx_ll_dma.h **** __STATIC_INLINE void LL_DMA_ClearFlag_GI3(DMA_TypeDef *DMAx)
1911:../system/include/stm32l4-hal-driver/stm32l4xx_ll_dma.h **** {
1912:../system/include/stm32l4-hal-driver/stm32l4xx_ll_dma.h ****   WRITE_REG(DMAx->IFCR, DMA_IFCR_CGIF3);
1913:../system/include/stm32l4-hal-driver/stm32l4xx_ll_dma.h **** }
1914:../system/include/stm32l4-hal-driver/stm32l4xx_ll_dma.h **** 
1915:../system/include/stm32l4-hal-driver/stm32l4xx_ll_dma.h **** /**
1916:../system/include/stm32l4-hal-driver/stm32l4xx_ll_dma.h ****   * @brief  Clear Channel 4 global interrupt flag.
1917:../system/include/stm32l4-hal-driver/stm32l4xx_ll_dma.h ****   * @note Do not Clear Channel 4 global interrupt flag when the channel in ON.
1918:../system/include/stm32l4-hal-driver/stm32l4xx_ll_dma.h ****     Instead clear specific flags transfer complete, half transfer & transfer
1919:../system/include/stm32l4-hal-driver/stm32l4xx_ll_dma.h ****     error flag with LL_DMA_ClearFlag_TC4, LL_DMA_ClearFlag_HT4,
1920:../system/include/stm32l4-hal-driver/stm32l4xx_ll_dma.h ****     LL_DMA_ClearFlag_TE4. bug id 2.4.1/2.5.1 in Product Errata Sheet.
1921:../system/include/stm32l4-hal-driver/stm32l4xx_ll_dma.h ****   * @rmtoll IFCR         CGIF4         LL_DMA_ClearFlag_GI4
1922:../system/include/stm32l4-hal-driver/stm32l4xx_ll_dma.h ****   * @param  DMAx DMAx Instance
1923:../system/include/stm32l4-hal-driver/stm32l4xx_ll_dma.h ****   * @retval None
1924:../system/include/stm32l4-hal-driver/stm32l4xx_ll_dma.h ****   */
1925:../system/include/stm32l4-hal-driver/stm32l4xx_ll_dma.h **** __STATIC_INLINE void LL_DMA_ClearFlag_GI4(DMA_TypeDef *DMAx)
1926:../system/include/stm32l4-hal-driver/stm32l4xx_ll_dma.h **** {
1927:../system/include/stm32l4-hal-driver/stm32l4xx_ll_dma.h ****   WRITE_REG(DMAx->IFCR, DMA_IFCR_CGIF4);
1928:../system/include/stm32l4-hal-driver/stm32l4xx_ll_dma.h **** }
1929:../system/include/stm32l4-hal-driver/stm32l4xx_ll_dma.h **** 
1930:../system/include/stm32l4-hal-driver/stm32l4xx_ll_dma.h **** /**
1931:../system/include/stm32l4-hal-driver/stm32l4xx_ll_dma.h ****   * @brief  Clear Channel 5 global interrupt flag.
1932:../system/include/stm32l4-hal-driver/stm32l4xx_ll_dma.h ****   * @note Do not Clear Channel 5 global interrupt flag when the channel in ON.
1933:../system/include/stm32l4-hal-driver/stm32l4xx_ll_dma.h ****     Instead clear specific flags transfer complete, half transfer & transfer
1934:../system/include/stm32l4-hal-driver/stm32l4xx_ll_dma.h ****     error flag with LL_DMA_ClearFlag_TC5, LL_DMA_ClearFlag_HT5,
1935:../system/include/stm32l4-hal-driver/stm32l4xx_ll_dma.h ****     LL_DMA_ClearFlag_TE5. bug id 2.4.1/2.5.1 in Product Errata Sheet.
1936:../system/include/stm32l4-hal-driver/stm32l4xx_ll_dma.h ****   * @rmtoll IFCR         CGIF5         LL_DMA_ClearFlag_GI5
1937:../system/include/stm32l4-hal-driver/stm32l4xx_ll_dma.h ****   * @param  DMAx DMAx Instance
1938:../system/include/stm32l4-hal-driver/stm32l4xx_ll_dma.h ****   * @retval None
1939:../system/include/stm32l4-hal-driver/stm32l4xx_ll_dma.h ****   */
1940:../system/include/stm32l4-hal-driver/stm32l4xx_ll_dma.h **** __STATIC_INLINE void LL_DMA_ClearFlag_GI5(DMA_TypeDef *DMAx)
1941:../system/include/stm32l4-hal-driver/stm32l4xx_ll_dma.h **** {
1942:../system/include/stm32l4-hal-driver/stm32l4xx_ll_dma.h ****   WRITE_REG(DMAx->IFCR, DMA_IFCR_CGIF5);
1943:../system/include/stm32l4-hal-driver/stm32l4xx_ll_dma.h **** }
1944:../system/include/stm32l4-hal-driver/stm32l4xx_ll_dma.h **** 
1945:../system/include/stm32l4-hal-driver/stm32l4xx_ll_dma.h **** /**
1946:../system/include/stm32l4-hal-driver/stm32l4xx_ll_dma.h ****   * @brief  Clear Channel 6 global interrupt flag.
1947:../system/include/stm32l4-hal-driver/stm32l4xx_ll_dma.h ****   * @note Do not Clear Channel 6 global interrupt flag when the channel in ON.
1948:../system/include/stm32l4-hal-driver/stm32l4xx_ll_dma.h ****     Instead clear specific flags transfer complete, half transfer & transfer
1949:../system/include/stm32l4-hal-driver/stm32l4xx_ll_dma.h ****     error flag with LL_DMA_ClearFlag_TC6, LL_DMA_ClearFlag_HT6,
1950:../system/include/stm32l4-hal-driver/stm32l4xx_ll_dma.h ****     LL_DMA_ClearFlag_TE6. bug id 2.4.1/2.5.1 in Product Errata Sheet.
1951:../system/include/stm32l4-hal-driver/stm32l4xx_ll_dma.h ****   * @rmtoll IFCR         CGIF6         LL_DMA_ClearFlag_GI6
1952:../system/include/stm32l4-hal-driver/stm32l4xx_ll_dma.h ****   * @param  DMAx DMAx Instance
1953:../system/include/stm32l4-hal-driver/stm32l4xx_ll_dma.h ****   * @retval None
1954:../system/include/stm32l4-hal-driver/stm32l4xx_ll_dma.h ****   */
1955:../system/include/stm32l4-hal-driver/stm32l4xx_ll_dma.h **** __STATIC_INLINE void LL_DMA_ClearFlag_GI6(DMA_TypeDef *DMAx)
1956:../system/include/stm32l4-hal-driver/stm32l4xx_ll_dma.h **** {
1957:../system/include/stm32l4-hal-driver/stm32l4xx_ll_dma.h ****   WRITE_REG(DMAx->IFCR, DMA_IFCR_CGIF6);
1958:../system/include/stm32l4-hal-driver/stm32l4xx_ll_dma.h **** }
1959:../system/include/stm32l4-hal-driver/stm32l4xx_ll_dma.h **** 
1960:../system/include/stm32l4-hal-driver/stm32l4xx_ll_dma.h **** /**
1961:../system/include/stm32l4-hal-driver/stm32l4xx_ll_dma.h ****   * @brief  Clear Channel 7 global interrupt flag.
1962:../system/include/stm32l4-hal-driver/stm32l4xx_ll_dma.h ****   * @note Do not Clear Channel 7 global interrupt flag when the channel in ON.
1963:../system/include/stm32l4-hal-driver/stm32l4xx_ll_dma.h ****     Instead clear specific flags transfer complete, half transfer & transfer
1964:../system/include/stm32l4-hal-driver/stm32l4xx_ll_dma.h ****     error flag with LL_DMA_ClearFlag_TC7, LL_DMA_ClearFlag_HT7,
1965:../system/include/stm32l4-hal-driver/stm32l4xx_ll_dma.h ****     LL_DMA_ClearFlag_TE7. bug id 2.4.1/2.5.1 in Product Errata Sheet.
1966:../system/include/stm32l4-hal-driver/stm32l4xx_ll_dma.h ****   * @rmtoll IFCR         CGIF7         LL_DMA_ClearFlag_GI7
1967:../system/include/stm32l4-hal-driver/stm32l4xx_ll_dma.h ****   * @param  DMAx DMAx Instance
1968:../system/include/stm32l4-hal-driver/stm32l4xx_ll_dma.h ****   * @retval None
1969:../system/include/stm32l4-hal-driver/stm32l4xx_ll_dma.h ****   */
1970:../system/include/stm32l4-hal-driver/stm32l4xx_ll_dma.h **** __STATIC_INLINE void LL_DMA_ClearFlag_GI7(DMA_TypeDef *DMAx)
1971:../system/include/stm32l4-hal-driver/stm32l4xx_ll_dma.h **** {
1972:../system/include/stm32l4-hal-driver/stm32l4xx_ll_dma.h ****   WRITE_REG(DMAx->IFCR, DMA_IFCR_CGIF7);
1973:../system/include/stm32l4-hal-driver/stm32l4xx_ll_dma.h **** }
1974:../system/include/stm32l4-hal-driver/stm32l4xx_ll_dma.h **** 
1975:../system/include/stm32l4-hal-driver/stm32l4xx_ll_dma.h **** /**
1976:../system/include/stm32l4-hal-driver/stm32l4xx_ll_dma.h ****   * @brief  Clear Channel 1  transfer complete flag.
1977:../system/include/stm32l4-hal-driver/stm32l4xx_ll_dma.h ****   * @rmtoll IFCR         CTCIF1        LL_DMA_ClearFlag_TC1
1978:../system/include/stm32l4-hal-driver/stm32l4xx_ll_dma.h ****   * @param  DMAx DMAx Instance
1979:../system/include/stm32l4-hal-driver/stm32l4xx_ll_dma.h ****   * @retval None
1980:../system/include/stm32l4-hal-driver/stm32l4xx_ll_dma.h ****   */
1981:../system/include/stm32l4-hal-driver/stm32l4xx_ll_dma.h **** __STATIC_INLINE void LL_DMA_ClearFlag_TC1(DMA_TypeDef *DMAx)
1982:../system/include/stm32l4-hal-driver/stm32l4xx_ll_dma.h **** {
1983:../system/include/stm32l4-hal-driver/stm32l4xx_ll_dma.h ****   WRITE_REG(DMAx->IFCR, DMA_IFCR_CTCIF1);
1984:../system/include/stm32l4-hal-driver/stm32l4xx_ll_dma.h **** }
1985:../system/include/stm32l4-hal-driver/stm32l4xx_ll_dma.h **** 
1986:../system/include/stm32l4-hal-driver/stm32l4xx_ll_dma.h **** /**
1987:../system/include/stm32l4-hal-driver/stm32l4xx_ll_dma.h ****   * @brief  Clear Channel 2  transfer complete flag.
1988:../system/include/stm32l4-hal-driver/stm32l4xx_ll_dma.h ****   * @rmtoll IFCR         CTCIF2        LL_DMA_ClearFlag_TC2
1989:../system/include/stm32l4-hal-driver/stm32l4xx_ll_dma.h ****   * @param  DMAx DMAx Instance
1990:../system/include/stm32l4-hal-driver/stm32l4xx_ll_dma.h ****   * @retval None
1991:../system/include/stm32l4-hal-driver/stm32l4xx_ll_dma.h ****   */
1992:../system/include/stm32l4-hal-driver/stm32l4xx_ll_dma.h **** __STATIC_INLINE void LL_DMA_ClearFlag_TC2(DMA_TypeDef *DMAx)
1993:../system/include/stm32l4-hal-driver/stm32l4xx_ll_dma.h **** {
1994:../system/include/stm32l4-hal-driver/stm32l4xx_ll_dma.h ****   WRITE_REG(DMAx->IFCR, DMA_IFCR_CTCIF2);
1995:../system/include/stm32l4-hal-driver/stm32l4xx_ll_dma.h **** }
1996:../system/include/stm32l4-hal-driver/stm32l4xx_ll_dma.h **** 
1997:../system/include/stm32l4-hal-driver/stm32l4xx_ll_dma.h **** /**
1998:../system/include/stm32l4-hal-driver/stm32l4xx_ll_dma.h ****   * @brief  Clear Channel 3  transfer complete flag.
1999:../system/include/stm32l4-hal-driver/stm32l4xx_ll_dma.h ****   * @rmtoll IFCR         CTCIF3        LL_DMA_ClearFlag_TC3
2000:../system/include/stm32l4-hal-driver/stm32l4xx_ll_dma.h ****   * @param  DMAx DMAx Instance
2001:../system/include/stm32l4-hal-driver/stm32l4xx_ll_dma.h ****   * @retval None
2002:../system/include/stm32l4-hal-driver/stm32l4xx_ll_dma.h ****   */
2003:../system/include/stm32l4-hal-driver/stm32l4xx_ll_dma.h **** __STATIC_INLINE void LL_DMA_ClearFlag_TC3(DMA_TypeDef *DMAx)
2004:../system/include/stm32l4-hal-driver/stm32l4xx_ll_dma.h **** {
2005:../system/include/stm32l4-hal-driver/stm32l4xx_ll_dma.h ****   WRITE_REG(DMAx->IFCR, DMA_IFCR_CTCIF3);
2006:../system/include/stm32l4-hal-driver/stm32l4xx_ll_dma.h **** }
2007:../system/include/stm32l4-hal-driver/stm32l4xx_ll_dma.h **** 
2008:../system/include/stm32l4-hal-driver/stm32l4xx_ll_dma.h **** /**
2009:../system/include/stm32l4-hal-driver/stm32l4xx_ll_dma.h ****   * @brief  Clear Channel 4  transfer complete flag.
2010:../system/include/stm32l4-hal-driver/stm32l4xx_ll_dma.h ****   * @rmtoll IFCR         CTCIF4        LL_DMA_ClearFlag_TC4
2011:../system/include/stm32l4-hal-driver/stm32l4xx_ll_dma.h ****   * @param  DMAx DMAx Instance
2012:../system/include/stm32l4-hal-driver/stm32l4xx_ll_dma.h ****   * @retval None
2013:../system/include/stm32l4-hal-driver/stm32l4xx_ll_dma.h ****   */
2014:../system/include/stm32l4-hal-driver/stm32l4xx_ll_dma.h **** __STATIC_INLINE void LL_DMA_ClearFlag_TC4(DMA_TypeDef *DMAx)
2015:../system/include/stm32l4-hal-driver/stm32l4xx_ll_dma.h **** {
2016:../system/include/stm32l4-hal-driver/stm32l4xx_ll_dma.h ****   WRITE_REG(DMAx->IFCR, DMA_IFCR_CTCIF4);
2017:../system/include/stm32l4-hal-driver/stm32l4xx_ll_dma.h **** }
2018:../system/include/stm32l4-hal-driver/stm32l4xx_ll_dma.h **** 
2019:../system/include/stm32l4-hal-driver/stm32l4xx_ll_dma.h **** /**
2020:../system/include/stm32l4-hal-driver/stm32l4xx_ll_dma.h ****   * @brief  Clear Channel 5  transfer complete flag.
2021:../system/include/stm32l4-hal-driver/stm32l4xx_ll_dma.h ****   * @rmtoll IFCR         CTCIF5        LL_DMA_ClearFlag_TC5
2022:../system/include/stm32l4-hal-driver/stm32l4xx_ll_dma.h ****   * @param  DMAx DMAx Instance
2023:../system/include/stm32l4-hal-driver/stm32l4xx_ll_dma.h ****   * @retval None
2024:../system/include/stm32l4-hal-driver/stm32l4xx_ll_dma.h ****   */
2025:../system/include/stm32l4-hal-driver/stm32l4xx_ll_dma.h **** __STATIC_INLINE void LL_DMA_ClearFlag_TC5(DMA_TypeDef *DMAx)
2026:../system/include/stm32l4-hal-driver/stm32l4xx_ll_dma.h **** {
2027:../system/include/stm32l4-hal-driver/stm32l4xx_ll_dma.h ****   WRITE_REG(DMAx->IFCR, DMA_IFCR_CTCIF5);
2028:../system/include/stm32l4-hal-driver/stm32l4xx_ll_dma.h **** }
2029:../system/include/stm32l4-hal-driver/stm32l4xx_ll_dma.h **** 
2030:../system/include/stm32l4-hal-driver/stm32l4xx_ll_dma.h **** /**
2031:../system/include/stm32l4-hal-driver/stm32l4xx_ll_dma.h ****   * @brief  Clear Channel 6  transfer complete flag.
2032:../system/include/stm32l4-hal-driver/stm32l4xx_ll_dma.h ****   * @rmtoll IFCR         CTCIF6        LL_DMA_ClearFlag_TC6
2033:../system/include/stm32l4-hal-driver/stm32l4xx_ll_dma.h ****   * @param  DMAx DMAx Instance
2034:../system/include/stm32l4-hal-driver/stm32l4xx_ll_dma.h ****   * @retval None
2035:../system/include/stm32l4-hal-driver/stm32l4xx_ll_dma.h ****   */
2036:../system/include/stm32l4-hal-driver/stm32l4xx_ll_dma.h **** __STATIC_INLINE void LL_DMA_ClearFlag_TC6(DMA_TypeDef *DMAx)
2037:../system/include/stm32l4-hal-driver/stm32l4xx_ll_dma.h **** {
2038:../system/include/stm32l4-hal-driver/stm32l4xx_ll_dma.h ****   WRITE_REG(DMAx->IFCR, DMA_IFCR_CTCIF6);
2039:../system/include/stm32l4-hal-driver/stm32l4xx_ll_dma.h **** }
2040:../system/include/stm32l4-hal-driver/stm32l4xx_ll_dma.h **** 
2041:../system/include/stm32l4-hal-driver/stm32l4xx_ll_dma.h **** /**
2042:../system/include/stm32l4-hal-driver/stm32l4xx_ll_dma.h ****   * @brief  Clear Channel 7  transfer complete flag.
2043:../system/include/stm32l4-hal-driver/stm32l4xx_ll_dma.h ****   * @rmtoll IFCR         CTCIF7        LL_DMA_ClearFlag_TC7
2044:../system/include/stm32l4-hal-driver/stm32l4xx_ll_dma.h ****   * @param  DMAx DMAx Instance
2045:../system/include/stm32l4-hal-driver/stm32l4xx_ll_dma.h ****   * @retval None
2046:../system/include/stm32l4-hal-driver/stm32l4xx_ll_dma.h ****   */
2047:../system/include/stm32l4-hal-driver/stm32l4xx_ll_dma.h **** __STATIC_INLINE void LL_DMA_ClearFlag_TC7(DMA_TypeDef *DMAx)
2048:../system/include/stm32l4-hal-driver/stm32l4xx_ll_dma.h **** {
2049:../system/include/stm32l4-hal-driver/stm32l4xx_ll_dma.h ****   WRITE_REG(DMAx->IFCR, DMA_IFCR_CTCIF7);
2050:../system/include/stm32l4-hal-driver/stm32l4xx_ll_dma.h **** }
2051:../system/include/stm32l4-hal-driver/stm32l4xx_ll_dma.h **** 
2052:../system/include/stm32l4-hal-driver/stm32l4xx_ll_dma.h **** /**
2053:../system/include/stm32l4-hal-driver/stm32l4xx_ll_dma.h ****   * @brief  Clear Channel 1  half transfer flag.
2054:../system/include/stm32l4-hal-driver/stm32l4xx_ll_dma.h ****   * @rmtoll IFCR         CHTIF1        LL_DMA_ClearFlag_HT1
2055:../system/include/stm32l4-hal-driver/stm32l4xx_ll_dma.h ****   * @param  DMAx DMAx Instance
2056:../system/include/stm32l4-hal-driver/stm32l4xx_ll_dma.h ****   * @retval None
2057:../system/include/stm32l4-hal-driver/stm32l4xx_ll_dma.h ****   */
2058:../system/include/stm32l4-hal-driver/stm32l4xx_ll_dma.h **** __STATIC_INLINE void LL_DMA_ClearFlag_HT1(DMA_TypeDef *DMAx)
2059:../system/include/stm32l4-hal-driver/stm32l4xx_ll_dma.h **** {
2060:../system/include/stm32l4-hal-driver/stm32l4xx_ll_dma.h ****   WRITE_REG(DMAx->IFCR, DMA_IFCR_CHTIF1);
2061:../system/include/stm32l4-hal-driver/stm32l4xx_ll_dma.h **** }
2062:../system/include/stm32l4-hal-driver/stm32l4xx_ll_dma.h **** 
2063:../system/include/stm32l4-hal-driver/stm32l4xx_ll_dma.h **** /**
2064:../system/include/stm32l4-hal-driver/stm32l4xx_ll_dma.h ****   * @brief  Clear Channel 2  half transfer flag.
2065:../system/include/stm32l4-hal-driver/stm32l4xx_ll_dma.h ****   * @rmtoll IFCR         CHTIF2        LL_DMA_ClearFlag_HT2
2066:../system/include/stm32l4-hal-driver/stm32l4xx_ll_dma.h ****   * @param  DMAx DMAx Instance
2067:../system/include/stm32l4-hal-driver/stm32l4xx_ll_dma.h ****   * @retval None
2068:../system/include/stm32l4-hal-driver/stm32l4xx_ll_dma.h ****   */
2069:../system/include/stm32l4-hal-driver/stm32l4xx_ll_dma.h **** __STATIC_INLINE void LL_DMA_ClearFlag_HT2(DMA_TypeDef *DMAx)
2070:../system/include/stm32l4-hal-driver/stm32l4xx_ll_dma.h **** {
2071:../system/include/stm32l4-hal-driver/stm32l4xx_ll_dma.h ****   WRITE_REG(DMAx->IFCR, DMA_IFCR_CHTIF2);
2072:../system/include/stm32l4-hal-driver/stm32l4xx_ll_dma.h **** }
2073:../system/include/stm32l4-hal-driver/stm32l4xx_ll_dma.h **** 
2074:../system/include/stm32l4-hal-driver/stm32l4xx_ll_dma.h **** /**
2075:../system/include/stm32l4-hal-driver/stm32l4xx_ll_dma.h ****   * @brief  Clear Channel 3  half transfer flag.
2076:../system/include/stm32l4-hal-driver/stm32l4xx_ll_dma.h ****   * @rmtoll IFCR         CHTIF3        LL_DMA_ClearFlag_HT3
2077:../system/include/stm32l4-hal-driver/stm32l4xx_ll_dma.h ****   * @param  DMAx DMAx Instance
2078:../system/include/stm32l4-hal-driver/stm32l4xx_ll_dma.h ****   * @retval None
2079:../system/include/stm32l4-hal-driver/stm32l4xx_ll_dma.h ****   */
2080:../system/include/stm32l4-hal-driver/stm32l4xx_ll_dma.h **** __STATIC_INLINE void LL_DMA_ClearFlag_HT3(DMA_TypeDef *DMAx)
2081:../system/include/stm32l4-hal-driver/stm32l4xx_ll_dma.h **** {
2082:../system/include/stm32l4-hal-driver/stm32l4xx_ll_dma.h ****   WRITE_REG(DMAx->IFCR, DMA_IFCR_CHTIF3);
2083:../system/include/stm32l4-hal-driver/stm32l4xx_ll_dma.h **** }
2084:../system/include/stm32l4-hal-driver/stm32l4xx_ll_dma.h **** 
2085:../system/include/stm32l4-hal-driver/stm32l4xx_ll_dma.h **** /**
2086:../system/include/stm32l4-hal-driver/stm32l4xx_ll_dma.h ****   * @brief  Clear Channel 4  half transfer flag.
2087:../system/include/stm32l4-hal-driver/stm32l4xx_ll_dma.h ****   * @rmtoll IFCR         CHTIF4        LL_DMA_ClearFlag_HT4
2088:../system/include/stm32l4-hal-driver/stm32l4xx_ll_dma.h ****   * @param  DMAx DMAx Instance
2089:../system/include/stm32l4-hal-driver/stm32l4xx_ll_dma.h ****   * @retval None
2090:../system/include/stm32l4-hal-driver/stm32l4xx_ll_dma.h ****   */
2091:../system/include/stm32l4-hal-driver/stm32l4xx_ll_dma.h **** __STATIC_INLINE void LL_DMA_ClearFlag_HT4(DMA_TypeDef *DMAx)
2092:../system/include/stm32l4-hal-driver/stm32l4xx_ll_dma.h **** {
2093:../system/include/stm32l4-hal-driver/stm32l4xx_ll_dma.h ****   WRITE_REG(DMAx->IFCR, DMA_IFCR_CHTIF4);
2094:../system/include/stm32l4-hal-driver/stm32l4xx_ll_dma.h **** }
2095:../system/include/stm32l4-hal-driver/stm32l4xx_ll_dma.h **** 
2096:../system/include/stm32l4-hal-driver/stm32l4xx_ll_dma.h **** /**
2097:../system/include/stm32l4-hal-driver/stm32l4xx_ll_dma.h ****   * @brief  Clear Channel 5  half transfer flag.
2098:../system/include/stm32l4-hal-driver/stm32l4xx_ll_dma.h ****   * @rmtoll IFCR         CHTIF5        LL_DMA_ClearFlag_HT5
2099:../system/include/stm32l4-hal-driver/stm32l4xx_ll_dma.h ****   * @param  DMAx DMAx Instance
2100:../system/include/stm32l4-hal-driver/stm32l4xx_ll_dma.h ****   * @retval None
2101:../system/include/stm32l4-hal-driver/stm32l4xx_ll_dma.h ****   */
2102:../system/include/stm32l4-hal-driver/stm32l4xx_ll_dma.h **** __STATIC_INLINE void LL_DMA_ClearFlag_HT5(DMA_TypeDef *DMAx)
2103:../system/include/stm32l4-hal-driver/stm32l4xx_ll_dma.h **** {
2104:../system/include/stm32l4-hal-driver/stm32l4xx_ll_dma.h ****   WRITE_REG(DMAx->IFCR, DMA_IFCR_CHTIF5);
2105:../system/include/stm32l4-hal-driver/stm32l4xx_ll_dma.h **** }
2106:../system/include/stm32l4-hal-driver/stm32l4xx_ll_dma.h **** 
2107:../system/include/stm32l4-hal-driver/stm32l4xx_ll_dma.h **** /**
2108:../system/include/stm32l4-hal-driver/stm32l4xx_ll_dma.h ****   * @brief  Clear Channel 6  half transfer flag.
2109:../system/include/stm32l4-hal-driver/stm32l4xx_ll_dma.h ****   * @rmtoll IFCR         CHTIF6        LL_DMA_ClearFlag_HT6
2110:../system/include/stm32l4-hal-driver/stm32l4xx_ll_dma.h ****   * @param  DMAx DMAx Instance
2111:../system/include/stm32l4-hal-driver/stm32l4xx_ll_dma.h ****   * @retval None
2112:../system/include/stm32l4-hal-driver/stm32l4xx_ll_dma.h ****   */
2113:../system/include/stm32l4-hal-driver/stm32l4xx_ll_dma.h **** __STATIC_INLINE void LL_DMA_ClearFlag_HT6(DMA_TypeDef *DMAx)
2114:../system/include/stm32l4-hal-driver/stm32l4xx_ll_dma.h **** {
2115:../system/include/stm32l4-hal-driver/stm32l4xx_ll_dma.h ****   WRITE_REG(DMAx->IFCR, DMA_IFCR_CHTIF6);
2116:../system/include/stm32l4-hal-driver/stm32l4xx_ll_dma.h **** }
2117:../system/include/stm32l4-hal-driver/stm32l4xx_ll_dma.h **** 
2118:../system/include/stm32l4-hal-driver/stm32l4xx_ll_dma.h **** /**
2119:../system/include/stm32l4-hal-driver/stm32l4xx_ll_dma.h ****   * @brief  Clear Channel 7  half transfer flag.
2120:../system/include/stm32l4-hal-driver/stm32l4xx_ll_dma.h ****   * @rmtoll IFCR         CHTIF7        LL_DMA_ClearFlag_HT7
2121:../system/include/stm32l4-hal-driver/stm32l4xx_ll_dma.h ****   * @param  DMAx DMAx Instance
2122:../system/include/stm32l4-hal-driver/stm32l4xx_ll_dma.h ****   * @retval None
2123:../system/include/stm32l4-hal-driver/stm32l4xx_ll_dma.h ****   */
2124:../system/include/stm32l4-hal-driver/stm32l4xx_ll_dma.h **** __STATIC_INLINE void LL_DMA_ClearFlag_HT7(DMA_TypeDef *DMAx)
2125:../system/include/stm32l4-hal-driver/stm32l4xx_ll_dma.h **** {
2126:../system/include/stm32l4-hal-driver/stm32l4xx_ll_dma.h ****   WRITE_REG(DMAx->IFCR, DMA_IFCR_CHTIF7);
2127:../system/include/stm32l4-hal-driver/stm32l4xx_ll_dma.h **** }
2128:../system/include/stm32l4-hal-driver/stm32l4xx_ll_dma.h **** 
2129:../system/include/stm32l4-hal-driver/stm32l4xx_ll_dma.h **** /**
2130:../system/include/stm32l4-hal-driver/stm32l4xx_ll_dma.h ****   * @brief  Clear Channel 1 transfer error flag.
2131:../system/include/stm32l4-hal-driver/stm32l4xx_ll_dma.h ****   * @rmtoll IFCR         CTEIF1        LL_DMA_ClearFlag_TE1
2132:../system/include/stm32l4-hal-driver/stm32l4xx_ll_dma.h ****   * @param  DMAx DMAx Instance
2133:../system/include/stm32l4-hal-driver/stm32l4xx_ll_dma.h ****   * @retval None
2134:../system/include/stm32l4-hal-driver/stm32l4xx_ll_dma.h ****   */
2135:../system/include/stm32l4-hal-driver/stm32l4xx_ll_dma.h **** __STATIC_INLINE void LL_DMA_ClearFlag_TE1(DMA_TypeDef *DMAx)
2136:../system/include/stm32l4-hal-driver/stm32l4xx_ll_dma.h **** {
2137:../system/include/stm32l4-hal-driver/stm32l4xx_ll_dma.h ****   WRITE_REG(DMAx->IFCR, DMA_IFCR_CTEIF1);
2138:../system/include/stm32l4-hal-driver/stm32l4xx_ll_dma.h **** }
2139:../system/include/stm32l4-hal-driver/stm32l4xx_ll_dma.h **** 
2140:../system/include/stm32l4-hal-driver/stm32l4xx_ll_dma.h **** /**
2141:../system/include/stm32l4-hal-driver/stm32l4xx_ll_dma.h ****   * @brief  Clear Channel 2 transfer error flag.
2142:../system/include/stm32l4-hal-driver/stm32l4xx_ll_dma.h ****   * @rmtoll IFCR         CTEIF2        LL_DMA_ClearFlag_TE2
2143:../system/include/stm32l4-hal-driver/stm32l4xx_ll_dma.h ****   * @param  DMAx DMAx Instance
2144:../system/include/stm32l4-hal-driver/stm32l4xx_ll_dma.h ****   * @retval None
2145:../system/include/stm32l4-hal-driver/stm32l4xx_ll_dma.h ****   */
2146:../system/include/stm32l4-hal-driver/stm32l4xx_ll_dma.h **** __STATIC_INLINE void LL_DMA_ClearFlag_TE2(DMA_TypeDef *DMAx)
2147:../system/include/stm32l4-hal-driver/stm32l4xx_ll_dma.h **** {
2148:../system/include/stm32l4-hal-driver/stm32l4xx_ll_dma.h ****   WRITE_REG(DMAx->IFCR, DMA_IFCR_CTEIF2);
2149:../system/include/stm32l4-hal-driver/stm32l4xx_ll_dma.h **** }
2150:../system/include/stm32l4-hal-driver/stm32l4xx_ll_dma.h **** 
2151:../system/include/stm32l4-hal-driver/stm32l4xx_ll_dma.h **** /**
2152:../system/include/stm32l4-hal-driver/stm32l4xx_ll_dma.h ****   * @brief  Clear Channel 3 transfer error flag.
2153:../system/include/stm32l4-hal-driver/stm32l4xx_ll_dma.h ****   * @rmtoll IFCR         CTEIF3        LL_DMA_ClearFlag_TE3
2154:../system/include/stm32l4-hal-driver/stm32l4xx_ll_dma.h ****   * @param  DMAx DMAx Instance
2155:../system/include/stm32l4-hal-driver/stm32l4xx_ll_dma.h ****   * @retval None
2156:../system/include/stm32l4-hal-driver/stm32l4xx_ll_dma.h ****   */
2157:../system/include/stm32l4-hal-driver/stm32l4xx_ll_dma.h **** __STATIC_INLINE void LL_DMA_ClearFlag_TE3(DMA_TypeDef *DMAx)
2158:../system/include/stm32l4-hal-driver/stm32l4xx_ll_dma.h **** {
2159:../system/include/stm32l4-hal-driver/stm32l4xx_ll_dma.h ****   WRITE_REG(DMAx->IFCR, DMA_IFCR_CTEIF3);
2160:../system/include/stm32l4-hal-driver/stm32l4xx_ll_dma.h **** }
2161:../system/include/stm32l4-hal-driver/stm32l4xx_ll_dma.h **** 
2162:../system/include/stm32l4-hal-driver/stm32l4xx_ll_dma.h **** /**
2163:../system/include/stm32l4-hal-driver/stm32l4xx_ll_dma.h ****   * @brief  Clear Channel 4 transfer error flag.
2164:../system/include/stm32l4-hal-driver/stm32l4xx_ll_dma.h ****   * @rmtoll IFCR         CTEIF4        LL_DMA_ClearFlag_TE4
2165:../system/include/stm32l4-hal-driver/stm32l4xx_ll_dma.h ****   * @param  DMAx DMAx Instance
2166:../system/include/stm32l4-hal-driver/stm32l4xx_ll_dma.h ****   * @retval None
2167:../system/include/stm32l4-hal-driver/stm32l4xx_ll_dma.h ****   */
2168:../system/include/stm32l4-hal-driver/stm32l4xx_ll_dma.h **** __STATIC_INLINE void LL_DMA_ClearFlag_TE4(DMA_TypeDef *DMAx)
2169:../system/include/stm32l4-hal-driver/stm32l4xx_ll_dma.h **** {
2170:../system/include/stm32l4-hal-driver/stm32l4xx_ll_dma.h ****   WRITE_REG(DMAx->IFCR, DMA_IFCR_CTEIF4);
2171:../system/include/stm32l4-hal-driver/stm32l4xx_ll_dma.h **** }
2172:../system/include/stm32l4-hal-driver/stm32l4xx_ll_dma.h **** 
2173:../system/include/stm32l4-hal-driver/stm32l4xx_ll_dma.h **** /**
2174:../system/include/stm32l4-hal-driver/stm32l4xx_ll_dma.h ****   * @brief  Clear Channel 5 transfer error flag.
2175:../system/include/stm32l4-hal-driver/stm32l4xx_ll_dma.h ****   * @rmtoll IFCR         CTEIF5        LL_DMA_ClearFlag_TE5
2176:../system/include/stm32l4-hal-driver/stm32l4xx_ll_dma.h ****   * @param  DMAx DMAx Instance
2177:../system/include/stm32l4-hal-driver/stm32l4xx_ll_dma.h ****   * @retval None
2178:../system/include/stm32l4-hal-driver/stm32l4xx_ll_dma.h ****   */
2179:../system/include/stm32l4-hal-driver/stm32l4xx_ll_dma.h **** __STATIC_INLINE void LL_DMA_ClearFlag_TE5(DMA_TypeDef *DMAx)
2180:../system/include/stm32l4-hal-driver/stm32l4xx_ll_dma.h **** {
2181:../system/include/stm32l4-hal-driver/stm32l4xx_ll_dma.h ****   WRITE_REG(DMAx->IFCR, DMA_IFCR_CTEIF5);
2182:../system/include/stm32l4-hal-driver/stm32l4xx_ll_dma.h **** }
2183:../system/include/stm32l4-hal-driver/stm32l4xx_ll_dma.h **** 
2184:../system/include/stm32l4-hal-driver/stm32l4xx_ll_dma.h **** /**
2185:../system/include/stm32l4-hal-driver/stm32l4xx_ll_dma.h ****   * @brief  Clear Channel 6 transfer error flag.
2186:../system/include/stm32l4-hal-driver/stm32l4xx_ll_dma.h ****   * @rmtoll IFCR         CTEIF6        LL_DMA_ClearFlag_TE6
2187:../system/include/stm32l4-hal-driver/stm32l4xx_ll_dma.h ****   * @param  DMAx DMAx Instance
2188:../system/include/stm32l4-hal-driver/stm32l4xx_ll_dma.h ****   * @retval None
2189:../system/include/stm32l4-hal-driver/stm32l4xx_ll_dma.h ****   */
2190:../system/include/stm32l4-hal-driver/stm32l4xx_ll_dma.h **** __STATIC_INLINE void LL_DMA_ClearFlag_TE6(DMA_TypeDef *DMAx)
2191:../system/include/stm32l4-hal-driver/stm32l4xx_ll_dma.h **** {
2192:../system/include/stm32l4-hal-driver/stm32l4xx_ll_dma.h ****   WRITE_REG(DMAx->IFCR, DMA_IFCR_CTEIF6);
2193:../system/include/stm32l4-hal-driver/stm32l4xx_ll_dma.h **** }
2194:../system/include/stm32l4-hal-driver/stm32l4xx_ll_dma.h **** 
2195:../system/include/stm32l4-hal-driver/stm32l4xx_ll_dma.h **** /**
2196:../system/include/stm32l4-hal-driver/stm32l4xx_ll_dma.h ****   * @brief  Clear Channel 7 transfer error flag.
2197:../system/include/stm32l4-hal-driver/stm32l4xx_ll_dma.h ****   * @rmtoll IFCR         CTEIF7        LL_DMA_ClearFlag_TE7
2198:../system/include/stm32l4-hal-driver/stm32l4xx_ll_dma.h ****   * @param  DMAx DMAx Instance
2199:../system/include/stm32l4-hal-driver/stm32l4xx_ll_dma.h ****   * @retval None
2200:../system/include/stm32l4-hal-driver/stm32l4xx_ll_dma.h ****   */
2201:../system/include/stm32l4-hal-driver/stm32l4xx_ll_dma.h **** __STATIC_INLINE void LL_DMA_ClearFlag_TE7(DMA_TypeDef *DMAx)
2202:../system/include/stm32l4-hal-driver/stm32l4xx_ll_dma.h **** {
2203:../system/include/stm32l4-hal-driver/stm32l4xx_ll_dma.h ****   WRITE_REG(DMAx->IFCR, DMA_IFCR_CTEIF7);
2204:../system/include/stm32l4-hal-driver/stm32l4xx_ll_dma.h **** }
2205:../system/include/stm32l4-hal-driver/stm32l4xx_ll_dma.h **** 
2206:../system/include/stm32l4-hal-driver/stm32l4xx_ll_dma.h **** /**
2207:../system/include/stm32l4-hal-driver/stm32l4xx_ll_dma.h ****   * @}
2208:../system/include/stm32l4-hal-driver/stm32l4xx_ll_dma.h ****   */
2209:../system/include/stm32l4-hal-driver/stm32l4xx_ll_dma.h **** 
2210:../system/include/stm32l4-hal-driver/stm32l4xx_ll_dma.h **** /** @defgroup DMA_LL_EF_IT_Management IT_Management
2211:../system/include/stm32l4-hal-driver/stm32l4xx_ll_dma.h ****   * @{
2212:../system/include/stm32l4-hal-driver/stm32l4xx_ll_dma.h ****   */
2213:../system/include/stm32l4-hal-driver/stm32l4xx_ll_dma.h **** /**
2214:../system/include/stm32l4-hal-driver/stm32l4xx_ll_dma.h ****   * @brief  Enable Transfer complete interrupt.
2215:../system/include/stm32l4-hal-driver/stm32l4xx_ll_dma.h ****   * @rmtoll CCR          TCIE          LL_DMA_EnableIT_TC
2216:../system/include/stm32l4-hal-driver/stm32l4xx_ll_dma.h ****   * @param  DMAx DMAx Instance
2217:../system/include/stm32l4-hal-driver/stm32l4xx_ll_dma.h ****   * @param  Channel This parameter can be one of the following values:
2218:../system/include/stm32l4-hal-driver/stm32l4xx_ll_dma.h ****   *         @arg @ref LL_DMA_CHANNEL_1
2219:../system/include/stm32l4-hal-driver/stm32l4xx_ll_dma.h ****   *         @arg @ref LL_DMA_CHANNEL_2
2220:../system/include/stm32l4-hal-driver/stm32l4xx_ll_dma.h ****   *         @arg @ref LL_DMA_CHANNEL_3
2221:../system/include/stm32l4-hal-driver/stm32l4xx_ll_dma.h ****   *         @arg @ref LL_DMA_CHANNEL_4
2222:../system/include/stm32l4-hal-driver/stm32l4xx_ll_dma.h ****   *         @arg @ref LL_DMA_CHANNEL_5
2223:../system/include/stm32l4-hal-driver/stm32l4xx_ll_dma.h ****   *         @arg @ref LL_DMA_CHANNEL_6
2224:../system/include/stm32l4-hal-driver/stm32l4xx_ll_dma.h ****   *         @arg @ref LL_DMA_CHANNEL_7
2225:../system/include/stm32l4-hal-driver/stm32l4xx_ll_dma.h ****   * @retval None
2226:../system/include/stm32l4-hal-driver/stm32l4xx_ll_dma.h ****   */
2227:../system/include/stm32l4-hal-driver/stm32l4xx_ll_dma.h **** __STATIC_INLINE void LL_DMA_EnableIT_TC(DMA_TypeDef *DMAx, uint32_t Channel)
2228:../system/include/stm32l4-hal-driver/stm32l4xx_ll_dma.h **** {
2229:../system/include/stm32l4-hal-driver/stm32l4xx_ll_dma.h ****   uint32_t dma_base_addr = (uint32_t)DMAx;    
2230:../system/include/stm32l4-hal-driver/stm32l4xx_ll_dma.h ****   SET_BIT(((DMA_Channel_TypeDef *)(dma_base_addr + CHANNEL_OFFSET_TAB[Channel]))->CCR, DMA_CCR_TCIE
  56              		.loc 2 2230 0
  57 0018 054B     		ldr	r3, .L3+4
  58 001a 1A68     		ldr	r2, [r3]
  59 001c 42F00202 		orr	r2, r2, #2
  60 0020 1A60     		str	r2, [r3]
  61              	.LVL4:
  62              	.LBE7:
  63              	.LBE6:
  64              	.LBB8:
  65              	.LBB9:
 556:../system/include/stm32l4-hal-driver/stm32l4xx_ll_dma.h **** }
  66              		.loc 2 556 0
  67 0022 1A68     		ldr	r2, [r3]
  68 0024 42F00102 		orr	r2, r2, #1
  69 0028 1A60     		str	r2, [r3]
  70              	.LVL5:
  71              	.LBE9:
  72              	.LBE8:
  27:../system/src/drivers/dma_helper_functions.c **** 
  28:../system/src/drivers/dma_helper_functions.c **** 	LL_DMA_EnableIT_TC(DMA1, LL_DMA_CHANNEL_5);
  29:../system/src/drivers/dma_helper_functions.c **** 
  30:../system/src/drivers/dma_helper_functions.c **** 	LL_DMA_EnableChannel(DMA1, LL_DMA_CHANNEL_5);
  31:../system/src/drivers/dma_helper_functions.c **** 
  32:../system/src/drivers/dma_helper_functions.c **** 	//DMA1_Channel7->CCR |= DMA_CCR7_EN;
  33:../system/src/drivers/dma_helper_functions.c **** 	//DMA1_Channel7->CCR |= DMA_CCR7_TCIE;
  34:../system/src/drivers/dma_helper_functions.c **** }
  73              		.loc 1 34 0
  74 002a 38BD     		pop	{r3, r4, r5, pc}
  75              	.LVL6:
  76              	.L4:
  77              		.align	2
  78              	.L3:
  79 002c 00000240 		.word	1073872896
  80 0030 58000240 		.word	1073872984
  81              		.cfi_endproc
  82              	.LFE228:
  84              		.text
  85              	.Letext0:
  86              		.file 3 "/usr/local/bin/gcc-arm-none-eabi-7-2018-q2-update/lib/gcc/arm-none-eabi/7.3.1/include/std
  87              		.file 4 "../system/include/cmsis/stm32l4xx/core_cm4.h"
  88              		.file 5 "../system/include/cmsis/stm32l4xx/device/system_stm32l4xx.h"
  89              		.file 6 "../system/include/cmsis/stm32l4xx/device/stm32l471xx.h"