   1              		.cpu cortex-m3
   2              		.eabi_attribute 20, 1
   3              		.eabi_attribute 21, 1
   4              		.eabi_attribute 23, 3
   5              		.eabi_attribute 24, 1
   6              		.eabi_attribute 25, 1
   7              		.eabi_attribute 26, 1
   8              		.eabi_attribute 30, 1
   9              		.eabi_attribute 34, 1
  10              		.eabi_attribute 18, 4
  11              		.file	"Trace.c"
  12              		.text
  13              	.Ltext0:
  14              		.cfi_sections	.debug_frame
  15              		.section	.text.trace_printf,"ax",%progbits
  16              		.align	1
  17              		.global	trace_printf
  18              		.syntax unified
  19              		.thumb
  20              		.thumb_func
  21              		.fpu softvfp
  23              	trace_printf:
  24              	.LFB3:
  25              		.file 1 "../system/src/diag/Trace.c"
   1:../system/src/diag/Trace.c **** //
   2:../system/src/diag/Trace.c **** // This file is part of the µOS++ III distribution.
   3:../system/src/diag/Trace.c **** // Copyright (c) 2014 Liviu Ionescu.
   4:../system/src/diag/Trace.c **** //
   5:../system/src/diag/Trace.c **** 
   6:../system/src/diag/Trace.c **** // ----------------------------------------------------------------------------
   7:../system/src/diag/Trace.c **** 
   8:../system/src/diag/Trace.c **** #if defined(TRACE)
   9:../system/src/diag/Trace.c **** 
  10:../system/src/diag/Trace.c **** #include <stdio.h>
  11:../system/src/diag/Trace.c **** #include <stdarg.h>
  12:../system/src/diag/Trace.c **** #include "diag/Trace.h"
  13:../system/src/diag/Trace.c **** #include "string.h"
  14:../system/src/diag/Trace.c **** 
  15:../system/src/diag/Trace.c **** #ifndef OS_INTEGER_TRACE_PRINTF_TMP_ARRAY_SIZE
  16:../system/src/diag/Trace.c **** #define OS_INTEGER_TRACE_PRINTF_TMP_ARRAY_SIZE (128)
  17:../system/src/diag/Trace.c **** #endif
  18:../system/src/diag/Trace.c **** 
  19:../system/src/diag/Trace.c **** // ----------------------------------------------------------------------------
  20:../system/src/diag/Trace.c **** 
  21:../system/src/diag/Trace.c **** int
  22:../system/src/diag/Trace.c **** trace_printf(const char* format, ...)
  23:../system/src/diag/Trace.c **** {
  26              		.loc 1 23 0
  27              		.cfi_startproc
  28              		@ args = 4, pretend = 16, frame = 8
  29              		@ frame_needed = 0, uses_anonymous_args = 1
  30              	.LVL0:
  31 0000 0FB4     		push	{r0, r1, r2, r3}
  32              		.cfi_def_cfa_offset 16
  33              		.cfi_offset 0, -16
  34              		.cfi_offset 1, -12
  35              		.cfi_offset 2, -8
  36              		.cfi_offset 3, -4
  37 0002 00B5     		push	{lr}
  38              		.cfi_def_cfa_offset 20
  39              		.cfi_offset 14, -20
  40 0004 83B0     		sub	sp, sp, #12
  41              		.cfi_def_cfa_offset 32
  42 0006 04AB     		add	r3, sp, #16
  43 0008 53F8042B 		ldr	r2, [r3], #4
  24:../system/src/diag/Trace.c ****   int ret;
  25:../system/src/diag/Trace.c ****   va_list ap;
  26:../system/src/diag/Trace.c **** 
  27:../system/src/diag/Trace.c ****   va_start (ap, format);
  44              		.loc 1 27 0
  45 000c 0193     		str	r3, [sp, #4]
  28:../system/src/diag/Trace.c **** 
  29:../system/src/diag/Trace.c ****   // TODO: rewrite it to no longer use newlib, it is way too heavy
  30:../system/src/diag/Trace.c **** 
  31:../system/src/diag/Trace.c ****   static char buf[OS_INTEGER_TRACE_PRINTF_TMP_ARRAY_SIZE];
  32:../system/src/diag/Trace.c **** 
  33:../system/src/diag/Trace.c ****   // Print to the local buffer
  34:../system/src/diag/Trace.c ****   ret = vsnprintf (buf, sizeof(buf), format, ap);
  46              		.loc 1 34 0
  47 000e 8021     		movs	r1, #128
  48 0010 0648     		ldr	r0, .L4
  49 0012 FFF7FEFF 		bl	vsnprintf
  50              	.LVL1:
  35:../system/src/diag/Trace.c ****   if (ret > 0)
  51              		.loc 1 35 0
  52 0016 0028     		cmp	r0, #0
  53 0018 03DD     		ble	.L1
  36:../system/src/diag/Trace.c ****     {
  37:../system/src/diag/Trace.c ****       // Transfer the buffer to the device
  38:../system/src/diag/Trace.c ****       ret = trace_write (buf, (size_t)ret);
  54              		.loc 1 38 0
  55 001a 0146     		mov	r1, r0
  56 001c 0348     		ldr	r0, .L4
  57              	.LVL2:
  58 001e FFF7FEFF 		bl	trace_write
  59              	.LVL3:
  60              	.L1:
  39:../system/src/diag/Trace.c ****     }
  40:../system/src/diag/Trace.c **** 
  41:../system/src/diag/Trace.c ****   va_end (ap);
  42:../system/src/diag/Trace.c ****   return ret;
  43:../system/src/diag/Trace.c **** }
  61              		.loc 1 43 0
  62 0022 03B0     		add	sp, sp, #12
  63              		.cfi_def_cfa_offset 20
  64              		@ sp needed
  65 0024 5DF804EB 		ldr	lr, [sp], #4
  66              		.cfi_restore 14
  67              		.cfi_def_cfa_offset 16
  68 0028 04B0     		add	sp, sp, #16
  69              		.cfi_restore 3
  70              		.cfi_restore 2
  71              		.cfi_restore 1
  72              		.cfi_restore 0
  73              		.cfi_def_cfa_offset 0
  74 002a 7047     		bx	lr
  75              	.L5:
  76              		.align	2
  77              	.L4:
  78 002c 00000000 		.word	.LANCHOR0
  79              		.cfi_endproc
  80              	.LFE3:
  82              		.section	.text.trace_puts,"ax",%progbits
  83              		.align	1
  84              		.global	trace_puts
  85              		.syntax unified
  86              		.thumb
  87              		.thumb_func
  88              		.fpu softvfp
  90              	trace_puts:
  91              	.LFB4:
  44:../system/src/diag/Trace.c **** 
  45:../system/src/diag/Trace.c **** int
  46:../system/src/diag/Trace.c **** trace_puts(const char *s)
  47:../system/src/diag/Trace.c **** {
  92              		.loc 1 47 0
  93              		.cfi_startproc
  94              		@ args = 0, pretend = 0, frame = 0
  95              		@ frame_needed = 0, uses_anonymous_args = 0
  96              	.LVL4:
  97 0000 10B5     		push	{r4, lr}
  98              		.cfi_def_cfa_offset 8
  99              		.cfi_offset 4, -8
 100              		.cfi_offset 14, -4
 101 0002 0446     		mov	r4, r0
  48:../system/src/diag/Trace.c ****   trace_write(s, strlen(s));
 102              		.loc 1 48 0
 103 0004 FFF7FEFF 		bl	strlen
 104              	.LVL5:
 105 0008 0146     		mov	r1, r0
 106 000a 2046     		mov	r0, r4
 107 000c FFF7FEFF 		bl	trace_write
 108              	.LVL6:
  49:../system/src/diag/Trace.c ****   return trace_write("\n", 1);
 109              		.loc 1 49 0
 110 0010 0121     		movs	r1, #1
 111 0012 0248     		ldr	r0, .L8
 112 0014 FFF7FEFF 		bl	trace_write
 113              	.LVL7:
  50:../system/src/diag/Trace.c **** }
 114              		.loc 1 50 0
 115 0018 10BD     		pop	{r4, pc}
 116              	.LVL8:
 117              	.L9:
 118 001a 00BF     		.align	2
 119              	.L8:
 120 001c 00000000 		.word	.LC0
 121              		.cfi_endproc
 122              	.LFE4:
 124              		.section	.text.trace_putchar,"ax",%progbits
 125              		.align	1
 126              		.global	trace_putchar
 127              		.syntax unified
 128              		.thumb
 129              		.thumb_func
 130              		.fpu softvfp
 132              	trace_putchar:
 133              	.LFB5:
  51:../system/src/diag/Trace.c **** 
  52:../system/src/diag/Trace.c **** int
  53:../system/src/diag/Trace.c **** trace_putchar(int c)
  54:../system/src/diag/Trace.c **** {
 134              		.loc 1 54 0
 135              		.cfi_startproc
 136              		@ args = 0, pretend = 0, frame = 8
 137              		@ frame_needed = 0, uses_anonymous_args = 0
 138              	.LVL9:
 139 0000 00B5     		push	{lr}
 140              		.cfi_def_cfa_offset 4
 141              		.cfi_offset 14, -4
 142 0002 83B0     		sub	sp, sp, #12
 143              		.cfi_def_cfa_offset 16
 144 0004 02AB     		add	r3, sp, #8
 145 0006 43F8040D 		str	r0, [r3, #-4]!
  55:../system/src/diag/Trace.c ****   trace_write((const char*)&c, 1);
 146              		.loc 1 55 0
 147 000a 0121     		movs	r1, #1
 148 000c 1846     		mov	r0, r3
 149              	.LVL10:
 150 000e FFF7FEFF 		bl	trace_write
 151              	.LVL11:
  56:../system/src/diag/Trace.c ****   return c;
  57:../system/src/diag/Trace.c **** }
 152              		.loc 1 57 0
 153 0012 0198     		ldr	r0, [sp, #4]
 154 0014 03B0     		add	sp, sp, #12
 155              		.cfi_def_cfa_offset 4
 156              		@ sp needed
 157 0016 5DF804FB 		ldr	pc, [sp], #4
 158              		.cfi_endproc
 159              	.LFE5:
 161              		.section	.text.trace_dump_args,"ax",%progbits
 162              		.align	1
 163              		.global	trace_dump_args
 164              		.syntax unified
 165              		.thumb
 166              		.thumb_func
 167              		.fpu softvfp
 169              	trace_dump_args:
 170              	.LFB6:
  58:../system/src/diag/Trace.c **** 
  59:../system/src/diag/Trace.c **** void
  60:../system/src/diag/Trace.c **** trace_dump_args(int argc, char* argv[])
  61:../system/src/diag/Trace.c **** {
 171              		.loc 1 61 0
 172              		.cfi_startproc
 173              		@ args = 0, pretend = 0, frame = 0
 174              		@ frame_needed = 0, uses_anonymous_args = 0
 175              	.LVL12:
 176 0000 70B5     		push	{r4, r5, r6, lr}
 177              		.cfi_def_cfa_offset 16
 178              		.cfi_offset 4, -16
 179              		.cfi_offset 5, -12
 180              		.cfi_offset 6, -8
 181              		.cfi_offset 14, -4
 182 0002 0546     		mov	r5, r0
 183 0004 0E46     		mov	r6, r1
  62:../system/src/diag/Trace.c ****   trace_printf("main(argc=%d, argv=[", argc);
 184              		.loc 1 62 0
 185 0006 0146     		mov	r1, r0
 186              	.LVL13:
 187 0008 0B48     		ldr	r0, .L18
 188              	.LVL14:
 189 000a FFF7FEFF 		bl	trace_printf
 190              	.LVL15:
 191              	.LBB2:
  63:../system/src/diag/Trace.c ****   for (int i = 0; i < argc; ++i)
 192              		.loc 1 63 0
 193 000e 0024     		movs	r4, #0
 194 0010 05E0     		b	.L13
 195              	.LVL16:
 196              	.L14:
  64:../system/src/diag/Trace.c ****     {
  65:../system/src/diag/Trace.c ****       if (i != 0)
  66:../system/src/diag/Trace.c ****         {
  67:../system/src/diag/Trace.c ****           trace_printf(", ");
  68:../system/src/diag/Trace.c ****         }
  69:../system/src/diag/Trace.c ****       trace_printf("\"%s\"", argv[i]);
 197              		.loc 1 69 0 discriminator 2
 198 0012 56F82410 		ldr	r1, [r6, r4, lsl #2]
 199 0016 0948     		ldr	r0, .L18+4
 200 0018 FFF7FEFF 		bl	trace_printf
 201              	.LVL17:
  63:../system/src/diag/Trace.c ****   for (int i = 0; i < argc; ++i)
 202              		.loc 1 63 0 discriminator 2
 203 001c 0134     		adds	r4, r4, #1
 204              	.LVL18:
 205              	.L13:
  63:../system/src/diag/Trace.c ****   for (int i = 0; i < argc; ++i)
 206              		.loc 1 63 0 is_stmt 0 discriminator 1
 207 001e AC42     		cmp	r4, r5
 208 0020 05DA     		bge	.L17
  65:../system/src/diag/Trace.c ****         {
 209              		.loc 1 65 0 is_stmt 1
 210 0022 002C     		cmp	r4, #0
 211 0024 F5D0     		beq	.L14
  67:../system/src/diag/Trace.c ****         }
 212              		.loc 1 67 0
 213 0026 0648     		ldr	r0, .L18+8
 214 0028 FFF7FEFF 		bl	trace_printf
 215              	.LVL19:
 216 002c F1E7     		b	.L14
 217              	.L17:
 218              	.LBE2:
  70:../system/src/diag/Trace.c ****     }
  71:../system/src/diag/Trace.c ****   trace_printf("]);\n");
 219              		.loc 1 71 0
 220 002e 0548     		ldr	r0, .L18+12
 221 0030 FFF7FEFF 		bl	trace_printf
 222              	.LVL20:
  72:../system/src/diag/Trace.c **** }
 223              		.loc 1 72 0
 224 0034 70BD     		pop	{r4, r5, r6, pc}
 225              	.LVL21:
 226              	.L19:
 227 0036 00BF     		.align	2
 228              	.L18:
 229 0038 00000000 		.word	.LC1
 230 003c 1C000000 		.word	.LC3
 231 0040 18000000 		.word	.LC2
 232 0044 24000000 		.word	.LC4
 233              		.cfi_endproc
 234              	.LFE6:
 236              		.section	.bss.buf.5205,"aw",%nobits
 237              		.align	2
 238              		.set	.LANCHOR0,. + 0
 241              	buf.5205:
 242 0000 00000000 		.space	128
 242      00000000 
 242      00000000 
 242      00000000 
 242      00000000 
 243              		.section	.rodata.trace_dump_args.str1.4,"aMS",%progbits,1
 244              		.align	2
 245              	.LC1:
 246 0000 6D61696E 		.ascii	"main(argc=%d, argv=[\000"
 246      28617267 
 246      633D2564 
 246      2C206172 
 246      67763D5B 
 247 0015 000000   		.space	3
 248              	.LC2:
 249 0018 2C2000   		.ascii	", \000"
 250 001b 00       		.space	1
 251              	.LC3:
 252 001c 22257322 		.ascii	"\"%s\"\000"
 252      00
 253 0021 000000   		.space	3
 254              	.LC4:
 255 0024 5D293B0A 		.ascii	"]);\012\000"
 255      00
 256              		.section	.rodata.trace_puts.str1.4,"aMS",%progbits,1
 257              		.align	2
 258              	.LC0:
 259 0000 0A00     		.ascii	"\012\000"
 260              		.text
 261              	.Letext0:
 262              		.file 2 "/usr/local/bin/gcc-arm-none-eabi-7-2018-q2-update/lib/gcc/arm-none-eabi/7.3.1/include/std
 263              		.file 3 "/usr/local/bin/gcc-arm-none-eabi-7-2018-q2-update/lib/gcc/arm-none-eabi/7.3.1/include/std
 264              		.file 4 "/usr/local/bin/gcc-arm-none-eabi-7-2018-q2-update/arm-none-eabi/include/stdio.h"
 265              		.file 5 "/usr/local/bin/gcc-arm-none-eabi-7-2018-q2-update/arm-none-eabi/include/sys/lock.h"
 266              		.file 6 "/usr/local/bin/gcc-arm-none-eabi-7-2018-q2-update/arm-none-eabi/include/sys/_types.h"
 267              		.file 7 "/usr/local/bin/gcc-arm-none-eabi-7-2018-q2-update/arm-none-eabi/include/sys/reent.h"
 268              		.file 8 "<built-in>"
 269              		.file 9 "/usr/local/bin/gcc-arm-none-eabi-7-2018-q2-update/arm-none-eabi/include/sys/unistd.h"
 270              		.file 10 "../system/include/diag/Trace.h"
 271              		.file 11 "/usr/local/bin/gcc-arm-none-eabi-7-2018-q2-update/arm-none-eabi/include/string.h"