   1              		.cpu cortex-m4
   2              		.eabi_attribute 27, 1
   3              		.eabi_attribute 28, 1
   4              		.eabi_attribute 20, 1
   5              		.eabi_attribute 21, 1
   6              		.eabi_attribute 23, 3
   7              		.eabi_attribute 24, 1
   8              		.eabi_attribute 25, 1
   9              		.eabi_attribute 26, 1
  10              		.eabi_attribute 30, 1
  11              		.eabi_attribute 34, 1
  12              		.eabi_attribute 18, 4
  13              		.file	"dac.c"
  14              		.text
  15              	.Ltext0:
  16              		.cfi_sections	.debug_frame
  17              		.section	.text.DA_Init,"ax",%progbits
  18              		.align	1
  19              		.global	DA_Init
  20              		.syntax unified
  21              		.thumb
  22              		.thumb_func
  23              		.fpu fpv4-sp-d16
  25              	DA_Init:
  26              	.LFB157:
  27              		.file 1 "../system/src/aprs/dac.c"
   1:../system/src/aprs/dac.c **** 
   2:../system/src/aprs/dac.c **** #include "dac.h"
   3:../system/src/aprs/dac.c **** #include <adc.h>
   4:../system/src/aprs/dac.c **** 
   5:../system/src/aprs/dac.c **** #include "station_config.h"
   6:../system/src/aprs/dac.c **** #include "station_config_target_hw.h"
   7:../system/src/aprs/dac.c **** 
   8:../system/src/aprs/dac.c **** #ifdef STM32F10X_MD_VL
   9:../system/src/aprs/dac.c **** #include <stm32f10x.h>
  10:../system/src/aprs/dac.c **** #include "antilib_gpio.h"
  11:../system/src/aprs/dac.c **** 
  12:../system/src/aprs/dac.c **** #endif
  13:../system/src/aprs/dac.c **** 
  14:../system/src/aprs/dac.c **** #ifdef STM32L471xx
  15:../system/src/aprs/dac.c **** #include <stm32l4xx.h>
  16:../system/src/aprs/dac.c **** #include <stm32l4xx_ll_gpio.h>
  17:../system/src/aprs/dac.c **** #endif
  18:../system/src/aprs/dac.c **** 
  19:../system/src/aprs/dac.c **** Afsk *dac_afsk;
  20:../system/src/aprs/dac.c **** 
  21:../system/src/aprs/dac.c **** /**************************************************************************************************
  22:../system/src/aprs/dac.c **** void DA_Init(void) {
  28              		.loc 1 22 0
  29              		.cfi_startproc
  30              		@ args = 0, pretend = 0, frame = 0
  31              		@ frame_needed = 0, uses_anonymous_args = 0
  32              		@ link register save eliminated.
  23:../system/src/aprs/dac.c **** /**************************************************************************************************
  24:../system/src/aprs/dac.c **** #ifdef STM32F10X_MD_VL
  25:../system/src/aprs/dac.c **** 
  26:../system/src/aprs/dac.c **** 	GPIO_InitTypeDef GPIO_InitStructure;
  27:../system/src/aprs/dac.c **** 	GPIO_InitStructure.GPIO_Pin = GPIO_Pin_3;
  28:../system/src/aprs/dac.c **** 	GPIO_InitStructure.GPIO_Speed = GPIO_Speed_50MHz;
  29:../system/src/aprs/dac.c **** #ifndef _PTT_PUSHPULL
  30:../system/src/aprs/dac.c **** 	GPIO_InitStructure.GPIO_Mode = GPIO_Mode_Out_OD;
  31:../system/src/aprs/dac.c **** #else
  32:../system/src/aprs/dac.c **** 	GPIO_InitStructure.GPIO_Mode = GPIO_Mode_Out_PP;
  33:../system/src/aprs/dac.c **** #endif
  34:../system/src/aprs/dac.c **** 	GPIO_Init(GPIOC, &GPIO_InitStructure);
  35:../system/src/aprs/dac.c **** 
  36:../system/src/aprs/dac.c **** #ifndef _PTT_PUSHPULL
  37:../system/src/aprs/dac.c **** 	GPIOC->BSRR |= GPIO_BSRR_BS3; //// bez sep
  38:../system/src/aprs/dac.c **** #else
  39:../system/src/aprs/dac.c **** 	GPIOC->BSRR |= GPIO_BSRR_BR3; //// bez sep
  40:../system/src/aprs/dac.c **** #endif
  41:../system/src/aprs/dac.c **** 
  42:../system/src/aprs/dac.c **** 	GPIO_InitStructure.GPIO_Pin = GPIO_Pin_1;
  43:../system/src/aprs/dac.c **** 	GPIO_InitStructure.GPIO_Speed = GPIO_Speed_50MHz;
  44:../system/src/aprs/dac.c **** 	GPIO_InitStructure.GPIO_Mode = GPIO_Mode_AIN;
  45:../system/src/aprs/dac.c **** 	GPIO_Init(GPIOC, &GPIO_InitStructure);
  46:../system/src/aprs/dac.c **** 
  47:../system/src/aprs/dac.c **** 	GPIO_InitStructure.GPIO_Pin = GPIO_Pin_4;
  48:../system/src/aprs/dac.c **** 	GPIO_Init(GPIOA, &GPIO_InitStructure);
  49:../system/src/aprs/dac.c **** #endif
  50:../system/src/aprs/dac.c **** 
  51:../system/src/aprs/dac.c **** #ifdef STM32L471xx
  52:../system/src/aprs/dac.c **** 
  53:../system/src/aprs/dac.c **** 	LL_GPIO_InitTypeDef GPIO_InitTypeDef;
  54:../system/src/aprs/dac.c **** 
  55:../system/src/aprs/dac.c **** 	GPIO_InitTypeDef.Pin = LL_GPIO_PIN_4;
  56:../system/src/aprs/dac.c **** 	GPIO_InitTypeDef.Mode = LL_GPIO_MODE_OUTPUT;
  57:../system/src/aprs/dac.c **** 	GPIO_InitTypeDef.Alternate = LL_GPIO_AF_0;
  58:../system/src/aprs/dac.c **** 	GPIO_InitTypeDef.OutputType = LL_GPIO_OUTPUT_PUSHPULL;
  59:../system/src/aprs/dac.c **** 	GPIO_InitTypeDef.Pull = LL_GPIO_PULL_NO;
  60:../system/src/aprs/dac.c **** 	GPIO_InitTypeDef.Speed = LL_GPIO_SPEED_FREQ_LOW;
  61:../system/src/aprs/dac.c **** #endif
  62:../system/src/aprs/dac.c **** 
  63:../system/src/aprs/dac.c **** }
  33              		.loc 1 63 0
  34 0000 7047     		bx	lr
  35              		.cfi_endproc
  36              	.LFE157:
  38              		.section	.text.DA_SetTimer,"ax",%progbits
  39              		.align	1
  40              		.global	DA_SetTimer
  41              		.syntax unified
  42              		.thumb
  43              		.thumb_func
  44              		.fpu fpv4-sp-d16
  46              	DA_SetTimer:
  47              	.LFB158:
  64:../system/src/aprs/dac.c **** 
  65:../system/src/aprs/dac.c **** /**************************************************************************************************
  66:../system/src/aprs/dac.c **** void DA_SetTimer(uint16_t prescaler, uint16_t period) {
  48              		.loc 1 66 0
  49              		.cfi_startproc
  50              		@ args = 0, pretend = 0, frame = 0
  51              		@ frame_needed = 0, uses_anonymous_args = 0
  52              		@ link register save eliminated.
  53              	.LVL0:
  67:../system/src/aprs/dac.c **** /**************************************************************************************************
  68:../system/src/aprs/dac.c **** 
  69:../system/src/aprs/dac.c **** }
  54              		.loc 1 69 0
  55 0000 7047     		bx	lr
  56              		.cfi_endproc
  57              	.LFE158:
  59              		.section	.text.DA_Start,"ax",%progbits
  60              		.align	1
  61              		.global	DA_Start
  62              		.syntax unified
  63              		.thumb
  64              		.thumb_func
  65              		.fpu fpv4-sp-d16
  67              	DA_Start:
  68              	.LFB159:
  70:../system/src/aprs/dac.c **** 
  71:../system/src/aprs/dac.c **** /**************************************************************************************************
  72:../system/src/aprs/dac.c **** void DA_Start() {
  69              		.loc 1 72 0
  70              		.cfi_startproc
  71              		@ args = 0, pretend = 0, frame = 0
  72              		@ frame_needed = 0, uses_anonymous_args = 0
  73 0000 08B5     		push	{r3, lr}
  74              		.cfi_def_cfa_offset 8
  75              		.cfi_offset 3, -8
  76              		.cfi_offset 14, -4
  73:../system/src/aprs/dac.c **** /**************************************************************************************************
  74:../system/src/aprs/dac.c **** 
  75:../system/src/aprs/dac.c **** 	AD_Stop();
  77              		.loc 1 75 0
  78 0002 FFF7FEFF 		bl	AD_Stop
  79              	.LVL1:
  76:../system/src/aprs/dac.c **** 
  77:../system/src/aprs/dac.c **** 
  78:../system/src/aprs/dac.c **** 
  79:../system/src/aprs/dac.c **** 	GPIOC->BSRR |= GPIO_BSRR_BS3;	 //// sep
  80              		.loc 1 79 0
  81 0006 064A     		ldr	r2, .L5
  82 0008 9369     		ldr	r3, [r2, #24]
  83 000a 43F00803 		orr	r3, r3, #8
  84 000e 9361     		str	r3, [r2, #24]
  80:../system/src/aprs/dac.c **** 
  81:../system/src/aprs/dac.c **** 	TIM4->CR1 |= TIM_CR1_CEN;
  85              		.loc 1 81 0
  86 0010 02F17842 		add	r2, r2, #-134217728
  87 0014 1368     		ldr	r3, [r2]
  88 0016 43F00103 		orr	r3, r3, #1
  89 001a 1360     		str	r3, [r2]
  82:../system/src/aprs/dac.c **** 
  83:../system/src/aprs/dac.c **** 
  84:../system/src/aprs/dac.c **** #if (!defined(_METEO))
  85:../system/src/aprs/dac.c **** 	GPIO_SetBits(GPIOC, GPIO_Pin_9);
  86:../system/src/aprs/dac.c **** #endif
  87:../system/src/aprs/dac.c **** }
  90              		.loc 1 87 0
  91 001c 08BD     		pop	{r3, pc}
  92              	.L6:
  93 001e 00BF     		.align	2
  94              	.L5:
  95 0020 00080048 		.word	1207961600
  96              		.cfi_endproc
  97              	.LFE159:
  99              		.section	.text.DA_Stop,"ax",%progbits
 100              		.align	1
 101              		.global	DA_Stop
 102              		.syntax unified
 103              		.thumb
 104              		.thumb_func
 105              		.fpu fpv4-sp-d16
 107              	DA_Stop:
 108              	.LFB160:
  88:../system/src/aprs/dac.c **** 
  89:../system/src/aprs/dac.c **** /**************************************************************************************************
  90:../system/src/aprs/dac.c **** void DA_Stop() {
 109              		.loc 1 90 0
 110              		.cfi_startproc
 111              		@ args = 0, pretend = 0, frame = 0
 112              		@ frame_needed = 0, uses_anonymous_args = 0
 113 0000 08B5     		push	{r3, lr}
 114              		.cfi_def_cfa_offset 8
 115              		.cfi_offset 3, -8
 116              		.cfi_offset 14, -4
  91:../system/src/aprs/dac.c **** /**************************************************************************************************
  92:../system/src/aprs/dac.c **** 
  93:../system/src/aprs/dac.c **** 	AD_Start();
 117              		.loc 1 93 0
 118 0002 FFF7FEFF 		bl	AD_Start
 119              	.LVL2:
  94:../system/src/aprs/dac.c **** 
  95:../system/src/aprs/dac.c **** 
  96:../system/src/aprs/dac.c **** 	GPIOC->BSRR |= GPIO_BSRR_BR3;
 120              		.loc 1 96 0
 121 0006 064A     		ldr	r2, .L9
 122 0008 9369     		ldr	r3, [r2, #24]
 123 000a 43F40023 		orr	r3, r3, #524288
 124 000e 9361     		str	r3, [r2, #24]
  97:../system/src/aprs/dac.c **** 
  98:../system/src/aprs/dac.c **** //	//Timer2 DISABLE
  99:../system/src/aprs/dac.c **** 	TIM4->CR1 &= ~TIM_CR1_CEN;
 125              		.loc 1 99 0
 126 0010 02F17842 		add	r2, r2, #-134217728
 127 0014 1368     		ldr	r3, [r2]
 128 0016 23F00103 		bic	r3, r3, #1
 129 001a 1360     		str	r3, [r2]
 100:../system/src/aprs/dac.c **** 
 101:../system/src/aprs/dac.c **** #if (!defined(_METEO))
 102:../system/src/aprs/dac.c **** 	GPIO_ResetBits(GPIOC, GPIO_Pin_9);
 103:../system/src/aprs/dac.c **** #endif
 104:../system/src/aprs/dac.c **** }
 130              		.loc 1 104 0
 131 001c 08BD     		pop	{r3, pc}
 132              	.L10:
 133 001e 00BF     		.align	2
 134              	.L9:
 135 0020 00080048 		.word	1207961600
 136              		.cfi_endproc
 137              	.LFE160:
 139              		.comm	dac_afsk,4,4
 140              		.text
 141              	.Letext0:
 142              		.file 2 "/usr/local/bin/gcc-arm-none-eabi-7-2018-q2-update/lib/gcc/arm-none-eabi/7.3.1/include/std
 143              		.file 3 "../system/include/aprs/cfifo.h"
 144              		.file 4 "../system/include/aprs/afsk.h"
 145              		.file 5 "../system/include/cmsis/stm32l4xx/core_cm4.h"
 146              		.file 6 "../system/include/cmsis/stm32l4xx/device/system_stm32l4xx.h"
 147              		.file 7 "../system/include/cmsis/stm32l4xx/device/stm32l471xx.h"
 148              		.file 8 "../system/include/stm32l4-hal-driver/stm32l4xx_ll_gpio.h"
 149              		.file 9 "../system/include/aprs/adc.h"