   1              		.cpu cortex-m3
   2              		.eabi_attribute 20, 1
   3              		.eabi_attribute 21, 1
   4              		.eabi_attribute 23, 3
   5              		.eabi_attribute 24, 1
   6              		.eabi_attribute 25, 1
   7              		.eabi_attribute 26, 1
   8              		.eabi_attribute 30, 1
   9              		.eabi_attribute 34, 1
  10              		.eabi_attribute 18, 4
  11              		.file	"stm32f10x_crc.c"
  12              		.text
  13              	.Ltext0:
  14              		.cfi_sections	.debug_frame
  15              		.section	.text.CRC_ResetDR,"ax",%progbits
  16              		.align	1
  17              		.global	CRC_ResetDR
  18              		.syntax unified
  19              		.thumb
  20              		.thumb_func
  21              		.fpu softvfp
  23              	CRC_ResetDR:
  24              	.LFB63:
  25              		.file 1 "../system/src/stm32f1-stdperiph/stm32f10x_crc.c"
   1:../system/src/stm32f1-stdperiph/stm32f10x_crc.c **** /**
   2:../system/src/stm32f1-stdperiph/stm32f10x_crc.c ****   ******************************************************************************
   3:../system/src/stm32f1-stdperiph/stm32f10x_crc.c ****   * @file    stm32f10x_crc.c
   4:../system/src/stm32f1-stdperiph/stm32f10x_crc.c ****   * @author  MCD Application Team
   5:../system/src/stm32f1-stdperiph/stm32f10x_crc.c ****   * @version V3.5.0
   6:../system/src/stm32f1-stdperiph/stm32f10x_crc.c ****   * @date    11-March-2011
   7:../system/src/stm32f1-stdperiph/stm32f10x_crc.c ****   * @brief   This file provides all the CRC firmware functions.
   8:../system/src/stm32f1-stdperiph/stm32f10x_crc.c ****   ******************************************************************************
   9:../system/src/stm32f1-stdperiph/stm32f10x_crc.c ****   * @attention
  10:../system/src/stm32f1-stdperiph/stm32f10x_crc.c ****   *
  11:../system/src/stm32f1-stdperiph/stm32f10x_crc.c ****   * THE PRESENT FIRMWARE WHICH IS FOR GUIDANCE ONLY AIMS AT PROVIDING CUSTOMERS
  12:../system/src/stm32f1-stdperiph/stm32f10x_crc.c ****   * WITH CODING INFORMATION REGARDING THEIR PRODUCTS IN ORDER FOR THEM TO SAVE
  13:../system/src/stm32f1-stdperiph/stm32f10x_crc.c ****   * TIME. AS A RESULT, STMICROELECTRONICS SHALL NOT BE HELD LIABLE FOR ANY
  14:../system/src/stm32f1-stdperiph/stm32f10x_crc.c ****   * DIRECT, INDIRECT OR CONSEQUENTIAL DAMAGES WITH RESPECT TO ANY CLAIMS ARISING
  15:../system/src/stm32f1-stdperiph/stm32f10x_crc.c ****   * FROM THE CONTENT OF SUCH FIRMWARE AND/OR THE USE MADE BY CUSTOMERS OF THE
  16:../system/src/stm32f1-stdperiph/stm32f10x_crc.c ****   * CODING INFORMATION CONTAINED HEREIN IN CONNECTION WITH THEIR PRODUCTS.
  17:../system/src/stm32f1-stdperiph/stm32f10x_crc.c ****   *
  18:../system/src/stm32f1-stdperiph/stm32f10x_crc.c ****   * <h2><center>&copy; COPYRIGHT 2011 STMicroelectronics</center></h2>
  19:../system/src/stm32f1-stdperiph/stm32f10x_crc.c ****   ******************************************************************************
  20:../system/src/stm32f1-stdperiph/stm32f10x_crc.c ****   */
  21:../system/src/stm32f1-stdperiph/stm32f10x_crc.c **** 
  22:../system/src/stm32f1-stdperiph/stm32f10x_crc.c **** /* Includes ------------------------------------------------------------------*/
  23:../system/src/stm32f1-stdperiph/stm32f10x_crc.c **** #include "stm32f10x_crc.h"
  24:../system/src/stm32f1-stdperiph/stm32f10x_crc.c **** 
  25:../system/src/stm32f1-stdperiph/stm32f10x_crc.c **** /** @addtogroup STM32F10x_StdPeriph_Driver
  26:../system/src/stm32f1-stdperiph/stm32f10x_crc.c ****   * @{
  27:../system/src/stm32f1-stdperiph/stm32f10x_crc.c ****   */
  28:../system/src/stm32f1-stdperiph/stm32f10x_crc.c **** 
  29:../system/src/stm32f1-stdperiph/stm32f10x_crc.c **** /** @defgroup CRC 
  30:../system/src/stm32f1-stdperiph/stm32f10x_crc.c ****   * @brief CRC driver modules
  31:../system/src/stm32f1-stdperiph/stm32f10x_crc.c ****   * @{
  32:../system/src/stm32f1-stdperiph/stm32f10x_crc.c ****   */
  33:../system/src/stm32f1-stdperiph/stm32f10x_crc.c **** 
  34:../system/src/stm32f1-stdperiph/stm32f10x_crc.c **** /** @defgroup CRC_Private_TypesDefinitions
  35:../system/src/stm32f1-stdperiph/stm32f10x_crc.c ****   * @{
  36:../system/src/stm32f1-stdperiph/stm32f10x_crc.c ****   */
  37:../system/src/stm32f1-stdperiph/stm32f10x_crc.c **** 
  38:../system/src/stm32f1-stdperiph/stm32f10x_crc.c **** /**
  39:../system/src/stm32f1-stdperiph/stm32f10x_crc.c ****   * @}
  40:../system/src/stm32f1-stdperiph/stm32f10x_crc.c ****   */
  41:../system/src/stm32f1-stdperiph/stm32f10x_crc.c **** 
  42:../system/src/stm32f1-stdperiph/stm32f10x_crc.c **** /** @defgroup CRC_Private_Defines
  43:../system/src/stm32f1-stdperiph/stm32f10x_crc.c ****   * @{
  44:../system/src/stm32f1-stdperiph/stm32f10x_crc.c ****   */
  45:../system/src/stm32f1-stdperiph/stm32f10x_crc.c **** 
  46:../system/src/stm32f1-stdperiph/stm32f10x_crc.c **** /**
  47:../system/src/stm32f1-stdperiph/stm32f10x_crc.c ****   * @}
  48:../system/src/stm32f1-stdperiph/stm32f10x_crc.c ****   */
  49:../system/src/stm32f1-stdperiph/stm32f10x_crc.c **** 
  50:../system/src/stm32f1-stdperiph/stm32f10x_crc.c **** /** @defgroup CRC_Private_Macros
  51:../system/src/stm32f1-stdperiph/stm32f10x_crc.c ****   * @{
  52:../system/src/stm32f1-stdperiph/stm32f10x_crc.c ****   */
  53:../system/src/stm32f1-stdperiph/stm32f10x_crc.c **** 
  54:../system/src/stm32f1-stdperiph/stm32f10x_crc.c **** /**
  55:../system/src/stm32f1-stdperiph/stm32f10x_crc.c ****   * @}
  56:../system/src/stm32f1-stdperiph/stm32f10x_crc.c ****   */
  57:../system/src/stm32f1-stdperiph/stm32f10x_crc.c **** 
  58:../system/src/stm32f1-stdperiph/stm32f10x_crc.c **** /** @defgroup CRC_Private_Variables
  59:../system/src/stm32f1-stdperiph/stm32f10x_crc.c ****   * @{
  60:../system/src/stm32f1-stdperiph/stm32f10x_crc.c ****   */
  61:../system/src/stm32f1-stdperiph/stm32f10x_crc.c **** 
  62:../system/src/stm32f1-stdperiph/stm32f10x_crc.c **** /**
  63:../system/src/stm32f1-stdperiph/stm32f10x_crc.c ****   * @}
  64:../system/src/stm32f1-stdperiph/stm32f10x_crc.c ****   */
  65:../system/src/stm32f1-stdperiph/stm32f10x_crc.c **** 
  66:../system/src/stm32f1-stdperiph/stm32f10x_crc.c **** /** @defgroup CRC_Private_FunctionPrototypes
  67:../system/src/stm32f1-stdperiph/stm32f10x_crc.c ****   * @{
  68:../system/src/stm32f1-stdperiph/stm32f10x_crc.c ****   */
  69:../system/src/stm32f1-stdperiph/stm32f10x_crc.c **** 
  70:../system/src/stm32f1-stdperiph/stm32f10x_crc.c **** /**
  71:../system/src/stm32f1-stdperiph/stm32f10x_crc.c ****   * @}
  72:../system/src/stm32f1-stdperiph/stm32f10x_crc.c ****   */
  73:../system/src/stm32f1-stdperiph/stm32f10x_crc.c **** 
  74:../system/src/stm32f1-stdperiph/stm32f10x_crc.c **** /** @defgroup CRC_Private_Functions
  75:../system/src/stm32f1-stdperiph/stm32f10x_crc.c ****   * @{
  76:../system/src/stm32f1-stdperiph/stm32f10x_crc.c ****   */
  77:../system/src/stm32f1-stdperiph/stm32f10x_crc.c **** 
  78:../system/src/stm32f1-stdperiph/stm32f10x_crc.c **** /**
  79:../system/src/stm32f1-stdperiph/stm32f10x_crc.c ****   * @brief  Resets the CRC Data register (DR).
  80:../system/src/stm32f1-stdperiph/stm32f10x_crc.c ****   * @param  None
  81:../system/src/stm32f1-stdperiph/stm32f10x_crc.c ****   * @retval None
  82:../system/src/stm32f1-stdperiph/stm32f10x_crc.c ****   */
  83:../system/src/stm32f1-stdperiph/stm32f10x_crc.c **** void CRC_ResetDR(void)
  84:../system/src/stm32f1-stdperiph/stm32f10x_crc.c **** {
  26              		.loc 1 84 0
  27              		.cfi_startproc
  28              		@ args = 0, pretend = 0, frame = 0
  29              		@ frame_needed = 0, uses_anonymous_args = 0
  30              		@ link register save eliminated.
  85:../system/src/stm32f1-stdperiph/stm32f10x_crc.c ****   /* Reset CRC generator */
  86:../system/src/stm32f1-stdperiph/stm32f10x_crc.c ****   CRC->CR = CRC_CR_RESET;
  31              		.loc 1 86 0
  32 0000 014B     		ldr	r3, .L2
  33 0002 0122     		movs	r2, #1
  34 0004 9A60     		str	r2, [r3, #8]
  87:../system/src/stm32f1-stdperiph/stm32f10x_crc.c **** }
  35              		.loc 1 87 0
  36 0006 7047     		bx	lr
  37              	.L3:
  38              		.align	2
  39              	.L2:
  40 0008 00300240 		.word	1073885184
  41              		.cfi_endproc
  42              	.LFE63:
  44              		.section	.text.CRC_CalcCRC,"ax",%progbits
  45              		.align	1
  46              		.global	CRC_CalcCRC
  47              		.syntax unified
  48              		.thumb
  49              		.thumb_func
  50              		.fpu softvfp
  52              	CRC_CalcCRC:
  53              	.LFB64:
  88:../system/src/stm32f1-stdperiph/stm32f10x_crc.c **** 
  89:../system/src/stm32f1-stdperiph/stm32f10x_crc.c **** /**
  90:../system/src/stm32f1-stdperiph/stm32f10x_crc.c ****   * @brief  Computes the 32-bit CRC of a given data word(32-bit).
  91:../system/src/stm32f1-stdperiph/stm32f10x_crc.c ****   * @param  Data: data word(32-bit) to compute its CRC
  92:../system/src/stm32f1-stdperiph/stm32f10x_crc.c ****   * @retval 32-bit CRC
  93:../system/src/stm32f1-stdperiph/stm32f10x_crc.c ****   */
  94:../system/src/stm32f1-stdperiph/stm32f10x_crc.c **** uint32_t CRC_CalcCRC(uint32_t Data)
  95:../system/src/stm32f1-stdperiph/stm32f10x_crc.c **** {
  54              		.loc 1 95 0
  55              		.cfi_startproc
  56              		@ args = 0, pretend = 0, frame = 0
  57              		@ frame_needed = 0, uses_anonymous_args = 0
  58              		@ link register save eliminated.
  59              	.LVL0:
  96:../system/src/stm32f1-stdperiph/stm32f10x_crc.c ****   CRC->DR = Data;
  60              		.loc 1 96 0
  61 0000 014B     		ldr	r3, .L5
  62 0002 1860     		str	r0, [r3]
  97:../system/src/stm32f1-stdperiph/stm32f10x_crc.c ****   
  98:../system/src/stm32f1-stdperiph/stm32f10x_crc.c ****   return (CRC->DR);
  63              		.loc 1 98 0
  64 0004 1868     		ldr	r0, [r3]
  65              	.LVL1:
  99:../system/src/stm32f1-stdperiph/stm32f10x_crc.c **** }
  66              		.loc 1 99 0
  67 0006 7047     		bx	lr
  68              	.L6:
  69              		.align	2
  70              	.L5:
  71 0008 00300240 		.word	1073885184
  72              		.cfi_endproc
  73              	.LFE64:
  75              		.section	.text.CRC_CalcBlockCRC,"ax",%progbits
  76              		.align	1
  77              		.global	CRC_CalcBlockCRC
  78              		.syntax unified
  79              		.thumb
  80              		.thumb_func
  81              		.fpu softvfp
  83              	CRC_CalcBlockCRC:
  84              	.LFB65:
 100:../system/src/stm32f1-stdperiph/stm32f10x_crc.c **** 
 101:../system/src/stm32f1-stdperiph/stm32f10x_crc.c **** /**
 102:../system/src/stm32f1-stdperiph/stm32f10x_crc.c ****   * @brief  Computes the 32-bit CRC of a given buffer of data word(32-bit).
 103:../system/src/stm32f1-stdperiph/stm32f10x_crc.c ****   * @param  pBuffer: pointer to the buffer containing the data to be computed
 104:../system/src/stm32f1-stdperiph/stm32f10x_crc.c ****   * @param  BufferLength: length of the buffer to be computed					
 105:../system/src/stm32f1-stdperiph/stm32f10x_crc.c ****   * @retval 32-bit CRC
 106:../system/src/stm32f1-stdperiph/stm32f10x_crc.c ****   */
 107:../system/src/stm32f1-stdperiph/stm32f10x_crc.c **** uint32_t CRC_CalcBlockCRC(uint32_t pBuffer[], uint32_t BufferLength)
 108:../system/src/stm32f1-stdperiph/stm32f10x_crc.c **** {
  85              		.loc 1 108 0
  86              		.cfi_startproc
  87              		@ args = 0, pretend = 0, frame = 0
  88              		@ frame_needed = 0, uses_anonymous_args = 0
  89              		@ link register save eliminated.
  90              	.LVL2:
 109:../system/src/stm32f1-stdperiph/stm32f10x_crc.c ****   uint32_t index = 0;
 110:../system/src/stm32f1-stdperiph/stm32f10x_crc.c ****   
 111:../system/src/stm32f1-stdperiph/stm32f10x_crc.c ****   for(index = 0; index < BufferLength; index++)
  91              		.loc 1 111 0
  92 0000 0023     		movs	r3, #0
  93              	.LVL3:
  94 0002 8B42     		cmp	r3, r1
  95 0004 0BD2     		bcs	.L14
 108:../system/src/stm32f1-stdperiph/stm32f10x_crc.c ****   uint32_t index = 0;
  96              		.loc 1 108 0
  97 0006 10B4     		push	{r4}
  98              		.cfi_def_cfa_offset 4
  99              		.cfi_offset 4, -4
 100              	.L9:
 112:../system/src/stm32f1-stdperiph/stm32f10x_crc.c ****   {
 113:../system/src/stm32f1-stdperiph/stm32f10x_crc.c ****     CRC->DR = pBuffer[index];
 101              		.loc 1 113 0 discriminator 3
 102 0008 50F82340 		ldr	r4, [r0, r3, lsl #2]
 103 000c 054A     		ldr	r2, .L15
 104 000e 1460     		str	r4, [r2]
 111:../system/src/stm32f1-stdperiph/stm32f10x_crc.c ****   {
 105              		.loc 1 111 0 discriminator 3
 106 0010 0133     		adds	r3, r3, #1
 107              	.LVL4:
 108 0012 8B42     		cmp	r3, r1
 109 0014 F8D3     		bcc	.L9
 114:../system/src/stm32f1-stdperiph/stm32f10x_crc.c ****   }
 115:../system/src/stm32f1-stdperiph/stm32f10x_crc.c ****   return (CRC->DR);
 110              		.loc 1 115 0
 111 0016 034B     		ldr	r3, .L15
 112              	.LVL5:
 113 0018 1868     		ldr	r0, [r3]
 114              	.LVL6:
 116:../system/src/stm32f1-stdperiph/stm32f10x_crc.c **** }
 115              		.loc 1 116 0
 116 001a 10BC     		pop	{r4}
 117              		.cfi_restore 4
 118              		.cfi_def_cfa_offset 0
 119 001c 7047     		bx	lr
 120              	.LVL7:
 121              	.L14:
 115:../system/src/stm32f1-stdperiph/stm32f10x_crc.c **** }
 122              		.loc 1 115 0
 123 001e 014B     		ldr	r3, .L15
 124              	.LVL8:
 125 0020 1868     		ldr	r0, [r3]
 126              	.LVL9:
 127              		.loc 1 116 0
 128 0022 7047     		bx	lr
 129              	.L16:
 130              		.align	2
 131              	.L15:
 132 0024 00300240 		.word	1073885184
 133              		.cfi_endproc
 134              	.LFE65:
 136              		.section	.text.CRC_GetCRC,"ax",%progbits
 137              		.align	1
 138              		.global	CRC_GetCRC
 139              		.syntax unified
 140              		.thumb
 141              		.thumb_func
 142              		.fpu softvfp
 144              	CRC_GetCRC:
 145              	.LFB66:
 117:../system/src/stm32f1-stdperiph/stm32f10x_crc.c **** 
 118:../system/src/stm32f1-stdperiph/stm32f10x_crc.c **** /**
 119:../system/src/stm32f1-stdperiph/stm32f10x_crc.c ****   * @brief  Returns the current CRC value.
 120:../system/src/stm32f1-stdperiph/stm32f10x_crc.c ****   * @param  None
 121:../system/src/stm32f1-stdperiph/stm32f10x_crc.c ****   * @retval 32-bit CRC
 122:../system/src/stm32f1-stdperiph/stm32f10x_crc.c ****   */
 123:../system/src/stm32f1-stdperiph/stm32f10x_crc.c **** uint32_t CRC_GetCRC(void)
 124:../system/src/stm32f1-stdperiph/stm32f10x_crc.c **** {
 146              		.loc 1 124 0
 147              		.cfi_startproc
 148              		@ args = 0, pretend = 0, frame = 0
 149              		@ frame_needed = 0, uses_anonymous_args = 0
 150              		@ link register save eliminated.
 125:../system/src/stm32f1-stdperiph/stm32f10x_crc.c ****   return (CRC->DR);
 151              		.loc 1 125 0
 152 0000 014B     		ldr	r3, .L18
 153 0002 1868     		ldr	r0, [r3]
 126:../system/src/stm32f1-stdperiph/stm32f10x_crc.c **** }
 154              		.loc 1 126 0
 155 0004 7047     		bx	lr
 156              	.L19:
 157 0006 00BF     		.align	2
 158              	.L18:
 159 0008 00300240 		.word	1073885184
 160              		.cfi_endproc
 161              	.LFE66:
 163              		.section	.text.CRC_SetIDRegister,"ax",%progbits
 164              		.align	1
 165              		.global	CRC_SetIDRegister
 166              		.syntax unified
 167              		.thumb
 168              		.thumb_func
 169              		.fpu softvfp
 171              	CRC_SetIDRegister:
 172              	.LFB67:
 127:../system/src/stm32f1-stdperiph/stm32f10x_crc.c **** 
 128:../system/src/stm32f1-stdperiph/stm32f10x_crc.c **** /**
 129:../system/src/stm32f1-stdperiph/stm32f10x_crc.c ****   * @brief  Stores a 8-bit data in the Independent Data(ID) register.
 130:../system/src/stm32f1-stdperiph/stm32f10x_crc.c ****   * @param  IDValue: 8-bit value to be stored in the ID register 					
 131:../system/src/stm32f1-stdperiph/stm32f10x_crc.c ****   * @retval None
 132:../system/src/stm32f1-stdperiph/stm32f10x_crc.c ****   */
 133:../system/src/stm32f1-stdperiph/stm32f10x_crc.c **** void CRC_SetIDRegister(uint8_t IDValue)
 134:../system/src/stm32f1-stdperiph/stm32f10x_crc.c **** {
 173              		.loc 1 134 0
 174              		.cfi_startproc
 175              		@ args = 0, pretend = 0, frame = 0
 176              		@ frame_needed = 0, uses_anonymous_args = 0
 177              		@ link register save eliminated.
 178              	.LVL10:
 135:../system/src/stm32f1-stdperiph/stm32f10x_crc.c ****   CRC->IDR = IDValue;
 179              		.loc 1 135 0
 180 0000 014B     		ldr	r3, .L21
 181 0002 1871     		strb	r0, [r3, #4]
 136:../system/src/stm32f1-stdperiph/stm32f10x_crc.c **** }
 182              		.loc 1 136 0
 183 0004 7047     		bx	lr
 184              	.L22:
 185 0006 00BF     		.align	2
 186              	.L21:
 187 0008 00300240 		.word	1073885184
 188              		.cfi_endproc
 189              	.LFE67:
 191              		.section	.text.CRC_GetIDRegister,"ax",%progbits
 192              		.align	1
 193              		.global	CRC_GetIDRegister
 194              		.syntax unified
 195              		.thumb
 196              		.thumb_func
 197              		.fpu softvfp
 199              	CRC_GetIDRegister:
 200              	.LFB68:
 137:../system/src/stm32f1-stdperiph/stm32f10x_crc.c **** 
 138:../system/src/stm32f1-stdperiph/stm32f10x_crc.c **** /**
 139:../system/src/stm32f1-stdperiph/stm32f10x_crc.c ****   * @brief  Returns the 8-bit data stored in the Independent Data(ID) register
 140:../system/src/stm32f1-stdperiph/stm32f10x_crc.c ****   * @param  None
 141:../system/src/stm32f1-stdperiph/stm32f10x_crc.c ****   * @retval 8-bit value of the ID register 
 142:../system/src/stm32f1-stdperiph/stm32f10x_crc.c ****   */
 143:../system/src/stm32f1-stdperiph/stm32f10x_crc.c **** uint8_t CRC_GetIDRegister(void)
 144:../system/src/stm32f1-stdperiph/stm32f10x_crc.c **** {
 201              		.loc 1 144 0
 202              		.cfi_startproc
 203              		@ args = 0, pretend = 0, frame = 0
 204              		@ frame_needed = 0, uses_anonymous_args = 0
 205              		@ link register save eliminated.
 145:../system/src/stm32f1-stdperiph/stm32f10x_crc.c ****   return (CRC->IDR);
 206              		.loc 1 145 0
 207 0000 014B     		ldr	r3, .L24
 208 0002 1879     		ldrb	r0, [r3, #4]	@ zero_extendqisi2
 146:../system/src/stm32f1-stdperiph/stm32f10x_crc.c **** }
 209              		.loc 1 146 0
 210 0004 7047     		bx	lr
 211              	.L25:
 212 0006 00BF     		.align	2
 213              	.L24:
 214 0008 00300240 		.word	1073885184
 215              		.cfi_endproc
 216              	.LFE68:
 218              		.text
 219              	.Letext0:
 220              		.file 2 "/usr/local/bin/gcc-arm-none-eabi-7-2018-q2-update/lib/gcc/arm-none-eabi/7.3.1/include/std
 221              		.file 3 "../system/include/cmsis/core_cm3.h"
 222              		.file 4 "../system/include/cmsis/system_stm32f10x.h"
 223              		.file 5 "../system/include/cmsis/stm32f10x.h"