   1              		.cpu cortex-m3
   2              		.eabi_attribute 20, 1
   3              		.eabi_attribute 21, 1
   4              		.eabi_attribute 23, 3
   5              		.eabi_attribute 24, 1
   6              		.eabi_attribute 25, 1
   7              		.eabi_attribute 26, 1
   8              		.eabi_attribute 30, 1
   9              		.eabi_attribute 34, 1
  10              		.eabi_attribute 18, 4
  11              		.file	"analog_anemometer.c"
  12              		.text
  13              	.Ltext0:
  14              		.cfi_sections	.debug_frame
  15              		.section	.text.analog_anemometer_init,"ax",%progbits
  16              		.align	1
  17              		.global	analog_anemometer_init
  18              		.syntax unified
  19              		.thumb
  20              		.thumb_func
  21              		.fpu softvfp
  23              	analog_anemometer_init:
  24              	.LFB97:
  25              		.file 1 "../system/src/drivers/analog_anemometer.c"
   1:../system/src/drivers/analog_anemometer.c **** /*
   2:../system/src/drivers/analog_anemometer.c ****  * analog_anemometer.c
   3:../system/src/drivers/analog_anemometer.c ****  *
   4:../system/src/drivers/analog_anemometer.c ****  *  Created on: 25.12.2019
   5:../system/src/drivers/analog_anemometer.c ****  *      Author: mateusz
   6:../system/src/drivers/analog_anemometer.c ****  */
   7:../system/src/drivers/analog_anemometer.c **** 
   8:../system/src/drivers/analog_anemometer.c **** #include "station_config.h"
   9:../system/src/drivers/analog_anemometer.c **** 
  10:../system/src/drivers/analog_anemometer.c **** #if defined(_ANEMOMETER_ANALOGUE_SPARKFUN) || defined(_ANEMOMETER_ANALOGUE)
  11:../system/src/drivers/analog_anemometer.c **** 
  12:../system/src/drivers/analog_anemometer.c **** #define WIND_DEBUG
  13:../system/src/drivers/analog_anemometer.c **** 
  14:../system/src/drivers/analog_anemometer.c **** #include "drivers/analog_anemometer.h"
  15:../system/src/drivers/analog_anemometer.c **** 
  16:../system/src/drivers/analog_anemometer.c **** #include <stdint.h>
  17:../system/src/drivers/analog_anemometer.c **** #include <string.h>
  18:../system/src/drivers/analog_anemometer.c **** #include <stm32f10x_tim.h>
  19:../system/src/drivers/analog_anemometer.c **** #include <stm32f10x_dma.h>
  20:../system/src/drivers/analog_anemometer.c **** #include "drivers/gpio_conf.h"
  21:../system/src/drivers/analog_anemometer.c **** #include "drivers/dma_helper_functions.h"
  22:../system/src/drivers/analog_anemometer.c **** #include "rte_wx.h"
  23:../system/src/drivers/analog_anemometer.c **** #include "main.h"
  24:../system/src/drivers/analog_anemometer.c **** #include "wx_handler.h"
  25:../system/src/drivers/analog_anemometer.c **** #include "LedConfig.h"
  26:../system/src/drivers/analog_anemometer.c **** 
  27:../system/src/drivers/analog_anemometer.c **** #define MINUM_PULSE_LN 15
  28:../system/src/drivers/analog_anemometer.c **** #define MAXIMUM_PULSE_SLEW_RATE 4000
  29:../system/src/drivers/analog_anemometer.c **** 
  30:../system/src/drivers/analog_anemometer.c **** #define UF_MAXIMUM_FREQUENCY 8280//32767
  31:../system/src/drivers/analog_anemometer.c **** #define UPSCALED_MAX_ANGLE 		(360 * 100)
  32:../system/src/drivers/analog_anemometer.c **** #define UPSCALED_MAX_ANGLE_2 	(360 * 10)
  33:../system/src/drivers/analog_anemometer.c **** 
  34:../system/src/drivers/analog_anemometer.c **** 
  35:../system/src/drivers/analog_anemometer.c **** // an array where DMA will store values of the timer latched by compare-capture input
  36:../system/src/drivers/analog_anemometer.c **** uint16_t analog_anemometer_windspeed_pulses_time[ANALOG_ANEMOMETER_SPEED_PULSES_N];
  37:../system/src/drivers/analog_anemometer.c **** 
  38:../system/src/drivers/analog_anemometer.c **** // an array with calculated times between pulses
  39:../system/src/drivers/analog_anemometer.c **** uint16_t analog_anemometer_time_between_pulses[ANALOG_ANEMOMETER_SPEED_PULSES_N];
  40:../system/src/drivers/analog_anemometer.c **** 
  41:../system/src/drivers/analog_anemometer.c **** #ifdef WIND_DEBUG
  42:../system/src/drivers/analog_anemometer.c **** uint16_t analog_anemometer_direction_timer_values[ANALOG_ANEMOMETER_SPEED_PULSES_N];
  43:../system/src/drivers/analog_anemometer.c **** uint8_t analog_anemometer_direction_timer_values_it = 0;
  44:../system/src/drivers/analog_anemometer.c **** #endif
  45:../system/src/drivers/analog_anemometer.c **** 
  46:../system/src/drivers/analog_anemometer.c **** // a static copy of impulse-meters/second constant. This value expresses
  47:../system/src/drivers/analog_anemometer.c **** // how many pulses in 10 seconds measurement time gives 1 m/s.
  48:../system/src/drivers/analog_anemometer.c **** // Value of ten means that if within 10 second period 10 pulses were detected it gives
  49:../system/src/drivers/analog_anemometer.c **** // 1m/s
  50:../system/src/drivers/analog_anemometer.c **** uint16_t analog_anemometer_pulses_per_m_s_constant = 0;
  51:../system/src/drivers/analog_anemometer.c **** 
  52:../system/src/drivers/analog_anemometer.c **** // a flag which will be raised if not enought pulses has been copied by a DMA before a timer overfl
  53:../system/src/drivers/analog_anemometer.c **** uint8_t analog_anemometer_timer_has_been_fired = 0;
  54:../system/src/drivers/analog_anemometer.c **** 
  55:../system/src/drivers/analog_anemometer.c **** uint8_t analog_anemometer_slew_limit_fired = 0;
  56:../system/src/drivers/analog_anemometer.c **** 
  57:../system/src/drivers/analog_anemometer.c **** uint8_t analog_anemometer_deboucing_fired = 0;
  58:../system/src/drivers/analog_anemometer.c **** 
  59:../system/src/drivers/analog_anemometer.c **** uint8_t analog_anemometer_direction_doesnt_work = 0;
  60:../system/src/drivers/analog_anemometer.c **** 
  61:../system/src/drivers/analog_anemometer.c **** DMA_InitTypeDef DMA_InitStruct;
  62:../system/src/drivers/analog_anemometer.c **** 
  63:../system/src/drivers/analog_anemometer.c **** // direction recalculated from v/f
  64:../system/src/drivers/analog_anemometer.c **** uint16_t analog_anemometer_direction = 0;
  65:../system/src/drivers/analog_anemometer.c **** 
  66:../system/src/drivers/analog_anemometer.c **** // scaling value which sets the upper value in percents of the frequency in relation to 32767 Hz
  67:../system/src/drivers/analog_anemometer.c **** // translating this to a voltage at an input of the U/f converter this sets a maximum ratio of the
  68:../system/src/drivers/analog_anemometer.c **** // potentiometer inside the direction
  69:../system/src/drivers/analog_anemometer.c **** int16_t analog_anemometer_b_coeff = 100;
  70:../system/src/drivers/analog_anemometer.c **** 
  71:../system/src/drivers/analog_anemometer.c **** int16_t analog_anemometer_a_coeff = 10;
  72:../system/src/drivers/analog_anemometer.c **** 
  73:../system/src/drivers/analog_anemometer.c **** // this controls if the direction increases (1) od decreaes (-1) with the frequency
  74:../system/src/drivers/analog_anemometer.c **** int8_t analog_anemometer_direction_pol = 1;
  75:../system/src/drivers/analog_anemometer.c **** 
  76:../system/src/drivers/analog_anemometer.c **** uint16_t analog_anemometer_last_direction_cnt = 0;
  77:../system/src/drivers/analog_anemometer.c **** 
  78:../system/src/drivers/analog_anemometer.c **** #ifdef _ANEMOMETER_ANALOGUE
  79:../system/src/drivers/analog_anemometer.c **** int8_t  analog_anemometer_direction_mode = DIRECTION_REGULAR;
  80:../system/src/drivers/analog_anemometer.c **** #endif
  81:../system/src/drivers/analog_anemometer.c **** 
  82:../system/src/drivers/analog_anemometer.c **** #ifdef _ANEMOMETER_ANALOGUE_SPARKFUN
  83:../system/src/drivers/analog_anemometer.c **** int8_t  analog_anemometer_direction_mode = DIRECTION_SPARKFUN;
  84:../system/src/drivers/analog_anemometer.c **** #endif
  85:../system/src/drivers/analog_anemometer.c **** 
  86:../system/src/drivers/analog_anemometer.c **** // this array consists voltage ranges to calculate
  87:../system/src/drivers/analog_anemometer.c **** const int16_t analog_anemometer_direction_sparkfun_ranges[16][3] = {
  88:../system/src/drivers/analog_anemometer.c **** 		{4018, 4112, 112},
  89:../system/src/drivers/analog_anemometer.c **** 		{4112, 4182, 67},
  90:../system/src/drivers/analog_anemometer.c **** 		{4182, 4296, 90},
  91:../system/src/drivers/analog_anemometer.c **** 		{4296, 4537, 157},
  92:../system/src/drivers/analog_anemometer.c **** 		{4537, 4840, 135},
  93:../system/src/drivers/analog_anemometer.c **** 		{4840, 5107, 202},
  94:../system/src/drivers/analog_anemometer.c **** 		{5107, 5529, 180},
  95:../system/src/drivers/analog_anemometer.c **** 		{5529, 5982, 22},
  96:../system/src/drivers/analog_anemometer.c **** 		{5982, 6490, 45},
  97:../system/src/drivers/analog_anemometer.c **** 		{6490, 6935, 247},
  98:../system/src/drivers/analog_anemometer.c **** 		{6935, 7201, 225},
  99:../system/src/drivers/analog_anemometer.c **** 		{7201, 7607, 337},
 100:../system/src/drivers/analog_anemometer.c **** 		{7607, 7932, 0},
 101:../system/src/drivers/analog_anemometer.c **** 		{7932, 8349, 292},
 102:../system/src/drivers/analog_anemometer.c **** 		{8349, 8746, 270},
 103:../system/src/drivers/analog_anemometer.c **** 		{8746, 9276, 315}
 104:../system/src/drivers/analog_anemometer.c **** };
 105:../system/src/drivers/analog_anemometer.c **** 
 106:../system/src/drivers/analog_anemometer.c **** void analog_anemometer_init(uint16_t pulses_per_meter_second, uint8_t anemometer_lower_boundary,
 107:../system/src/drivers/analog_anemometer.c **** 		uint8_t anemometer_upper_boundary, uint8_t direction_polarity) {
  26              		.loc 1 107 0
  27              		.cfi_startproc
  28              		@ args = 0, pretend = 0, frame = 16
  29              		@ frame_needed = 0, uses_anonymous_args = 0
  30              	.LVL0:
  31 0000 F0B5     		push	{r4, r5, r6, r7, lr}
  32              		.cfi_def_cfa_offset 20
  33              		.cfi_offset 4, -20
  34              		.cfi_offset 5, -16
  35              		.cfi_offset 6, -12
  36              		.cfi_offset 7, -8
  37              		.cfi_offset 14, -4
  38 0002 85B0     		sub	sp, sp, #20
  39              		.cfi_def_cfa_offset 40
 108:../system/src/drivers/analog_anemometer.c **** 
 109:../system/src/drivers/analog_anemometer.c **** 	TIM_TimeBaseInitTypeDef TIM_TimeBaseInitStruct;
 110:../system/src/drivers/analog_anemometer.c **** 
 111:../system/src/drivers/analog_anemometer.c **** 	analog_anemometer_pulses_per_m_s_constant = pulses_per_meter_second;
  40              		.loc 1 111 0
  41 0004 544C     		ldr	r4, .L3
  42 0006 2080     		strh	r0, [r4]	@ movhi
 112:../system/src/drivers/analog_anemometer.c **** 
 113:../system/src/drivers/analog_anemometer.c **** 	// Solving the linear equation to find 'a' and 'b' coefficient needed to rescale the wind directio
 114:../system/src/drivers/analog_anemometer.c **** 	// from raw value calculated from an input frequency, to physical value which includes the lower a
 115:../system/src/drivers/analog_anemometer.c **** 	// the higher value of anemometer resistance / frequency
 116:../system/src/drivers/analog_anemometer.c **** 	// * 100
 117:../system/src/drivers/analog_anemometer.c **** 	analog_anemometer_a_coeff = ((10000 * -UPSCALED_MAX_ANGLE) / (UPSCALED_MAX_ANGLE * anemometer_lowe
  43              		.loc 1 117 0
  44 0008 544C     		ldr	r4, .L3+4
  45 000a 04FB02F4 		mul	r4, r4, r2
  46 000e 48F6A040 		movw	r0, #36000
  47              	.LVL1:
  48 0012 00FB0144 		mla	r4, r0, r1, r4
  49 0016 5248     		ldr	r0, .L3+8
  50 0018 90FBF4F0 		sdiv	r0, r0, r4
  51 001c 514C     		ldr	r4, .L3+12
  52 001e 2080     		strh	r0, [r4]	@ movhi
 118:../system/src/drivers/analog_anemometer.c **** 	// * 10
 119:../system/src/drivers/analog_anemometer.c **** 	analog_anemometer_b_coeff = (UPSCALED_MAX_ANGLE_2 * anemometer_lower_boundary * UPSCALED_MAX_ANGLE
  53              		.loc 1 119 0
  54 0020 5148     		ldr	r0, .L3+16
  55 0022 00FB01F0 		mul	r0, r0, r1
  56 0026 514C     		ldr	r4, .L3+20
  57 0028 04FB02F2 		mul	r2, r4, r2
  58              	.LVL2:
  59 002c 4FF46164 		mov	r4, #3600
  60 0030 04FB0121 		mla	r1, r4, r1, r2
  61              	.LVL3:
  62 0034 90FBF1F1 		sdiv	r1, r0, r1
  63 0038 4D4A     		ldr	r2, .L3+24
  64 003a 1180     		strh	r1, [r2]	@ movhi
 120:../system/src/drivers/analog_anemometer.c **** 
 121:../system/src/drivers/analog_anemometer.c **** 	// signal polariy
 122:../system/src/drivers/analog_anemometer.c **** 	analog_anemometer_direction_pol = direction_polarity;
  65              		.loc 1 122 0
  66 003c 4D4A     		ldr	r2, .L3+28
  67 003e 1370     		strb	r3, [r2]
 123:../system/src/drivers/analog_anemometer.c **** 
 124:../system/src/drivers/analog_anemometer.c **** 	// initializing arrays;
 125:../system/src/drivers/analog_anemometer.c **** 	memset(analog_anemometer_windspeed_pulses_time, 0x00, ANALOG_ANEMOMETER_SPEED_PULSES_N);
  68              		.loc 1 125 0
  69 0040 4D4F     		ldr	r7, .L3+32
  70 0042 0A22     		movs	r2, #10
  71 0044 0021     		movs	r1, #0
  72 0046 3846     		mov	r0, r7
  73 0048 FFF7FEFF 		bl	memset
  74              	.LVL4:
 126:../system/src/drivers/analog_anemometer.c **** 	memset(analog_anemometer_time_between_pulses, 0x00, ANALOG_ANEMOMETER_SPEED_PULSES_N);
  75              		.loc 1 126 0
  76 004c 0A22     		movs	r2, #10
  77 004e 0021     		movs	r1, #0
  78 0050 4A48     		ldr	r0, .L3+36
  79 0052 FFF7FEFF 		bl	memset
  80              	.LVL5:
 127:../system/src/drivers/analog_anemometer.c **** #ifdef WIND_DEBUG
 128:../system/src/drivers/analog_anemometer.c **** 	memset(analog_anemometer_direction_timer_values, 0x00, ANALOG_ANEMOMETER_SPEED_PULSES_N);
  81              		.loc 1 128 0
  82 0056 0A22     		movs	r2, #10
  83 0058 0021     		movs	r1, #0
  84 005a 4948     		ldr	r0, .L3+40
  85 005c FFF7FEFF 		bl	memset
  86              	.LVL6:
 129:../system/src/drivers/analog_anemometer.c **** #endif
 130:../system/src/drivers/analog_anemometer.c **** 
 131:../system/src/drivers/analog_anemometer.c **** 	// enabling the clock for TIM17
 132:../system/src/drivers/analog_anemometer.c **** 	RCC->APB2ENR |= RCC_APB2ENR_TIM17EN;
  87              		.loc 1 132 0
  88 0060 484B     		ldr	r3, .L3+44
  89 0062 9A69     		ldr	r2, [r3, #24]
  90 0064 42F48022 		orr	r2, r2, #262144
  91 0068 9A61     		str	r2, [r3, #24]
 133:../system/src/drivers/analog_anemometer.c **** 	RCC->AHBENR |= RCC_AHBENR_DMA1EN;
  92              		.loc 1 133 0
  93 006a 5A69     		ldr	r2, [r3, #20]
  94 006c 42F00102 		orr	r2, r2, #1
  95 0070 5A61     		str	r2, [r3, #20]
 134:../system/src/drivers/analog_anemometer.c **** 
 135:../system/src/drivers/analog_anemometer.c **** 	// Configuring a pin where pulses from anemometer are connected
 136:../system/src/drivers/analog_anemometer.c **** 	Configure_GPIO(GPIOB,9,FLOATING_INPUT);
  96              		.loc 1 136 0
  97 0072 0422     		movs	r2, #4
  98 0074 0921     		movs	r1, #9
  99 0076 4448     		ldr	r0, .L3+48
 100 0078 FFF7FEFF 		bl	Configure_GPIO
 101              	.LVL7:
 137:../system/src/drivers/analog_anemometer.c **** 
 138:../system/src/drivers/analog_anemometer.c **** 	// resetting the timer to defaults
 139:../system/src/drivers/analog_anemometer.c **** 	TIM_DeInit(TIM17);
 102              		.loc 1 139 0
 103 007c 434C     		ldr	r4, .L3+52
 104 007e 2046     		mov	r0, r4
 105 0080 FFF7FEFF 		bl	TIM_DeInit
 106              	.LVL8:
 140:../system/src/drivers/analog_anemometer.c **** 
 141:../system/src/drivers/analog_anemometer.c **** 	// initializing structure with default values
 142:../system/src/drivers/analog_anemometer.c **** 	TIM_TimeBaseStructInit(&TIM_TimeBaseInitStruct);
 107              		.loc 1 142 0
 108 0084 01A8     		add	r0, sp, #4
 109 0086 FFF7FEFF 		bl	TIM_TimeBaseStructInit
 110              	.LVL9:
 143:../system/src/drivers/analog_anemometer.c **** 
 144:../system/src/drivers/analog_anemometer.c **** 	TIM_TimeBaseInitStruct.TIM_Prescaler = 23999;					// PSC 23999
 111              		.loc 1 144 0
 112 008a 45F6BF53 		movw	r3, #23999
 113 008e ADF80430 		strh	r3, [sp, #4]	@ movhi
 145:../system/src/drivers/analog_anemometer.c **** 	TIM_TimeBaseInitStruct.TIM_Period = 60000;					// ARR
 114              		.loc 1 145 0
 115 0092 4EF66023 		movw	r3, #60000
 116 0096 ADF80830 		strh	r3, [sp, #8]	@ movhi
 146:../system/src/drivers/analog_anemometer.c **** 	TIM_TimeBaseInitStruct.TIM_CounterMode = TIM_CounterMode_Up;
 117              		.loc 1 146 0
 118 009a 0025     		movs	r5, #0
 119 009c ADF80650 		strh	r5, [sp, #6]	@ movhi
 147:../system/src/drivers/analog_anemometer.c **** 	TIM_TimeBaseInitStruct.TIM_ClockDivision = TIM_CKD_DIV1;
 120              		.loc 1 147 0
 121 00a0 ADF80A50 		strh	r5, [sp, #10]	@ movhi
 148:../system/src/drivers/analog_anemometer.c **** 
 149:../system/src/drivers/analog_anemometer.c **** 	// Configuring basics of thr timer
 150:../system/src/drivers/analog_anemometer.c **** 	TIM_TimeBaseInit(TIM17, &TIM_TimeBaseInitStruct);
 122              		.loc 1 150 0
 123 00a4 01A9     		add	r1, sp, #4
 124 00a6 2046     		mov	r0, r4
 125 00a8 FFF7FEFF 		bl	TIM_TimeBaseInit
 126              	.LVL10:
 151:../system/src/drivers/analog_anemometer.c **** 
 152:../system/src/drivers/analog_anemometer.c **** 	// Enabling capture input
 153:../system/src/drivers/analog_anemometer.c **** 	TIM_TIxExternalClockConfig(TIM17, TIM_TIxExternalCLK1Source_TI1, TIM_ICPolarity_Rising, 0);
 127              		.loc 1 153 0
 128 00ac 2B46     		mov	r3, r5
 129 00ae 2A46     		mov	r2, r5
 130 00b0 5021     		movs	r1, #80
 131 00b2 2046     		mov	r0, r4
 132 00b4 FFF7FEFF 		bl	TIM_TIxExternalClockConfig
 133              	.LVL11:
 154:../system/src/drivers/analog_anemometer.c **** 
 155:../system/src/drivers/analog_anemometer.c **** 	// Starting timer
 156:../system/src/drivers/analog_anemometer.c **** 	TIM_Cmd(TIM17, ENABLE);
 134              		.loc 1 156 0
 135 00b8 0121     		movs	r1, #1
 136 00ba 2046     		mov	r0, r4
 137 00bc FFF7FEFF 		bl	TIM_Cmd
 138              	.LVL12:
 157:../system/src/drivers/analog_anemometer.c **** 
 158:../system/src/drivers/analog_anemometer.c **** 	// Enabling a DMA request signal from first capture-compare channel
 159:../system/src/drivers/analog_anemometer.c **** 	TIM_DMACmd(TIM17, TIM_DMA_CC1, ENABLE);
 139              		.loc 1 159 0
 140 00c0 0122     		movs	r2, #1
 141 00c2 4FF40071 		mov	r1, #512
 142 00c6 2046     		mov	r0, r4
 143 00c8 FFF7FEFF 		bl	TIM_DMACmd
 144              	.LVL13:
 160:../system/src/drivers/analog_anemometer.c **** 
 161:../system/src/drivers/analog_anemometer.c **** 	// Enabling an interrupt
 162:../system/src/drivers/analog_anemometer.c **** 	TIM_ITConfig(TIM17, TIM_IT_Update, ENABLE);
 145              		.loc 1 162 0
 146 00cc 0122     		movs	r2, #1
 147 00ce 1146     		mov	r1, r2
 148 00d0 2046     		mov	r0, r4
 149 00d2 FFF7FEFF 		bl	TIM_ITConfig
 150              	.LVL14:
 151              	.LBB22:
 152              	.LBB23:
 153              		.file 2 "../system/include/cmsis/core_cm3.h"
   1:../system/include/cmsis/core_cm3.h **** /**************************************************************************//**
   2:../system/include/cmsis/core_cm3.h ****  * @file     core_cm3.h
   3:../system/include/cmsis/core_cm3.h ****  * @brief    CMSIS Cortex-M3 Core Peripheral Access Layer Header File
   4:../system/include/cmsis/core_cm3.h ****  * @version  V4.30
   5:../system/include/cmsis/core_cm3.h ****  * @date     20. October 2015
   6:../system/include/cmsis/core_cm3.h ****  ******************************************************************************/
   7:../system/include/cmsis/core_cm3.h **** /* Copyright (c) 2009 - 2015 ARM LIMITED
   8:../system/include/cmsis/core_cm3.h **** 
   9:../system/include/cmsis/core_cm3.h ****    All rights reserved.
  10:../system/include/cmsis/core_cm3.h ****    Redistribution and use in source and binary forms, with or without
  11:../system/include/cmsis/core_cm3.h ****    modification, are permitted provided that the following conditions are met:
  12:../system/include/cmsis/core_cm3.h ****    - Redistributions of source code must retain the above copyright
  13:../system/include/cmsis/core_cm3.h ****      notice, this list of conditions and the following disclaimer.
  14:../system/include/cmsis/core_cm3.h ****    - Redistributions in binary form must reproduce the above copyright
  15:../system/include/cmsis/core_cm3.h ****      notice, this list of conditions and the following disclaimer in the
  16:../system/include/cmsis/core_cm3.h ****      documentation and/or other materials provided with the distribution.
  17:../system/include/cmsis/core_cm3.h ****    - Neither the name of ARM nor the names of its contributors may be used
  18:../system/include/cmsis/core_cm3.h ****      to endorse or promote products derived from this software without
  19:../system/include/cmsis/core_cm3.h ****      specific prior written permission.
  20:../system/include/cmsis/core_cm3.h ****    *
  21:../system/include/cmsis/core_cm3.h ****    THIS SOFTWARE IS PROVIDED BY THE COPYRIGHT HOLDERS AND CONTRIBUTORS "AS IS"
  22:../system/include/cmsis/core_cm3.h ****    AND ANY EXPRESS OR IMPLIED WARRANTIES, INCLUDING, BUT NOT LIMITED TO, THE
  23:../system/include/cmsis/core_cm3.h ****    IMPLIED WARRANTIES OF MERCHANTABILITY AND FITNESS FOR A PARTICULAR PURPOSE
  24:../system/include/cmsis/core_cm3.h ****    ARE DISCLAIMED. IN NO EVENT SHALL COPYRIGHT HOLDERS AND CONTRIBUTORS BE
  25:../system/include/cmsis/core_cm3.h ****    LIABLE FOR ANY DIRECT, INDIRECT, INCIDENTAL, SPECIAL, EXEMPLARY, OR
  26:../system/include/cmsis/core_cm3.h ****    CONSEQUENTIAL DAMAGES (INCLUDING, BUT NOT LIMITED TO, PROCUREMENT OF
  27:../system/include/cmsis/core_cm3.h ****    SUBSTITUTE GOODS OR SERVICES; LOSS OF USE, DATA, OR PROFITS; OR BUSINESS
  28:../system/include/cmsis/core_cm3.h ****    INTERRUPTION) HOWEVER CAUSED AND ON ANY THEORY OF LIABILITY, WHETHER IN
  29:../system/include/cmsis/core_cm3.h ****    CONTRACT, STRICT LIABILITY, OR TORT (INCLUDING NEGLIGENCE OR OTHERWISE)
  30:../system/include/cmsis/core_cm3.h ****    ARISING IN ANY WAY OUT OF THE USE OF THIS SOFTWARE, EVEN IF ADVISED OF THE
  31:../system/include/cmsis/core_cm3.h ****    POSSIBILITY OF SUCH DAMAGE.
  32:../system/include/cmsis/core_cm3.h ****    ---------------------------------------------------------------------------*/
  33:../system/include/cmsis/core_cm3.h **** 
  34:../system/include/cmsis/core_cm3.h **** 
  35:../system/include/cmsis/core_cm3.h **** #if   defined ( __ICCARM__ )
  36:../system/include/cmsis/core_cm3.h ****  #pragma system_include         /* treat file as system include file for MISRA check */
  37:../system/include/cmsis/core_cm3.h **** #elif defined(__ARMCC_VERSION) && (__ARMCC_VERSION >= 6010050)
  38:../system/include/cmsis/core_cm3.h ****   #pragma clang system_header   /* treat file as system include file */
  39:../system/include/cmsis/core_cm3.h **** #endif
  40:../system/include/cmsis/core_cm3.h **** 
  41:../system/include/cmsis/core_cm3.h **** #ifndef __CORE_CM3_H_GENERIC
  42:../system/include/cmsis/core_cm3.h **** #define __CORE_CM3_H_GENERIC
  43:../system/include/cmsis/core_cm3.h **** 
  44:../system/include/cmsis/core_cm3.h **** // [ILG]
  45:../system/include/cmsis/core_cm3.h **** #if defined ( __GNUC__ )
  46:../system/include/cmsis/core_cm3.h **** #pragma GCC diagnostic push
  47:../system/include/cmsis/core_cm3.h **** #pragma GCC diagnostic ignored "-Wsign-conversion"
  48:../system/include/cmsis/core_cm3.h **** #pragma GCC diagnostic ignored "-Wconversion"
  49:../system/include/cmsis/core_cm3.h **** #pragma GCC diagnostic ignored "-Wunused-parameter"
  50:../system/include/cmsis/core_cm3.h **** #endif
  51:../system/include/cmsis/core_cm3.h **** 
  52:../system/include/cmsis/core_cm3.h **** #include <stdint.h>
  53:../system/include/cmsis/core_cm3.h **** 
  54:../system/include/cmsis/core_cm3.h **** #ifdef __cplusplus
  55:../system/include/cmsis/core_cm3.h ****  extern "C" {
  56:../system/include/cmsis/core_cm3.h **** #endif
  57:../system/include/cmsis/core_cm3.h **** 
  58:../system/include/cmsis/core_cm3.h **** /**
  59:../system/include/cmsis/core_cm3.h ****   \page CMSIS_MISRA_Exceptions  MISRA-C:2004 Compliance Exceptions
  60:../system/include/cmsis/core_cm3.h ****   CMSIS violates the following MISRA-C:2004 rules:
  61:../system/include/cmsis/core_cm3.h **** 
  62:../system/include/cmsis/core_cm3.h ****    \li Required Rule 8.5, object/function definition in header file.<br>
  63:../system/include/cmsis/core_cm3.h ****      Function definitions in header files are used to allow 'inlining'.
  64:../system/include/cmsis/core_cm3.h **** 
  65:../system/include/cmsis/core_cm3.h ****    \li Required Rule 18.4, declaration of union type or object of union type: '{...}'.<br>
  66:../system/include/cmsis/core_cm3.h ****      Unions are used for effective representation of core registers.
  67:../system/include/cmsis/core_cm3.h **** 
  68:../system/include/cmsis/core_cm3.h ****    \li Advisory Rule 19.7, Function-like macro defined.<br>
  69:../system/include/cmsis/core_cm3.h ****      Function-like macros are used to allow more efficient code.
  70:../system/include/cmsis/core_cm3.h ****  */
  71:../system/include/cmsis/core_cm3.h **** 
  72:../system/include/cmsis/core_cm3.h **** 
  73:../system/include/cmsis/core_cm3.h **** /*******************************************************************************
  74:../system/include/cmsis/core_cm3.h ****  *                 CMSIS definitions
  75:../system/include/cmsis/core_cm3.h ****  ******************************************************************************/
  76:../system/include/cmsis/core_cm3.h **** /**
  77:../system/include/cmsis/core_cm3.h ****   \ingroup Cortex_M3
  78:../system/include/cmsis/core_cm3.h ****   @{
  79:../system/include/cmsis/core_cm3.h ****  */
  80:../system/include/cmsis/core_cm3.h **** 
  81:../system/include/cmsis/core_cm3.h **** /*  CMSIS CM3 definitions */
  82:../system/include/cmsis/core_cm3.h **** #define __CM3_CMSIS_VERSION_MAIN  (0x04U)                                      /*!< [31:16] CMSIS H
  83:../system/include/cmsis/core_cm3.h **** #define __CM3_CMSIS_VERSION_SUB   (0x1EU)                                      /*!< [15:0]  CMSIS H
  84:../system/include/cmsis/core_cm3.h **** #define __CM3_CMSIS_VERSION       ((__CM3_CMSIS_VERSION_MAIN << 16U) | \
  85:../system/include/cmsis/core_cm3.h ****                                     __CM3_CMSIS_VERSION_SUB           )        /*!< CMSIS HAL versi
  86:../system/include/cmsis/core_cm3.h **** 
  87:../system/include/cmsis/core_cm3.h **** #define __CORTEX_M                (0x03U)                                      /*!< Cortex-M Core *
  88:../system/include/cmsis/core_cm3.h **** 
  89:../system/include/cmsis/core_cm3.h **** 
  90:../system/include/cmsis/core_cm3.h **** #if   defined ( __CC_ARM )
  91:../system/include/cmsis/core_cm3.h ****   #define __ASM            __asm                                      /*!< asm keyword for ARM Comp
  92:../system/include/cmsis/core_cm3.h ****   #define __INLINE         __inline                                   /*!< inline keyword for ARM C
  93:../system/include/cmsis/core_cm3.h ****   #define __STATIC_INLINE  static __inline
  94:../system/include/cmsis/core_cm3.h **** 
  95:../system/include/cmsis/core_cm3.h **** #elif defined(__ARMCC_VERSION) && (__ARMCC_VERSION >= 6010050)
  96:../system/include/cmsis/core_cm3.h ****   #define __ASM            __asm                                      /*!< asm keyword for ARM Comp
  97:../system/include/cmsis/core_cm3.h ****   #define __INLINE         __inline                                   /*!< inline keyword for ARM C
  98:../system/include/cmsis/core_cm3.h ****   #define __STATIC_INLINE  static __inline
  99:../system/include/cmsis/core_cm3.h **** 
 100:../system/include/cmsis/core_cm3.h **** #elif defined ( __GNUC__ )
 101:../system/include/cmsis/core_cm3.h ****   #define __ASM            __asm                                      /*!< asm keyword for GNU Comp
 102:../system/include/cmsis/core_cm3.h ****   #define __INLINE         inline                                     /*!< inline keyword for GNU C
 103:../system/include/cmsis/core_cm3.h ****   #define __STATIC_INLINE  static inline
 104:../system/include/cmsis/core_cm3.h **** 
 105:../system/include/cmsis/core_cm3.h **** #elif defined ( __ICCARM__ )
 106:../system/include/cmsis/core_cm3.h ****   #define __ASM            __asm                                      /*!< asm keyword for IAR Comp
 107:../system/include/cmsis/core_cm3.h ****   #define __INLINE         inline                                     /*!< inline keyword for IAR C
 108:../system/include/cmsis/core_cm3.h ****   #define __STATIC_INLINE  static inline
 109:../system/include/cmsis/core_cm3.h **** 
 110:../system/include/cmsis/core_cm3.h **** #elif defined ( __TMS470__ )
 111:../system/include/cmsis/core_cm3.h ****   #define __ASM            __asm                                      /*!< asm keyword for TI CCS C
 112:../system/include/cmsis/core_cm3.h ****   #define __STATIC_INLINE  static inline
 113:../system/include/cmsis/core_cm3.h **** 
 114:../system/include/cmsis/core_cm3.h **** #elif defined ( __TASKING__ )
 115:../system/include/cmsis/core_cm3.h ****   #define __ASM            __asm                                      /*!< asm keyword for TASKING 
 116:../system/include/cmsis/core_cm3.h ****   #define __INLINE         inline                                     /*!< inline keyword for TASKI
 117:../system/include/cmsis/core_cm3.h ****   #define __STATIC_INLINE  static inline
 118:../system/include/cmsis/core_cm3.h **** 
 119:../system/include/cmsis/core_cm3.h **** #elif defined ( __CSMC__ )
 120:../system/include/cmsis/core_cm3.h ****   #define __packed
 121:../system/include/cmsis/core_cm3.h ****   #define __ASM            _asm                                      /*!< asm keyword for COSMIC Co
 122:../system/include/cmsis/core_cm3.h ****   #define __INLINE         inline                                    /*!< inline keyword for COSMIC
 123:../system/include/cmsis/core_cm3.h ****   #define __STATIC_INLINE  static inline
 124:../system/include/cmsis/core_cm3.h **** 
 125:../system/include/cmsis/core_cm3.h **** #else
 126:../system/include/cmsis/core_cm3.h ****   #error Unknown compiler
 127:../system/include/cmsis/core_cm3.h **** #endif
 128:../system/include/cmsis/core_cm3.h **** 
 129:../system/include/cmsis/core_cm3.h **** /** __FPU_USED indicates whether an FPU is used or not.
 130:../system/include/cmsis/core_cm3.h ****     This core does not support an FPU at all
 131:../system/include/cmsis/core_cm3.h **** */
 132:../system/include/cmsis/core_cm3.h **** #define __FPU_USED       0U
 133:../system/include/cmsis/core_cm3.h **** 
 134:../system/include/cmsis/core_cm3.h **** #if defined ( __CC_ARM )
 135:../system/include/cmsis/core_cm3.h ****   #if defined __TARGET_FPU_VFP
 136:../system/include/cmsis/core_cm3.h ****     #error "Compiler generates FPU instructions for a device without an FPU (check __FPU_PRESENT)"
 137:../system/include/cmsis/core_cm3.h ****   #endif
 138:../system/include/cmsis/core_cm3.h **** 
 139:../system/include/cmsis/core_cm3.h **** #elif defined(__ARMCC_VERSION) && (__ARMCC_VERSION >= 6010050)
 140:../system/include/cmsis/core_cm3.h ****   #if defined __ARM_PCS_VFP
 141:../system/include/cmsis/core_cm3.h ****     #error "Compiler generates FPU instructions for a device without an FPU (check __FPU_PRESENT)"
 142:../system/include/cmsis/core_cm3.h ****   #endif
 143:../system/include/cmsis/core_cm3.h **** 
 144:../system/include/cmsis/core_cm3.h **** #elif defined ( __GNUC__ )
 145:../system/include/cmsis/core_cm3.h ****   #if defined (__VFP_FP__) && !defined(__SOFTFP__)
 146:../system/include/cmsis/core_cm3.h ****     #error "Compiler generates FPU instructions for a device without an FPU (check __FPU_PRESENT)"
 147:../system/include/cmsis/core_cm3.h ****   #endif
 148:../system/include/cmsis/core_cm3.h **** 
 149:../system/include/cmsis/core_cm3.h **** #elif defined ( __ICCARM__ )
 150:../system/include/cmsis/core_cm3.h ****   #if defined __ARMVFP__
 151:../system/include/cmsis/core_cm3.h ****     #error "Compiler generates FPU instructions for a device without an FPU (check __FPU_PRESENT)"
 152:../system/include/cmsis/core_cm3.h ****   #endif
 153:../system/include/cmsis/core_cm3.h **** 
 154:../system/include/cmsis/core_cm3.h **** #elif defined ( __TMS470__ )
 155:../system/include/cmsis/core_cm3.h ****   #if defined __TI_VFP_SUPPORT__
 156:../system/include/cmsis/core_cm3.h ****     #error "Compiler generates FPU instructions for a device without an FPU (check __FPU_PRESENT)"
 157:../system/include/cmsis/core_cm3.h ****   #endif
 158:../system/include/cmsis/core_cm3.h **** 
 159:../system/include/cmsis/core_cm3.h **** #elif defined ( __TASKING__ )
 160:../system/include/cmsis/core_cm3.h ****   #if defined __FPU_VFP__
 161:../system/include/cmsis/core_cm3.h ****     #error "Compiler generates FPU instructions for a device without an FPU (check __FPU_PRESENT)"
 162:../system/include/cmsis/core_cm3.h ****   #endif
 163:../system/include/cmsis/core_cm3.h **** 
 164:../system/include/cmsis/core_cm3.h **** #elif defined ( __CSMC__ )
 165:../system/include/cmsis/core_cm3.h ****   #if ( __CSMC__ & 0x400U)
 166:../system/include/cmsis/core_cm3.h ****     #error "Compiler generates FPU instructions for a device without an FPU (check __FPU_PRESENT)"
 167:../system/include/cmsis/core_cm3.h ****   #endif
 168:../system/include/cmsis/core_cm3.h **** 
 169:../system/include/cmsis/core_cm3.h **** #endif
 170:../system/include/cmsis/core_cm3.h **** 
 171:../system/include/cmsis/core_cm3.h **** #include "core_cmInstr.h"                /* Core Instruction Access */
 172:../system/include/cmsis/core_cm3.h **** #include "core_cmFunc.h"                 /* Core Function Access */
 173:../system/include/cmsis/core_cm3.h **** 
 174:../system/include/cmsis/core_cm3.h **** #ifdef __cplusplus
 175:../system/include/cmsis/core_cm3.h **** }
 176:../system/include/cmsis/core_cm3.h **** #endif
 177:../system/include/cmsis/core_cm3.h **** 
 178:../system/include/cmsis/core_cm3.h **** #endif /* __CORE_CM3_H_GENERIC */
 179:../system/include/cmsis/core_cm3.h **** 
 180:../system/include/cmsis/core_cm3.h **** #ifndef __CMSIS_GENERIC
 181:../system/include/cmsis/core_cm3.h **** 
 182:../system/include/cmsis/core_cm3.h **** #ifndef __CORE_CM3_H_DEPENDANT
 183:../system/include/cmsis/core_cm3.h **** #define __CORE_CM3_H_DEPENDANT
 184:../system/include/cmsis/core_cm3.h **** 
 185:../system/include/cmsis/core_cm3.h **** #ifdef __cplusplus
 186:../system/include/cmsis/core_cm3.h ****  extern "C" {
 187:../system/include/cmsis/core_cm3.h **** #endif
 188:../system/include/cmsis/core_cm3.h **** 
 189:../system/include/cmsis/core_cm3.h **** /* check device defines and use defaults */
 190:../system/include/cmsis/core_cm3.h **** #if defined __CHECK_DEVICE_DEFINES
 191:../system/include/cmsis/core_cm3.h ****   #ifndef __CM3_REV
 192:../system/include/cmsis/core_cm3.h ****     #define __CM3_REV               0x0200U
 193:../system/include/cmsis/core_cm3.h ****     #warning "__CM3_REV not defined in device header file; using default!"
 194:../system/include/cmsis/core_cm3.h ****   #endif
 195:../system/include/cmsis/core_cm3.h **** 
 196:../system/include/cmsis/core_cm3.h ****   #ifndef __MPU_PRESENT
 197:../system/include/cmsis/core_cm3.h ****     #define __MPU_PRESENT             0U
 198:../system/include/cmsis/core_cm3.h ****     #warning "__MPU_PRESENT not defined in device header file; using default!"
 199:../system/include/cmsis/core_cm3.h ****   #endif
 200:../system/include/cmsis/core_cm3.h **** 
 201:../system/include/cmsis/core_cm3.h ****   #ifndef __NVIC_PRIO_BITS
 202:../system/include/cmsis/core_cm3.h ****     #define __NVIC_PRIO_BITS          4U
 203:../system/include/cmsis/core_cm3.h ****     #warning "__NVIC_PRIO_BITS not defined in device header file; using default!"
 204:../system/include/cmsis/core_cm3.h ****   #endif
 205:../system/include/cmsis/core_cm3.h **** 
 206:../system/include/cmsis/core_cm3.h ****   #ifndef __Vendor_SysTickConfig
 207:../system/include/cmsis/core_cm3.h ****     #define __Vendor_SysTickConfig    0U
 208:../system/include/cmsis/core_cm3.h ****     #warning "__Vendor_SysTickConfig not defined in device header file; using default!"
 209:../system/include/cmsis/core_cm3.h ****   #endif
 210:../system/include/cmsis/core_cm3.h **** #endif
 211:../system/include/cmsis/core_cm3.h **** 
 212:../system/include/cmsis/core_cm3.h **** /* IO definitions (access restrictions to peripheral registers) */
 213:../system/include/cmsis/core_cm3.h **** /**
 214:../system/include/cmsis/core_cm3.h ****     \defgroup CMSIS_glob_defs CMSIS Global Defines
 215:../system/include/cmsis/core_cm3.h **** 
 216:../system/include/cmsis/core_cm3.h ****     <strong>IO Type Qualifiers</strong> are used
 217:../system/include/cmsis/core_cm3.h ****     \li to specify the access to peripheral variables.
 218:../system/include/cmsis/core_cm3.h ****     \li for automatic generation of peripheral register debug information.
 219:../system/include/cmsis/core_cm3.h **** */
 220:../system/include/cmsis/core_cm3.h **** #ifdef __cplusplus
 221:../system/include/cmsis/core_cm3.h ****   #define   __I     volatile             /*!< Defines 'read only' permissions */
 222:../system/include/cmsis/core_cm3.h **** #else
 223:../system/include/cmsis/core_cm3.h ****   #define   __I     volatile const       /*!< Defines 'read only' permissions */
 224:../system/include/cmsis/core_cm3.h **** #endif
 225:../system/include/cmsis/core_cm3.h **** #define     __O     volatile             /*!< Defines 'write only' permissions */
 226:../system/include/cmsis/core_cm3.h **** #define     __IO    volatile             /*!< Defines 'read / write' permissions */
 227:../system/include/cmsis/core_cm3.h **** 
 228:../system/include/cmsis/core_cm3.h **** /* following defines should be used for structure members */
 229:../system/include/cmsis/core_cm3.h **** #define     __IM     volatile const      /*! Defines 'read only' structure member permissions */
 230:../system/include/cmsis/core_cm3.h **** #define     __OM     volatile            /*! Defines 'write only' structure member permissions */
 231:../system/include/cmsis/core_cm3.h **** #define     __IOM    volatile            /*! Defines 'read / write' structure member permissions */
 232:../system/include/cmsis/core_cm3.h **** 
 233:../system/include/cmsis/core_cm3.h **** /*@} end of group Cortex_M3 */
 234:../system/include/cmsis/core_cm3.h **** 
 235:../system/include/cmsis/core_cm3.h **** 
 236:../system/include/cmsis/core_cm3.h **** 
 237:../system/include/cmsis/core_cm3.h **** /*******************************************************************************
 238:../system/include/cmsis/core_cm3.h ****  *                 Register Abstraction
 239:../system/include/cmsis/core_cm3.h ****   Core Register contain:
 240:../system/include/cmsis/core_cm3.h ****   - Core Register
 241:../system/include/cmsis/core_cm3.h ****   - Core NVIC Register
 242:../system/include/cmsis/core_cm3.h ****   - Core SCB Register
 243:../system/include/cmsis/core_cm3.h ****   - Core SysTick Register
 244:../system/include/cmsis/core_cm3.h ****   - Core Debug Register
 245:../system/include/cmsis/core_cm3.h ****   - Core MPU Register
 246:../system/include/cmsis/core_cm3.h ****  ******************************************************************************/
 247:../system/include/cmsis/core_cm3.h **** /**
 248:../system/include/cmsis/core_cm3.h ****   \defgroup CMSIS_core_register Defines and Type Definitions
 249:../system/include/cmsis/core_cm3.h ****   \brief Type definitions and defines for Cortex-M processor based devices.
 250:../system/include/cmsis/core_cm3.h **** */
 251:../system/include/cmsis/core_cm3.h **** 
 252:../system/include/cmsis/core_cm3.h **** /**
 253:../system/include/cmsis/core_cm3.h ****   \ingroup    CMSIS_core_register
 254:../system/include/cmsis/core_cm3.h ****   \defgroup   CMSIS_CORE  Status and Control Registers
 255:../system/include/cmsis/core_cm3.h ****   \brief      Core Register type definitions.
 256:../system/include/cmsis/core_cm3.h ****   @{
 257:../system/include/cmsis/core_cm3.h ****  */
 258:../system/include/cmsis/core_cm3.h **** 
 259:../system/include/cmsis/core_cm3.h **** /**
 260:../system/include/cmsis/core_cm3.h ****   \brief  Union type to access the Application Program Status Register (APSR).
 261:../system/include/cmsis/core_cm3.h ****  */
 262:../system/include/cmsis/core_cm3.h **** typedef union
 263:../system/include/cmsis/core_cm3.h **** {
 264:../system/include/cmsis/core_cm3.h ****   struct
 265:../system/include/cmsis/core_cm3.h ****   {
 266:../system/include/cmsis/core_cm3.h ****     uint32_t _reserved0:27;              /*!< bit:  0..26  Reserved */
 267:../system/include/cmsis/core_cm3.h ****     uint32_t Q:1;                        /*!< bit:     27  Saturation condition flag */
 268:../system/include/cmsis/core_cm3.h ****     uint32_t V:1;                        /*!< bit:     28  Overflow condition code flag */
 269:../system/include/cmsis/core_cm3.h ****     uint32_t C:1;                        /*!< bit:     29  Carry condition code flag */
 270:../system/include/cmsis/core_cm3.h ****     uint32_t Z:1;                        /*!< bit:     30  Zero condition code flag */
 271:../system/include/cmsis/core_cm3.h ****     uint32_t N:1;                        /*!< bit:     31  Negative condition code flag */
 272:../system/include/cmsis/core_cm3.h ****   } b;                                   /*!< Structure used for bit  access */
 273:../system/include/cmsis/core_cm3.h ****   uint32_t w;                            /*!< Type      used for word access */
 274:../system/include/cmsis/core_cm3.h **** } APSR_Type;
 275:../system/include/cmsis/core_cm3.h **** 
 276:../system/include/cmsis/core_cm3.h **** /* APSR Register Definitions */
 277:../system/include/cmsis/core_cm3.h **** #define APSR_N_Pos                         31U                                            /*!< APSR
 278:../system/include/cmsis/core_cm3.h **** #define APSR_N_Msk                         (1UL << APSR_N_Pos)                            /*!< APSR
 279:../system/include/cmsis/core_cm3.h **** 
 280:../system/include/cmsis/core_cm3.h **** #define APSR_Z_Pos                         30U                                            /*!< APSR
 281:../system/include/cmsis/core_cm3.h **** #define APSR_Z_Msk                         (1UL << APSR_Z_Pos)                            /*!< APSR
 282:../system/include/cmsis/core_cm3.h **** 
 283:../system/include/cmsis/core_cm3.h **** #define APSR_C_Pos                         29U                                            /*!< APSR
 284:../system/include/cmsis/core_cm3.h **** #define APSR_C_Msk                         (1UL << APSR_C_Pos)                            /*!< APSR
 285:../system/include/cmsis/core_cm3.h **** 
 286:../system/include/cmsis/core_cm3.h **** #define APSR_V_Pos                         28U                                            /*!< APSR
 287:../system/include/cmsis/core_cm3.h **** #define APSR_V_Msk                         (1UL << APSR_V_Pos)                            /*!< APSR
 288:../system/include/cmsis/core_cm3.h **** 
 289:../system/include/cmsis/core_cm3.h **** #define APSR_Q_Pos                         27U                                            /*!< APSR
 290:../system/include/cmsis/core_cm3.h **** #define APSR_Q_Msk                         (1UL << APSR_Q_Pos)                            /*!< APSR
 291:../system/include/cmsis/core_cm3.h **** 
 292:../system/include/cmsis/core_cm3.h **** 
 293:../system/include/cmsis/core_cm3.h **** /**
 294:../system/include/cmsis/core_cm3.h ****   \brief  Union type to access the Interrupt Program Status Register (IPSR).
 295:../system/include/cmsis/core_cm3.h ****  */
 296:../system/include/cmsis/core_cm3.h **** typedef union
 297:../system/include/cmsis/core_cm3.h **** {
 298:../system/include/cmsis/core_cm3.h ****   struct
 299:../system/include/cmsis/core_cm3.h ****   {
 300:../system/include/cmsis/core_cm3.h ****     uint32_t ISR:9;                      /*!< bit:  0.. 8  Exception number */
 301:../system/include/cmsis/core_cm3.h ****     uint32_t _reserved0:23;              /*!< bit:  9..31  Reserved */
 302:../system/include/cmsis/core_cm3.h ****   } b;                                   /*!< Structure used for bit  access */
 303:../system/include/cmsis/core_cm3.h ****   uint32_t w;                            /*!< Type      used for word access */
 304:../system/include/cmsis/core_cm3.h **** } IPSR_Type;
 305:../system/include/cmsis/core_cm3.h **** 
 306:../system/include/cmsis/core_cm3.h **** /* IPSR Register Definitions */
 307:../system/include/cmsis/core_cm3.h **** #define IPSR_ISR_Pos                        0U                                            /*!< IPSR
 308:../system/include/cmsis/core_cm3.h **** #define IPSR_ISR_Msk                       (0x1FFUL /*<< IPSR_ISR_Pos*/)                  /*!< IPSR
 309:../system/include/cmsis/core_cm3.h **** 
 310:../system/include/cmsis/core_cm3.h **** 
 311:../system/include/cmsis/core_cm3.h **** /**
 312:../system/include/cmsis/core_cm3.h ****   \brief  Union type to access the Special-Purpose Program Status Registers (xPSR).
 313:../system/include/cmsis/core_cm3.h ****  */
 314:../system/include/cmsis/core_cm3.h **** typedef union
 315:../system/include/cmsis/core_cm3.h **** {
 316:../system/include/cmsis/core_cm3.h ****   struct
 317:../system/include/cmsis/core_cm3.h ****   {
 318:../system/include/cmsis/core_cm3.h ****     uint32_t ISR:9;                      /*!< bit:  0.. 8  Exception number */
 319:../system/include/cmsis/core_cm3.h ****     uint32_t _reserved0:15;              /*!< bit:  9..23  Reserved */
 320:../system/include/cmsis/core_cm3.h ****     uint32_t T:1;                        /*!< bit:     24  Thumb bit        (read 0) */
 321:../system/include/cmsis/core_cm3.h ****     uint32_t IT:2;                       /*!< bit: 25..26  saved IT state   (read 0) */
 322:../system/include/cmsis/core_cm3.h ****     uint32_t Q:1;                        /*!< bit:     27  Saturation condition flag */
 323:../system/include/cmsis/core_cm3.h ****     uint32_t V:1;                        /*!< bit:     28  Overflow condition code flag */
 324:../system/include/cmsis/core_cm3.h ****     uint32_t C:1;                        /*!< bit:     29  Carry condition code flag */
 325:../system/include/cmsis/core_cm3.h ****     uint32_t Z:1;                        /*!< bit:     30  Zero condition code flag */
 326:../system/include/cmsis/core_cm3.h ****     uint32_t N:1;                        /*!< bit:     31  Negative condition code flag */
 327:../system/include/cmsis/core_cm3.h ****   } b;                                   /*!< Structure used for bit  access */
 328:../system/include/cmsis/core_cm3.h ****   uint32_t w;                            /*!< Type      used for word access */
 329:../system/include/cmsis/core_cm3.h **** } xPSR_Type;
 330:../system/include/cmsis/core_cm3.h **** 
 331:../system/include/cmsis/core_cm3.h **** /* xPSR Register Definitions */
 332:../system/include/cmsis/core_cm3.h **** #define xPSR_N_Pos                         31U                                            /*!< xPSR
 333:../system/include/cmsis/core_cm3.h **** #define xPSR_N_Msk                         (1UL << xPSR_N_Pos)                            /*!< xPSR
 334:../system/include/cmsis/core_cm3.h **** 
 335:../system/include/cmsis/core_cm3.h **** #define xPSR_Z_Pos                         30U                                            /*!< xPSR
 336:../system/include/cmsis/core_cm3.h **** #define xPSR_Z_Msk                         (1UL << xPSR_Z_Pos)                            /*!< xPSR
 337:../system/include/cmsis/core_cm3.h **** 
 338:../system/include/cmsis/core_cm3.h **** #define xPSR_C_Pos                         29U                                            /*!< xPSR
 339:../system/include/cmsis/core_cm3.h **** #define xPSR_C_Msk                         (1UL << xPSR_C_Pos)                            /*!< xPSR
 340:../system/include/cmsis/core_cm3.h **** 
 341:../system/include/cmsis/core_cm3.h **** #define xPSR_V_Pos                         28U                                            /*!< xPSR
 342:../system/include/cmsis/core_cm3.h **** #define xPSR_V_Msk                         (1UL << xPSR_V_Pos)                            /*!< xPSR
 343:../system/include/cmsis/core_cm3.h **** 
 344:../system/include/cmsis/core_cm3.h **** #define xPSR_Q_Pos                         27U                                            /*!< xPSR
 345:../system/include/cmsis/core_cm3.h **** #define xPSR_Q_Msk                         (1UL << xPSR_Q_Pos)                            /*!< xPSR
 346:../system/include/cmsis/core_cm3.h **** 
 347:../system/include/cmsis/core_cm3.h **** #define xPSR_IT_Pos                        25U                                            /*!< xPSR
 348:../system/include/cmsis/core_cm3.h **** #define xPSR_IT_Msk                        (3UL << xPSR_IT_Pos)                           /*!< xPSR
 349:../system/include/cmsis/core_cm3.h **** 
 350:../system/include/cmsis/core_cm3.h **** #define xPSR_T_Pos                         24U                                            /*!< xPSR
 351:../system/include/cmsis/core_cm3.h **** #define xPSR_T_Msk                         (1UL << xPSR_T_Pos)                            /*!< xPSR
 352:../system/include/cmsis/core_cm3.h **** 
 353:../system/include/cmsis/core_cm3.h **** #define xPSR_ISR_Pos                        0U                                            /*!< xPSR
 354:../system/include/cmsis/core_cm3.h **** #define xPSR_ISR_Msk                       (0x1FFUL /*<< xPSR_ISR_Pos*/)                  /*!< xPSR
 355:../system/include/cmsis/core_cm3.h **** 
 356:../system/include/cmsis/core_cm3.h **** 
 357:../system/include/cmsis/core_cm3.h **** /**
 358:../system/include/cmsis/core_cm3.h ****   \brief  Union type to access the Control Registers (CONTROL).
 359:../system/include/cmsis/core_cm3.h ****  */
 360:../system/include/cmsis/core_cm3.h **** typedef union
 361:../system/include/cmsis/core_cm3.h **** {
 362:../system/include/cmsis/core_cm3.h ****   struct
 363:../system/include/cmsis/core_cm3.h ****   {
 364:../system/include/cmsis/core_cm3.h ****     uint32_t nPRIV:1;                    /*!< bit:      0  Execution privilege in Thread mode */
 365:../system/include/cmsis/core_cm3.h ****     uint32_t SPSEL:1;                    /*!< bit:      1  Stack to be used */
 366:../system/include/cmsis/core_cm3.h ****     uint32_t _reserved1:30;              /*!< bit:  2..31  Reserved */
 367:../system/include/cmsis/core_cm3.h ****   } b;                                   /*!< Structure used for bit  access */
 368:../system/include/cmsis/core_cm3.h ****   uint32_t w;                            /*!< Type      used for word access */
 369:../system/include/cmsis/core_cm3.h **** } CONTROL_Type;
 370:../system/include/cmsis/core_cm3.h **** 
 371:../system/include/cmsis/core_cm3.h **** /* CONTROL Register Definitions */
 372:../system/include/cmsis/core_cm3.h **** #define CONTROL_SPSEL_Pos                   1U                                            /*!< CONT
 373:../system/include/cmsis/core_cm3.h **** #define CONTROL_SPSEL_Msk                  (1UL << CONTROL_SPSEL_Pos)                     /*!< CONT
 374:../system/include/cmsis/core_cm3.h **** 
 375:../system/include/cmsis/core_cm3.h **** #define CONTROL_nPRIV_Pos                   0U                                            /*!< CONT
 376:../system/include/cmsis/core_cm3.h **** #define CONTROL_nPRIV_Msk                  (1UL /*<< CONTROL_nPRIV_Pos*/)                 /*!< CONT
 377:../system/include/cmsis/core_cm3.h **** 
 378:../system/include/cmsis/core_cm3.h **** /*@} end of group CMSIS_CORE */
 379:../system/include/cmsis/core_cm3.h **** 
 380:../system/include/cmsis/core_cm3.h **** 
 381:../system/include/cmsis/core_cm3.h **** /**
 382:../system/include/cmsis/core_cm3.h ****   \ingroup    CMSIS_core_register
 383:../system/include/cmsis/core_cm3.h ****   \defgroup   CMSIS_NVIC  Nested Vectored Interrupt Controller (NVIC)
 384:../system/include/cmsis/core_cm3.h ****   \brief      Type definitions for the NVIC Registers
 385:../system/include/cmsis/core_cm3.h ****   @{
 386:../system/include/cmsis/core_cm3.h ****  */
 387:../system/include/cmsis/core_cm3.h **** 
 388:../system/include/cmsis/core_cm3.h **** /**
 389:../system/include/cmsis/core_cm3.h ****   \brief  Structure type to access the Nested Vectored Interrupt Controller (NVIC).
 390:../system/include/cmsis/core_cm3.h ****  */
 391:../system/include/cmsis/core_cm3.h **** typedef struct
 392:../system/include/cmsis/core_cm3.h **** {
 393:../system/include/cmsis/core_cm3.h ****   __IOM uint32_t ISER[8U];               /*!< Offset: 0x000 (R/W)  Interrupt Set Enable Register */
 394:../system/include/cmsis/core_cm3.h ****         uint32_t RESERVED0[24U];
 395:../system/include/cmsis/core_cm3.h ****   __IOM uint32_t ICER[8U];               /*!< Offset: 0x080 (R/W)  Interrupt Clear Enable Register 
 396:../system/include/cmsis/core_cm3.h ****         uint32_t RSERVED1[24U];
 397:../system/include/cmsis/core_cm3.h ****   __IOM uint32_t ISPR[8U];               /*!< Offset: 0x100 (R/W)  Interrupt Set Pending Register *
 398:../system/include/cmsis/core_cm3.h ****         uint32_t RESERVED2[24U];
 399:../system/include/cmsis/core_cm3.h ****   __IOM uint32_t ICPR[8U];               /*!< Offset: 0x180 (R/W)  Interrupt Clear Pending Register
 400:../system/include/cmsis/core_cm3.h ****         uint32_t RESERVED3[24U];
 401:../system/include/cmsis/core_cm3.h ****   __IOM uint32_t IABR[8U];               /*!< Offset: 0x200 (R/W)  Interrupt Active bit Register */
 402:../system/include/cmsis/core_cm3.h ****         uint32_t RESERVED4[56U];
 403:../system/include/cmsis/core_cm3.h ****   __IOM uint8_t  IP[240U];               /*!< Offset: 0x300 (R/W)  Interrupt Priority Register (8Bi
 404:../system/include/cmsis/core_cm3.h ****         uint32_t RESERVED5[644U];
 405:../system/include/cmsis/core_cm3.h ****   __OM  uint32_t STIR;                   /*!< Offset: 0xE00 ( /W)  Software Trigger Interrupt Regis
 406:../system/include/cmsis/core_cm3.h **** }  NVIC_Type;
 407:../system/include/cmsis/core_cm3.h **** 
 408:../system/include/cmsis/core_cm3.h **** /* Software Triggered Interrupt Register Definitions */
 409:../system/include/cmsis/core_cm3.h **** #define NVIC_STIR_INTID_Pos                 0U                                         /*!< STIR: I
 410:../system/include/cmsis/core_cm3.h **** #define NVIC_STIR_INTID_Msk                (0x1FFUL /*<< NVIC_STIR_INTID_Pos*/)        /*!< STIR: I
 411:../system/include/cmsis/core_cm3.h **** 
 412:../system/include/cmsis/core_cm3.h **** /*@} end of group CMSIS_NVIC */
 413:../system/include/cmsis/core_cm3.h **** 
 414:../system/include/cmsis/core_cm3.h **** 
 415:../system/include/cmsis/core_cm3.h **** /**
 416:../system/include/cmsis/core_cm3.h ****   \ingroup  CMSIS_core_register
 417:../system/include/cmsis/core_cm3.h ****   \defgroup CMSIS_SCB     System Control Block (SCB)
 418:../system/include/cmsis/core_cm3.h ****   \brief    Type definitions for the System Control Block Registers
 419:../system/include/cmsis/core_cm3.h ****   @{
 420:../system/include/cmsis/core_cm3.h ****  */
 421:../system/include/cmsis/core_cm3.h **** 
 422:../system/include/cmsis/core_cm3.h **** /**
 423:../system/include/cmsis/core_cm3.h ****   \brief  Structure type to access the System Control Block (SCB).
 424:../system/include/cmsis/core_cm3.h ****  */
 425:../system/include/cmsis/core_cm3.h **** typedef struct
 426:../system/include/cmsis/core_cm3.h **** {
 427:../system/include/cmsis/core_cm3.h ****   __IM  uint32_t CPUID;                  /*!< Offset: 0x000 (R/ )  CPUID Base Register */
 428:../system/include/cmsis/core_cm3.h ****   __IOM uint32_t ICSR;                   /*!< Offset: 0x004 (R/W)  Interrupt Control and State Regi
 429:../system/include/cmsis/core_cm3.h ****   __IOM uint32_t VTOR;                   /*!< Offset: 0x008 (R/W)  Vector Table Offset Register */
 430:../system/include/cmsis/core_cm3.h ****   __IOM uint32_t AIRCR;                  /*!< Offset: 0x00C (R/W)  Application Interrupt and Reset 
 431:../system/include/cmsis/core_cm3.h ****   __IOM uint32_t SCR;                    /*!< Offset: 0x010 (R/W)  System Control Register */
 432:../system/include/cmsis/core_cm3.h ****   __IOM uint32_t CCR;                    /*!< Offset: 0x014 (R/W)  Configuration Control Register *
 433:../system/include/cmsis/core_cm3.h ****   __IOM uint8_t  SHP[12U];               /*!< Offset: 0x018 (R/W)  System Handlers Priority Registe
 434:../system/include/cmsis/core_cm3.h ****   __IOM uint32_t SHCSR;                  /*!< Offset: 0x024 (R/W)  System Handler Control and State
 435:../system/include/cmsis/core_cm3.h ****   __IOM uint32_t CFSR;                   /*!< Offset: 0x028 (R/W)  Configurable Fault Status Regist
 436:../system/include/cmsis/core_cm3.h ****   __IOM uint32_t HFSR;                   /*!< Offset: 0x02C (R/W)  HardFault Status Register */
 437:../system/include/cmsis/core_cm3.h ****   __IOM uint32_t DFSR;                   /*!< Offset: 0x030 (R/W)  Debug Fault Status Register */
 438:../system/include/cmsis/core_cm3.h ****   __IOM uint32_t MMFAR;                  /*!< Offset: 0x034 (R/W)  MemManage Fault Address Register
 439:../system/include/cmsis/core_cm3.h ****   __IOM uint32_t BFAR;                   /*!< Offset: 0x038 (R/W)  BusFault Address Register */
 440:../system/include/cmsis/core_cm3.h ****   __IOM uint32_t AFSR;                   /*!< Offset: 0x03C (R/W)  Auxiliary Fault Status Register 
 441:../system/include/cmsis/core_cm3.h ****   __IM  uint32_t PFR[2U];                /*!< Offset: 0x040 (R/ )  Processor Feature Register */
 442:../system/include/cmsis/core_cm3.h ****   __IM  uint32_t DFR;                    /*!< Offset: 0x048 (R/ )  Debug Feature Register */
 443:../system/include/cmsis/core_cm3.h ****   __IM  uint32_t ADR;                    /*!< Offset: 0x04C (R/ )  Auxiliary Feature Register */
 444:../system/include/cmsis/core_cm3.h ****   __IM  uint32_t MMFR[4U];               /*!< Offset: 0x050 (R/ )  Memory Model Feature Register */
 445:../system/include/cmsis/core_cm3.h ****   __IM  uint32_t ISAR[5U];               /*!< Offset: 0x060 (R/ )  Instruction Set Attributes Regis
 446:../system/include/cmsis/core_cm3.h ****         uint32_t RESERVED0[5U];
 447:../system/include/cmsis/core_cm3.h ****   __IOM uint32_t CPACR;                  /*!< Offset: 0x088 (R/W)  Coprocessor Access Control Regis
 448:../system/include/cmsis/core_cm3.h **** } SCB_Type;
 449:../system/include/cmsis/core_cm3.h **** 
 450:../system/include/cmsis/core_cm3.h **** /* SCB CPUID Register Definitions */
 451:../system/include/cmsis/core_cm3.h **** #define SCB_CPUID_IMPLEMENTER_Pos          24U                                            /*!< SCB 
 452:../system/include/cmsis/core_cm3.h **** #define SCB_CPUID_IMPLEMENTER_Msk          (0xFFUL << SCB_CPUID_IMPLEMENTER_Pos)          /*!< SCB 
 453:../system/include/cmsis/core_cm3.h **** 
 454:../system/include/cmsis/core_cm3.h **** #define SCB_CPUID_VARIANT_Pos              20U                                            /*!< SCB 
 455:../system/include/cmsis/core_cm3.h **** #define SCB_CPUID_VARIANT_Msk              (0xFUL << SCB_CPUID_VARIANT_Pos)               /*!< SCB 
 456:../system/include/cmsis/core_cm3.h **** 
 457:../system/include/cmsis/core_cm3.h **** #define SCB_CPUID_ARCHITECTURE_Pos         16U                                            /*!< SCB 
 458:../system/include/cmsis/core_cm3.h **** #define SCB_CPUID_ARCHITECTURE_Msk         (0xFUL << SCB_CPUID_ARCHITECTURE_Pos)          /*!< SCB 
 459:../system/include/cmsis/core_cm3.h **** 
 460:../system/include/cmsis/core_cm3.h **** #define SCB_CPUID_PARTNO_Pos                4U                                            /*!< SCB 
 461:../system/include/cmsis/core_cm3.h **** #define SCB_CPUID_PARTNO_Msk               (0xFFFUL << SCB_CPUID_PARTNO_Pos)              /*!< SCB 
 462:../system/include/cmsis/core_cm3.h **** 
 463:../system/include/cmsis/core_cm3.h **** #define SCB_CPUID_REVISION_Pos              0U                                            /*!< SCB 
 464:../system/include/cmsis/core_cm3.h **** #define SCB_CPUID_REVISION_Msk             (0xFUL /*<< SCB_CPUID_REVISION_Pos*/)          /*!< SCB 
 465:../system/include/cmsis/core_cm3.h **** 
 466:../system/include/cmsis/core_cm3.h **** /* SCB Interrupt Control State Register Definitions */
 467:../system/include/cmsis/core_cm3.h **** #define SCB_ICSR_NMIPENDSET_Pos            31U                                            /*!< SCB 
 468:../system/include/cmsis/core_cm3.h **** #define SCB_ICSR_NMIPENDSET_Msk            (1UL << SCB_ICSR_NMIPENDSET_Pos)               /*!< SCB 
 469:../system/include/cmsis/core_cm3.h **** 
 470:../system/include/cmsis/core_cm3.h **** #define SCB_ICSR_PENDSVSET_Pos             28U                                            /*!< SCB 
 471:../system/include/cmsis/core_cm3.h **** #define SCB_ICSR_PENDSVSET_Msk             (1UL << SCB_ICSR_PENDSVSET_Pos)                /*!< SCB 
 472:../system/include/cmsis/core_cm3.h **** 
 473:../system/include/cmsis/core_cm3.h **** #define SCB_ICSR_PENDSVCLR_Pos             27U                                            /*!< SCB 
 474:../system/include/cmsis/core_cm3.h **** #define SCB_ICSR_PENDSVCLR_Msk             (1UL << SCB_ICSR_PENDSVCLR_Pos)                /*!< SCB 
 475:../system/include/cmsis/core_cm3.h **** 
 476:../system/include/cmsis/core_cm3.h **** #define SCB_ICSR_PENDSTSET_Pos             26U                                            /*!< SCB 
 477:../system/include/cmsis/core_cm3.h **** #define SCB_ICSR_PENDSTSET_Msk             (1UL << SCB_ICSR_PENDSTSET_Pos)                /*!< SCB 
 478:../system/include/cmsis/core_cm3.h **** 
 479:../system/include/cmsis/core_cm3.h **** #define SCB_ICSR_PENDSTCLR_Pos             25U                                            /*!< SCB 
 480:../system/include/cmsis/core_cm3.h **** #define SCB_ICSR_PENDSTCLR_Msk             (1UL << SCB_ICSR_PENDSTCLR_Pos)                /*!< SCB 
 481:../system/include/cmsis/core_cm3.h **** 
 482:../system/include/cmsis/core_cm3.h **** #define SCB_ICSR_ISRPREEMPT_Pos            23U                                            /*!< SCB 
 483:../system/include/cmsis/core_cm3.h **** #define SCB_ICSR_ISRPREEMPT_Msk            (1UL << SCB_ICSR_ISRPREEMPT_Pos)               /*!< SCB 
 484:../system/include/cmsis/core_cm3.h **** 
 485:../system/include/cmsis/core_cm3.h **** #define SCB_ICSR_ISRPENDING_Pos            22U                                            /*!< SCB 
 486:../system/include/cmsis/core_cm3.h **** #define SCB_ICSR_ISRPENDING_Msk            (1UL << SCB_ICSR_ISRPENDING_Pos)               /*!< SCB 
 487:../system/include/cmsis/core_cm3.h **** 
 488:../system/include/cmsis/core_cm3.h **** #define SCB_ICSR_VECTPENDING_Pos           12U                                            /*!< SCB 
 489:../system/include/cmsis/core_cm3.h **** #define SCB_ICSR_VECTPENDING_Msk           (0x1FFUL << SCB_ICSR_VECTPENDING_Pos)          /*!< SCB 
 490:../system/include/cmsis/core_cm3.h **** 
 491:../system/include/cmsis/core_cm3.h **** #define SCB_ICSR_RETTOBASE_Pos             11U                                            /*!< SCB 
 492:../system/include/cmsis/core_cm3.h **** #define SCB_ICSR_RETTOBASE_Msk             (1UL << SCB_ICSR_RETTOBASE_Pos)                /*!< SCB 
 493:../system/include/cmsis/core_cm3.h **** 
 494:../system/include/cmsis/core_cm3.h **** #define SCB_ICSR_VECTACTIVE_Pos             0U                                            /*!< SCB 
 495:../system/include/cmsis/core_cm3.h **** #define SCB_ICSR_VECTACTIVE_Msk            (0x1FFUL /*<< SCB_ICSR_VECTACTIVE_Pos*/)       /*!< SCB 
 496:../system/include/cmsis/core_cm3.h **** 
 497:../system/include/cmsis/core_cm3.h **** /* SCB Vector Table Offset Register Definitions */
 498:../system/include/cmsis/core_cm3.h **** #if (__CM3_REV < 0x0201U)                   /* core r2p1 */
 499:../system/include/cmsis/core_cm3.h **** #define SCB_VTOR_TBLBASE_Pos               29U                                            /*!< SCB 
 500:../system/include/cmsis/core_cm3.h **** #define SCB_VTOR_TBLBASE_Msk               (1UL << SCB_VTOR_TBLBASE_Pos)                  /*!< SCB 
 501:../system/include/cmsis/core_cm3.h **** 
 502:../system/include/cmsis/core_cm3.h **** #define SCB_VTOR_TBLOFF_Pos                 7U                                            /*!< SCB 
 503:../system/include/cmsis/core_cm3.h **** #define SCB_VTOR_TBLOFF_Msk                (0x3FFFFFUL << SCB_VTOR_TBLOFF_Pos)            /*!< SCB 
 504:../system/include/cmsis/core_cm3.h **** #else
 505:../system/include/cmsis/core_cm3.h **** #define SCB_VTOR_TBLOFF_Pos                 7U                                            /*!< SCB 
 506:../system/include/cmsis/core_cm3.h **** #define SCB_VTOR_TBLOFF_Msk                (0x1FFFFFFUL << SCB_VTOR_TBLOFF_Pos)           /*!< SCB 
 507:../system/include/cmsis/core_cm3.h **** #endif
 508:../system/include/cmsis/core_cm3.h **** 
 509:../system/include/cmsis/core_cm3.h **** /* SCB Application Interrupt and Reset Control Register Definitions */
 510:../system/include/cmsis/core_cm3.h **** #define SCB_AIRCR_VECTKEY_Pos              16U                                            /*!< SCB 
 511:../system/include/cmsis/core_cm3.h **** #define SCB_AIRCR_VECTKEY_Msk              (0xFFFFUL << SCB_AIRCR_VECTKEY_Pos)            /*!< SCB 
 512:../system/include/cmsis/core_cm3.h **** 
 513:../system/include/cmsis/core_cm3.h **** #define SCB_AIRCR_VECTKEYSTAT_Pos          16U                                            /*!< SCB 
 514:../system/include/cmsis/core_cm3.h **** #define SCB_AIRCR_VECTKEYSTAT_Msk          (0xFFFFUL << SCB_AIRCR_VECTKEYSTAT_Pos)        /*!< SCB 
 515:../system/include/cmsis/core_cm3.h **** 
 516:../system/include/cmsis/core_cm3.h **** #define SCB_AIRCR_ENDIANESS_Pos            15U                                            /*!< SCB 
 517:../system/include/cmsis/core_cm3.h **** #define SCB_AIRCR_ENDIANESS_Msk            (1UL << SCB_AIRCR_ENDIANESS_Pos)               /*!< SCB 
 518:../system/include/cmsis/core_cm3.h **** 
 519:../system/include/cmsis/core_cm3.h **** #define SCB_AIRCR_PRIGROUP_Pos              8U                                            /*!< SCB 
 520:../system/include/cmsis/core_cm3.h **** #define SCB_AIRCR_PRIGROUP_Msk             (7UL << SCB_AIRCR_PRIGROUP_Pos)                /*!< SCB 
 521:../system/include/cmsis/core_cm3.h **** 
 522:../system/include/cmsis/core_cm3.h **** #define SCB_AIRCR_SYSRESETREQ_Pos           2U                                            /*!< SCB 
 523:../system/include/cmsis/core_cm3.h **** #define SCB_AIRCR_SYSRESETREQ_Msk          (1UL << SCB_AIRCR_SYSRESETREQ_Pos)             /*!< SCB 
 524:../system/include/cmsis/core_cm3.h **** 
 525:../system/include/cmsis/core_cm3.h **** #define SCB_AIRCR_VECTCLRACTIVE_Pos         1U                                            /*!< SCB 
 526:../system/include/cmsis/core_cm3.h **** #define SCB_AIRCR_VECTCLRACTIVE_Msk        (1UL << SCB_AIRCR_VECTCLRACTIVE_Pos)           /*!< SCB 
 527:../system/include/cmsis/core_cm3.h **** 
 528:../system/include/cmsis/core_cm3.h **** #define SCB_AIRCR_VECTRESET_Pos             0U                                            /*!< SCB 
 529:../system/include/cmsis/core_cm3.h **** #define SCB_AIRCR_VECTRESET_Msk            (1UL /*<< SCB_AIRCR_VECTRESET_Pos*/)           /*!< SCB 
 530:../system/include/cmsis/core_cm3.h **** 
 531:../system/include/cmsis/core_cm3.h **** /* SCB System Control Register Definitions */
 532:../system/include/cmsis/core_cm3.h **** #define SCB_SCR_SEVONPEND_Pos               4U                                            /*!< SCB 
 533:../system/include/cmsis/core_cm3.h **** #define SCB_SCR_SEVONPEND_Msk              (1UL << SCB_SCR_SEVONPEND_Pos)                 /*!< SCB 
 534:../system/include/cmsis/core_cm3.h **** 
 535:../system/include/cmsis/core_cm3.h **** #define SCB_SCR_SLEEPDEEP_Pos               2U                                            /*!< SCB 
 536:../system/include/cmsis/core_cm3.h **** #define SCB_SCR_SLEEPDEEP_Msk              (1UL << SCB_SCR_SLEEPDEEP_Pos)                 /*!< SCB 
 537:../system/include/cmsis/core_cm3.h **** 
 538:../system/include/cmsis/core_cm3.h **** #define SCB_SCR_SLEEPONEXIT_Pos             1U                                            /*!< SCB 
 539:../system/include/cmsis/core_cm3.h **** #define SCB_SCR_SLEEPONEXIT_Msk            (1UL << SCB_SCR_SLEEPONEXIT_Pos)               /*!< SCB 
 540:../system/include/cmsis/core_cm3.h **** 
 541:../system/include/cmsis/core_cm3.h **** /* SCB Configuration Control Register Definitions */
 542:../system/include/cmsis/core_cm3.h **** #define SCB_CCR_STKALIGN_Pos                9U                                            /*!< SCB 
 543:../system/include/cmsis/core_cm3.h **** #define SCB_CCR_STKALIGN_Msk               (1UL << SCB_CCR_STKALIGN_Pos)                  /*!< SCB 
 544:../system/include/cmsis/core_cm3.h **** 
 545:../system/include/cmsis/core_cm3.h **** #define SCB_CCR_BFHFNMIGN_Pos               8U                                            /*!< SCB 
 546:../system/include/cmsis/core_cm3.h **** #define SCB_CCR_BFHFNMIGN_Msk              (1UL << SCB_CCR_BFHFNMIGN_Pos)                 /*!< SCB 
 547:../system/include/cmsis/core_cm3.h **** 
 548:../system/include/cmsis/core_cm3.h **** #define SCB_CCR_DIV_0_TRP_Pos               4U                                            /*!< SCB 
 549:../system/include/cmsis/core_cm3.h **** #define SCB_CCR_DIV_0_TRP_Msk              (1UL << SCB_CCR_DIV_0_TRP_Pos)                 /*!< SCB 
 550:../system/include/cmsis/core_cm3.h **** 
 551:../system/include/cmsis/core_cm3.h **** #define SCB_CCR_UNALIGN_TRP_Pos             3U                                            /*!< SCB 
 552:../system/include/cmsis/core_cm3.h **** #define SCB_CCR_UNALIGN_TRP_Msk            (1UL << SCB_CCR_UNALIGN_TRP_Pos)               /*!< SCB 
 553:../system/include/cmsis/core_cm3.h **** 
 554:../system/include/cmsis/core_cm3.h **** #define SCB_CCR_USERSETMPEND_Pos            1U                                            /*!< SCB 
 555:../system/include/cmsis/core_cm3.h **** #define SCB_CCR_USERSETMPEND_Msk           (1UL << SCB_CCR_USERSETMPEND_Pos)              /*!< SCB 
 556:../system/include/cmsis/core_cm3.h **** 
 557:../system/include/cmsis/core_cm3.h **** #define SCB_CCR_NONBASETHRDENA_Pos          0U                                            /*!< SCB 
 558:../system/include/cmsis/core_cm3.h **** #define SCB_CCR_NONBASETHRDENA_Msk         (1UL /*<< SCB_CCR_NONBASETHRDENA_Pos*/)        /*!< SCB 
 559:../system/include/cmsis/core_cm3.h **** 
 560:../system/include/cmsis/core_cm3.h **** /* SCB System Handler Control and State Register Definitions */
 561:../system/include/cmsis/core_cm3.h **** #define SCB_SHCSR_USGFAULTENA_Pos          18U                                            /*!< SCB 
 562:../system/include/cmsis/core_cm3.h **** #define SCB_SHCSR_USGFAULTENA_Msk          (1UL << SCB_SHCSR_USGFAULTENA_Pos)             /*!< SCB 
 563:../system/include/cmsis/core_cm3.h **** 
 564:../system/include/cmsis/core_cm3.h **** #define SCB_SHCSR_BUSFAULTENA_Pos          17U                                            /*!< SCB 
 565:../system/include/cmsis/core_cm3.h **** #define SCB_SHCSR_BUSFAULTENA_Msk          (1UL << SCB_SHCSR_BUSFAULTENA_Pos)             /*!< SCB 
 566:../system/include/cmsis/core_cm3.h **** 
 567:../system/include/cmsis/core_cm3.h **** #define SCB_SHCSR_MEMFAULTENA_Pos          16U                                            /*!< SCB 
 568:../system/include/cmsis/core_cm3.h **** #define SCB_SHCSR_MEMFAULTENA_Msk          (1UL << SCB_SHCSR_MEMFAULTENA_Pos)             /*!< SCB 
 569:../system/include/cmsis/core_cm3.h **** 
 570:../system/include/cmsis/core_cm3.h **** #define SCB_SHCSR_SVCALLPENDED_Pos         15U                                            /*!< SCB 
 571:../system/include/cmsis/core_cm3.h **** #define SCB_SHCSR_SVCALLPENDED_Msk         (1UL << SCB_SHCSR_SVCALLPENDED_Pos)            /*!< SCB 
 572:../system/include/cmsis/core_cm3.h **** 
 573:../system/include/cmsis/core_cm3.h **** #define SCB_SHCSR_BUSFAULTPENDED_Pos       14U                                            /*!< SCB 
 574:../system/include/cmsis/core_cm3.h **** #define SCB_SHCSR_BUSFAULTPENDED_Msk       (1UL << SCB_SHCSR_BUSFAULTPENDED_Pos)          /*!< SCB 
 575:../system/include/cmsis/core_cm3.h **** 
 576:../system/include/cmsis/core_cm3.h **** #define SCB_SHCSR_MEMFAULTPENDED_Pos       13U                                            /*!< SCB 
 577:../system/include/cmsis/core_cm3.h **** #define SCB_SHCSR_MEMFAULTPENDED_Msk       (1UL << SCB_SHCSR_MEMFAULTPENDED_Pos)          /*!< SCB 
 578:../system/include/cmsis/core_cm3.h **** 
 579:../system/include/cmsis/core_cm3.h **** #define SCB_SHCSR_USGFAULTPENDED_Pos       12U                                            /*!< SCB 
 580:../system/include/cmsis/core_cm3.h **** #define SCB_SHCSR_USGFAULTPENDED_Msk       (1UL << SCB_SHCSR_USGFAULTPENDED_Pos)          /*!< SCB 
 581:../system/include/cmsis/core_cm3.h **** 
 582:../system/include/cmsis/core_cm3.h **** #define SCB_SHCSR_SYSTICKACT_Pos           11U                                            /*!< SCB 
 583:../system/include/cmsis/core_cm3.h **** #define SCB_SHCSR_SYSTICKACT_Msk           (1UL << SCB_SHCSR_SYSTICKACT_Pos)              /*!< SCB 
 584:../system/include/cmsis/core_cm3.h **** 
 585:../system/include/cmsis/core_cm3.h **** #define SCB_SHCSR_PENDSVACT_Pos            10U                                            /*!< SCB 
 586:../system/include/cmsis/core_cm3.h **** #define SCB_SHCSR_PENDSVACT_Msk            (1UL << SCB_SHCSR_PENDSVACT_Pos)               /*!< SCB 
 587:../system/include/cmsis/core_cm3.h **** 
 588:../system/include/cmsis/core_cm3.h **** #define SCB_SHCSR_MONITORACT_Pos            8U                                            /*!< SCB 
 589:../system/include/cmsis/core_cm3.h **** #define SCB_SHCSR_MONITORACT_Msk           (1UL << SCB_SHCSR_MONITORACT_Pos)              /*!< SCB 
 590:../system/include/cmsis/core_cm3.h **** 
 591:../system/include/cmsis/core_cm3.h **** #define SCB_SHCSR_SVCALLACT_Pos             7U                                            /*!< SCB 
 592:../system/include/cmsis/core_cm3.h **** #define SCB_SHCSR_SVCALLACT_Msk            (1UL << SCB_SHCSR_SVCALLACT_Pos)               /*!< SCB 
 593:../system/include/cmsis/core_cm3.h **** 
 594:../system/include/cmsis/core_cm3.h **** #define SCB_SHCSR_USGFAULTACT_Pos           3U                                            /*!< SCB 
 595:../system/include/cmsis/core_cm3.h **** #define SCB_SHCSR_USGFAULTACT_Msk          (1UL << SCB_SHCSR_USGFAULTACT_Pos)             /*!< SCB 
 596:../system/include/cmsis/core_cm3.h **** 
 597:../system/include/cmsis/core_cm3.h **** #define SCB_SHCSR_BUSFAULTACT_Pos           1U                                            /*!< SCB 
 598:../system/include/cmsis/core_cm3.h **** #define SCB_SHCSR_BUSFAULTACT_Msk          (1UL << SCB_SHCSR_BUSFAULTACT_Pos)             /*!< SCB 
 599:../system/include/cmsis/core_cm3.h **** 
 600:../system/include/cmsis/core_cm3.h **** #define SCB_SHCSR_MEMFAULTACT_Pos           0U                                            /*!< SCB 
 601:../system/include/cmsis/core_cm3.h **** #define SCB_SHCSR_MEMFAULTACT_Msk          (1UL /*<< SCB_SHCSR_MEMFAULTACT_Pos*/)         /*!< SCB 
 602:../system/include/cmsis/core_cm3.h **** 
 603:../system/include/cmsis/core_cm3.h **** /* SCB Configurable Fault Status Register Definitions */
 604:../system/include/cmsis/core_cm3.h **** #define SCB_CFSR_USGFAULTSR_Pos            16U                                            /*!< SCB 
 605:../system/include/cmsis/core_cm3.h **** #define SCB_CFSR_USGFAULTSR_Msk            (0xFFFFUL << SCB_CFSR_USGFAULTSR_Pos)          /*!< SCB 
 606:../system/include/cmsis/core_cm3.h **** 
 607:../system/include/cmsis/core_cm3.h **** #define SCB_CFSR_BUSFAULTSR_Pos             8U                                            /*!< SCB 
 608:../system/include/cmsis/core_cm3.h **** #define SCB_CFSR_BUSFAULTSR_Msk            (0xFFUL << SCB_CFSR_BUSFAULTSR_Pos)            /*!< SCB 
 609:../system/include/cmsis/core_cm3.h **** 
 610:../system/include/cmsis/core_cm3.h **** #define SCB_CFSR_MEMFAULTSR_Pos             0U                                            /*!< SCB 
 611:../system/include/cmsis/core_cm3.h **** #define SCB_CFSR_MEMFAULTSR_Msk            (0xFFUL /*<< SCB_CFSR_MEMFAULTSR_Pos*/)        /*!< SCB 
 612:../system/include/cmsis/core_cm3.h **** 
 613:../system/include/cmsis/core_cm3.h **** /* SCB Hard Fault Status Register Definitions */
 614:../system/include/cmsis/core_cm3.h **** #define SCB_HFSR_DEBUGEVT_Pos              31U                                            /*!< SCB 
 615:../system/include/cmsis/core_cm3.h **** #define SCB_HFSR_DEBUGEVT_Msk              (1UL << SCB_HFSR_DEBUGEVT_Pos)                 /*!< SCB 
 616:../system/include/cmsis/core_cm3.h **** 
 617:../system/include/cmsis/core_cm3.h **** #define SCB_HFSR_FORCED_Pos                30U                                            /*!< SCB 
 618:../system/include/cmsis/core_cm3.h **** #define SCB_HFSR_FORCED_Msk                (1UL << SCB_HFSR_FORCED_Pos)                   /*!< SCB 
 619:../system/include/cmsis/core_cm3.h **** 
 620:../system/include/cmsis/core_cm3.h **** #define SCB_HFSR_VECTTBL_Pos                1U                                            /*!< SCB 
 621:../system/include/cmsis/core_cm3.h **** #define SCB_HFSR_VECTTBL_Msk               (1UL << SCB_HFSR_VECTTBL_Pos)                  /*!< SCB 
 622:../system/include/cmsis/core_cm3.h **** 
 623:../system/include/cmsis/core_cm3.h **** /* SCB Debug Fault Status Register Definitions */
 624:../system/include/cmsis/core_cm3.h **** #define SCB_DFSR_EXTERNAL_Pos               4U                                            /*!< SCB 
 625:../system/include/cmsis/core_cm3.h **** #define SCB_DFSR_EXTERNAL_Msk              (1UL << SCB_DFSR_EXTERNAL_Pos)                 /*!< SCB 
 626:../system/include/cmsis/core_cm3.h **** 
 627:../system/include/cmsis/core_cm3.h **** #define SCB_DFSR_VCATCH_Pos                 3U                                            /*!< SCB 
 628:../system/include/cmsis/core_cm3.h **** #define SCB_DFSR_VCATCH_Msk                (1UL << SCB_DFSR_VCATCH_Pos)                   /*!< SCB 
 629:../system/include/cmsis/core_cm3.h **** 
 630:../system/include/cmsis/core_cm3.h **** #define SCB_DFSR_DWTTRAP_Pos                2U                                            /*!< SCB 
 631:../system/include/cmsis/core_cm3.h **** #define SCB_DFSR_DWTTRAP_Msk               (1UL << SCB_DFSR_DWTTRAP_Pos)                  /*!< SCB 
 632:../system/include/cmsis/core_cm3.h **** 
 633:../system/include/cmsis/core_cm3.h **** #define SCB_DFSR_BKPT_Pos                   1U                                            /*!< SCB 
 634:../system/include/cmsis/core_cm3.h **** #define SCB_DFSR_BKPT_Msk                  (1UL << SCB_DFSR_BKPT_Pos)                     /*!< SCB 
 635:../system/include/cmsis/core_cm3.h **** 
 636:../system/include/cmsis/core_cm3.h **** #define SCB_DFSR_HALTED_Pos                 0U                                            /*!< SCB 
 637:../system/include/cmsis/core_cm3.h **** #define SCB_DFSR_HALTED_Msk                (1UL /*<< SCB_DFSR_HALTED_Pos*/)               /*!< SCB 
 638:../system/include/cmsis/core_cm3.h **** 
 639:../system/include/cmsis/core_cm3.h **** /*@} end of group CMSIS_SCB */
 640:../system/include/cmsis/core_cm3.h **** 
 641:../system/include/cmsis/core_cm3.h **** 
 642:../system/include/cmsis/core_cm3.h **** /**
 643:../system/include/cmsis/core_cm3.h ****   \ingroup  CMSIS_core_register
 644:../system/include/cmsis/core_cm3.h ****   \defgroup CMSIS_SCnSCB System Controls not in SCB (SCnSCB)
 645:../system/include/cmsis/core_cm3.h ****   \brief    Type definitions for the System Control and ID Register not in the SCB
 646:../system/include/cmsis/core_cm3.h ****   @{
 647:../system/include/cmsis/core_cm3.h ****  */
 648:../system/include/cmsis/core_cm3.h **** 
 649:../system/include/cmsis/core_cm3.h **** /**
 650:../system/include/cmsis/core_cm3.h ****   \brief  Structure type to access the System Control and ID Register not in the SCB.
 651:../system/include/cmsis/core_cm3.h ****  */
 652:../system/include/cmsis/core_cm3.h **** typedef struct
 653:../system/include/cmsis/core_cm3.h **** {
 654:../system/include/cmsis/core_cm3.h ****         uint32_t RESERVED0[1U];
 655:../system/include/cmsis/core_cm3.h ****   __IM  uint32_t ICTR;                   /*!< Offset: 0x004 (R/ )  Interrupt Controller Type Regist
 656:../system/include/cmsis/core_cm3.h **** #if ((defined __CM3_REV) && (__CM3_REV >= 0x200U))
 657:../system/include/cmsis/core_cm3.h ****   __IOM uint32_t ACTLR;                  /*!< Offset: 0x008 (R/W)  Auxiliary Control Register */
 658:../system/include/cmsis/core_cm3.h **** #else
 659:../system/include/cmsis/core_cm3.h ****         uint32_t RESERVED1[1U];
 660:../system/include/cmsis/core_cm3.h **** #endif
 661:../system/include/cmsis/core_cm3.h **** } SCnSCB_Type;
 662:../system/include/cmsis/core_cm3.h **** 
 663:../system/include/cmsis/core_cm3.h **** /* Interrupt Controller Type Register Definitions */
 664:../system/include/cmsis/core_cm3.h **** #define SCnSCB_ICTR_INTLINESNUM_Pos         0U                                         /*!< ICTR: I
 665:../system/include/cmsis/core_cm3.h **** #define SCnSCB_ICTR_INTLINESNUM_Msk        (0xFUL /*<< SCnSCB_ICTR_INTLINESNUM_Pos*/)  /*!< ICTR: I
 666:../system/include/cmsis/core_cm3.h **** 
 667:../system/include/cmsis/core_cm3.h **** /* Auxiliary Control Register Definitions */
 668:../system/include/cmsis/core_cm3.h **** 
 669:../system/include/cmsis/core_cm3.h **** #define SCnSCB_ACTLR_DISFOLD_Pos            2U                                         /*!< ACTLR: 
 670:../system/include/cmsis/core_cm3.h **** #define SCnSCB_ACTLR_DISFOLD_Msk           (1UL << SCnSCB_ACTLR_DISFOLD_Pos)           /*!< ACTLR: 
 671:../system/include/cmsis/core_cm3.h **** 
 672:../system/include/cmsis/core_cm3.h **** #define SCnSCB_ACTLR_DISDEFWBUF_Pos         1U                                         /*!< ACTLR: 
 673:../system/include/cmsis/core_cm3.h **** #define SCnSCB_ACTLR_DISDEFWBUF_Msk        (1UL << SCnSCB_ACTLR_DISDEFWBUF_Pos)        /*!< ACTLR: 
 674:../system/include/cmsis/core_cm3.h **** 
 675:../system/include/cmsis/core_cm3.h **** #define SCnSCB_ACTLR_DISMCYCINT_Pos         0U                                         /*!< ACTLR: 
 676:../system/include/cmsis/core_cm3.h **** #define SCnSCB_ACTLR_DISMCYCINT_Msk        (1UL /*<< SCnSCB_ACTLR_DISMCYCINT_Pos*/)    /*!< ACTLR: 
 677:../system/include/cmsis/core_cm3.h **** 
 678:../system/include/cmsis/core_cm3.h **** /*@} end of group CMSIS_SCnotSCB */
 679:../system/include/cmsis/core_cm3.h **** 
 680:../system/include/cmsis/core_cm3.h **** 
 681:../system/include/cmsis/core_cm3.h **** /**
 682:../system/include/cmsis/core_cm3.h ****   \ingroup  CMSIS_core_register
 683:../system/include/cmsis/core_cm3.h ****   \defgroup CMSIS_SysTick     System Tick Timer (SysTick)
 684:../system/include/cmsis/core_cm3.h ****   \brief    Type definitions for the System Timer Registers.
 685:../system/include/cmsis/core_cm3.h ****   @{
 686:../system/include/cmsis/core_cm3.h ****  */
 687:../system/include/cmsis/core_cm3.h **** 
 688:../system/include/cmsis/core_cm3.h **** /**
 689:../system/include/cmsis/core_cm3.h ****   \brief  Structure type to access the System Timer (SysTick).
 690:../system/include/cmsis/core_cm3.h ****  */
 691:../system/include/cmsis/core_cm3.h **** typedef struct
 692:../system/include/cmsis/core_cm3.h **** {
 693:../system/include/cmsis/core_cm3.h ****   __IOM uint32_t CTRL;                   /*!< Offset: 0x000 (R/W)  SysTick Control and Status Regis
 694:../system/include/cmsis/core_cm3.h ****   __IOM uint32_t LOAD;                   /*!< Offset: 0x004 (R/W)  SysTick Reload Value Register */
 695:../system/include/cmsis/core_cm3.h ****   __IOM uint32_t VAL;                    /*!< Offset: 0x008 (R/W)  SysTick Current Value Register *
 696:../system/include/cmsis/core_cm3.h ****   __IM  uint32_t CALIB;                  /*!< Offset: 0x00C (R/ )  SysTick Calibration Register */
 697:../system/include/cmsis/core_cm3.h **** } SysTick_Type;
 698:../system/include/cmsis/core_cm3.h **** 
 699:../system/include/cmsis/core_cm3.h **** /* SysTick Control / Status Register Definitions */
 700:../system/include/cmsis/core_cm3.h **** #define SysTick_CTRL_COUNTFLAG_Pos         16U                                            /*!< SysT
 701:../system/include/cmsis/core_cm3.h **** #define SysTick_CTRL_COUNTFLAG_Msk         (1UL << SysTick_CTRL_COUNTFLAG_Pos)            /*!< SysT
 702:../system/include/cmsis/core_cm3.h **** 
 703:../system/include/cmsis/core_cm3.h **** #define SysTick_CTRL_CLKSOURCE_Pos          2U                                            /*!< SysT
 704:../system/include/cmsis/core_cm3.h **** #define SysTick_CTRL_CLKSOURCE_Msk         (1UL << SysTick_CTRL_CLKSOURCE_Pos)            /*!< SysT
 705:../system/include/cmsis/core_cm3.h **** 
 706:../system/include/cmsis/core_cm3.h **** #define SysTick_CTRL_TICKINT_Pos            1U                                            /*!< SysT
 707:../system/include/cmsis/core_cm3.h **** #define SysTick_CTRL_TICKINT_Msk           (1UL << SysTick_CTRL_TICKINT_Pos)              /*!< SysT
 708:../system/include/cmsis/core_cm3.h **** 
 709:../system/include/cmsis/core_cm3.h **** #define SysTick_CTRL_ENABLE_Pos             0U                                            /*!< SysT
 710:../system/include/cmsis/core_cm3.h **** #define SysTick_CTRL_ENABLE_Msk            (1UL /*<< SysTick_CTRL_ENABLE_Pos*/)           /*!< SysT
 711:../system/include/cmsis/core_cm3.h **** 
 712:../system/include/cmsis/core_cm3.h **** /* SysTick Reload Register Definitions */
 713:../system/include/cmsis/core_cm3.h **** #define SysTick_LOAD_RELOAD_Pos             0U                                            /*!< SysT
 714:../system/include/cmsis/core_cm3.h **** #define SysTick_LOAD_RELOAD_Msk            (0xFFFFFFUL /*<< SysTick_LOAD_RELOAD_Pos*/)    /*!< SysT
 715:../system/include/cmsis/core_cm3.h **** 
 716:../system/include/cmsis/core_cm3.h **** /* SysTick Current Register Definitions */
 717:../system/include/cmsis/core_cm3.h **** #define SysTick_VAL_CURRENT_Pos             0U                                            /*!< SysT
 718:../system/include/cmsis/core_cm3.h **** #define SysTick_VAL_CURRENT_Msk            (0xFFFFFFUL /*<< SysTick_VAL_CURRENT_Pos*/)    /*!< SysT
 719:../system/include/cmsis/core_cm3.h **** 
 720:../system/include/cmsis/core_cm3.h **** /* SysTick Calibration Register Definitions */
 721:../system/include/cmsis/core_cm3.h **** #define SysTick_CALIB_NOREF_Pos            31U                                            /*!< SysT
 722:../system/include/cmsis/core_cm3.h **** #define SysTick_CALIB_NOREF_Msk            (1UL << SysTick_CALIB_NOREF_Pos)               /*!< SysT
 723:../system/include/cmsis/core_cm3.h **** 
 724:../system/include/cmsis/core_cm3.h **** #define SysTick_CALIB_SKEW_Pos             30U                                            /*!< SysT
 725:../system/include/cmsis/core_cm3.h **** #define SysTick_CALIB_SKEW_Msk             (1UL << SysTick_CALIB_SKEW_Pos)                /*!< SysT
 726:../system/include/cmsis/core_cm3.h **** 
 727:../system/include/cmsis/core_cm3.h **** #define SysTick_CALIB_TENMS_Pos             0U                                            /*!< SysT
 728:../system/include/cmsis/core_cm3.h **** #define SysTick_CALIB_TENMS_Msk            (0xFFFFFFUL /*<< SysTick_CALIB_TENMS_Pos*/)    /*!< SysT
 729:../system/include/cmsis/core_cm3.h **** 
 730:../system/include/cmsis/core_cm3.h **** /*@} end of group CMSIS_SysTick */
 731:../system/include/cmsis/core_cm3.h **** 
 732:../system/include/cmsis/core_cm3.h **** 
 733:../system/include/cmsis/core_cm3.h **** /**
 734:../system/include/cmsis/core_cm3.h ****   \ingroup  CMSIS_core_register
 735:../system/include/cmsis/core_cm3.h ****   \defgroup CMSIS_ITM     Instrumentation Trace Macrocell (ITM)
 736:../system/include/cmsis/core_cm3.h ****   \brief    Type definitions for the Instrumentation Trace Macrocell (ITM)
 737:../system/include/cmsis/core_cm3.h ****   @{
 738:../system/include/cmsis/core_cm3.h ****  */
 739:../system/include/cmsis/core_cm3.h **** 
 740:../system/include/cmsis/core_cm3.h **** /**
 741:../system/include/cmsis/core_cm3.h ****   \brief  Structure type to access the Instrumentation Trace Macrocell Register (ITM).
 742:../system/include/cmsis/core_cm3.h ****  */
 743:../system/include/cmsis/core_cm3.h **** typedef struct
 744:../system/include/cmsis/core_cm3.h **** {
 745:../system/include/cmsis/core_cm3.h ****   __OM  union
 746:../system/include/cmsis/core_cm3.h ****   {
 747:../system/include/cmsis/core_cm3.h ****     __OM  uint8_t    u8;                 /*!< Offset: 0x000 ( /W)  ITM Stimulus Port 8-bit */
 748:../system/include/cmsis/core_cm3.h ****     __OM  uint16_t   u16;                /*!< Offset: 0x000 ( /W)  ITM Stimulus Port 16-bit */
 749:../system/include/cmsis/core_cm3.h ****     __OM  uint32_t   u32;                /*!< Offset: 0x000 ( /W)  ITM Stimulus Port 32-bit */
 750:../system/include/cmsis/core_cm3.h ****   }  PORT [32U];                         /*!< Offset: 0x000 ( /W)  ITM Stimulus Port Registers */
 751:../system/include/cmsis/core_cm3.h ****         uint32_t RESERVED0[864U];
 752:../system/include/cmsis/core_cm3.h ****   __IOM uint32_t TER;                    /*!< Offset: 0xE00 (R/W)  ITM Trace Enable Register */
 753:../system/include/cmsis/core_cm3.h ****         uint32_t RESERVED1[15U];
 754:../system/include/cmsis/core_cm3.h ****   __IOM uint32_t TPR;                    /*!< Offset: 0xE40 (R/W)  ITM Trace Privilege Register */
 755:../system/include/cmsis/core_cm3.h ****         uint32_t RESERVED2[15U];
 756:../system/include/cmsis/core_cm3.h ****   __IOM uint32_t TCR;                    /*!< Offset: 0xE80 (R/W)  ITM Trace Control Register */
 757:../system/include/cmsis/core_cm3.h ****         uint32_t RESERVED3[29U];
 758:../system/include/cmsis/core_cm3.h ****   __OM  uint32_t IWR;                    /*!< Offset: 0xEF8 ( /W)  ITM Integration Write Register *
 759:../system/include/cmsis/core_cm3.h ****   __IM  uint32_t IRR;                    /*!< Offset: 0xEFC (R/ )  ITM Integration Read Register */
 760:../system/include/cmsis/core_cm3.h ****   __IOM uint32_t IMCR;                   /*!< Offset: 0xF00 (R/W)  ITM Integration Mode Control Reg
 761:../system/include/cmsis/core_cm3.h ****         uint32_t RESERVED4[43U];
 762:../system/include/cmsis/core_cm3.h ****   __OM  uint32_t LAR;                    /*!< Offset: 0xFB0 ( /W)  ITM Lock Access Register */
 763:../system/include/cmsis/core_cm3.h ****   __IM  uint32_t LSR;                    /*!< Offset: 0xFB4 (R/ )  ITM Lock Status Register */
 764:../system/include/cmsis/core_cm3.h ****         uint32_t RESERVED5[6U];
 765:../system/include/cmsis/core_cm3.h ****   __IM  uint32_t PID4;                   /*!< Offset: 0xFD0 (R/ )  ITM Peripheral Identification Re
 766:../system/include/cmsis/core_cm3.h ****   __IM  uint32_t PID5;                   /*!< Offset: 0xFD4 (R/ )  ITM Peripheral Identification Re
 767:../system/include/cmsis/core_cm3.h ****   __IM  uint32_t PID6;                   /*!< Offset: 0xFD8 (R/ )  ITM Peripheral Identification Re
 768:../system/include/cmsis/core_cm3.h ****   __IM  uint32_t PID7;                   /*!< Offset: 0xFDC (R/ )  ITM Peripheral Identification Re
 769:../system/include/cmsis/core_cm3.h ****   __IM  uint32_t PID0;                   /*!< Offset: 0xFE0 (R/ )  ITM Peripheral Identification Re
 770:../system/include/cmsis/core_cm3.h ****   __IM  uint32_t PID1;                   /*!< Offset: 0xFE4 (R/ )  ITM Peripheral Identification Re
 771:../system/include/cmsis/core_cm3.h ****   __IM  uint32_t PID2;                   /*!< Offset: 0xFE8 (R/ )  ITM Peripheral Identification Re
 772:../system/include/cmsis/core_cm3.h ****   __IM  uint32_t PID3;                   /*!< Offset: 0xFEC (R/ )  ITM Peripheral Identification Re
 773:../system/include/cmsis/core_cm3.h ****   __IM  uint32_t CID0;                   /*!< Offset: 0xFF0 (R/ )  ITM Component  Identification Re
 774:../system/include/cmsis/core_cm3.h ****   __IM  uint32_t CID1;                   /*!< Offset: 0xFF4 (R/ )  ITM Component  Identification Re
 775:../system/include/cmsis/core_cm3.h ****   __IM  uint32_t CID2;                   /*!< Offset: 0xFF8 (R/ )  ITM Component  Identification Re
 776:../system/include/cmsis/core_cm3.h ****   __IM  uint32_t CID3;                   /*!< Offset: 0xFFC (R/ )  ITM Component  Identification Re
 777:../system/include/cmsis/core_cm3.h **** } ITM_Type;
 778:../system/include/cmsis/core_cm3.h **** 
 779:../system/include/cmsis/core_cm3.h **** /* ITM Trace Privilege Register Definitions */
 780:../system/include/cmsis/core_cm3.h **** #define ITM_TPR_PRIVMASK_Pos                0U                                            /*!< ITM 
 781:../system/include/cmsis/core_cm3.h **** #define ITM_TPR_PRIVMASK_Msk               (0xFUL /*<< ITM_TPR_PRIVMASK_Pos*/)            /*!< ITM 
 782:../system/include/cmsis/core_cm3.h **** 
 783:../system/include/cmsis/core_cm3.h **** /* ITM Trace Control Register Definitions */
 784:../system/include/cmsis/core_cm3.h **** #define ITM_TCR_BUSY_Pos                   23U                                            /*!< ITM 
 785:../system/include/cmsis/core_cm3.h **** #define ITM_TCR_BUSY_Msk                   (1UL << ITM_TCR_BUSY_Pos)                      /*!< ITM 
 786:../system/include/cmsis/core_cm3.h **** 
 787:../system/include/cmsis/core_cm3.h **** #define ITM_TCR_TraceBusID_Pos             16U                                            /*!< ITM 
 788:../system/include/cmsis/core_cm3.h **** #define ITM_TCR_TraceBusID_Msk             (0x7FUL << ITM_TCR_TraceBusID_Pos)             /*!< ITM 
 789:../system/include/cmsis/core_cm3.h **** 
 790:../system/include/cmsis/core_cm3.h **** #define ITM_TCR_GTSFREQ_Pos                10U                                            /*!< ITM 
 791:../system/include/cmsis/core_cm3.h **** #define ITM_TCR_GTSFREQ_Msk                (3UL << ITM_TCR_GTSFREQ_Pos)                   /*!< ITM 
 792:../system/include/cmsis/core_cm3.h **** 
 793:../system/include/cmsis/core_cm3.h **** #define ITM_TCR_TSPrescale_Pos              8U                                            /*!< ITM 
 794:../system/include/cmsis/core_cm3.h **** #define ITM_TCR_TSPrescale_Msk             (3UL << ITM_TCR_TSPrescale_Pos)                /*!< ITM 
 795:../system/include/cmsis/core_cm3.h **** 
 796:../system/include/cmsis/core_cm3.h **** #define ITM_TCR_SWOENA_Pos                  4U                                            /*!< ITM 
 797:../system/include/cmsis/core_cm3.h **** #define ITM_TCR_SWOENA_Msk                 (1UL << ITM_TCR_SWOENA_Pos)                    /*!< ITM 
 798:../system/include/cmsis/core_cm3.h **** 
 799:../system/include/cmsis/core_cm3.h **** #define ITM_TCR_DWTENA_Pos                  3U                                            /*!< ITM 
 800:../system/include/cmsis/core_cm3.h **** #define ITM_TCR_DWTENA_Msk                 (1UL << ITM_TCR_DWTENA_Pos)                    /*!< ITM 
 801:../system/include/cmsis/core_cm3.h **** 
 802:../system/include/cmsis/core_cm3.h **** #define ITM_TCR_SYNCENA_Pos                 2U                                            /*!< ITM 
 803:../system/include/cmsis/core_cm3.h **** #define ITM_TCR_SYNCENA_Msk                (1UL << ITM_TCR_SYNCENA_Pos)                   /*!< ITM 
 804:../system/include/cmsis/core_cm3.h **** 
 805:../system/include/cmsis/core_cm3.h **** #define ITM_TCR_TSENA_Pos                   1U                                            /*!< ITM 
 806:../system/include/cmsis/core_cm3.h **** #define ITM_TCR_TSENA_Msk                  (1UL << ITM_TCR_TSENA_Pos)                     /*!< ITM 
 807:../system/include/cmsis/core_cm3.h **** 
 808:../system/include/cmsis/core_cm3.h **** #define ITM_TCR_ITMENA_Pos                  0U                                            /*!< ITM 
 809:../system/include/cmsis/core_cm3.h **** #define ITM_TCR_ITMENA_Msk                 (1UL /*<< ITM_TCR_ITMENA_Pos*/)                /*!< ITM 
 810:../system/include/cmsis/core_cm3.h **** 
 811:../system/include/cmsis/core_cm3.h **** /* ITM Integration Write Register Definitions */
 812:../system/include/cmsis/core_cm3.h **** #define ITM_IWR_ATVALIDM_Pos                0U                                            /*!< ITM 
 813:../system/include/cmsis/core_cm3.h **** #define ITM_IWR_ATVALIDM_Msk               (1UL /*<< ITM_IWR_ATVALIDM_Pos*/)              /*!< ITM 
 814:../system/include/cmsis/core_cm3.h **** 
 815:../system/include/cmsis/core_cm3.h **** /* ITM Integration Read Register Definitions */
 816:../system/include/cmsis/core_cm3.h **** #define ITM_IRR_ATREADYM_Pos                0U                                            /*!< ITM 
 817:../system/include/cmsis/core_cm3.h **** #define ITM_IRR_ATREADYM_Msk               (1UL /*<< ITM_IRR_ATREADYM_Pos*/)              /*!< ITM 
 818:../system/include/cmsis/core_cm3.h **** 
 819:../system/include/cmsis/core_cm3.h **** /* ITM Integration Mode Control Register Definitions */
 820:../system/include/cmsis/core_cm3.h **** #define ITM_IMCR_INTEGRATION_Pos            0U                                            /*!< ITM 
 821:../system/include/cmsis/core_cm3.h **** #define ITM_IMCR_INTEGRATION_Msk           (1UL /*<< ITM_IMCR_INTEGRATION_Pos*/)          /*!< ITM 
 822:../system/include/cmsis/core_cm3.h **** 
 823:../system/include/cmsis/core_cm3.h **** /* ITM Lock Status Register Definitions */
 824:../system/include/cmsis/core_cm3.h **** #define ITM_LSR_ByteAcc_Pos                 2U                                            /*!< ITM 
 825:../system/include/cmsis/core_cm3.h **** #define ITM_LSR_ByteAcc_Msk                (1UL << ITM_LSR_ByteAcc_Pos)                   /*!< ITM 
 826:../system/include/cmsis/core_cm3.h **** 
 827:../system/include/cmsis/core_cm3.h **** #define ITM_LSR_Access_Pos                  1U                                            /*!< ITM 
 828:../system/include/cmsis/core_cm3.h **** #define ITM_LSR_Access_Msk                 (1UL << ITM_LSR_Access_Pos)                    /*!< ITM 
 829:../system/include/cmsis/core_cm3.h **** 
 830:../system/include/cmsis/core_cm3.h **** #define ITM_LSR_Present_Pos                 0U                                            /*!< ITM 
 831:../system/include/cmsis/core_cm3.h **** #define ITM_LSR_Present_Msk                (1UL /*<< ITM_LSR_Present_Pos*/)               /*!< ITM 
 832:../system/include/cmsis/core_cm3.h **** 
 833:../system/include/cmsis/core_cm3.h **** /*@}*/ /* end of group CMSIS_ITM */
 834:../system/include/cmsis/core_cm3.h **** 
 835:../system/include/cmsis/core_cm3.h **** 
 836:../system/include/cmsis/core_cm3.h **** /**
 837:../system/include/cmsis/core_cm3.h ****   \ingroup  CMSIS_core_register
 838:../system/include/cmsis/core_cm3.h ****   \defgroup CMSIS_DWT     Data Watchpoint and Trace (DWT)
 839:../system/include/cmsis/core_cm3.h ****   \brief    Type definitions for the Data Watchpoint and Trace (DWT)
 840:../system/include/cmsis/core_cm3.h ****   @{
 841:../system/include/cmsis/core_cm3.h ****  */
 842:../system/include/cmsis/core_cm3.h **** 
 843:../system/include/cmsis/core_cm3.h **** /**
 844:../system/include/cmsis/core_cm3.h ****   \brief  Structure type to access the Data Watchpoint and Trace Register (DWT).
 845:../system/include/cmsis/core_cm3.h ****  */
 846:../system/include/cmsis/core_cm3.h **** typedef struct
 847:../system/include/cmsis/core_cm3.h **** {
 848:../system/include/cmsis/core_cm3.h ****   __IOM uint32_t CTRL;                   /*!< Offset: 0x000 (R/W)  Control Register */
 849:../system/include/cmsis/core_cm3.h ****   __IOM uint32_t CYCCNT;                 /*!< Offset: 0x004 (R/W)  Cycle Count Register */
 850:../system/include/cmsis/core_cm3.h ****   __IOM uint32_t CPICNT;                 /*!< Offset: 0x008 (R/W)  CPI Count Register */
 851:../system/include/cmsis/core_cm3.h ****   __IOM uint32_t EXCCNT;                 /*!< Offset: 0x00C (R/W)  Exception Overhead Count Registe
 852:../system/include/cmsis/core_cm3.h ****   __IOM uint32_t SLEEPCNT;               /*!< Offset: 0x010 (R/W)  Sleep Count Register */
 853:../system/include/cmsis/core_cm3.h ****   __IOM uint32_t LSUCNT;                 /*!< Offset: 0x014 (R/W)  LSU Count Register */
 854:../system/include/cmsis/core_cm3.h ****   __IOM uint32_t FOLDCNT;                /*!< Offset: 0x018 (R/W)  Folded-instruction Count Registe
 855:../system/include/cmsis/core_cm3.h ****   __IM  uint32_t PCSR;                   /*!< Offset: 0x01C (R/ )  Program Counter Sample Register 
 856:../system/include/cmsis/core_cm3.h ****   __IOM uint32_t COMP0;                  /*!< Offset: 0x020 (R/W)  Comparator Register 0 */
 857:../system/include/cmsis/core_cm3.h ****   __IOM uint32_t MASK0;                  /*!< Offset: 0x024 (R/W)  Mask Register 0 */
 858:../system/include/cmsis/core_cm3.h ****   __IOM uint32_t FUNCTION0;              /*!< Offset: 0x028 (R/W)  Function Register 0 */
 859:../system/include/cmsis/core_cm3.h ****         uint32_t RESERVED0[1U];
 860:../system/include/cmsis/core_cm3.h ****   __IOM uint32_t COMP1;                  /*!< Offset: 0x030 (R/W)  Comparator Register 1 */
 861:../system/include/cmsis/core_cm3.h ****   __IOM uint32_t MASK1;                  /*!< Offset: 0x034 (R/W)  Mask Register 1 */
 862:../system/include/cmsis/core_cm3.h ****   __IOM uint32_t FUNCTION1;              /*!< Offset: 0x038 (R/W)  Function Register 1 */
 863:../system/include/cmsis/core_cm3.h ****         uint32_t RESERVED1[1U];
 864:../system/include/cmsis/core_cm3.h ****   __IOM uint32_t COMP2;                  /*!< Offset: 0x040 (R/W)  Comparator Register 2 */
 865:../system/include/cmsis/core_cm3.h ****   __IOM uint32_t MASK2;                  /*!< Offset: 0x044 (R/W)  Mask Register 2 */
 866:../system/include/cmsis/core_cm3.h ****   __IOM uint32_t FUNCTION2;              /*!< Offset: 0x048 (R/W)  Function Register 2 */
 867:../system/include/cmsis/core_cm3.h ****         uint32_t RESERVED2[1U];
 868:../system/include/cmsis/core_cm3.h ****   __IOM uint32_t COMP3;                  /*!< Offset: 0x050 (R/W)  Comparator Register 3 */
 869:../system/include/cmsis/core_cm3.h ****   __IOM uint32_t MASK3;                  /*!< Offset: 0x054 (R/W)  Mask Register 3 */
 870:../system/include/cmsis/core_cm3.h ****   __IOM uint32_t FUNCTION3;              /*!< Offset: 0x058 (R/W)  Function Register 3 */
 871:../system/include/cmsis/core_cm3.h **** } DWT_Type;
 872:../system/include/cmsis/core_cm3.h **** 
 873:../system/include/cmsis/core_cm3.h **** /* DWT Control Register Definitions */
 874:../system/include/cmsis/core_cm3.h **** #define DWT_CTRL_NUMCOMP_Pos               28U                                         /*!< DWT CTR
 875:../system/include/cmsis/core_cm3.h **** #define DWT_CTRL_NUMCOMP_Msk               (0xFUL << DWT_CTRL_NUMCOMP_Pos)             /*!< DWT CTR
 876:../system/include/cmsis/core_cm3.h **** 
 877:../system/include/cmsis/core_cm3.h **** #define DWT_CTRL_NOTRCPKT_Pos              27U                                         /*!< DWT CTR
 878:../system/include/cmsis/core_cm3.h **** #define DWT_CTRL_NOTRCPKT_Msk              (0x1UL << DWT_CTRL_NOTRCPKT_Pos)            /*!< DWT CTR
 879:../system/include/cmsis/core_cm3.h **** 
 880:../system/include/cmsis/core_cm3.h **** #define DWT_CTRL_NOEXTTRIG_Pos             26U                                         /*!< DWT CTR
 881:../system/include/cmsis/core_cm3.h **** #define DWT_CTRL_NOEXTTRIG_Msk             (0x1UL << DWT_CTRL_NOEXTTRIG_Pos)           /*!< DWT CTR
 882:../system/include/cmsis/core_cm3.h **** 
 883:../system/include/cmsis/core_cm3.h **** #define DWT_CTRL_NOCYCCNT_Pos              25U                                         /*!< DWT CTR
 884:../system/include/cmsis/core_cm3.h **** #define DWT_CTRL_NOCYCCNT_Msk              (0x1UL << DWT_CTRL_NOCYCCNT_Pos)            /*!< DWT CTR
 885:../system/include/cmsis/core_cm3.h **** 
 886:../system/include/cmsis/core_cm3.h **** #define DWT_CTRL_NOPRFCNT_Pos              24U                                         /*!< DWT CTR
 887:../system/include/cmsis/core_cm3.h **** #define DWT_CTRL_NOPRFCNT_Msk              (0x1UL << DWT_CTRL_NOPRFCNT_Pos)            /*!< DWT CTR
 888:../system/include/cmsis/core_cm3.h **** 
 889:../system/include/cmsis/core_cm3.h **** #define DWT_CTRL_CYCEVTENA_Pos             22U                                         /*!< DWT CTR
 890:../system/include/cmsis/core_cm3.h **** #define DWT_CTRL_CYCEVTENA_Msk             (0x1UL << DWT_CTRL_CYCEVTENA_Pos)           /*!< DWT CTR
 891:../system/include/cmsis/core_cm3.h **** 
 892:../system/include/cmsis/core_cm3.h **** #define DWT_CTRL_FOLDEVTENA_Pos            21U                                         /*!< DWT CTR
 893:../system/include/cmsis/core_cm3.h **** #define DWT_CTRL_FOLDEVTENA_Msk            (0x1UL << DWT_CTRL_FOLDEVTENA_Pos)          /*!< DWT CTR
 894:../system/include/cmsis/core_cm3.h **** 
 895:../system/include/cmsis/core_cm3.h **** #define DWT_CTRL_LSUEVTENA_Pos             20U                                         /*!< DWT CTR
 896:../system/include/cmsis/core_cm3.h **** #define DWT_CTRL_LSUEVTENA_Msk             (0x1UL << DWT_CTRL_LSUEVTENA_Pos)           /*!< DWT CTR
 897:../system/include/cmsis/core_cm3.h **** 
 898:../system/include/cmsis/core_cm3.h **** #define DWT_CTRL_SLEEPEVTENA_Pos           19U                                         /*!< DWT CTR
 899:../system/include/cmsis/core_cm3.h **** #define DWT_CTRL_SLEEPEVTENA_Msk           (0x1UL << DWT_CTRL_SLEEPEVTENA_Pos)         /*!< DWT CTR
 900:../system/include/cmsis/core_cm3.h **** 
 901:../system/include/cmsis/core_cm3.h **** #define DWT_CTRL_EXCEVTENA_Pos             18U                                         /*!< DWT CTR
 902:../system/include/cmsis/core_cm3.h **** #define DWT_CTRL_EXCEVTENA_Msk             (0x1UL << DWT_CTRL_EXCEVTENA_Pos)           /*!< DWT CTR
 903:../system/include/cmsis/core_cm3.h **** 
 904:../system/include/cmsis/core_cm3.h **** #define DWT_CTRL_CPIEVTENA_Pos             17U                                         /*!< DWT CTR
 905:../system/include/cmsis/core_cm3.h **** #define DWT_CTRL_CPIEVTENA_Msk             (0x1UL << DWT_CTRL_CPIEVTENA_Pos)           /*!< DWT CTR
 906:../system/include/cmsis/core_cm3.h **** 
 907:../system/include/cmsis/core_cm3.h **** #define DWT_CTRL_EXCTRCENA_Pos             16U                                         /*!< DWT CTR
 908:../system/include/cmsis/core_cm3.h **** #define DWT_CTRL_EXCTRCENA_Msk             (0x1UL << DWT_CTRL_EXCTRCENA_Pos)           /*!< DWT CTR
 909:../system/include/cmsis/core_cm3.h **** 
 910:../system/include/cmsis/core_cm3.h **** #define DWT_CTRL_PCSAMPLENA_Pos            12U                                         /*!< DWT CTR
 911:../system/include/cmsis/core_cm3.h **** #define DWT_CTRL_PCSAMPLENA_Msk            (0x1UL << DWT_CTRL_PCSAMPLENA_Pos)          /*!< DWT CTR
 912:../system/include/cmsis/core_cm3.h **** 
 913:../system/include/cmsis/core_cm3.h **** #define DWT_CTRL_SYNCTAP_Pos               10U                                         /*!< DWT CTR
 914:../system/include/cmsis/core_cm3.h **** #define DWT_CTRL_SYNCTAP_Msk               (0x3UL << DWT_CTRL_SYNCTAP_Pos)             /*!< DWT CTR
 915:../system/include/cmsis/core_cm3.h **** 
 916:../system/include/cmsis/core_cm3.h **** #define DWT_CTRL_CYCTAP_Pos                 9U                                         /*!< DWT CTR
 917:../system/include/cmsis/core_cm3.h **** #define DWT_CTRL_CYCTAP_Msk                (0x1UL << DWT_CTRL_CYCTAP_Pos)              /*!< DWT CTR
 918:../system/include/cmsis/core_cm3.h **** 
 919:../system/include/cmsis/core_cm3.h **** #define DWT_CTRL_POSTINIT_Pos               5U                                         /*!< DWT CTR
 920:../system/include/cmsis/core_cm3.h **** #define DWT_CTRL_POSTINIT_Msk              (0xFUL << DWT_CTRL_POSTINIT_Pos)            /*!< DWT CTR
 921:../system/include/cmsis/core_cm3.h **** 
 922:../system/include/cmsis/core_cm3.h **** #define DWT_CTRL_POSTPRESET_Pos             1U                                         /*!< DWT CTR
 923:../system/include/cmsis/core_cm3.h **** #define DWT_CTRL_POSTPRESET_Msk            (0xFUL << DWT_CTRL_POSTPRESET_Pos)          /*!< DWT CTR
 924:../system/include/cmsis/core_cm3.h **** 
 925:../system/include/cmsis/core_cm3.h **** #define DWT_CTRL_CYCCNTENA_Pos              0U                                         /*!< DWT CTR
 926:../system/include/cmsis/core_cm3.h **** #define DWT_CTRL_CYCCNTENA_Msk             (0x1UL /*<< DWT_CTRL_CYCCNTENA_Pos*/)       /*!< DWT CTR
 927:../system/include/cmsis/core_cm3.h **** 
 928:../system/include/cmsis/core_cm3.h **** /* DWT CPI Count Register Definitions */
 929:../system/include/cmsis/core_cm3.h **** #define DWT_CPICNT_CPICNT_Pos               0U                                         /*!< DWT CPI
 930:../system/include/cmsis/core_cm3.h **** #define DWT_CPICNT_CPICNT_Msk              (0xFFUL /*<< DWT_CPICNT_CPICNT_Pos*/)       /*!< DWT CPI
 931:../system/include/cmsis/core_cm3.h **** 
 932:../system/include/cmsis/core_cm3.h **** /* DWT Exception Overhead Count Register Definitions */
 933:../system/include/cmsis/core_cm3.h **** #define DWT_EXCCNT_EXCCNT_Pos               0U                                         /*!< DWT EXC
 934:../system/include/cmsis/core_cm3.h **** #define DWT_EXCCNT_EXCCNT_Msk              (0xFFUL /*<< DWT_EXCCNT_EXCCNT_Pos*/)       /*!< DWT EXC
 935:../system/include/cmsis/core_cm3.h **** 
 936:../system/include/cmsis/core_cm3.h **** /* DWT Sleep Count Register Definitions */
 937:../system/include/cmsis/core_cm3.h **** #define DWT_SLEEPCNT_SLEEPCNT_Pos           0U                                         /*!< DWT SLE
 938:../system/include/cmsis/core_cm3.h **** #define DWT_SLEEPCNT_SLEEPCNT_Msk          (0xFFUL /*<< DWT_SLEEPCNT_SLEEPCNT_Pos*/)   /*!< DWT SLE
 939:../system/include/cmsis/core_cm3.h **** 
 940:../system/include/cmsis/core_cm3.h **** /* DWT LSU Count Register Definitions */
 941:../system/include/cmsis/core_cm3.h **** #define DWT_LSUCNT_LSUCNT_Pos               0U                                         /*!< DWT LSU
 942:../system/include/cmsis/core_cm3.h **** #define DWT_LSUCNT_LSUCNT_Msk              (0xFFUL /*<< DWT_LSUCNT_LSUCNT_Pos*/)       /*!< DWT LSU
 943:../system/include/cmsis/core_cm3.h **** 
 944:../system/include/cmsis/core_cm3.h **** /* DWT Folded-instruction Count Register Definitions */
 945:../system/include/cmsis/core_cm3.h **** #define DWT_FOLDCNT_FOLDCNT_Pos             0U                                         /*!< DWT FOL
 946:../system/include/cmsis/core_cm3.h **** #define DWT_FOLDCNT_FOLDCNT_Msk            (0xFFUL /*<< DWT_FOLDCNT_FOLDCNT_Pos*/)     /*!< DWT FOL
 947:../system/include/cmsis/core_cm3.h **** 
 948:../system/include/cmsis/core_cm3.h **** /* DWT Comparator Mask Register Definitions */
 949:../system/include/cmsis/core_cm3.h **** #define DWT_MASK_MASK_Pos                   0U                                         /*!< DWT MAS
 950:../system/include/cmsis/core_cm3.h **** #define DWT_MASK_MASK_Msk                  (0x1FUL /*<< DWT_MASK_MASK_Pos*/)           /*!< DWT MAS
 951:../system/include/cmsis/core_cm3.h **** 
 952:../system/include/cmsis/core_cm3.h **** /* DWT Comparator Function Register Definitions */
 953:../system/include/cmsis/core_cm3.h **** #define DWT_FUNCTION_MATCHED_Pos           24U                                         /*!< DWT FUN
 954:../system/include/cmsis/core_cm3.h **** #define DWT_FUNCTION_MATCHED_Msk           (0x1UL << DWT_FUNCTION_MATCHED_Pos)         /*!< DWT FUN
 955:../system/include/cmsis/core_cm3.h **** 
 956:../system/include/cmsis/core_cm3.h **** #define DWT_FUNCTION_DATAVADDR1_Pos        16U                                         /*!< DWT FUN
 957:../system/include/cmsis/core_cm3.h **** #define DWT_FUNCTION_DATAVADDR1_Msk        (0xFUL << DWT_FUNCTION_DATAVADDR1_Pos)      /*!< DWT FUN
 958:../system/include/cmsis/core_cm3.h **** 
 959:../system/include/cmsis/core_cm3.h **** #define DWT_FUNCTION_DATAVADDR0_Pos        12U                                         /*!< DWT FUN
 960:../system/include/cmsis/core_cm3.h **** #define DWT_FUNCTION_DATAVADDR0_Msk        (0xFUL << DWT_FUNCTION_DATAVADDR0_Pos)      /*!< DWT FUN
 961:../system/include/cmsis/core_cm3.h **** 
 962:../system/include/cmsis/core_cm3.h **** #define DWT_FUNCTION_DATAVSIZE_Pos         10U                                         /*!< DWT FUN
 963:../system/include/cmsis/core_cm3.h **** #define DWT_FUNCTION_DATAVSIZE_Msk         (0x3UL << DWT_FUNCTION_DATAVSIZE_Pos)       /*!< DWT FUN
 964:../system/include/cmsis/core_cm3.h **** 
 965:../system/include/cmsis/core_cm3.h **** #define DWT_FUNCTION_LNK1ENA_Pos            9U                                         /*!< DWT FUN
 966:../system/include/cmsis/core_cm3.h **** #define DWT_FUNCTION_LNK1ENA_Msk           (0x1UL << DWT_FUNCTION_LNK1ENA_Pos)         /*!< DWT FUN
 967:../system/include/cmsis/core_cm3.h **** 
 968:../system/include/cmsis/core_cm3.h **** #define DWT_FUNCTION_DATAVMATCH_Pos         8U                                         /*!< DWT FUN
 969:../system/include/cmsis/core_cm3.h **** #define DWT_FUNCTION_DATAVMATCH_Msk        (0x1UL << DWT_FUNCTION_DATAVMATCH_Pos)      /*!< DWT FUN
 970:../system/include/cmsis/core_cm3.h **** 
 971:../system/include/cmsis/core_cm3.h **** #define DWT_FUNCTION_CYCMATCH_Pos           7U                                         /*!< DWT FUN
 972:../system/include/cmsis/core_cm3.h **** #define DWT_FUNCTION_CYCMATCH_Msk          (0x1UL << DWT_FUNCTION_CYCMATCH_Pos)        /*!< DWT FUN
 973:../system/include/cmsis/core_cm3.h **** 
 974:../system/include/cmsis/core_cm3.h **** #define DWT_FUNCTION_EMITRANGE_Pos          5U                                         /*!< DWT FUN
 975:../system/include/cmsis/core_cm3.h **** #define DWT_FUNCTION_EMITRANGE_Msk         (0x1UL << DWT_FUNCTION_EMITRANGE_Pos)       /*!< DWT FUN
 976:../system/include/cmsis/core_cm3.h **** 
 977:../system/include/cmsis/core_cm3.h **** #define DWT_FUNCTION_FUNCTION_Pos           0U                                         /*!< DWT FUN
 978:../system/include/cmsis/core_cm3.h **** #define DWT_FUNCTION_FUNCTION_Msk          (0xFUL /*<< DWT_FUNCTION_FUNCTION_Pos*/)    /*!< DWT FUN
 979:../system/include/cmsis/core_cm3.h **** 
 980:../system/include/cmsis/core_cm3.h **** /*@}*/ /* end of group CMSIS_DWT */
 981:../system/include/cmsis/core_cm3.h **** 
 982:../system/include/cmsis/core_cm3.h **** 
 983:../system/include/cmsis/core_cm3.h **** /**
 984:../system/include/cmsis/core_cm3.h ****   \ingroup  CMSIS_core_register
 985:../system/include/cmsis/core_cm3.h ****   \defgroup CMSIS_TPI     Trace Port Interface (TPI)
 986:../system/include/cmsis/core_cm3.h ****   \brief    Type definitions for the Trace Port Interface (TPI)
 987:../system/include/cmsis/core_cm3.h ****   @{
 988:../system/include/cmsis/core_cm3.h ****  */
 989:../system/include/cmsis/core_cm3.h **** 
 990:../system/include/cmsis/core_cm3.h **** /**
 991:../system/include/cmsis/core_cm3.h ****   \brief  Structure type to access the Trace Port Interface Register (TPI).
 992:../system/include/cmsis/core_cm3.h ****  */
 993:../system/include/cmsis/core_cm3.h **** typedef struct
 994:../system/include/cmsis/core_cm3.h **** {
 995:../system/include/cmsis/core_cm3.h ****   __IOM uint32_t SSPSR;                  /*!< Offset: 0x000 (R/ )  Supported Parallel Port Size Reg
 996:../system/include/cmsis/core_cm3.h ****   __IOM uint32_t CSPSR;                  /*!< Offset: 0x004 (R/W)  Current Parallel Port Size Regis
 997:../system/include/cmsis/core_cm3.h ****         uint32_t RESERVED0[2U];
 998:../system/include/cmsis/core_cm3.h ****   __IOM uint32_t ACPR;                   /*!< Offset: 0x010 (R/W)  Asynchronous Clock Prescaler Reg
 999:../system/include/cmsis/core_cm3.h ****         uint32_t RESERVED1[55U];
1000:../system/include/cmsis/core_cm3.h ****   __IOM uint32_t SPPR;                   /*!< Offset: 0x0F0 (R/W)  Selected Pin Protocol Register *
1001:../system/include/cmsis/core_cm3.h ****         uint32_t RESERVED2[131U];
1002:../system/include/cmsis/core_cm3.h ****   __IM  uint32_t FFSR;                   /*!< Offset: 0x300 (R/ )  Formatter and Flush Status Regis
1003:../system/include/cmsis/core_cm3.h ****   __IOM uint32_t FFCR;                   /*!< Offset: 0x304 (R/W)  Formatter and Flush Control Regi
1004:../system/include/cmsis/core_cm3.h ****   __IM  uint32_t FSCR;                   /*!< Offset: 0x308 (R/ )  Formatter Synchronization Counte
1005:../system/include/cmsis/core_cm3.h ****         uint32_t RESERVED3[759U];
1006:../system/include/cmsis/core_cm3.h ****   __IM  uint32_t TRIGGER;                /*!< Offset: 0xEE8 (R/ )  TRIGGER */
1007:../system/include/cmsis/core_cm3.h ****   __IM  uint32_t FIFO0;                  /*!< Offset: 0xEEC (R/ )  Integration ETM Data */
1008:../system/include/cmsis/core_cm3.h ****   __IM  uint32_t ITATBCTR2;              /*!< Offset: 0xEF0 (R/ )  ITATBCTR2 */
1009:../system/include/cmsis/core_cm3.h ****         uint32_t RESERVED4[1U];
1010:../system/include/cmsis/core_cm3.h ****   __IM  uint32_t ITATBCTR0;              /*!< Offset: 0xEF8 (R/ )  ITATBCTR0 */
1011:../system/include/cmsis/core_cm3.h ****   __IM  uint32_t FIFO1;                  /*!< Offset: 0xEFC (R/ )  Integration ITM Data */
1012:../system/include/cmsis/core_cm3.h ****   __IOM uint32_t ITCTRL;                 /*!< Offset: 0xF00 (R/W)  Integration Mode Control */
1013:../system/include/cmsis/core_cm3.h ****         uint32_t RESERVED5[39U];
1014:../system/include/cmsis/core_cm3.h ****   __IOM uint32_t CLAIMSET;               /*!< Offset: 0xFA0 (R/W)  Claim tag set */
1015:../system/include/cmsis/core_cm3.h ****   __IOM uint32_t CLAIMCLR;               /*!< Offset: 0xFA4 (R/W)  Claim tag clear */
1016:../system/include/cmsis/core_cm3.h ****         uint32_t RESERVED7[8U];
1017:../system/include/cmsis/core_cm3.h ****   __IM  uint32_t DEVID;                  /*!< Offset: 0xFC8 (R/ )  TPIU_DEVID */
1018:../system/include/cmsis/core_cm3.h ****   __IM  uint32_t DEVTYPE;                /*!< Offset: 0xFCC (R/ )  TPIU_DEVTYPE */
1019:../system/include/cmsis/core_cm3.h **** } TPI_Type;
1020:../system/include/cmsis/core_cm3.h **** 
1021:../system/include/cmsis/core_cm3.h **** /* TPI Asynchronous Clock Prescaler Register Definitions */
1022:../system/include/cmsis/core_cm3.h **** #define TPI_ACPR_PRESCALER_Pos              0U                                         /*!< TPI ACP
1023:../system/include/cmsis/core_cm3.h **** #define TPI_ACPR_PRESCALER_Msk             (0x1FFFUL /*<< TPI_ACPR_PRESCALER_Pos*/)    /*!< TPI ACP
1024:../system/include/cmsis/core_cm3.h **** 
1025:../system/include/cmsis/core_cm3.h **** /* TPI Selected Pin Protocol Register Definitions */
1026:../system/include/cmsis/core_cm3.h **** #define TPI_SPPR_TXMODE_Pos                 0U                                         /*!< TPI SPP
1027:../system/include/cmsis/core_cm3.h **** #define TPI_SPPR_TXMODE_Msk                (0x3UL /*<< TPI_SPPR_TXMODE_Pos*/)          /*!< TPI SPP
1028:../system/include/cmsis/core_cm3.h **** 
1029:../system/include/cmsis/core_cm3.h **** /* TPI Formatter and Flush Status Register Definitions */
1030:../system/include/cmsis/core_cm3.h **** #define TPI_FFSR_FtNonStop_Pos              3U                                         /*!< TPI FFS
1031:../system/include/cmsis/core_cm3.h **** #define TPI_FFSR_FtNonStop_Msk             (0x1UL << TPI_FFSR_FtNonStop_Pos)           /*!< TPI FFS
1032:../system/include/cmsis/core_cm3.h **** 
1033:../system/include/cmsis/core_cm3.h **** #define TPI_FFSR_TCPresent_Pos              2U                                         /*!< TPI FFS
1034:../system/include/cmsis/core_cm3.h **** #define TPI_FFSR_TCPresent_Msk             (0x1UL << TPI_FFSR_TCPresent_Pos)           /*!< TPI FFS
1035:../system/include/cmsis/core_cm3.h **** 
1036:../system/include/cmsis/core_cm3.h **** #define TPI_FFSR_FtStopped_Pos              1U                                         /*!< TPI FFS
1037:../system/include/cmsis/core_cm3.h **** #define TPI_FFSR_FtStopped_Msk             (0x1UL << TPI_FFSR_FtStopped_Pos)           /*!< TPI FFS
1038:../system/include/cmsis/core_cm3.h **** 
1039:../system/include/cmsis/core_cm3.h **** #define TPI_FFSR_FlInProg_Pos               0U                                         /*!< TPI FFS
1040:../system/include/cmsis/core_cm3.h **** #define TPI_FFSR_FlInProg_Msk              (0x1UL /*<< TPI_FFSR_FlInProg_Pos*/)        /*!< TPI FFS
1041:../system/include/cmsis/core_cm3.h **** 
1042:../system/include/cmsis/core_cm3.h **** /* TPI Formatter and Flush Control Register Definitions */
1043:../system/include/cmsis/core_cm3.h **** #define TPI_FFCR_TrigIn_Pos                 8U                                         /*!< TPI FFC
1044:../system/include/cmsis/core_cm3.h **** #define TPI_FFCR_TrigIn_Msk                (0x1UL << TPI_FFCR_TrigIn_Pos)              /*!< TPI FFC
1045:../system/include/cmsis/core_cm3.h **** 
1046:../system/include/cmsis/core_cm3.h **** #define TPI_FFCR_EnFCont_Pos                1U                                         /*!< TPI FFC
1047:../system/include/cmsis/core_cm3.h **** #define TPI_FFCR_EnFCont_Msk               (0x1UL << TPI_FFCR_EnFCont_Pos)             /*!< TPI FFC
1048:../system/include/cmsis/core_cm3.h **** 
1049:../system/include/cmsis/core_cm3.h **** /* TPI TRIGGER Register Definitions */
1050:../system/include/cmsis/core_cm3.h **** #define TPI_TRIGGER_TRIGGER_Pos             0U                                         /*!< TPI TRI
1051:../system/include/cmsis/core_cm3.h **** #define TPI_TRIGGER_TRIGGER_Msk            (0x1UL /*<< TPI_TRIGGER_TRIGGER_Pos*/)      /*!< TPI TRI
1052:../system/include/cmsis/core_cm3.h **** 
1053:../system/include/cmsis/core_cm3.h **** /* TPI Integration ETM Data Register Definitions (FIFO0) */
1054:../system/include/cmsis/core_cm3.h **** #define TPI_FIFO0_ITM_ATVALID_Pos          29U                                         /*!< TPI FIF
1055:../system/include/cmsis/core_cm3.h **** #define TPI_FIFO0_ITM_ATVALID_Msk          (0x3UL << TPI_FIFO0_ITM_ATVALID_Pos)        /*!< TPI FIF
1056:../system/include/cmsis/core_cm3.h **** 
1057:../system/include/cmsis/core_cm3.h **** #define TPI_FIFO0_ITM_bytecount_Pos        27U                                         /*!< TPI FIF
1058:../system/include/cmsis/core_cm3.h **** #define TPI_FIFO0_ITM_bytecount_Msk        (0x3UL << TPI_FIFO0_ITM_bytecount_Pos)      /*!< TPI FIF
1059:../system/include/cmsis/core_cm3.h **** 
1060:../system/include/cmsis/core_cm3.h **** #define TPI_FIFO0_ETM_ATVALID_Pos          26U                                         /*!< TPI FIF
1061:../system/include/cmsis/core_cm3.h **** #define TPI_FIFO0_ETM_ATVALID_Msk          (0x3UL << TPI_FIFO0_ETM_ATVALID_Pos)        /*!< TPI FIF
1062:../system/include/cmsis/core_cm3.h **** 
1063:../system/include/cmsis/core_cm3.h **** #define TPI_FIFO0_ETM_bytecount_Pos        24U                                         /*!< TPI FIF
1064:../system/include/cmsis/core_cm3.h **** #define TPI_FIFO0_ETM_bytecount_Msk        (0x3UL << TPI_FIFO0_ETM_bytecount_Pos)      /*!< TPI FIF
1065:../system/include/cmsis/core_cm3.h **** 
1066:../system/include/cmsis/core_cm3.h **** #define TPI_FIFO0_ETM2_Pos                 16U                                         /*!< TPI FIF
1067:../system/include/cmsis/core_cm3.h **** #define TPI_FIFO0_ETM2_Msk                 (0xFFUL << TPI_FIFO0_ETM2_Pos)              /*!< TPI FIF
1068:../system/include/cmsis/core_cm3.h **** 
1069:../system/include/cmsis/core_cm3.h **** #define TPI_FIFO0_ETM1_Pos                  8U                                         /*!< TPI FIF
1070:../system/include/cmsis/core_cm3.h **** #define TPI_FIFO0_ETM1_Msk                 (0xFFUL << TPI_FIFO0_ETM1_Pos)              /*!< TPI FIF
1071:../system/include/cmsis/core_cm3.h **** 
1072:../system/include/cmsis/core_cm3.h **** #define TPI_FIFO0_ETM0_Pos                  0U                                         /*!< TPI FIF
1073:../system/include/cmsis/core_cm3.h **** #define TPI_FIFO0_ETM0_Msk                 (0xFFUL /*<< TPI_FIFO0_ETM0_Pos*/)          /*!< TPI FIF
1074:../system/include/cmsis/core_cm3.h **** 
1075:../system/include/cmsis/core_cm3.h **** /* TPI ITATBCTR2 Register Definitions */
1076:../system/include/cmsis/core_cm3.h **** #define TPI_ITATBCTR2_ATREADY_Pos           0U                                         /*!< TPI ITA
1077:../system/include/cmsis/core_cm3.h **** #define TPI_ITATBCTR2_ATREADY_Msk          (0x1UL /*<< TPI_ITATBCTR2_ATREADY_Pos*/)    /*!< TPI ITA
1078:../system/include/cmsis/core_cm3.h **** 
1079:../system/include/cmsis/core_cm3.h **** /* TPI Integration ITM Data Register Definitions (FIFO1) */
1080:../system/include/cmsis/core_cm3.h **** #define TPI_FIFO1_ITM_ATVALID_Pos          29U                                         /*!< TPI FIF
1081:../system/include/cmsis/core_cm3.h **** #define TPI_FIFO1_ITM_ATVALID_Msk          (0x3UL << TPI_FIFO1_ITM_ATVALID_Pos)        /*!< TPI FIF
1082:../system/include/cmsis/core_cm3.h **** 
1083:../system/include/cmsis/core_cm3.h **** #define TPI_FIFO1_ITM_bytecount_Pos        27U                                         /*!< TPI FIF
1084:../system/include/cmsis/core_cm3.h **** #define TPI_FIFO1_ITM_bytecount_Msk        (0x3UL << TPI_FIFO1_ITM_bytecount_Pos)      /*!< TPI FIF
1085:../system/include/cmsis/core_cm3.h **** 
1086:../system/include/cmsis/core_cm3.h **** #define TPI_FIFO1_ETM_ATVALID_Pos          26U                                         /*!< TPI FIF
1087:../system/include/cmsis/core_cm3.h **** #define TPI_FIFO1_ETM_ATVALID_Msk          (0x3UL << TPI_FIFO1_ETM_ATVALID_Pos)        /*!< TPI FIF
1088:../system/include/cmsis/core_cm3.h **** 
1089:../system/include/cmsis/core_cm3.h **** #define TPI_FIFO1_ETM_bytecount_Pos        24U                                         /*!< TPI FIF
1090:../system/include/cmsis/core_cm3.h **** #define TPI_FIFO1_ETM_bytecount_Msk        (0x3UL << TPI_FIFO1_ETM_bytecount_Pos)      /*!< TPI FIF
1091:../system/include/cmsis/core_cm3.h **** 
1092:../system/include/cmsis/core_cm3.h **** #define TPI_FIFO1_ITM2_Pos                 16U                                         /*!< TPI FIF
1093:../system/include/cmsis/core_cm3.h **** #define TPI_FIFO1_ITM2_Msk                 (0xFFUL << TPI_FIFO1_ITM2_Pos)              /*!< TPI FIF
1094:../system/include/cmsis/core_cm3.h **** 
1095:../system/include/cmsis/core_cm3.h **** #define TPI_FIFO1_ITM1_Pos                  8U                                         /*!< TPI FIF
1096:../system/include/cmsis/core_cm3.h **** #define TPI_FIFO1_ITM1_Msk                 (0xFFUL << TPI_FIFO1_ITM1_Pos)              /*!< TPI FIF
1097:../system/include/cmsis/core_cm3.h **** 
1098:../system/include/cmsis/core_cm3.h **** #define TPI_FIFO1_ITM0_Pos                  0U                                         /*!< TPI FIF
1099:../system/include/cmsis/core_cm3.h **** #define TPI_FIFO1_ITM0_Msk                 (0xFFUL /*<< TPI_FIFO1_ITM0_Pos*/)          /*!< TPI FIF
1100:../system/include/cmsis/core_cm3.h **** 
1101:../system/include/cmsis/core_cm3.h **** /* TPI ITATBCTR0 Register Definitions */
1102:../system/include/cmsis/core_cm3.h **** #define TPI_ITATBCTR0_ATREADY_Pos           0U                                         /*!< TPI ITA
1103:../system/include/cmsis/core_cm3.h **** #define TPI_ITATBCTR0_ATREADY_Msk          (0x1UL /*<< TPI_ITATBCTR0_ATREADY_Pos*/)    /*!< TPI ITA
1104:../system/include/cmsis/core_cm3.h **** 
1105:../system/include/cmsis/core_cm3.h **** /* TPI Integration Mode Control Register Definitions */
1106:../system/include/cmsis/core_cm3.h **** #define TPI_ITCTRL_Mode_Pos                 0U                                         /*!< TPI ITC
1107:../system/include/cmsis/core_cm3.h **** #define TPI_ITCTRL_Mode_Msk                (0x1UL /*<< TPI_ITCTRL_Mode_Pos*/)          /*!< TPI ITC
1108:../system/include/cmsis/core_cm3.h **** 
1109:../system/include/cmsis/core_cm3.h **** /* TPI DEVID Register Definitions */
1110:../system/include/cmsis/core_cm3.h **** #define TPI_DEVID_NRZVALID_Pos             11U                                         /*!< TPI DEV
1111:../system/include/cmsis/core_cm3.h **** #define TPI_DEVID_NRZVALID_Msk             (0x1UL << TPI_DEVID_NRZVALID_Pos)           /*!< TPI DEV
1112:../system/include/cmsis/core_cm3.h **** 
1113:../system/include/cmsis/core_cm3.h **** #define TPI_DEVID_MANCVALID_Pos            10U                                         /*!< TPI DEV
1114:../system/include/cmsis/core_cm3.h **** #define TPI_DEVID_MANCVALID_Msk            (0x1UL << TPI_DEVID_MANCVALID_Pos)          /*!< TPI DEV
1115:../system/include/cmsis/core_cm3.h **** 
1116:../system/include/cmsis/core_cm3.h **** #define TPI_DEVID_PTINVALID_Pos             9U                                         /*!< TPI DEV
1117:../system/include/cmsis/core_cm3.h **** #define TPI_DEVID_PTINVALID_Msk            (0x1UL << TPI_DEVID_PTINVALID_Pos)          /*!< TPI DEV
1118:../system/include/cmsis/core_cm3.h **** 
1119:../system/include/cmsis/core_cm3.h **** #define TPI_DEVID_MinBufSz_Pos              6U                                         /*!< TPI DEV
1120:../system/include/cmsis/core_cm3.h **** #define TPI_DEVID_MinBufSz_Msk             (0x7UL << TPI_DEVID_MinBufSz_Pos)           /*!< TPI DEV
1121:../system/include/cmsis/core_cm3.h **** 
1122:../system/include/cmsis/core_cm3.h **** #define TPI_DEVID_AsynClkIn_Pos             5U                                         /*!< TPI DEV
1123:../system/include/cmsis/core_cm3.h **** #define TPI_DEVID_AsynClkIn_Msk            (0x1UL << TPI_DEVID_AsynClkIn_Pos)          /*!< TPI DEV
1124:../system/include/cmsis/core_cm3.h **** 
1125:../system/include/cmsis/core_cm3.h **** #define TPI_DEVID_NrTraceInput_Pos          0U                                         /*!< TPI DEV
1126:../system/include/cmsis/core_cm3.h **** #define TPI_DEVID_NrTraceInput_Msk         (0x1FUL /*<< TPI_DEVID_NrTraceInput_Pos*/)  /*!< TPI DEV
1127:../system/include/cmsis/core_cm3.h **** 
1128:../system/include/cmsis/core_cm3.h **** /* TPI DEVTYPE Register Definitions */
1129:../system/include/cmsis/core_cm3.h **** #define TPI_DEVTYPE_MajorType_Pos           4U                                         /*!< TPI DEV
1130:../system/include/cmsis/core_cm3.h **** #define TPI_DEVTYPE_MajorType_Msk          (0xFUL << TPI_DEVTYPE_MajorType_Pos)        /*!< TPI DEV
1131:../system/include/cmsis/core_cm3.h **** 
1132:../system/include/cmsis/core_cm3.h **** #define TPI_DEVTYPE_SubType_Pos             0U                                         /*!< TPI DEV
1133:../system/include/cmsis/core_cm3.h **** #define TPI_DEVTYPE_SubType_Msk            (0xFUL /*<< TPI_DEVTYPE_SubType_Pos*/)      /*!< TPI DEV
1134:../system/include/cmsis/core_cm3.h **** 
1135:../system/include/cmsis/core_cm3.h **** /*@}*/ /* end of group CMSIS_TPI */
1136:../system/include/cmsis/core_cm3.h **** 
1137:../system/include/cmsis/core_cm3.h **** 
1138:../system/include/cmsis/core_cm3.h **** #if (__MPU_PRESENT == 1U)
1139:../system/include/cmsis/core_cm3.h **** /**
1140:../system/include/cmsis/core_cm3.h ****   \ingroup  CMSIS_core_register
1141:../system/include/cmsis/core_cm3.h ****   \defgroup CMSIS_MPU     Memory Protection Unit (MPU)
1142:../system/include/cmsis/core_cm3.h ****   \brief    Type definitions for the Memory Protection Unit (MPU)
1143:../system/include/cmsis/core_cm3.h ****   @{
1144:../system/include/cmsis/core_cm3.h ****  */
1145:../system/include/cmsis/core_cm3.h **** 
1146:../system/include/cmsis/core_cm3.h **** /**
1147:../system/include/cmsis/core_cm3.h ****   \brief  Structure type to access the Memory Protection Unit (MPU).
1148:../system/include/cmsis/core_cm3.h ****  */
1149:../system/include/cmsis/core_cm3.h **** typedef struct
1150:../system/include/cmsis/core_cm3.h **** {
1151:../system/include/cmsis/core_cm3.h ****   __IM  uint32_t TYPE;                   /*!< Offset: 0x000 (R/ )  MPU Type Register */
1152:../system/include/cmsis/core_cm3.h ****   __IOM uint32_t CTRL;                   /*!< Offset: 0x004 (R/W)  MPU Control Register */
1153:../system/include/cmsis/core_cm3.h ****   __IOM uint32_t RNR;                    /*!< Offset: 0x008 (R/W)  MPU Region RNRber Register */
1154:../system/include/cmsis/core_cm3.h ****   __IOM uint32_t RBAR;                   /*!< Offset: 0x00C (R/W)  MPU Region Base Address Register
1155:../system/include/cmsis/core_cm3.h ****   __IOM uint32_t RASR;                   /*!< Offset: 0x010 (R/W)  MPU Region Attribute and Size Re
1156:../system/include/cmsis/core_cm3.h ****   __IOM uint32_t RBAR_A1;                /*!< Offset: 0x014 (R/W)  MPU Alias 1 Region Base Address 
1157:../system/include/cmsis/core_cm3.h ****   __IOM uint32_t RASR_A1;                /*!< Offset: 0x018 (R/W)  MPU Alias 1 Region Attribute and
1158:../system/include/cmsis/core_cm3.h ****   __IOM uint32_t RBAR_A2;                /*!< Offset: 0x01C (R/W)  MPU Alias 2 Region Base Address 
1159:../system/include/cmsis/core_cm3.h ****   __IOM uint32_t RASR_A2;                /*!< Offset: 0x020 (R/W)  MPU Alias 2 Region Attribute and
1160:../system/include/cmsis/core_cm3.h ****   __IOM uint32_t RBAR_A3;                /*!< Offset: 0x024 (R/W)  MPU Alias 3 Region Base Address 
1161:../system/include/cmsis/core_cm3.h ****   __IOM uint32_t RASR_A3;                /*!< Offset: 0x028 (R/W)  MPU Alias 3 Region Attribute and
1162:../system/include/cmsis/core_cm3.h **** } MPU_Type;
1163:../system/include/cmsis/core_cm3.h **** 
1164:../system/include/cmsis/core_cm3.h **** /* MPU Type Register Definitions */
1165:../system/include/cmsis/core_cm3.h **** #define MPU_TYPE_IREGION_Pos               16U                                            /*!< MPU 
1166:../system/include/cmsis/core_cm3.h **** #define MPU_TYPE_IREGION_Msk               (0xFFUL << MPU_TYPE_IREGION_Pos)               /*!< MPU 
1167:../system/include/cmsis/core_cm3.h **** 
1168:../system/include/cmsis/core_cm3.h **** #define MPU_TYPE_DREGION_Pos                8U                                            /*!< MPU 
1169:../system/include/cmsis/core_cm3.h **** #define MPU_TYPE_DREGION_Msk               (0xFFUL << MPU_TYPE_DREGION_Pos)               /*!< MPU 
1170:../system/include/cmsis/core_cm3.h **** 
1171:../system/include/cmsis/core_cm3.h **** #define MPU_TYPE_SEPARATE_Pos               0U                                            /*!< MPU 
1172:../system/include/cmsis/core_cm3.h **** #define MPU_TYPE_SEPARATE_Msk              (1UL /*<< MPU_TYPE_SEPARATE_Pos*/)             /*!< MPU 
1173:../system/include/cmsis/core_cm3.h **** 
1174:../system/include/cmsis/core_cm3.h **** /* MPU Control Register Definitions */
1175:../system/include/cmsis/core_cm3.h **** #define MPU_CTRL_PRIVDEFENA_Pos             2U                                            /*!< MPU 
1176:../system/include/cmsis/core_cm3.h **** #define MPU_CTRL_PRIVDEFENA_Msk            (1UL << MPU_CTRL_PRIVDEFENA_Pos)               /*!< MPU 
1177:../system/include/cmsis/core_cm3.h **** 
1178:../system/include/cmsis/core_cm3.h **** #define MPU_CTRL_HFNMIENA_Pos               1U                                            /*!< MPU 
1179:../system/include/cmsis/core_cm3.h **** #define MPU_CTRL_HFNMIENA_Msk              (1UL << MPU_CTRL_HFNMIENA_Pos)                 /*!< MPU 
1180:../system/include/cmsis/core_cm3.h **** 
1181:../system/include/cmsis/core_cm3.h **** #define MPU_CTRL_ENABLE_Pos                 0U                                            /*!< MPU 
1182:../system/include/cmsis/core_cm3.h **** #define MPU_CTRL_ENABLE_Msk                (1UL /*<< MPU_CTRL_ENABLE_Pos*/)               /*!< MPU 
1183:../system/include/cmsis/core_cm3.h **** 
1184:../system/include/cmsis/core_cm3.h **** /* MPU Region Number Register Definitions */
1185:../system/include/cmsis/core_cm3.h **** #define MPU_RNR_REGION_Pos                  0U                                            /*!< MPU 
1186:../system/include/cmsis/core_cm3.h **** #define MPU_RNR_REGION_Msk                 (0xFFUL /*<< MPU_RNR_REGION_Pos*/)             /*!< MPU 
1187:../system/include/cmsis/core_cm3.h **** 
1188:../system/include/cmsis/core_cm3.h **** /* MPU Region Base Address Register Definitions */
1189:../system/include/cmsis/core_cm3.h **** #define MPU_RBAR_ADDR_Pos                   5U                                            /*!< MPU 
1190:../system/include/cmsis/core_cm3.h **** #define MPU_RBAR_ADDR_Msk                  (0x7FFFFFFUL << MPU_RBAR_ADDR_Pos)             /*!< MPU 
1191:../system/include/cmsis/core_cm3.h **** 
1192:../system/include/cmsis/core_cm3.h **** #define MPU_RBAR_VALID_Pos                  4U                                            /*!< MPU 
1193:../system/include/cmsis/core_cm3.h **** #define MPU_RBAR_VALID_Msk                 (1UL << MPU_RBAR_VALID_Pos)                    /*!< MPU 
1194:../system/include/cmsis/core_cm3.h **** 
1195:../system/include/cmsis/core_cm3.h **** #define MPU_RBAR_REGION_Pos                 0U                                            /*!< MPU 
1196:../system/include/cmsis/core_cm3.h **** #define MPU_RBAR_REGION_Msk                (0xFUL /*<< MPU_RBAR_REGION_Pos*/)             /*!< MPU 
1197:../system/include/cmsis/core_cm3.h **** 
1198:../system/include/cmsis/core_cm3.h **** /* MPU Region Attribute and Size Register Definitions */
1199:../system/include/cmsis/core_cm3.h **** #define MPU_RASR_ATTRS_Pos                 16U                                            /*!< MPU 
1200:../system/include/cmsis/core_cm3.h **** #define MPU_RASR_ATTRS_Msk                 (0xFFFFUL << MPU_RASR_ATTRS_Pos)               /*!< MPU 
1201:../system/include/cmsis/core_cm3.h **** 
1202:../system/include/cmsis/core_cm3.h **** #define MPU_RASR_XN_Pos                    28U                                            /*!< MPU 
1203:../system/include/cmsis/core_cm3.h **** #define MPU_RASR_XN_Msk                    (1UL << MPU_RASR_XN_Pos)                       /*!< MPU 
1204:../system/include/cmsis/core_cm3.h **** 
1205:../system/include/cmsis/core_cm3.h **** #define MPU_RASR_AP_Pos                    24U                                            /*!< MPU 
1206:../system/include/cmsis/core_cm3.h **** #define MPU_RASR_AP_Msk                    (0x7UL << MPU_RASR_AP_Pos)                     /*!< MPU 
1207:../system/include/cmsis/core_cm3.h **** 
1208:../system/include/cmsis/core_cm3.h **** #define MPU_RASR_TEX_Pos                   19U                                            /*!< MPU 
1209:../system/include/cmsis/core_cm3.h **** #define MPU_RASR_TEX_Msk                   (0x7UL << MPU_RASR_TEX_Pos)                    /*!< MPU 
1210:../system/include/cmsis/core_cm3.h **** 
1211:../system/include/cmsis/core_cm3.h **** #define MPU_RASR_S_Pos                     18U                                            /*!< MPU 
1212:../system/include/cmsis/core_cm3.h **** #define MPU_RASR_S_Msk                     (1UL << MPU_RASR_S_Pos)                        /*!< MPU 
1213:../system/include/cmsis/core_cm3.h **** 
1214:../system/include/cmsis/core_cm3.h **** #define MPU_RASR_C_Pos                     17U                                            /*!< MPU 
1215:../system/include/cmsis/core_cm3.h **** #define MPU_RASR_C_Msk                     (1UL << MPU_RASR_C_Pos)                        /*!< MPU 
1216:../system/include/cmsis/core_cm3.h **** 
1217:../system/include/cmsis/core_cm3.h **** #define MPU_RASR_B_Pos                     16U                                            /*!< MPU 
1218:../system/include/cmsis/core_cm3.h **** #define MPU_RASR_B_Msk                     (1UL << MPU_RASR_B_Pos)                        /*!< MPU 
1219:../system/include/cmsis/core_cm3.h **** 
1220:../system/include/cmsis/core_cm3.h **** #define MPU_RASR_SRD_Pos                    8U                                            /*!< MPU 
1221:../system/include/cmsis/core_cm3.h **** #define MPU_RASR_SRD_Msk                   (0xFFUL << MPU_RASR_SRD_Pos)                   /*!< MPU 
1222:../system/include/cmsis/core_cm3.h **** 
1223:../system/include/cmsis/core_cm3.h **** #define MPU_RASR_SIZE_Pos                   1U                                            /*!< MPU 
1224:../system/include/cmsis/core_cm3.h **** #define MPU_RASR_SIZE_Msk                  (0x1FUL << MPU_RASR_SIZE_Pos)                  /*!< MPU 
1225:../system/include/cmsis/core_cm3.h **** 
1226:../system/include/cmsis/core_cm3.h **** #define MPU_RASR_ENABLE_Pos                 0U                                            /*!< MPU 
1227:../system/include/cmsis/core_cm3.h **** #define MPU_RASR_ENABLE_Msk                (1UL /*<< MPU_RASR_ENABLE_Pos*/)               /*!< MPU 
1228:../system/include/cmsis/core_cm3.h **** 
1229:../system/include/cmsis/core_cm3.h **** /*@} end of group CMSIS_MPU */
1230:../system/include/cmsis/core_cm3.h **** #endif
1231:../system/include/cmsis/core_cm3.h **** 
1232:../system/include/cmsis/core_cm3.h **** 
1233:../system/include/cmsis/core_cm3.h **** /**
1234:../system/include/cmsis/core_cm3.h ****   \ingroup  CMSIS_core_register
1235:../system/include/cmsis/core_cm3.h ****   \defgroup CMSIS_CoreDebug       Core Debug Registers (CoreDebug)
1236:../system/include/cmsis/core_cm3.h ****   \brief    Type definitions for the Core Debug Registers
1237:../system/include/cmsis/core_cm3.h ****   @{
1238:../system/include/cmsis/core_cm3.h ****  */
1239:../system/include/cmsis/core_cm3.h **** 
1240:../system/include/cmsis/core_cm3.h **** /**
1241:../system/include/cmsis/core_cm3.h ****   \brief  Structure type to access the Core Debug Register (CoreDebug).
1242:../system/include/cmsis/core_cm3.h ****  */
1243:../system/include/cmsis/core_cm3.h **** typedef struct
1244:../system/include/cmsis/core_cm3.h **** {
1245:../system/include/cmsis/core_cm3.h ****   __IOM uint32_t DHCSR;                  /*!< Offset: 0x000 (R/W)  Debug Halting Control and Status
1246:../system/include/cmsis/core_cm3.h ****   __OM  uint32_t DCRSR;                  /*!< Offset: 0x004 ( /W)  Debug Core Register Selector Reg
1247:../system/include/cmsis/core_cm3.h ****   __IOM uint32_t DCRDR;                  /*!< Offset: 0x008 (R/W)  Debug Core Register Data Registe
1248:../system/include/cmsis/core_cm3.h ****   __IOM uint32_t DEMCR;                  /*!< Offset: 0x00C (R/W)  Debug Exception and Monitor Cont
1249:../system/include/cmsis/core_cm3.h **** } CoreDebug_Type;
1250:../system/include/cmsis/core_cm3.h **** 
1251:../system/include/cmsis/core_cm3.h **** /* Debug Halting Control and Status Register Definitions */
1252:../system/include/cmsis/core_cm3.h **** #define CoreDebug_DHCSR_DBGKEY_Pos         16U                                            /*!< Core
1253:../system/include/cmsis/core_cm3.h **** #define CoreDebug_DHCSR_DBGKEY_Msk         (0xFFFFUL << CoreDebug_DHCSR_DBGKEY_Pos)       /*!< Core
1254:../system/include/cmsis/core_cm3.h **** 
1255:../system/include/cmsis/core_cm3.h **** #define CoreDebug_DHCSR_S_RESET_ST_Pos     25U                                            /*!< Core
1256:../system/include/cmsis/core_cm3.h **** #define CoreDebug_DHCSR_S_RESET_ST_Msk     (1UL << CoreDebug_DHCSR_S_RESET_ST_Pos)        /*!< Core
1257:../system/include/cmsis/core_cm3.h **** 
1258:../system/include/cmsis/core_cm3.h **** #define CoreDebug_DHCSR_S_RETIRE_ST_Pos    24U                                            /*!< Core
1259:../system/include/cmsis/core_cm3.h **** #define CoreDebug_DHCSR_S_RETIRE_ST_Msk    (1UL << CoreDebug_DHCSR_S_RETIRE_ST_Pos)       /*!< Core
1260:../system/include/cmsis/core_cm3.h **** 
1261:../system/include/cmsis/core_cm3.h **** #define CoreDebug_DHCSR_S_LOCKUP_Pos       19U                                            /*!< Core
1262:../system/include/cmsis/core_cm3.h **** #define CoreDebug_DHCSR_S_LOCKUP_Msk       (1UL << CoreDebug_DHCSR_S_LOCKUP_Pos)          /*!< Core
1263:../system/include/cmsis/core_cm3.h **** 
1264:../system/include/cmsis/core_cm3.h **** #define CoreDebug_DHCSR_S_SLEEP_Pos        18U                                            /*!< Core
1265:../system/include/cmsis/core_cm3.h **** #define CoreDebug_DHCSR_S_SLEEP_Msk        (1UL << CoreDebug_DHCSR_S_SLEEP_Pos)           /*!< Core
1266:../system/include/cmsis/core_cm3.h **** 
1267:../system/include/cmsis/core_cm3.h **** #define CoreDebug_DHCSR_S_HALT_Pos         17U                                            /*!< Core
1268:../system/include/cmsis/core_cm3.h **** #define CoreDebug_DHCSR_S_HALT_Msk         (1UL << CoreDebug_DHCSR_S_HALT_Pos)            /*!< Core
1269:../system/include/cmsis/core_cm3.h **** 
1270:../system/include/cmsis/core_cm3.h **** #define CoreDebug_DHCSR_S_REGRDY_Pos       16U                                            /*!< Core
1271:../system/include/cmsis/core_cm3.h **** #define CoreDebug_DHCSR_S_REGRDY_Msk       (1UL << CoreDebug_DHCSR_S_REGRDY_Pos)          /*!< Core
1272:../system/include/cmsis/core_cm3.h **** 
1273:../system/include/cmsis/core_cm3.h **** #define CoreDebug_DHCSR_C_SNAPSTALL_Pos     5U                                            /*!< Core
1274:../system/include/cmsis/core_cm3.h **** #define CoreDebug_DHCSR_C_SNAPSTALL_Msk    (1UL << CoreDebug_DHCSR_C_SNAPSTALL_Pos)       /*!< Core
1275:../system/include/cmsis/core_cm3.h **** 
1276:../system/include/cmsis/core_cm3.h **** #define CoreDebug_DHCSR_C_MASKINTS_Pos      3U                                            /*!< Core
1277:../system/include/cmsis/core_cm3.h **** #define CoreDebug_DHCSR_C_MASKINTS_Msk     (1UL << CoreDebug_DHCSR_C_MASKINTS_Pos)        /*!< Core
1278:../system/include/cmsis/core_cm3.h **** 
1279:../system/include/cmsis/core_cm3.h **** #define CoreDebug_DHCSR_C_STEP_Pos          2U                                            /*!< Core
1280:../system/include/cmsis/core_cm3.h **** #define CoreDebug_DHCSR_C_STEP_Msk         (1UL << CoreDebug_DHCSR_C_STEP_Pos)            /*!< Core
1281:../system/include/cmsis/core_cm3.h **** 
1282:../system/include/cmsis/core_cm3.h **** #define CoreDebug_DHCSR_C_HALT_Pos          1U                                            /*!< Core
1283:../system/include/cmsis/core_cm3.h **** #define CoreDebug_DHCSR_C_HALT_Msk         (1UL << CoreDebug_DHCSR_C_HALT_Pos)            /*!< Core
1284:../system/include/cmsis/core_cm3.h **** 
1285:../system/include/cmsis/core_cm3.h **** #define CoreDebug_DHCSR_C_DEBUGEN_Pos       0U                                            /*!< Core
1286:../system/include/cmsis/core_cm3.h **** #define CoreDebug_DHCSR_C_DEBUGEN_Msk      (1UL /*<< CoreDebug_DHCSR_C_DEBUGEN_Pos*/)     /*!< Core
1287:../system/include/cmsis/core_cm3.h **** 
1288:../system/include/cmsis/core_cm3.h **** /* Debug Core Register Selector Register Definitions */
1289:../system/include/cmsis/core_cm3.h **** #define CoreDebug_DCRSR_REGWnR_Pos         16U                                            /*!< Core
1290:../system/include/cmsis/core_cm3.h **** #define CoreDebug_DCRSR_REGWnR_Msk         (1UL << CoreDebug_DCRSR_REGWnR_Pos)            /*!< Core
1291:../system/include/cmsis/core_cm3.h **** 
1292:../system/include/cmsis/core_cm3.h **** #define CoreDebug_DCRSR_REGSEL_Pos          0U                                            /*!< Core
1293:../system/include/cmsis/core_cm3.h **** #define CoreDebug_DCRSR_REGSEL_Msk         (0x1FUL /*<< CoreDebug_DCRSR_REGSEL_Pos*/)     /*!< Core
1294:../system/include/cmsis/core_cm3.h **** 
1295:../system/include/cmsis/core_cm3.h **** /* Debug Exception and Monitor Control Register Definitions */
1296:../system/include/cmsis/core_cm3.h **** #define CoreDebug_DEMCR_TRCENA_Pos         24U                                            /*!< Core
1297:../system/include/cmsis/core_cm3.h **** #define CoreDebug_DEMCR_TRCENA_Msk         (1UL << CoreDebug_DEMCR_TRCENA_Pos)            /*!< Core
1298:../system/include/cmsis/core_cm3.h **** 
1299:../system/include/cmsis/core_cm3.h **** #define CoreDebug_DEMCR_MON_REQ_Pos        19U                                            /*!< Core
1300:../system/include/cmsis/core_cm3.h **** #define CoreDebug_DEMCR_MON_REQ_Msk        (1UL << CoreDebug_DEMCR_MON_REQ_Pos)           /*!< Core
1301:../system/include/cmsis/core_cm3.h **** 
1302:../system/include/cmsis/core_cm3.h **** #define CoreDebug_DEMCR_MON_STEP_Pos       18U                                            /*!< Core
1303:../system/include/cmsis/core_cm3.h **** #define CoreDebug_DEMCR_MON_STEP_Msk       (1UL << CoreDebug_DEMCR_MON_STEP_Pos)          /*!< Core
1304:../system/include/cmsis/core_cm3.h **** 
1305:../system/include/cmsis/core_cm3.h **** #define CoreDebug_DEMCR_MON_PEND_Pos       17U                                            /*!< Core
1306:../system/include/cmsis/core_cm3.h **** #define CoreDebug_DEMCR_MON_PEND_Msk       (1UL << CoreDebug_DEMCR_MON_PEND_Pos)          /*!< Core
1307:../system/include/cmsis/core_cm3.h **** 
1308:../system/include/cmsis/core_cm3.h **** #define CoreDebug_DEMCR_MON_EN_Pos         16U                                            /*!< Core
1309:../system/include/cmsis/core_cm3.h **** #define CoreDebug_DEMCR_MON_EN_Msk         (1UL << CoreDebug_DEMCR_MON_EN_Pos)            /*!< Core
1310:../system/include/cmsis/core_cm3.h **** 
1311:../system/include/cmsis/core_cm3.h **** #define CoreDebug_DEMCR_VC_HARDERR_Pos     10U                                            /*!< Core
1312:../system/include/cmsis/core_cm3.h **** #define CoreDebug_DEMCR_VC_HARDERR_Msk     (1UL << CoreDebug_DEMCR_VC_HARDERR_Pos)        /*!< Core
1313:../system/include/cmsis/core_cm3.h **** 
1314:../system/include/cmsis/core_cm3.h **** #define CoreDebug_DEMCR_VC_INTERR_Pos       9U                                            /*!< Core
1315:../system/include/cmsis/core_cm3.h **** #define CoreDebug_DEMCR_VC_INTERR_Msk      (1UL << CoreDebug_DEMCR_VC_INTERR_Pos)         /*!< Core
1316:../system/include/cmsis/core_cm3.h **** 
1317:../system/include/cmsis/core_cm3.h **** #define CoreDebug_DEMCR_VC_BUSERR_Pos       8U                                            /*!< Core
1318:../system/include/cmsis/core_cm3.h **** #define CoreDebug_DEMCR_VC_BUSERR_Msk      (1UL << CoreDebug_DEMCR_VC_BUSERR_Pos)         /*!< Core
1319:../system/include/cmsis/core_cm3.h **** 
1320:../system/include/cmsis/core_cm3.h **** #define CoreDebug_DEMCR_VC_STATERR_Pos      7U                                            /*!< Core
1321:../system/include/cmsis/core_cm3.h **** #define CoreDebug_DEMCR_VC_STATERR_Msk     (1UL << CoreDebug_DEMCR_VC_STATERR_Pos)        /*!< Core
1322:../system/include/cmsis/core_cm3.h **** 
1323:../system/include/cmsis/core_cm3.h **** #define CoreDebug_DEMCR_VC_CHKERR_Pos       6U                                            /*!< Core
1324:../system/include/cmsis/core_cm3.h **** #define CoreDebug_DEMCR_VC_CHKERR_Msk      (1UL << CoreDebug_DEMCR_VC_CHKERR_Pos)         /*!< Core
1325:../system/include/cmsis/core_cm3.h **** 
1326:../system/include/cmsis/core_cm3.h **** #define CoreDebug_DEMCR_VC_NOCPERR_Pos      5U                                            /*!< Core
1327:../system/include/cmsis/core_cm3.h **** #define CoreDebug_DEMCR_VC_NOCPERR_Msk     (1UL << CoreDebug_DEMCR_VC_NOCPERR_Pos)        /*!< Core
1328:../system/include/cmsis/core_cm3.h **** 
1329:../system/include/cmsis/core_cm3.h **** #define CoreDebug_DEMCR_VC_MMERR_Pos        4U                                            /*!< Core
1330:../system/include/cmsis/core_cm3.h **** #define CoreDebug_DEMCR_VC_MMERR_Msk       (1UL << CoreDebug_DEMCR_VC_MMERR_Pos)          /*!< Core
1331:../system/include/cmsis/core_cm3.h **** 
1332:../system/include/cmsis/core_cm3.h **** #define CoreDebug_DEMCR_VC_CORERESET_Pos    0U                                            /*!< Core
1333:../system/include/cmsis/core_cm3.h **** #define CoreDebug_DEMCR_VC_CORERESET_Msk   (1UL /*<< CoreDebug_DEMCR_VC_CORERESET_Pos*/)  /*!< Core
1334:../system/include/cmsis/core_cm3.h **** 
1335:../system/include/cmsis/core_cm3.h **** /*@} end of group CMSIS_CoreDebug */
1336:../system/include/cmsis/core_cm3.h **** 
1337:../system/include/cmsis/core_cm3.h **** 
1338:../system/include/cmsis/core_cm3.h **** /**
1339:../system/include/cmsis/core_cm3.h ****   \ingroup    CMSIS_core_register
1340:../system/include/cmsis/core_cm3.h ****   \defgroup   CMSIS_core_bitfield     Core register bit field macros
1341:../system/include/cmsis/core_cm3.h ****   \brief      Macros for use with bit field definitions (xxx_Pos, xxx_Msk).
1342:../system/include/cmsis/core_cm3.h ****   @{
1343:../system/include/cmsis/core_cm3.h ****  */
1344:../system/include/cmsis/core_cm3.h **** 
1345:../system/include/cmsis/core_cm3.h **** /**
1346:../system/include/cmsis/core_cm3.h ****   \brief   Mask and shift a bit field value for use in a register bit range.
1347:../system/include/cmsis/core_cm3.h ****   \param[in] field  Name of the register bit field.
1348:../system/include/cmsis/core_cm3.h ****   \param[in] value  Value of the bit field.
1349:../system/include/cmsis/core_cm3.h ****   \return           Masked and shifted value.
1350:../system/include/cmsis/core_cm3.h **** */
1351:../system/include/cmsis/core_cm3.h **** #define _VAL2FLD(field, value)    ((value << field ## _Pos) & field ## _Msk)
1352:../system/include/cmsis/core_cm3.h **** 
1353:../system/include/cmsis/core_cm3.h **** /**
1354:../system/include/cmsis/core_cm3.h ****   \brief     Mask and shift a register value to extract a bit filed value.
1355:../system/include/cmsis/core_cm3.h ****   \param[in] field  Name of the register bit field.
1356:../system/include/cmsis/core_cm3.h ****   \param[in] value  Value of register.
1357:../system/include/cmsis/core_cm3.h ****   \return           Masked and shifted bit field value.
1358:../system/include/cmsis/core_cm3.h **** */
1359:../system/include/cmsis/core_cm3.h **** #define _FLD2VAL(field, value)    ((value & field ## _Msk) >> field ## _Pos)
1360:../system/include/cmsis/core_cm3.h **** 
1361:../system/include/cmsis/core_cm3.h **** /*@} end of group CMSIS_core_bitfield */
1362:../system/include/cmsis/core_cm3.h **** 
1363:../system/include/cmsis/core_cm3.h **** 
1364:../system/include/cmsis/core_cm3.h **** /**
1365:../system/include/cmsis/core_cm3.h ****   \ingroup    CMSIS_core_register
1366:../system/include/cmsis/core_cm3.h ****   \defgroup   CMSIS_core_base     Core Definitions
1367:../system/include/cmsis/core_cm3.h ****   \brief      Definitions for base addresses, unions, and structures.
1368:../system/include/cmsis/core_cm3.h ****   @{
1369:../system/include/cmsis/core_cm3.h ****  */
1370:../system/include/cmsis/core_cm3.h **** 
1371:../system/include/cmsis/core_cm3.h **** /* Memory mapping of Cortex-M3 Hardware */
1372:../system/include/cmsis/core_cm3.h **** #define SCS_BASE            (0xE000E000UL)                            /*!< System Control Space Bas
1373:../system/include/cmsis/core_cm3.h **** #define ITM_BASE            (0xE0000000UL)                            /*!< ITM Base Address */
1374:../system/include/cmsis/core_cm3.h **** #define DWT_BASE            (0xE0001000UL)                            /*!< DWT Base Address */
1375:../system/include/cmsis/core_cm3.h **** #define TPI_BASE            (0xE0040000UL)                            /*!< TPI Base Address */
1376:../system/include/cmsis/core_cm3.h **** #define CoreDebug_BASE      (0xE000EDF0UL)                            /*!< Core Debug Base Address 
1377:../system/include/cmsis/core_cm3.h **** #define SysTick_BASE        (SCS_BASE +  0x0010UL)                    /*!< SysTick Base Address */
1378:../system/include/cmsis/core_cm3.h **** #define NVIC_BASE           (SCS_BASE +  0x0100UL)                    /*!< NVIC Base Address */
1379:../system/include/cmsis/core_cm3.h **** #define SCB_BASE            (SCS_BASE +  0x0D00UL)                    /*!< System Control Block Bas
1380:../system/include/cmsis/core_cm3.h **** 
1381:../system/include/cmsis/core_cm3.h **** #define SCnSCB              ((SCnSCB_Type    *)     SCS_BASE      )   /*!< System control Register 
1382:../system/include/cmsis/core_cm3.h **** #define SCB                 ((SCB_Type       *)     SCB_BASE      )   /*!< SCB configuration struct
1383:../system/include/cmsis/core_cm3.h **** #define SysTick             ((SysTick_Type   *)     SysTick_BASE  )   /*!< SysTick configuration st
1384:../system/include/cmsis/core_cm3.h **** #define NVIC                ((NVIC_Type      *)     NVIC_BASE     )   /*!< NVIC configuration struc
1385:../system/include/cmsis/core_cm3.h **** #define ITM                 ((ITM_Type       *)     ITM_BASE      )   /*!< ITM configuration struct
1386:../system/include/cmsis/core_cm3.h **** #define DWT                 ((DWT_Type       *)     DWT_BASE      )   /*!< DWT configuration struct
1387:../system/include/cmsis/core_cm3.h **** #define TPI                 ((TPI_Type       *)     TPI_BASE      )   /*!< TPI configuration struct
1388:../system/include/cmsis/core_cm3.h **** #define CoreDebug           ((CoreDebug_Type *)     CoreDebug_BASE)   /*!< Core Debug configuration
1389:../system/include/cmsis/core_cm3.h **** 
1390:../system/include/cmsis/core_cm3.h **** #if (__MPU_PRESENT == 1U)
1391:../system/include/cmsis/core_cm3.h ****   #define MPU_BASE          (SCS_BASE +  0x0D90UL)                    /*!< Memory Protection Unit *
1392:../system/include/cmsis/core_cm3.h ****   #define MPU               ((MPU_Type       *)     MPU_BASE      )   /*!< Memory Protection Unit *
1393:../system/include/cmsis/core_cm3.h **** #endif
1394:../system/include/cmsis/core_cm3.h **** 
1395:../system/include/cmsis/core_cm3.h **** /*@} */
1396:../system/include/cmsis/core_cm3.h **** 
1397:../system/include/cmsis/core_cm3.h **** 
1398:../system/include/cmsis/core_cm3.h **** 
1399:../system/include/cmsis/core_cm3.h **** /*******************************************************************************
1400:../system/include/cmsis/core_cm3.h ****  *                Hardware Abstraction Layer
1401:../system/include/cmsis/core_cm3.h ****   Core Function Interface contains:
1402:../system/include/cmsis/core_cm3.h ****   - Core NVIC Functions
1403:../system/include/cmsis/core_cm3.h ****   - Core SysTick Functions
1404:../system/include/cmsis/core_cm3.h ****   - Core Debug Functions
1405:../system/include/cmsis/core_cm3.h ****   - Core Register Access Functions
1406:../system/include/cmsis/core_cm3.h ****  ******************************************************************************/
1407:../system/include/cmsis/core_cm3.h **** /**
1408:../system/include/cmsis/core_cm3.h ****   \defgroup CMSIS_Core_FunctionInterface Functions and Instructions Reference
1409:../system/include/cmsis/core_cm3.h **** */
1410:../system/include/cmsis/core_cm3.h **** 
1411:../system/include/cmsis/core_cm3.h **** 
1412:../system/include/cmsis/core_cm3.h **** 
1413:../system/include/cmsis/core_cm3.h **** /* ##########################   NVIC functions  #################################### */
1414:../system/include/cmsis/core_cm3.h **** /**
1415:../system/include/cmsis/core_cm3.h ****   \ingroup  CMSIS_Core_FunctionInterface
1416:../system/include/cmsis/core_cm3.h ****   \defgroup CMSIS_Core_NVICFunctions NVIC Functions
1417:../system/include/cmsis/core_cm3.h ****   \brief    Functions that manage interrupts and exceptions via the NVIC.
1418:../system/include/cmsis/core_cm3.h ****   @{
1419:../system/include/cmsis/core_cm3.h ****  */
1420:../system/include/cmsis/core_cm3.h **** 
1421:../system/include/cmsis/core_cm3.h **** /**
1422:../system/include/cmsis/core_cm3.h ****   \brief   Set Priority Grouping
1423:../system/include/cmsis/core_cm3.h ****   \details Sets the priority grouping field using the required unlock sequence.
1424:../system/include/cmsis/core_cm3.h ****            The parameter PriorityGroup is assigned to the field SCB->AIRCR [10:8] PRIGROUP field.
1425:../system/include/cmsis/core_cm3.h ****            Only values from 0..7 are used.
1426:../system/include/cmsis/core_cm3.h ****            In case of a conflict between priority grouping and available
1427:../system/include/cmsis/core_cm3.h ****            priority bits (__NVIC_PRIO_BITS), the smallest possible priority group is set.
1428:../system/include/cmsis/core_cm3.h ****   \param [in]      PriorityGroup  Priority grouping field.
1429:../system/include/cmsis/core_cm3.h ****  */
1430:../system/include/cmsis/core_cm3.h **** __STATIC_INLINE void NVIC_SetPriorityGrouping(uint32_t PriorityGroup)
1431:../system/include/cmsis/core_cm3.h **** {
1432:../system/include/cmsis/core_cm3.h ****   uint32_t reg_value;
1433:../system/include/cmsis/core_cm3.h ****   uint32_t PriorityGroupTmp = (PriorityGroup & (uint32_t)0x07UL);             /* only values 0..7 a
1434:../system/include/cmsis/core_cm3.h **** 
1435:../system/include/cmsis/core_cm3.h ****   reg_value  =  SCB->AIRCR;                                                   /* read old register 
1436:../system/include/cmsis/core_cm3.h ****   reg_value &= ~((uint32_t)(SCB_AIRCR_VECTKEY_Msk | SCB_AIRCR_PRIGROUP_Msk)); /* clear bits to chan
1437:../system/include/cmsis/core_cm3.h ****   reg_value  =  (reg_value                                   |
1438:../system/include/cmsis/core_cm3.h ****                 ((uint32_t)0x5FAUL << SCB_AIRCR_VECTKEY_Pos) |
1439:../system/include/cmsis/core_cm3.h ****                 (PriorityGroupTmp << 8U)                      );              /* Insert write key a
1440:../system/include/cmsis/core_cm3.h ****   SCB->AIRCR =  reg_value;
1441:../system/include/cmsis/core_cm3.h **** }
1442:../system/include/cmsis/core_cm3.h **** 
1443:../system/include/cmsis/core_cm3.h **** 
1444:../system/include/cmsis/core_cm3.h **** /**
1445:../system/include/cmsis/core_cm3.h ****   \brief   Get Priority Grouping
1446:../system/include/cmsis/core_cm3.h ****   \details Reads the priority grouping field from the NVIC Interrupt Controller.
1447:../system/include/cmsis/core_cm3.h ****   \return                Priority grouping field (SCB->AIRCR [10:8] PRIGROUP field).
1448:../system/include/cmsis/core_cm3.h ****  */
1449:../system/include/cmsis/core_cm3.h **** __STATIC_INLINE uint32_t NVIC_GetPriorityGrouping(void)
1450:../system/include/cmsis/core_cm3.h **** {
1451:../system/include/cmsis/core_cm3.h ****   return ((uint32_t)((SCB->AIRCR & SCB_AIRCR_PRIGROUP_Msk) >> SCB_AIRCR_PRIGROUP_Pos));
1452:../system/include/cmsis/core_cm3.h **** }
1453:../system/include/cmsis/core_cm3.h **** 
1454:../system/include/cmsis/core_cm3.h **** 
1455:../system/include/cmsis/core_cm3.h **** /**
1456:../system/include/cmsis/core_cm3.h ****   \brief   Enable External Interrupt
1457:../system/include/cmsis/core_cm3.h ****   \details Enables a device-specific interrupt in the NVIC interrupt controller.
1458:../system/include/cmsis/core_cm3.h ****   \param [in]      IRQn  External interrupt number. Value cannot be negative.
1459:../system/include/cmsis/core_cm3.h ****  */
1460:../system/include/cmsis/core_cm3.h **** __STATIC_INLINE void NVIC_EnableIRQ(IRQn_Type IRQn)
1461:../system/include/cmsis/core_cm3.h **** {
1462:../system/include/cmsis/core_cm3.h ****   NVIC->ISER[(((uint32_t)(int32_t)IRQn) >> 5UL)] = (uint32_t)(1UL << (((uint32_t)(int32_t)IRQn) & 0
 154              		.loc 2 1462 0
 155 00d6 2E4E     		ldr	r6, .L3+56
 156 00d8 4FF08063 		mov	r3, #67108864
 157 00dc 3360     		str	r3, [r6]
 158              	.LVL15:
 159              	.LBE23:
 160              	.LBE22:
 163:../system/src/drivers/analog_anemometer.c **** 	NVIC_EnableIRQ( TIM1_TRG_COM_TIM17_IRQn );
 164:../system/src/drivers/analog_anemometer.c **** 
 165:../system/src/drivers/analog_anemometer.c **** 	// Initializing the struct with DMA configuration
 166:../system/src/drivers/analog_anemometer.c **** 	DMA_StructInit(&DMA_InitStruct);
 161              		.loc 1 166 0
 162 00de 2D4C     		ldr	r4, .L3+60
 163 00e0 2046     		mov	r0, r4
 164 00e2 FFF7FEFF 		bl	DMA_StructInit
 165              	.LVL16:
 167:../system/src/drivers/analog_anemometer.c **** 
 168:../system/src/drivers/analog_anemometer.c **** 	// De initializing DMA1
 169:../system/src/drivers/analog_anemometer.c **** 	DMA_DeInit(DMA1_Channel7);
 166              		.loc 1 169 0
 167 00e6 2C48     		ldr	r0, .L3+64
 168 00e8 FFF7FEFF 		bl	DMA_DeInit
 169              	.LVL17:
 170:../system/src/drivers/analog_anemometer.c **** 
 171:../system/src/drivers/analog_anemometer.c **** 	DMA_InitStruct.DMA_BufferSize = ANALOG_ANEMOMETER_SPEED_PULSES_N;
 170              		.loc 1 171 0
 171 00ec 0A23     		movs	r3, #10
 172 00ee E360     		str	r3, [r4, #12]
 172:../system/src/drivers/analog_anemometer.c **** 	DMA_InitStruct.DMA_DIR = DMA_DIR_PeripheralSRC;
 173              		.loc 1 172 0
 174 00f0 A560     		str	r5, [r4, #8]
 173:../system/src/drivers/analog_anemometer.c **** 	DMA_InitStruct.DMA_M2M = DMA_M2M_Disable;
 175              		.loc 1 173 0
 176 00f2 A562     		str	r5, [r4, #40]
 174:../system/src/drivers/analog_anemometer.c **** 	DMA_InitStruct.DMA_MemoryBaseAddr = (uint32_t)analog_anemometer_windspeed_pulses_time;
 177              		.loc 1 174 0
 178 00f4 6760     		str	r7, [r4, #4]
 175:../system/src/drivers/analog_anemometer.c **** 	DMA_InitStruct.DMA_MemoryDataSize = DMA_MemoryDataSize_HalfWord;
 179              		.loc 1 175 0
 180 00f6 4FF48063 		mov	r3, #1024
 181 00fa E361     		str	r3, [r4, #28]
 176:../system/src/drivers/analog_anemometer.c **** 	DMA_InitStruct.DMA_MemoryInc = DMA_MemoryInc_Enable;
 182              		.loc 1 176 0
 183 00fc 8023     		movs	r3, #128
 184 00fe 6361     		str	r3, [r4, #20]
 177:../system/src/drivers/analog_anemometer.c **** 	DMA_InitStruct.DMA_PeripheralBaseAddr = (uint32_t)&TIM17->CCR1;
 185              		.loc 1 177 0
 186 0100 264B     		ldr	r3, .L3+68
 187 0102 2360     		str	r3, [r4]
 178:../system/src/drivers/analog_anemometer.c **** 	DMA_InitStruct.DMA_PeripheralDataSize = DMA_PeripheralDataSize_HalfWord;
 188              		.loc 1 178 0
 189 0104 4FF48073 		mov	r3, #256
 190 0108 A361     		str	r3, [r4, #24]
 179:../system/src/drivers/analog_anemometer.c **** 	DMA_InitStruct.DMA_PeripheralInc = DMA_PeripheralInc_Disable;
 191              		.loc 1 179 0
 192 010a 2561     		str	r5, [r4, #16]
 180:../system/src/drivers/analog_anemometer.c **** 
 181:../system/src/drivers/analog_anemometer.c **** 	dma_helper_start_ch7(&DMA_InitStruct);
 193              		.loc 1 181 0
 194 010c 2046     		mov	r0, r4
 195 010e FFF7FEFF 		bl	dma_helper_start_ch7
 196              	.LVL18:
 197              	.LBB24:
 198              	.LBB25:
 199              		.loc 2 1462 0
 200 0112 4FF40033 		mov	r3, #131072
 201 0116 3360     		str	r3, [r6]
 202              	.LVL19:
 203              	.LBE25:
 204              	.LBE24:
 182:../system/src/drivers/analog_anemometer.c **** 
 183:../system/src/drivers/analog_anemometer.c **** 	NVIC_EnableIRQ( DMA1_Channel7_IRQn );
 184:../system/src/drivers/analog_anemometer.c **** 
 185:../system/src/drivers/analog_anemometer.c **** 	// Initializing direction
 186:../system/src/drivers/analog_anemometer.c **** 
 187:../system/src/drivers/analog_anemometer.c **** 	// Configuring PD2 as an input for TIM3_ETR
 188:../system/src/drivers/analog_anemometer.c **** 	Configure_GPIO(GPIOD,2,FLOATING_INPUT);
 205              		.loc 1 188 0
 206 0118 0422     		movs	r2, #4
 207 011a 0221     		movs	r1, #2
 208 011c 2048     		ldr	r0, .L3+72
 209 011e FFF7FEFF 		bl	Configure_GPIO
 210              	.LVL20:
 189:../system/src/drivers/analog_anemometer.c **** 
 190:../system/src/drivers/analog_anemometer.c **** 	// initializing structure with default values
 191:../system/src/drivers/analog_anemometer.c **** 	TIM_TimeBaseStructInit(&TIM_TimeBaseInitStruct);
 211              		.loc 1 191 0
 212 0122 01A8     		add	r0, sp, #4
 213 0124 FFF7FEFF 		bl	TIM_TimeBaseStructInit
 214              	.LVL21:
 192:../system/src/drivers/analog_anemometer.c **** 
 193:../system/src/drivers/analog_anemometer.c **** 	// using default values of InitStruct
 194:../system/src/drivers/analog_anemometer.c **** 	TIM_TimeBaseInit(TIM3, &TIM_TimeBaseInitStruct);
 215              		.loc 1 194 0
 216 0128 1E4C     		ldr	r4, .L3+76
 217 012a 01A9     		add	r1, sp, #4
 218 012c 2046     		mov	r0, r4
 219 012e FFF7FEFF 		bl	TIM_TimeBaseInit
 220              	.LVL22:
 195:../system/src/drivers/analog_anemometer.c **** 
 196:../system/src/drivers/analog_anemometer.c **** 	// enabling an external trigger to the TIM3
 197:../system/src/drivers/analog_anemometer.c **** 	TIM_ETRClockMode2Config(TIM3, TIM_ExtTRGPSC_OFF, TIM_ExtTRGPolarity_Inverted, 0);
 221              		.loc 1 197 0
 222 0132 2B46     		mov	r3, r5
 223 0134 4FF40042 		mov	r2, #32768
 224 0138 2946     		mov	r1, r5
 225 013a 2046     		mov	r0, r4
 226 013c FFF7FEFF 		bl	TIM_ETRClockMode2Config
 227              	.LVL23:
 198:../system/src/drivers/analog_anemometer.c **** 
 199:../system/src/drivers/analog_anemometer.c **** 	// Starting timer
 200:../system/src/drivers/analog_anemometer.c **** 	TIM_Cmd(TIM3, ENABLE);
 228              		.loc 1 200 0
 229 0140 0121     		movs	r1, #1
 230 0142 2046     		mov	r0, r4
 231 0144 FFF7FEFF 		bl	TIM_Cmd
 232              	.LVL24:
 233              	.LBB26:
 234              	.LBB27:
1463:../system/include/cmsis/core_cm3.h **** }
1464:../system/include/cmsis/core_cm3.h **** 
1465:../system/include/cmsis/core_cm3.h **** 
1466:../system/include/cmsis/core_cm3.h **** /**
1467:../system/include/cmsis/core_cm3.h ****   \brief   Disable External Interrupt
1468:../system/include/cmsis/core_cm3.h ****   \details Disables a device-specific interrupt in the NVIC interrupt controller.
1469:../system/include/cmsis/core_cm3.h ****   \param [in]      IRQn  External interrupt number. Value cannot be negative.
1470:../system/include/cmsis/core_cm3.h ****  */
1471:../system/include/cmsis/core_cm3.h **** __STATIC_INLINE void NVIC_DisableIRQ(IRQn_Type IRQn)
1472:../system/include/cmsis/core_cm3.h **** {
1473:../system/include/cmsis/core_cm3.h ****   NVIC->ICER[(((uint32_t)(int32_t)IRQn) >> 5UL)] = (uint32_t)(1UL << (((uint32_t)(int32_t)IRQn) & 0
 235              		.loc 2 1473 0
 236 0148 4FF00053 		mov	r3, #536870912
 237 014c C6F88030 		str	r3, [r6, #128]
 238              	.LVL25:
 239              	.LBE27:
 240              	.LBE26:
 201:../system/src/drivers/analog_anemometer.c **** 
 202:../system/src/drivers/analog_anemometer.c **** 	// disable an interrupt from TIMER3
 203:../system/src/drivers/analog_anemometer.c **** 	NVIC_DisableIRQ(TIM3_IRQn);
 204:../system/src/drivers/analog_anemometer.c **** 
 205:../system/src/drivers/analog_anemometer.c **** 	analog_anemometer_timer_has_been_fired = 0;
 241              		.loc 1 205 0
 242 0150 154B     		ldr	r3, .L3+80
 243 0152 1D70     		strb	r5, [r3]
 206:../system/src/drivers/analog_anemometer.c **** 
 207:../system/src/drivers/analog_anemometer.c **** 	return;
 208:../system/src/drivers/analog_anemometer.c **** }
 244              		.loc 1 208 0
 245 0154 05B0     		add	sp, sp, #20
 246              		.cfi_def_cfa_offset 20
 247              		@ sp needed
 248 0156 F0BD     		pop	{r4, r5, r6, r7, pc}
 249              	.L4:
 250              		.align	2
 251              	.L3:
 252 0158 00000000 		.word	.LANCHOR0
 253 015c 6073FFFF 		.word	-36000
 254 0160 00D68AEA 		.word	-360000000
 255 0164 00000000 		.word	.LANCHOR1
 256 0168 00C1C500 		.word	12960000
 257 016c F0F1FFFF 		.word	-3600
 258 0170 00000000 		.word	.LANCHOR2
 259 0174 00000000 		.word	.LANCHOR3
 260 0178 00000000 		.word	analog_anemometer_windspeed_pulses_time
 261 017c 00000000 		.word	analog_anemometer_time_between_pulses
 262 0180 00000000 		.word	analog_anemometer_direction_timer_values
 263 0184 00100240 		.word	1073876992
 264 0188 000C0140 		.word	1073810432
 265 018c 00480140 		.word	1073825792
 266 0190 00E100E0 		.word	-536813312
 267 0194 00000000 		.word	DMA_InitStruct
 268 0198 80000240 		.word	1073873024
 269 019c 34480140 		.word	1073825844
 270 01a0 00140140 		.word	1073812480
 271 01a4 00040040 		.word	1073742848
 272 01a8 00000000 		.word	.LANCHOR4
 273              		.cfi_endproc
 274              	.LFE97:
 276              		.section	.text.analog_anemometer_timer_irq,"ax",%progbits
 277              		.align	1
 278              		.global	analog_anemometer_timer_irq
 279              		.syntax unified
 280              		.thumb
 281              		.thumb_func
 282              		.fpu softvfp
 284              	analog_anemometer_timer_irq:
 285              	.LFB98:
 209:../system/src/drivers/analog_anemometer.c **** 
 210:../system/src/drivers/analog_anemometer.c **** void analog_anemometer_timer_irq(void) {
 286              		.loc 1 210 0
 287              		.cfi_startproc
 288              		@ args = 0, pretend = 0, frame = 0
 289              		@ frame_needed = 0, uses_anonymous_args = 0
 290              		@ link register save eliminated.
 211:../system/src/drivers/analog_anemometer.c **** 	analog_anemometer_timer_has_been_fired = 1;
 291              		.loc 1 211 0
 292 0000 014B     		ldr	r3, .L6
 293 0002 0122     		movs	r2, #1
 294 0004 1A70     		strb	r2, [r3]
 212:../system/src/drivers/analog_anemometer.c **** }
 295              		.loc 1 212 0
 296 0006 7047     		bx	lr
 297              	.L7:
 298              		.align	2
 299              	.L6:
 300 0008 00000000 		.word	.LANCHOR4
 301              		.cfi_endproc
 302              	.LFE98:
 304              		.section	.text.analog_anemometer_dma_irq,"ax",%progbits
 305              		.align	1
 306              		.global	analog_anemometer_dma_irq
 307              		.syntax unified
 308              		.thumb
 309              		.thumb_func
 310              		.fpu softvfp
 312              	analog_anemometer_dma_irq:
 313              	.LFB99:
 213:../system/src/drivers/analog_anemometer.c **** 
 214:../system/src/drivers/analog_anemometer.c **** void analog_anemometer_dma_irq(void) {
 314              		.loc 1 214 0
 315              		.cfi_startproc
 316              		@ args = 0, pretend = 0, frame = 16
 317              		@ frame_needed = 0, uses_anonymous_args = 0
 318 0000 30B5     		push	{r4, r5, lr}
 319              		.cfi_def_cfa_offset 12
 320              		.cfi_offset 4, -12
 321              		.cfi_offset 5, -8
 322              		.cfi_offset 14, -4
 323 0002 85B0     		sub	sp, sp, #20
 324              		.cfi_def_cfa_offset 32
 325              	.LVL26:
 215:../system/src/drivers/analog_anemometer.c **** 	int i = 0;
 216:../system/src/drivers/analog_anemometer.c **** 	uint16_t pulse_ln = 0;
 217:../system/src/drivers/analog_anemometer.c **** 	uint16_t previous_pulse_ln = 0;
 218:../system/src/drivers/analog_anemometer.c **** 	uint16_t shorter_pulse = 0;
 219:../system/src/drivers/analog_anemometer.c **** 	volatile uint16_t minimum_pulse_ln = 60000;
 326              		.loc 1 219 0
 327 0004 4EF66022 		movw	r2, #60000
 328 0008 ADF80E20 		strh	r2, [sp, #14]	@ movhi
 220:../system/src/drivers/analog_anemometer.c **** 	volatile uint16_t previous_minimum_pulse_ln = 60000;	// first value bigger than minimal one
 329              		.loc 1 220 0
 330 000c ADF80C20 		strh	r2, [sp, #12]	@ movhi
 221:../system/src/drivers/analog_anemometer.c **** 	volatile uint16_t maximum_pulse_ln = 0;
 331              		.loc 1 221 0
 332 0010 0023     		movs	r3, #0
 333 0012 ADF80A30 		strh	r3, [sp, #10]	@ movhi
 222:../system/src/drivers/analog_anemometer.c **** 	volatile uint16_t previous_maximum_pulse_ln = 0;		//
 334              		.loc 1 222 0
 335 0016 ADF80830 		strh	r3, [sp, #8]	@ movhi
 223:../system/src/drivers/analog_anemometer.c **** 	volatile uint16_t slew_rate_limit = 60000;
 336              		.loc 1 223 0
 337 001a ADF80620 		strh	r2, [sp, #6]	@ movhi
 224:../system/src/drivers/analog_anemometer.c **** 
 225:../system/src/drivers/analog_anemometer.c **** 	// resetting flags
 226:../system/src/drivers/analog_anemometer.c **** 	analog_anemometer_slew_limit_fired = 0;
 338              		.loc 1 226 0
 339 001e 7F4A     		ldr	r2, .L48
 340 0020 1370     		strb	r3, [r2]
 227:../system/src/drivers/analog_anemometer.c **** 	analog_anemometer_deboucing_fired = 0;
 341              		.loc 1 227 0
 342 0022 7F4A     		ldr	r2, .L48+4
 343 0024 1370     		strb	r3, [r2]
 228:../system/src/drivers/analog_anemometer.c **** 
 229:../system/src/drivers/analog_anemometer.c **** 	// checking if timer overflowed (raised an iterrupt)
 230:../system/src/drivers/analog_anemometer.c **** 	if (analog_anemometer_timer_has_been_fired == 1) {
 344              		.loc 1 230 0
 345 0026 7F4B     		ldr	r3, .L48+8
 346 0028 1B78     		ldrb	r3, [r3]	@ zero_extendqisi2
 347 002a 012B     		cmp	r3, #1
 348 002c 0ED0     		beq	.L42
 349              	.LBB28:
 350              	.LBB29:
 351              		.file 3 "../include/LedConfig.h"
   1:../include/LedConfig.h **** /*
   2:../include/LedConfig.h ****  * LedConfig.h
   3:../include/LedConfig.h ****  *
   4:../include/LedConfig.h ****  *  Created on: 05.07.2017
   5:../include/LedConfig.h ****  *      Author: mateusz
   6:../include/LedConfig.h ****  */
   7:../include/LedConfig.h **** 
   8:../include/LedConfig.h **** #ifndef LEDCONFIG_H_
   9:../include/LedConfig.h **** #define LEDCONFIG_H_
  10:../include/LedConfig.h **** 
  11:../include/LedConfig.h **** // PC8 - LED1 - upper
  12:../include/LedConfig.h **** // PC9 - LED2 - lower
  13:../include/LedConfig.h **** 
  14:../include/LedConfig.h **** #include <stm32f10x.h>
  15:../include/LedConfig.h **** #include <stdint.h>
  16:../include/LedConfig.h **** #include <stdbool.h>
  17:../include/LedConfig.h **** 
  18:../include/LedConfig.h **** #define BLINK_DURATION_MSEC 		20 * BLINK_MSEC_PER_SVC_CALL
  19:../include/LedConfig.h **** #define BLINK_MSEC_PER_SVC_CALL 	10
  20:../include/LedConfig.h **** 
  21:../include/LedConfig.h **** /* C++ detection */
  22:../include/LedConfig.h **** #ifdef __cplusplus
  23:../include/LedConfig.h **** extern "C" {
  24:../include/LedConfig.h **** #endif
  25:../include/LedConfig.h **** 
  26:../include/LedConfig.h **** extern uint8_t led_blinking_led2;
  27:../include/LedConfig.h **** extern uint8_t led_blinking_led1;
  28:../include/LedConfig.h **** 
  29:../include/LedConfig.h **** void led_config(void);
  30:../include/LedConfig.h **** void led_init(void);
  31:../include/LedConfig.h **** void led_service_blink(void);
  32:../include/LedConfig.h **** 
  33:../include/LedConfig.h **** inline void led_control_led1_upper(bool _in) {
  34:../include/LedConfig.h **** 	if (_in == true) {
  35:../include/LedConfig.h **** 		GPIOC->BSRR |= GPIO_BSRR_BS8;
  36:../include/LedConfig.h **** 	}
  37:../include/LedConfig.h **** 	else {
  38:../include/LedConfig.h **** 		GPIOC->BSRR |= GPIO_BSRR_BR8;
  39:../include/LedConfig.h **** 	}
  40:../include/LedConfig.h **** }
  41:../include/LedConfig.h **** 
  42:../include/LedConfig.h **** inline void led_control_led2_bottom(bool _in) {
  43:../include/LedConfig.h **** 	if (_in == true) {
  44:../include/LedConfig.h **** 		GPIOC->BSRR |= GPIO_BSRR_BS9;
  45:../include/LedConfig.h **** 	}
  46:../include/LedConfig.h **** 	else {
  47:../include/LedConfig.h **** 		GPIOC->BSRR |= GPIO_BSRR_BR9;
  48:../include/LedConfig.h **** 	}
  49:../include/LedConfig.h **** }
  50:../include/LedConfig.h **** 
  51:../include/LedConfig.h **** inline void led_flip_led1_upper(void) {
  52:../include/LedConfig.h **** 	if ((GPIOC->ODR & GPIO_ODR_ODR8)  == GPIO_ODR_ODR8) {
  53:../include/LedConfig.h **** 		GPIOC->BSRR |= GPIO_BSRR_BR8;
  54:../include/LedConfig.h **** 	}
  55:../include/LedConfig.h **** 	else {
  56:../include/LedConfig.h **** 		GPIOC->BSRR |= GPIO_BSRR_BS8;
  57:../include/LedConfig.h **** 	}
  58:../include/LedConfig.h **** }
  59:../include/LedConfig.h **** 
  60:../include/LedConfig.h **** inline void led_flip_led2_bottom(void) {
  61:../include/LedConfig.h **** 	if ((GPIOC->ODR & GPIO_ODR_ODR9)  == GPIO_ODR_ODR9) {
  62:../include/LedConfig.h **** 		GPIOC->BSRR |= GPIO_BSRR_BR9;
  63:../include/LedConfig.h **** 	}
  64:../include/LedConfig.h **** 	else {
  65:../include/LedConfig.h **** 		GPIOC->BSRR |= GPIO_BSRR_BS9;
  66:../include/LedConfig.h **** 	}
  67:../include/LedConfig.h **** }
  68:../include/LedConfig.h **** 
  69:../include/LedConfig.h **** inline void led_blink_led1_upper(void) {
  70:../include/LedConfig.h **** 	led_blinking_led1 = BLINK_DURATION_MSEC;
  71:../include/LedConfig.h **** 
  72:../include/LedConfig.h **** 	led_flip_led1_upper();
  73:../include/LedConfig.h **** }
  74:../include/LedConfig.h **** 
  75:../include/LedConfig.h **** inline void led_blink_led2_botoom(void) {
  76:../include/LedConfig.h **** 	led_blinking_led2 = BLINK_DURATION_MSEC;
 352              		.loc 3 76 0
 353 002e 7E4B     		ldr	r3, .L48+12
 354 0030 C822     		movs	r2, #200
 355 0032 1A70     		strb	r2, [r3]
 356              	.LBB30:
 357              	.LBB31:
  61:../include/LedConfig.h **** 		GPIOC->BSRR |= GPIO_BSRR_BR9;
 358              		.loc 3 61 0
 359 0034 7D4B     		ldr	r3, .L48+16
 360 0036 DB68     		ldr	r3, [r3, #12]
 361 0038 13F4007F 		tst	r3, #512
 362 003c 18D0     		beq	.L13
  62:../include/LedConfig.h **** 	}
 363              		.loc 3 62 0
 364 003e 7B4A     		ldr	r2, .L48+16
 365 0040 1369     		ldr	r3, [r2, #16]
 366 0042 43F00073 		orr	r3, r3, #33554432
 367 0046 1361     		str	r3, [r2, #16]
 368              	.L14:
 369              	.LBE31:
 370              	.LBE30:
 371              	.LBE29:
 372              	.LBE28:
 231:../system/src/drivers/analog_anemometer.c **** 		rte_wx_windspeed_pulses = 1;
 232:../system/src/drivers/analog_anemometer.c **** 
 233:../system/src/drivers/analog_anemometer.c **** 		analog_anemometer_timer_has_been_fired = 0;
 234:../system/src/drivers/analog_anemometer.c **** 
 235:../system/src/drivers/analog_anemometer.c **** 		// reseting array to default values
 236:../system/src/drivers/analog_anemometer.c **** 		for (i = 0; i < ANALOG_ANEMOMETER_SPEED_PULSES_N; i++)
 373              		.loc 1 236 0 discriminator 1
 374 0048 0023     		movs	r3, #0
 375 004a 22E0     		b	.L15
 376              	.L42:
 231:../system/src/drivers/analog_anemometer.c **** 		rte_wx_windspeed_pulses = 1;
 377              		.loc 1 231 0
 378 004c 784B     		ldr	r3, .L48+20
 379 004e 0122     		movs	r2, #1
 380 0050 1A80     		strh	r2, [r3]	@ movhi
 233:../system/src/drivers/analog_anemometer.c **** 
 381              		.loc 1 233 0
 382 0052 0023     		movs	r3, #0
 383 0054 734A     		ldr	r2, .L48+8
 384 0056 1370     		strb	r3, [r2]
 385              	.LVL27:
 386              	.L10:
 387              		.loc 1 236 0 discriminator 1
 388 0058 092B     		cmp	r3, #9
 389 005a 05DC     		bgt	.L43
 237:../system/src/drivers/analog_anemometer.c **** 			analog_anemometer_windspeed_pulses_time[i] = 0;
 390              		.loc 1 237 0 discriminator 3
 391 005c 754A     		ldr	r2, .L48+24
 392 005e 0021     		movs	r1, #0
 393 0060 22F81310 		strh	r1, [r2, r3, lsl #1]	@ movhi
 236:../system/src/drivers/analog_anemometer.c **** 			analog_anemometer_windspeed_pulses_time[i] = 0;
 394              		.loc 1 236 0 discriminator 3
 395 0064 0133     		adds	r3, r3, #1
 396              	.LVL28:
 397 0066 F7E7     		b	.L10
 398              	.L43:
 238:../system/src/drivers/analog_anemometer.c **** 
 239:../system/src/drivers/analog_anemometer.c **** 		// restarting the DMA channel
 240:../system/src/drivers/analog_anemometer.c **** 		dma_helper_start_ch7(&DMA_InitStruct);
 399              		.loc 1 240 0
 400 0068 7348     		ldr	r0, .L48+28
 401 006a FFF7FEFF 		bl	dma_helper_start_ch7
 402              	.LVL29:
 241:../system/src/drivers/analog_anemometer.c **** 
 242:../system/src/drivers/analog_anemometer.c **** 		return;
 403              		.loc 1 242 0
 404 006e D3E0     		b	.L8
 405              	.LVL30:
 406              	.L13:
 407              	.LBB35:
 408              	.LBB34:
 409              	.LBB33:
 410              	.LBB32:
  65:../include/LedConfig.h **** 	}
 411              		.loc 3 65 0
 412 0070 6E4A     		ldr	r2, .L48+16
 413 0072 1369     		ldr	r3, [r2, #16]
 414 0074 43F40073 		orr	r3, r3, #512
 415 0078 1361     		str	r3, [r2, #16]
 416 007a E5E7     		b	.L14
 417              	.LVL31:
 418              	.L16:
 419              	.LBE32:
 420              	.LBE33:
 421              	.LBE34:
 422              	.LBE35:
 243:../system/src/drivers/analog_anemometer.c **** 	}
 244:../system/src/drivers/analog_anemometer.c **** 
 245:../system/src/drivers/analog_anemometer.c **** 	// blinking the led - led will blink every 10 pulses, so if wind is 1m/s it will blink every 10 se
 246:../system/src/drivers/analog_anemometer.c **** 	led_blink_led2_botoom();
 247:../system/src/drivers/analog_anemometer.c **** 
 248:../system/src/drivers/analog_anemometer.c **** 	// calculating time between pulses
 249:../system/src/drivers/analog_anemometer.c **** 	for (i = 0; i < ANALOG_ANEMOMETER_SPEED_PULSES_N - 1; i++) {
 250:../system/src/drivers/analog_anemometer.c **** 		pulse_ln = analog_anemometer_windspeed_pulses_time[i + 1] -
 423              		.loc 1 250 0 discriminator 3
 424 007c 591C     		adds	r1, r3, #1
 425 007e 6D48     		ldr	r0, .L48+24
 426 0080 30F81120 		ldrh	r2, [r0, r1, lsl #1]
 251:../system/src/drivers/analog_anemometer.c **** 				analog_anemometer_windspeed_pulses_time[i];
 427              		.loc 1 251 0 discriminator 3
 428 0084 30F81300 		ldrh	r0, [r0, r3, lsl #1]
 250:../system/src/drivers/analog_anemometer.c **** 				analog_anemometer_windspeed_pulses_time[i];
 429              		.loc 1 250 0 discriminator 3
 430 0088 121A     		subs	r2, r2, r0
 431              	.LVL32:
 252:../system/src/drivers/analog_anemometer.c **** 
 253:../system/src/drivers/analog_anemometer.c **** 		analog_anemometer_time_between_pulses[i] = pulse_ln;
 432              		.loc 1 253 0 discriminator 3
 433 008a 6C48     		ldr	r0, .L48+32
 434 008c 20F81320 		strh	r2, [r0, r3, lsl #1]	@ movhi
 435              	.LVL33:
 249:../system/src/drivers/analog_anemometer.c **** 		pulse_ln = analog_anemometer_windspeed_pulses_time[i + 1] -
 436              		.loc 1 249 0 discriminator 3
 437 0090 0B46     		mov	r3, r1
 438              	.LVL34:
 439              	.L15:
 249:../system/src/drivers/analog_anemometer.c **** 		pulse_ln = analog_anemometer_windspeed_pulses_time[i + 1] -
 440              		.loc 1 249 0 is_stmt 0 discriminator 1
 441 0092 082B     		cmp	r3, #8
 442 0094 F2DD     		ble	.L16
 254:../system/src/drivers/analog_anemometer.c **** 	}
 255:../system/src/drivers/analog_anemometer.c **** 
 256:../system/src/drivers/analog_anemometer.c **** 	// debouncing captured pulse times
 257:../system/src/drivers/analog_anemometer.c **** 	for (i = 0; i < ANALOG_ANEMOMETER_SPEED_PULSES_N - 1; i++) {
 443              		.loc 1 257 0 is_stmt 1
 444 0096 0023     		movs	r3, #0
 445              	.LVL35:
 446 0098 00E0     		b	.L17
 447              	.LVL36:
 448              	.L18:
 449              		.loc 1 257 0 is_stmt 0 discriminator 2
 450 009a 0133     		adds	r3, r3, #1
 451              	.LVL37:
 452              	.L17:
 453              		.loc 1 257 0 discriminator 1
 454 009c 082B     		cmp	r3, #8
 455 009e 0CDC     		bgt	.L44
 258:../system/src/drivers/analog_anemometer.c **** 		if (analog_anemometer_time_between_pulses[i] < MINUM_PULSE_LN) {
 456              		.loc 1 258 0 is_stmt 1
 457 00a0 664A     		ldr	r2, .L48+32
 458 00a2 32F81320 		ldrh	r2, [r2, r3, lsl #1]
 459 00a6 0E2A     		cmp	r2, #14
 460 00a8 F7D8     		bhi	.L18
 259:../system/src/drivers/analog_anemometer.c **** 			analog_anemometer_time_between_pulses[i] = 0;
 461              		.loc 1 259 0
 462 00aa 644A     		ldr	r2, .L48+32
 463 00ac 0021     		movs	r1, #0
 464 00ae 22F81310 		strh	r1, [r2, r3, lsl #1]	@ movhi
 260:../system/src/drivers/analog_anemometer.c **** 			analog_anemometer_deboucing_fired = 1;
 465              		.loc 1 260 0
 466 00b2 5B4A     		ldr	r2, .L48+4
 467 00b4 0121     		movs	r1, #1
 468 00b6 1170     		strb	r1, [r2]
 469 00b8 EFE7     		b	.L18
 470              	.L44:
 261:../system/src/drivers/analog_anemometer.c **** 		}
 262:../system/src/drivers/analog_anemometer.c **** 	}
 263:../system/src/drivers/analog_anemometer.c **** 
 264:../system/src/drivers/analog_anemometer.c **** 	// limiting slew rate
 265:../system/src/drivers/analog_anemometer.c **** 	for (i = 1; i < ANALOG_ANEMOMETER_SPEED_PULSES_N; i++) {
 471              		.loc 1 265 0
 472 00ba 0123     		movs	r3, #1
 473              	.LVL38:
 474 00bc 1EE0     		b	.L20
 475              	.LVL39:
 476              	.L40:
 477              	.LBB36:
 266:../system/src/drivers/analog_anemometer.c **** 		previous_pulse_ln = analog_anemometer_time_between_pulses[i - 1];
 267:../system/src/drivers/analog_anemometer.c **** 		pulse_ln = analog_anemometer_time_between_pulses[i];
 268:../system/src/drivers/analog_anemometer.c **** 
 269:../system/src/drivers/analog_anemometer.c **** 		// checking which inter-pulse time is shorter
 270:../system/src/drivers/analog_anemometer.c **** 		if (previous_pulse_ln < pulse_ln)
 271:../system/src/drivers/analog_anemometer.c **** 			shorter_pulse = previous_pulse_ln;
 272:../system/src/drivers/analog_anemometer.c **** 		else
 273:../system/src/drivers/analog_anemometer.c **** 			shorter_pulse = pulse_ln;
 478              		.loc 1 273 0
 479 00be 0246     		mov	r2, r0
 480 00c0 27E0     		b	.L21
 481              	.LVL40:
 482              	.L22:
 274:../system/src/drivers/analog_anemometer.c **** 
 275:../system/src/drivers/analog_anemometer.c **** 		// calculating maximum slew rate basing on current inter pulse ln
 276:../system/src/drivers/analog_anemometer.c **** 		if (shorter_pulse >= 1000) {
 277:../system/src/drivers/analog_anemometer.c **** 			// 1 meter per second
 278:../system/src/drivers/analog_anemometer.c **** 			slew_rate_limit = shorter_pulse;
 279:../system/src/drivers/analog_anemometer.c **** 		}
 280:../system/src/drivers/analog_anemometer.c **** 		else if (shorter_pulse >= 200 && shorter_pulse < 1000) {
 483              		.loc 1 280 0
 484 00c2 A2F1C805 		sub	r5, r2, #200
 485 00c6 ADB2     		uxth	r5, r5
 486 00c8 B5F5487F 		cmp	r5, #800
 487 00cc 03D2     		bcs	.L24
 281:../system/src/drivers/analog_anemometer.c **** 			// from 1 to 5 meters per second
 282:../system/src/drivers/analog_anemometer.c **** 			slew_rate_limit = shorter_pulse >> 1;
 488              		.loc 1 282 0
 489 00ce 5208     		lsrs	r2, r2, #1
 490              	.LVL41:
 491 00d0 ADF80620 		strh	r2, [sp, #6]	@ movhi
 492 00d4 22E0     		b	.L23
 493              	.LVL42:
 494              	.L24:
 283:../system/src/drivers/analog_anemometer.c **** 		}
 284:../system/src/drivers/analog_anemometer.c **** 		else {
 285:../system/src/drivers/analog_anemometer.c **** 			// more than 5 meters per second
 286:../system/src/drivers/analog_anemometer.c **** 			slew_rate_limit = shorter_pulse >> 2;
 495              		.loc 1 286 0
 496 00d6 9208     		lsrs	r2, r2, #2
 497              	.LVL43:
 498 00d8 ADF80620 		strh	r2, [sp, #6]	@ movhi
 499 00dc 1EE0     		b	.L23
 500              	.LVL44:
 501              	.L26:
 287:../system/src/drivers/analog_anemometer.c **** 		}
 288:../system/src/drivers/analog_anemometer.c **** 
 289:../system/src/drivers/analog_anemometer.c **** 		// skipping pulses erased by debouncing
 290:../system/src/drivers/analog_anemometer.c **** 		if (pulse_ln == 0 || previous_pulse_ln == 0) {
 291:../system/src/drivers/analog_anemometer.c **** 			continue;
 292:../system/src/drivers/analog_anemometer.c **** 		}
 293:../system/src/drivers/analog_anemometer.c **** 
 294:../system/src/drivers/analog_anemometer.c **** 		int32_t diff = pulse_ln - previous_pulse_ln;
 295:../system/src/drivers/analog_anemometer.c **** 
 296:../system/src/drivers/analog_anemometer.c **** 		// if current inter-pulse time is much longer than previous (some pulse is missing?)
 297:../system/src/drivers/analog_anemometer.c **** 		if ( diff > slew_rate_limit ) {
 298:../system/src/drivers/analog_anemometer.c **** 			analog_anemometer_time_between_pulses[i] = previous_pulse_ln + ((uint32_t)slew_rate_limit);
 299:../system/src/drivers/analog_anemometer.c **** 			analog_anemometer_slew_limit_fired = 1;
 300:../system/src/drivers/analog_anemometer.c **** 		}
 301:../system/src/drivers/analog_anemometer.c **** 		// if previous inter-pulse time is much longer than current
 302:../system/src/drivers/analog_anemometer.c **** 		else if (diff < -slew_rate_limit){
 502              		.loc 1 302 0
 503 00de BDF80620 		ldrh	r2, [sp, #6]
 504 00e2 5242     		negs	r2, r2
 505 00e4 AA42     		cmp	r2, r5
 506 00e6 08DD     		ble	.L25
 303:../system/src/drivers/analog_anemometer.c **** 			analog_anemometer_time_between_pulses[i - 1] = pulse_ln + ((uint32_t)slew_rate_limit);
 507              		.loc 1 303 0
 508 00e8 BDF80620 		ldrh	r2, [sp, #6]
 509 00ec 1044     		add	r0, r0, r2
 510              	.LVL45:
 511 00ee 534A     		ldr	r2, .L48+32
 512              	.LVL46:
 513 00f0 22F81400 		strh	r0, [r2, r4, lsl #1]	@ movhi
 514              	.LVL47:
 304:../system/src/drivers/analog_anemometer.c **** 			analog_anemometer_slew_limit_fired = 1;
 515              		.loc 1 304 0
 516 00f4 494A     		ldr	r2, .L48
 517 00f6 0121     		movs	r1, #1
 518              	.LVL48:
 519 00f8 1170     		strb	r1, [r2]
 520              	.LVL49:
 521              	.L25:
 522              	.LBE36:
 265:../system/src/drivers/analog_anemometer.c **** 		previous_pulse_ln = analog_anemometer_time_between_pulses[i - 1];
 523              		.loc 1 265 0 discriminator 2
 524 00fa 0133     		adds	r3, r3, #1
 525              	.LVL50:
 526              	.L20:
 265:../system/src/drivers/analog_anemometer.c **** 		previous_pulse_ln = analog_anemometer_time_between_pulses[i - 1];
 527              		.loc 1 265 0 is_stmt 0 discriminator 1
 528 00fc 092B     		cmp	r3, #9
 529 00fe 21DC     		bgt	.L45
 530              	.LBB37:
 266:../system/src/drivers/analog_anemometer.c **** 		pulse_ln = analog_anemometer_time_between_pulses[i];
 531              		.loc 1 266 0 is_stmt 1
 532 0100 5C1E     		subs	r4, r3, #1
 533 0102 4E4A     		ldr	r2, .L48+32
 534 0104 32F81410 		ldrh	r1, [r2, r4, lsl #1]
 535              	.LVL51:
 267:../system/src/drivers/analog_anemometer.c **** 
 536              		.loc 1 267 0
 537 0108 32F81300 		ldrh	r0, [r2, r3, lsl #1]
 538              	.LVL52:
 270:../system/src/drivers/analog_anemometer.c **** 			shorter_pulse = previous_pulse_ln;
 539              		.loc 1 270 0
 540 010c 8142     		cmp	r1, r0
 541 010e D6D2     		bcs	.L40
 271:../system/src/drivers/analog_anemometer.c **** 		else
 542              		.loc 1 271 0
 543 0110 0A46     		mov	r2, r1
 544              	.L21:
 545              	.LVL53:
 276:../system/src/drivers/analog_anemometer.c **** 			// 1 meter per second
 546              		.loc 1 276 0
 547 0112 B2F57A7F 		cmp	r2, #1000
 548 0116 D4D3     		bcc	.L22
 278:../system/src/drivers/analog_anemometer.c **** 		}
 549              		.loc 1 278 0
 550 0118 ADF80620 		strh	r2, [sp, #6]	@ movhi
 551              	.LVL54:
 552              	.L23:
 290:../system/src/drivers/analog_anemometer.c **** 			continue;
 553              		.loc 1 290 0
 554 011c 0028     		cmp	r0, #0
 555 011e ECD0     		beq	.L25
 290:../system/src/drivers/analog_anemometer.c **** 			continue;
 556              		.loc 1 290 0 is_stmt 0 discriminator 1
 557 0120 0029     		cmp	r1, #0
 558 0122 EAD0     		beq	.L25
 294:../system/src/drivers/analog_anemometer.c **** 
 559              		.loc 1 294 0 is_stmt 1
 560 0124 451A     		subs	r5, r0, r1
 561              	.LVL55:
 297:../system/src/drivers/analog_anemometer.c **** 			analog_anemometer_time_between_pulses[i] = previous_pulse_ln + ((uint32_t)slew_rate_limit);
 562              		.loc 1 297 0
 563 0126 BDF80620 		ldrh	r2, [sp, #6]
 564 012a 92B2     		uxth	r2, r2
 565 012c AA42     		cmp	r2, r5
 566 012e D6DA     		bge	.L26
 298:../system/src/drivers/analog_anemometer.c **** 			analog_anemometer_slew_limit_fired = 1;
 567              		.loc 1 298 0
 568 0130 BDF80620 		ldrh	r2, [sp, #6]
 569 0134 1144     		add	r1, r1, r2
 570              	.LVL56:
 571 0136 414A     		ldr	r2, .L48+32
 572              	.LVL57:
 573 0138 22F81310 		strh	r1, [r2, r3, lsl #1]	@ movhi
 574              	.LVL58:
 299:../system/src/drivers/analog_anemometer.c **** 		}
 575              		.loc 1 299 0
 576 013c 374A     		ldr	r2, .L48
 577 013e 0121     		movs	r1, #1
 578 0140 1170     		strb	r1, [r2]
 579 0142 DAE7     		b	.L25
 580              	.LVL59:
 581              	.L45:
 582              	.LBE37:
 305:../system/src/drivers/analog_anemometer.c **** 		}
 306:../system/src/drivers/analog_anemometer.c **** 		// if this pulse time is ok do nothing.
 307:../system/src/drivers/analog_anemometer.c **** 		else {
 308:../system/src/drivers/analog_anemometer.c **** 			;
 309:../system/src/drivers/analog_anemometer.c **** 		}
 310:../system/src/drivers/analog_anemometer.c **** 	}
 311:../system/src/drivers/analog_anemometer.c **** 
 312:../system/src/drivers/analog_anemometer.c **** 	minimum_pulse_ln = 60000;
 583              		.loc 1 312 0
 584 0144 4EF66023 		movw	r3, #60000
 585              	.LVL60:
 586 0148 ADF80E30 		strh	r3, [sp, #14]	@ movhi
 313:../system/src/drivers/analog_anemometer.c **** 	previous_minimum_pulse_ln = 60000;
 587              		.loc 1 313 0
 588 014c ADF80C30 		strh	r3, [sp, #12]	@ movhi
 314:../system/src/drivers/analog_anemometer.c **** 
 315:../system/src/drivers/analog_anemometer.c **** 	maximum_pulse_ln = 0;
 589              		.loc 1 315 0
 590 0150 0023     		movs	r3, #0
 591 0152 ADF80A30 		strh	r3, [sp, #10]	@ movhi
 316:../system/src/drivers/analog_anemometer.c **** 	previous_maximum_pulse_ln = 0;
 592              		.loc 1 316 0
 593 0156 ADF80830 		strh	r3, [sp, #8]	@ movhi
 594              	.LVL61:
 317:../system/src/drivers/analog_anemometer.c **** 
 318:../system/src/drivers/analog_anemometer.c **** 	// find maximum and minimum values within inter-pulses times
 319:../system/src/drivers/analog_anemometer.c **** 	for (i = 0; i < ANALOG_ANEMOMETER_SPEED_PULSES_N; i++) {
 595              		.loc 1 319 0
 596 015a 0AE0     		b	.L28
 597              	.LVL62:
 598              	.L47:
 320:../system/src/drivers/analog_anemometer.c **** 
 321:../system/src/drivers/analog_anemometer.c **** 		pulse_ln = analog_anemometer_time_between_pulses[i];
 322:../system/src/drivers/analog_anemometer.c **** 
 323:../system/src/drivers/analog_anemometer.c **** 		// skipping pulses erased by debouncing
 324:../system/src/drivers/analog_anemometer.c **** 		if (pulse_ln == 0)
 325:../system/src/drivers/analog_anemometer.c **** 			continue;
 326:../system/src/drivers/analog_anemometer.c **** 
 327:../system/src/drivers/analog_anemometer.c **** 		// find maximum and minimum values within pulses duration
 328:../system/src/drivers/analog_anemometer.c **** 		if (pulse_ln < minimum_pulse_ln) {
 329:../system/src/drivers/analog_anemometer.c **** 
 330:../system/src/drivers/analog_anemometer.c **** 			// check if 'previous' has a default value of 60k
 331:../system/src/drivers/analog_anemometer.c **** 			if (previous_minimum_pulse_ln == 60000) {
 332:../system/src/drivers/analog_anemometer.c **** 				// if yes store the current value to handle a situation than whole
 333:../system/src/drivers/analog_anemometer.c **** 				// circular buffer conssit the same value
 334:../system/src/drivers/analog_anemometer.c **** 				previous_minimum_pulse_ln = pulse_ln;
 599              		.loc 1 334 0
 600 015c ADF80C20 		strh	r2, [sp, #12]	@ movhi
 601 0160 1FE0     		b	.L32
 602              	.L33:
 335:../system/src/drivers/analog_anemometer.c **** 			}
 336:../system/src/drivers/analog_anemometer.c **** 			else {
 337:../system/src/drivers/analog_anemometer.c **** 				// copying previous minimal value
 338:../system/src/drivers/analog_anemometer.c **** 				previous_minimum_pulse_ln = minimum_pulse_ln;
 339:../system/src/drivers/analog_anemometer.c **** 			}
 340:../system/src/drivers/analog_anemometer.c **** 
 341:../system/src/drivers/analog_anemometer.c **** 			// setting current minimal value
 342:../system/src/drivers/analog_anemometer.c **** 			minimum_pulse_ln = pulse_ln;
 343:../system/src/drivers/analog_anemometer.c **** 		}
 344:../system/src/drivers/analog_anemometer.c **** 
 345:../system/src/drivers/analog_anemometer.c **** 		if (pulse_ln > maximum_pulse_ln) {
 346:../system/src/drivers/analog_anemometer.c **** 
 347:../system/src/drivers/analog_anemometer.c **** 			if (previous_maximum_pulse_ln == 0) {
 348:../system/src/drivers/analog_anemometer.c **** 				previous_maximum_pulse_ln = pulse_ln;
 349:../system/src/drivers/analog_anemometer.c **** 			}
 350:../system/src/drivers/analog_anemometer.c **** 			else {
 351:../system/src/drivers/analog_anemometer.c **** 				previous_maximum_pulse_ln = maximum_pulse_ln;
 603              		.loc 1 351 0
 604 0162 BDF80A10 		ldrh	r1, [sp, #10]
 605 0166 89B2     		uxth	r1, r1
 606 0168 ADF80810 		strh	r1, [sp, #8]	@ movhi
 607              	.L34:
 352:../system/src/drivers/analog_anemometer.c **** 			}
 353:../system/src/drivers/analog_anemometer.c **** 
 354:../system/src/drivers/analog_anemometer.c **** 			maximum_pulse_ln = pulse_ln;
 608              		.loc 1 354 0
 609 016c ADF80A20 		strh	r2, [sp, #10]	@ movhi
 610              	.L29:
 319:../system/src/drivers/analog_anemometer.c **** 
 611              		.loc 1 319 0 discriminator 2
 612 0170 0133     		adds	r3, r3, #1
 613              	.LVL63:
 614              	.L28:
 319:../system/src/drivers/analog_anemometer.c **** 
 615              		.loc 1 319 0 is_stmt 0 discriminator 1
 616 0172 092B     		cmp	r3, #9
 617 0174 24DC     		bgt	.L46
 321:../system/src/drivers/analog_anemometer.c **** 
 618              		.loc 1 321 0 is_stmt 1
 619 0176 314A     		ldr	r2, .L48+32
 620 0178 32F81320 		ldrh	r2, [r2, r3, lsl #1]
 621              	.LVL64:
 324:../system/src/drivers/analog_anemometer.c **** 			continue;
 622              		.loc 1 324 0
 623 017c 002A     		cmp	r2, #0
 624 017e F7D0     		beq	.L29
 328:../system/src/drivers/analog_anemometer.c **** 
 625              		.loc 1 328 0
 626 0180 BDF80E10 		ldrh	r1, [sp, #14]
 627 0184 89B2     		uxth	r1, r1
 628 0186 9142     		cmp	r1, r2
 629 0188 0DD9     		bls	.L30
 331:../system/src/drivers/analog_anemometer.c **** 				// if yes store the current value to handle a situation than whole
 630              		.loc 1 331 0
 631 018a BDF80C10 		ldrh	r1, [sp, #12]
 632 018e 89B2     		uxth	r1, r1
 633 0190 4EF66020 		movw	r0, #60000
 634 0194 8142     		cmp	r1, r0
 635 0196 E1D0     		beq	.L47
 338:../system/src/drivers/analog_anemometer.c **** 			}
 636              		.loc 1 338 0
 637 0198 BDF80E10 		ldrh	r1, [sp, #14]
 638 019c 89B2     		uxth	r1, r1
 639 019e ADF80C10 		strh	r1, [sp, #12]	@ movhi
 640              	.L32:
 342:../system/src/drivers/analog_anemometer.c **** 		}
 641              		.loc 1 342 0
 642 01a2 ADF80E20 		strh	r2, [sp, #14]	@ movhi
 643              	.L30:
 345:../system/src/drivers/analog_anemometer.c **** 
 644              		.loc 1 345 0
 645 01a6 BDF80A10 		ldrh	r1, [sp, #10]
 646 01aa 89B2     		uxth	r1, r1
 647 01ac 9142     		cmp	r1, r2
 648 01ae DFD2     		bcs	.L29
 347:../system/src/drivers/analog_anemometer.c **** 				previous_maximum_pulse_ln = pulse_ln;
 649              		.loc 1 347 0
 650 01b0 BDF80810 		ldrh	r1, [sp, #8]
 651 01b4 89B2     		uxth	r1, r1
 652 01b6 0029     		cmp	r1, #0
 653 01b8 D3D1     		bne	.L33
 348:../system/src/drivers/analog_anemometer.c **** 			}
 654              		.loc 1 348 0
 655 01ba ADF80820 		strh	r2, [sp, #8]	@ movhi
 656 01be D5E7     		b	.L34
 657              	.LVL65:
 658              	.L46:
 355:../system/src/drivers/analog_anemometer.c **** 		}
 356:../system/src/drivers/analog_anemometer.c **** 
 357:../system/src/drivers/analog_anemometer.c **** 	}
 358:../system/src/drivers/analog_anemometer.c **** 
 359:../system/src/drivers/analog_anemometer.c **** 	// calculating the target inter-pulse duration
 360:../system/src/drivers/analog_anemometer.c **** 	rte_wx_windspeed_pulses = (uint16_t)((previous_maximum_pulse_ln + previous_minimum_pulse_ln) / 2);
 659              		.loc 1 360 0
 660 01c0 BDF80820 		ldrh	r2, [sp, #8]
 661 01c4 BDF80C30 		ldrh	r3, [sp, #12]
 662              	.LVL66:
 663 01c8 1344     		add	r3, r3, r2
 664 01ca 5B08     		lsrs	r3, r3, #1
 665 01cc 184A     		ldr	r2, .L48+20
 666 01ce 1380     		strh	r3, [r2]	@ movhi
 361:../system/src/drivers/analog_anemometer.c **** 
 362:../system/src/drivers/analog_anemometer.c **** 	// resetting the timer
 363:../system/src/drivers/analog_anemometer.c **** 	analog_anemometer_timer_has_been_fired = 0;
 667              		.loc 1 363 0
 668 01d0 0023     		movs	r3, #0
 669 01d2 144A     		ldr	r2, .L48+8
 670 01d4 1370     		strb	r3, [r2]
 671              	.LVL67:
 364:../system/src/drivers/analog_anemometer.c **** 
 365:../system/src/drivers/analog_anemometer.c **** 	for (i = 0; i < ANALOG_ANEMOMETER_SPEED_PULSES_N; i++)
 672              		.loc 1 365 0
 673 01d6 04E0     		b	.L36
 674              	.LVL68:
 675              	.L37:
 366:../system/src/drivers/analog_anemometer.c **** 		analog_anemometer_windspeed_pulses_time[i] = 0;
 676              		.loc 1 366 0 discriminator 3
 677 01d8 164A     		ldr	r2, .L48+24
 678 01da 0021     		movs	r1, #0
 679 01dc 22F81310 		strh	r1, [r2, r3, lsl #1]	@ movhi
 365:../system/src/drivers/analog_anemometer.c **** 		analog_anemometer_windspeed_pulses_time[i] = 0;
 680              		.loc 1 365 0 discriminator 3
 681 01e0 0133     		adds	r3, r3, #1
 682              	.LVL69:
 683              	.L36:
 365:../system/src/drivers/analog_anemometer.c **** 		analog_anemometer_windspeed_pulses_time[i] = 0;
 684              		.loc 1 365 0 is_stmt 0 discriminator 1
 685 01e2 092B     		cmp	r3, #9
 686 01e4 F8DD     		ble	.L37
 367:../system/src/drivers/analog_anemometer.c **** 
 368:../system/src/drivers/analog_anemometer.c **** 	for (i = 0; i < ANALOG_ANEMOMETER_SPEED_PULSES_N; i++)
 687              		.loc 1 368 0 is_stmt 1
 688 01e6 0023     		movs	r3, #0
 689              	.LVL70:
 690 01e8 04E0     		b	.L38
 691              	.LVL71:
 692              	.L39:
 369:../system/src/drivers/analog_anemometer.c **** 		analog_anemometer_time_between_pulses[i] = 0;
 693              		.loc 1 369 0 discriminator 3
 694 01ea 144A     		ldr	r2, .L48+32
 695 01ec 0021     		movs	r1, #0
 696 01ee 22F81310 		strh	r1, [r2, r3, lsl #1]	@ movhi
 368:../system/src/drivers/analog_anemometer.c **** 		analog_anemometer_time_between_pulses[i] = 0;
 697              		.loc 1 368 0 discriminator 3
 698 01f2 0133     		adds	r3, r3, #1
 699              	.LVL72:
 700              	.L38:
 368:../system/src/drivers/analog_anemometer.c **** 		analog_anemometer_time_between_pulses[i] = 0;
 701              		.loc 1 368 0 is_stmt 0 discriminator 1
 702 01f4 092B     		cmp	r3, #9
 703 01f6 F8DD     		ble	.L39
 370:../system/src/drivers/analog_anemometer.c **** 
 371:../system/src/drivers/analog_anemometer.c **** 	dma_helper_start_ch7(&DMA_InitStruct);
 704              		.loc 1 371 0 is_stmt 1
 705 01f8 0F48     		ldr	r0, .L48+28
 706 01fa FFF7FEFF 		bl	dma_helper_start_ch7
 707              	.LVL73:
 372:../system/src/drivers/analog_anemometer.c **** 
 373:../system/src/drivers/analog_anemometer.c **** 	// Stopping timer
 374:../system/src/drivers/analog_anemometer.c **** 	TIM_Cmd(TIM17, DISABLE);
 708              		.loc 1 374 0
 709 01fe 104C     		ldr	r4, .L48+36
 710 0200 0021     		movs	r1, #0
 711 0202 2046     		mov	r0, r4
 712 0204 FFF7FEFF 		bl	TIM_Cmd
 713              	.LVL74:
 375:../system/src/drivers/analog_anemometer.c **** 
 376:../system/src/drivers/analog_anemometer.c **** 	// Resetting the counter
 377:../system/src/drivers/analog_anemometer.c **** 	TIM_SetCounter(TIM17, 0);
 714              		.loc 1 377 0
 715 0208 0021     		movs	r1, #0
 716 020a 2046     		mov	r0, r4
 717 020c FFF7FEFF 		bl	TIM_SetCounter
 718              	.LVL75:
 378:../system/src/drivers/analog_anemometer.c **** 
 379:../system/src/drivers/analog_anemometer.c **** 	// Enabling counter once again
 380:../system/src/drivers/analog_anemometer.c **** 	TIM_Cmd(TIM17, ENABLE);
 719              		.loc 1 380 0
 720 0210 0121     		movs	r1, #1
 721 0212 2046     		mov	r0, r4
 722 0214 FFF7FEFF 		bl	TIM_Cmd
 723              	.LVL76:
 724              	.L8:
 381:../system/src/drivers/analog_anemometer.c **** 
 382:../system/src/drivers/analog_anemometer.c **** 	return;
 383:../system/src/drivers/analog_anemometer.c **** }
 725              		.loc 1 383 0
 726 0218 05B0     		add	sp, sp, #20
 727              		.cfi_def_cfa_offset 12
 728              		@ sp needed
 729 021a 30BD     		pop	{r4, r5, pc}
 730              	.L49:
 731              		.align	2
 732              	.L48:
 733 021c 00000000 		.word	.LANCHOR5
 734 0220 00000000 		.word	.LANCHOR6
 735 0224 00000000 		.word	.LANCHOR4
 736 0228 00000000 		.word	led_blinking_led2
 737 022c 00100140 		.word	1073811456
 738 0230 00000000 		.word	rte_wx_windspeed_pulses
 739 0234 00000000 		.word	analog_anemometer_windspeed_pulses_time
 740 0238 00000000 		.word	DMA_InitStruct
 741 023c 00000000 		.word	analog_anemometer_time_between_pulses
 742 0240 00480140 		.word	1073825792
 743              		.cfi_endproc
 744              	.LFE99:
 746              		.section	.text.analog_anemometer_get_ms_from_pulse,"ax",%progbits
 747              		.align	1
 748              		.global	analog_anemometer_get_ms_from_pulse
 749              		.syntax unified
 750              		.thumb
 751              		.thumb_func
 752              		.fpu softvfp
 754              	analog_anemometer_get_ms_from_pulse:
 755              	.LFB100:
 384:../system/src/drivers/analog_anemometer.c **** 
 385:../system/src/drivers/analog_anemometer.c **** /**
 386:../system/src/drivers/analog_anemometer.c ****  * This functions takes the average time between two pulses expressed as
 387:../system/src/drivers/analog_anemometer.c ****  * a multiplicity of one millisecond (2500 equals two and half of a second)
 388:../system/src/drivers/analog_anemometer.c ****  * and converts it to the windspeed in 0.1 m/s incremenets (4 equals to .4m/s, 18 equals to 1.8m/s)
 389:../system/src/drivers/analog_anemometer.c ****  */
 390:../system/src/drivers/analog_anemometer.c **** uint32_t analog_anemometer_get_ms_from_pulse(uint16_t inter_pulse_time) {
 756              		.loc 1 390 0
 757              		.cfi_startproc
 758              		@ args = 0, pretend = 0, frame = 0
 759              		@ frame_needed = 0, uses_anonymous_args = 0
 760              		@ link register save eliminated.
 761              	.LVL77:
 391:../system/src/drivers/analog_anemometer.c **** 	uint32_t output = 0;
 392:../system/src/drivers/analog_anemometer.c **** 
 393:../system/src/drivers/analog_anemometer.c **** 	uint32_t scaled_pulses_frequency = 1000000 / (inter_pulse_time * 10);		// *100 from real value
 762              		.loc 1 393 0
 763 0000 00EB8003 		add	r3, r0, r0, lsl #2
 764 0004 5A00     		lsls	r2, r3, #1
 765 0006 064B     		ldr	r3, .L53
 766 0008 93FBF2F3 		sdiv	r3, r3, r2
 767              	.LVL78:
 394:../system/src/drivers/analog_anemometer.c **** 
 395:../system/src/drivers/analog_anemometer.c **** 	if (inter_pulse_time > 5)
 768              		.loc 1 395 0
 769 000c 0528     		cmp	r0, #5
 770 000e 04D9     		bls	.L52
 396:../system/src/drivers/analog_anemometer.c **** 		output = scaled_pulses_frequency / (analog_anemometer_pulses_per_m_s_constant);
 771              		.loc 1 396 0
 772 0010 044A     		ldr	r2, .L53+4
 773 0012 1088     		ldrh	r0, [r2]
 774              	.LVL79:
 775 0014 B3FBF0F0 		udiv	r0, r3, r0
 776              	.LVL80:
 777 0018 7047     		bx	lr
 778              	.LVL81:
 779              	.L52:
 397:../system/src/drivers/analog_anemometer.c **** 	else
 398:../system/src/drivers/analog_anemometer.c **** 		output = 0;
 780              		.loc 1 398 0
 781 001a 0020     		movs	r0, #0
 782              	.LVL82:
 399:../system/src/drivers/analog_anemometer.c **** 
 400:../system/src/drivers/analog_anemometer.c **** 	return output;
 401:../system/src/drivers/analog_anemometer.c **** }
 783              		.loc 1 401 0
 784 001c 7047     		bx	lr
 785              	.L54:
 786 001e 00BF     		.align	2
 787              	.L53:
 788 0020 40420F00 		.word	1000000
 789 0024 00000000 		.word	.LANCHOR0
 790              		.cfi_endproc
 791              	.LFE100:
 793              		.section	.text.analog_anemometer_direction_sparkfun,"ax",%progbits
 794              		.align	1
 795              		.global	analog_anemometer_direction_sparkfun
 796              		.syntax unified
 797              		.thumb
 798              		.thumb_func
 799              		.fpu softvfp
 801              	analog_anemometer_direction_sparkfun:
 802              	.LFB102:
 402:../system/src/drivers/analog_anemometer.c **** 
 403:../system/src/drivers/analog_anemometer.c **** int16_t analog_anemometer_direction_handler(void) {
 404:../system/src/drivers/analog_anemometer.c **** 
 405:../system/src/drivers/analog_anemometer.c **** 	TIM_Cmd(TIM3, DISABLE);
 406:../system/src/drivers/analog_anemometer.c **** 
 407:../system/src/drivers/analog_anemometer.c **** 	uint16_t downscaled_angle = 0;
 408:../system/src/drivers/analog_anemometer.c **** 
 409:../system/src/drivers/analog_anemometer.c **** 	// getting current counter value
 410:../system/src/drivers/analog_anemometer.c **** 	uint16_t current_value = TIM_GetCounter(TIM3);
 411:../system/src/drivers/analog_anemometer.c **** 
 412:../system/src/drivers/analog_anemometer.c **** 	// if the counter value is zero it means that probably U/f converter isn't running
 413:../system/src/drivers/analog_anemometer.c **** 	if (current_value == 0) {
 414:../system/src/drivers/analog_anemometer.c **** 		TIM_SetCounter(TIM3, 0);
 415:../system/src/drivers/analog_anemometer.c **** 
 416:../system/src/drivers/analog_anemometer.c **** 		TIM_Cmd(TIM3, ENABLE);
 417:../system/src/drivers/analog_anemometer.c **** 
 418:../system/src/drivers/analog_anemometer.c **** 		analog_anemometer_direction_doesnt_work = 1;
 419:../system/src/drivers/analog_anemometer.c **** 
 420:../system/src/drivers/analog_anemometer.c **** 		return rte_wx_winddirection_last;
 421:../system/src/drivers/analog_anemometer.c **** 	}
 422:../system/src/drivers/analog_anemometer.c **** 
 423:../system/src/drivers/analog_anemometer.c **** 	// update the last
 424:../system/src/drivers/analog_anemometer.c **** 	wx_last_good_wind_time = main_get_master_time();
 425:../system/src/drivers/analog_anemometer.c **** 
 426:../system/src/drivers/analog_anemometer.c **** #ifdef	WIND_DEBUG
 427:../system/src/drivers/analog_anemometer.c **** 	analog_anemometer_direction_timer_values[(analog_anemometer_direction_timer_values_it++) % ANALOG_
 428:../system/src/drivers/analog_anemometer.c **** #endif
 429:../system/src/drivers/analog_anemometer.c **** 
 430:../system/src/drivers/analog_anemometer.c **** 	// if the value is greater than maximum one just ignore
 431:../system/src/drivers/analog_anemometer.c **** 	if (current_value > UF_MAXIMUM_FREQUENCY) {
 432:../system/src/drivers/analog_anemometer.c **** 
 433:../system/src/drivers/analog_anemometer.c **** 		// and reinitialize the timer before returning from the function
 434:../system/src/drivers/analog_anemometer.c **** 		analog_anemometer_direction_reset();
 435:../system/src/drivers/analog_anemometer.c **** 
 436:../system/src/drivers/analog_anemometer.c **** 		return rte_wx_winddirection_last;
 437:../system/src/drivers/analog_anemometer.c **** 	}
 438:../system/src/drivers/analog_anemometer.c **** 
 439:../system/src/drivers/analog_anemometer.c **** 	if (analog_anemometer_direction_mode == DIRECTION_REGULAR) {
 440:../system/src/drivers/analog_anemometer.c **** 		// upscaling by factor of 1000 to omit usage of the floating point arithmetics
 441:../system/src/drivers/analog_anemometer.c **** 		uint32_t upscaled_frequecy = current_value * 100;
 442:../system/src/drivers/analog_anemometer.c **** 
 443:../system/src/drivers/analog_anemometer.c **** 		// calculating the ratio between the current input frequency and the maximum one
 444:../system/src/drivers/analog_anemometer.c **** 		uint16_t ratio_of_upscaled_frequency = upscaled_frequecy / UF_MAXIMUM_FREQUENCY;		// this val is 
 445:../system/src/drivers/analog_anemometer.c **** 
 446:../system/src/drivers/analog_anemometer.c **** 		// converting the upscaled ratio into the upscaled angle
 447:../system/src/drivers/analog_anemometer.c **** 		uint32_t upscaled_angle = ratio_of_upscaled_frequency * 360;			// this val is * 100 from physical
 448:../system/src/drivers/analog_anemometer.c **** 
 449:../system/src/drivers/analog_anemometer.c **** 		// rescaling the angle according to lower and higher limit
 450:../system/src/drivers/analog_anemometer.c **** 		int32_t angle_adjusted_to_real_freq_borders = analog_anemometer_a_coeff *
 451:../system/src/drivers/analog_anemometer.c **** 												upscaled_angle + 1000 * analog_anemometer_b_coeff;
 452:../system/src/drivers/analog_anemometer.c **** 
 453:../system/src/drivers/analog_anemometer.c **** 		if (angle_adjusted_to_real_freq_borders < 0)
 454:../system/src/drivers/analog_anemometer.c **** 			angle_adjusted_to_real_freq_borders = 0;
 455:../system/src/drivers/analog_anemometer.c **** 
 456:../system/src/drivers/analog_anemometer.c **** 		// downscaling the angle
 457:../system/src/drivers/analog_anemometer.c **** 		downscaled_angle = angle_adjusted_to_real_freq_borders / 10000;
 458:../system/src/drivers/analog_anemometer.c **** 
 459:../system/src/drivers/analog_anemometer.c **** 		// adjusting to polarity of the signal
 460:../system/src/drivers/analog_anemometer.c **** 		downscaled_angle *= analog_anemometer_direction_pol;
 461:../system/src/drivers/analog_anemometer.c **** 	}
 462:../system/src/drivers/analog_anemometer.c **** 	else if (analog_anemometer_direction_mode == DIRECTION_SPARKFUN) {
 463:../system/src/drivers/analog_anemometer.c **** 		downscaled_angle = analog_anemometer_direction_sparkfun(current_value);
 464:../system/src/drivers/analog_anemometer.c **** 	}
 465:../system/src/drivers/analog_anemometer.c **** 	else {
 466:../system/src/drivers/analog_anemometer.c **** 		;
 467:../system/src/drivers/analog_anemometer.c **** 	}
 468:../system/src/drivers/analog_anemometer.c **** 
 469:../system/src/drivers/analog_anemometer.c **** 	analog_anemometer_last_direction_cnt = 0;
 470:../system/src/drivers/analog_anemometer.c **** 
 471:../system/src/drivers/analog_anemometer.c **** 	rte_wx_winddirection_last = downscaled_angle;
 472:../system/src/drivers/analog_anemometer.c **** 
 473:../system/src/drivers/analog_anemometer.c **** 	// set the led state
 474:../system/src/drivers/analog_anemometer.c **** 	if (rte_wx_winddirection_last > 0 && rte_wx_winddirection_last < 180) {
 475:../system/src/drivers/analog_anemometer.c **** 		led_control_led2_bottom(true);
 476:../system/src/drivers/analog_anemometer.c **** 	}
 477:../system/src/drivers/analog_anemometer.c **** 	else {
 478:../system/src/drivers/analog_anemometer.c **** 		led_control_led2_bottom(false);
 479:../system/src/drivers/analog_anemometer.c **** 	}
 480:../system/src/drivers/analog_anemometer.c **** 
 481:../system/src/drivers/analog_anemometer.c **** 	TIM_SetCounter(TIM3, 0);
 482:../system/src/drivers/analog_anemometer.c **** 
 483:../system/src/drivers/analog_anemometer.c **** 	TIM_Cmd(TIM3, ENABLE);
 484:../system/src/drivers/analog_anemometer.c **** 
 485:../system/src/drivers/analog_anemometer.c **** 	return downscaled_angle;
 486:../system/src/drivers/analog_anemometer.c **** }
 487:../system/src/drivers/analog_anemometer.c **** 
 488:../system/src/drivers/analog_anemometer.c **** int16_t analog_anemometer_direction_sparkfun(uint32_t timer_value) {
 803              		.loc 1 488 0
 804              		.cfi_startproc
 805              		@ args = 0, pretend = 0, frame = 0
 806              		@ frame_needed = 0, uses_anonymous_args = 0
 807              		@ link register save eliminated.
 808              	.LVL83:
 809              	.LBB38:
 489:../system/src/drivers/analog_anemometer.c **** 
 490:../system/src/drivers/analog_anemometer.c **** 	int16_t out = -1;
 491:../system/src/drivers/analog_anemometer.c **** 
 492:../system/src/drivers/analog_anemometer.c **** 	// iterate through table which consist ranges of valid timer counter values
 493:../system/src/drivers/analog_anemometer.c **** 	// for each wind direction
 494:../system/src/drivers/analog_anemometer.c **** 	for (int i = 0; i < 16; i++)  {
 810              		.loc 1 494 0
 811 0000 0023     		movs	r3, #0
 812 0002 00E0     		b	.L56
 813              	.LVL84:
 814              	.L57:
 815              		.loc 1 494 0 is_stmt 0 discriminator 2
 816 0004 0133     		adds	r3, r3, #1
 817              	.LVL85:
 818              	.L56:
 819              		.loc 1 494 0 discriminator 1
 820 0006 0F2B     		cmp	r3, #15
 821 0008 14DC     		bgt	.L60
 495:../system/src/drivers/analog_anemometer.c **** 		if (timer_value >= analog_anemometer_direction_sparkfun_ranges[i][0] &&
 822              		.loc 1 495 0 is_stmt 1
 823 000a 03EB4301 		add	r1, r3, r3, lsl #1
 824 000e 4A00     		lsls	r2, r1, #1
 825 0010 0A49     		ldr	r1, .L61
 826 0012 8A5E     		ldrsh	r2, [r1, r2]
 827 0014 8242     		cmp	r2, r0
 828 0016 F5D8     		bhi	.L57
 496:../system/src/drivers/analog_anemometer.c **** 			timer_value < analog_anemometer_direction_sparkfun_ranges[i][1]	) {
 829              		.loc 1 496 0 discriminator 1
 830 0018 03EB4302 		add	r2, r3, r3, lsl #1
 831 001c 5100     		lsls	r1, r2, #1
 832 001e 074A     		ldr	r2, .L61
 833 0020 0A44     		add	r2, r2, r1
 834 0022 B2F90220 		ldrsh	r2, [r2, #2]
 495:../system/src/drivers/analog_anemometer.c **** 		if (timer_value >= analog_anemometer_direction_sparkfun_ranges[i][0] &&
 835              		.loc 1 495 0 discriminator 1
 836 0026 8242     		cmp	r2, r0
 837 0028 ECD9     		bls	.L57
 497:../system/src/drivers/analog_anemometer.c **** 
 498:../system/src/drivers/analog_anemometer.c **** 			out = analog_anemometer_direction_sparkfun_ranges[i][2];
 838              		.loc 1 498 0
 839 002a 044B     		ldr	r3, .L61
 840              	.LVL86:
 841 002c 0B44     		add	r3, r3, r1
 842 002e B3F90400 		ldrsh	r0, [r3, #4]
 843              	.LVL87:
 499:../system/src/drivers/analog_anemometer.c **** 
 500:../system/src/drivers/analog_anemometer.c **** 			// exit from the loop and then from the function if the angle has been found.
 501:../system/src/drivers/analog_anemometer.c **** 			break;
 844              		.loc 1 501 0
 845 0032 7047     		bx	lr
 846              	.LVL88:
 847              	.L60:
 848              	.LBE38:
 490:../system/src/drivers/analog_anemometer.c **** 
 849              		.loc 1 490 0
 850 0034 4FF0FF30 		mov	r0, #-1
 851              	.LVL89:
 502:../system/src/drivers/analog_anemometer.c **** 		}
 503:../system/src/drivers/analog_anemometer.c **** 	}
 504:../system/src/drivers/analog_anemometer.c **** 
 505:../system/src/drivers/analog_anemometer.c **** 	return out;
 506:../system/src/drivers/analog_anemometer.c **** }
 852              		.loc 1 506 0
 853 0038 7047     		bx	lr
 854              	.L62:
 855 003a 00BF     		.align	2
 856              	.L61:
 857 003c 00000000 		.word	.LANCHOR7
 858              		.cfi_endproc
 859              	.LFE102:
 861              		.section	.text.analog_anemometer_direction_reset,"ax",%progbits
 862              		.align	1
 863              		.global	analog_anemometer_direction_reset
 864              		.syntax unified
 865              		.thumb
 866              		.thumb_func
 867              		.fpu softvfp
 869              	analog_anemometer_direction_reset:
 870              	.LFB103:
 507:../system/src/drivers/analog_anemometer.c **** 
 508:../system/src/drivers/analog_anemometer.c **** void analog_anemometer_direction_reset(void) {
 871              		.loc 1 508 0
 872              		.cfi_startproc
 873              		@ args = 0, pretend = 0, frame = 0
 874              		@ frame_needed = 0, uses_anonymous_args = 0
 875 0000 10B5     		push	{r4, lr}
 876              		.cfi_def_cfa_offset 8
 877              		.cfi_offset 4, -8
 878              		.cfi_offset 14, -4
 509:../system/src/drivers/analog_anemometer.c **** 
 510:../system/src/drivers/analog_anemometer.c **** 	// stopping the timer
 511:../system/src/drivers/analog_anemometer.c **** 	TIM_Cmd(TIM3, DISABLE);
 879              		.loc 1 511 0
 880 0002 074C     		ldr	r4, .L65
 881 0004 0021     		movs	r1, #0
 882 0006 2046     		mov	r0, r4
 883 0008 FFF7FEFF 		bl	TIM_Cmd
 884              	.LVL90:
 512:../system/src/drivers/analog_anemometer.c **** 
 513:../system/src/drivers/analog_anemometer.c **** 	// resetting it
 514:../system/src/drivers/analog_anemometer.c **** 	TIM_SetCounter(TIM3, 0);
 885              		.loc 1 514 0
 886 000c 0021     		movs	r1, #0
 887 000e 2046     		mov	r0, r4
 888 0010 FFF7FEFF 		bl	TIM_SetCounter
 889              	.LVL91:
 515:../system/src/drivers/analog_anemometer.c **** 
 516:../system/src/drivers/analog_anemometer.c **** 	// end then restarting once again
 517:../system/src/drivers/analog_anemometer.c **** 	TIM_Cmd(TIM3, ENABLE);
 890              		.loc 1 517 0
 891 0014 0121     		movs	r1, #1
 892 0016 2046     		mov	r0, r4
 893 0018 FFF7FEFF 		bl	TIM_Cmd
 894              	.LVL92:
 518:../system/src/drivers/analog_anemometer.c **** }
 895              		.loc 1 518 0
 896 001c 10BD     		pop	{r4, pc}
 897              	.L66:
 898 001e 00BF     		.align	2
 899              	.L65:
 900 0020 00040040 		.word	1073742848
 901              		.cfi_endproc
 902              	.LFE103:
 904              		.section	.text.analog_anemometer_direction_handler,"ax",%progbits
 905              		.align	1
 906              		.global	analog_anemometer_direction_handler
 907              		.syntax unified
 908              		.thumb
 909              		.thumb_func
 910              		.fpu softvfp
 912              	analog_anemometer_direction_handler:
 913              	.LFB101:
 403:../system/src/drivers/analog_anemometer.c **** 
 914              		.loc 1 403 0
 915              		.cfi_startproc
 916              		@ args = 0, pretend = 0, frame = 0
 917              		@ frame_needed = 0, uses_anonymous_args = 0
 918 0000 38B5     		push	{r3, r4, r5, lr}
 919              		.cfi_def_cfa_offset 16
 920              		.cfi_offset 3, -16
 921              		.cfi_offset 4, -12
 922              		.cfi_offset 5, -8
 923              		.cfi_offset 14, -4
 405:../system/src/drivers/analog_anemometer.c **** 
 924              		.loc 1 405 0
 925 0002 484C     		ldr	r4, .L84
 926 0004 0021     		movs	r1, #0
 927 0006 2046     		mov	r0, r4
 928 0008 FFF7FEFF 		bl	TIM_Cmd
 929              	.LVL93:
 410:../system/src/drivers/analog_anemometer.c **** 
 930              		.loc 1 410 0
 931 000c 2046     		mov	r0, r4
 932 000e FFF7FEFF 		bl	TIM_GetCounter
 933              	.LVL94:
 413:../system/src/drivers/analog_anemometer.c **** 		TIM_SetCounter(TIM3, 0);
 934              		.loc 1 413 0
 935 0012 0028     		cmp	r0, #0
 936 0014 3CD0     		beq	.L79
 937 0016 0146     		mov	r1, r0
 938              	.LBB39:
 939              	.LBB40:
 940              		.file 4 "../include/main.h"
   1:../include/main.h **** #ifndef MAIN_H_
   2:../include/main.h **** #define MAIN_H_
   3:../include/main.h **** 
   4:../include/main.h **** #include "aprs/ax25.h"
   5:../include/main.h **** #include "drivers/serial.h"
   6:../include/main.h **** #include "config_data.h"
   7:../include/main.h **** 
   8:../include/main.h **** #define SW_VER "EA00"
   9:../include/main.h **** #define SW_DATE "23052021"
  10:../include/main.h **** 
  11:../include/main.h **** #define SYSTICK_TICKS_PER_SECONDS 100
  12:../include/main.h **** #define SYSTICK_TICKS_PERIOD 10
  13:../include/main.h **** 
  14:../include/main.h **** #define INTERNAL_WATCHDOG
  15:../include/main.h **** #define EXTERNAL_WATCHDOG
  16:../include/main.h **** 
  17:../include/main.h **** #define PWR_SWITCH_BOTH
  18:../include/main.h **** 
  19:../include/main.h **** #define OWN_APRS_MSG_LN 	160
  20:../include/main.h **** 
  21:../include/main.h **** extern uint32_t master_time;
  22:../include/main.h **** 
  23:../include/main.h **** extern const config_data_mode_t * main_config_data_mode;
  24:../include/main.h **** extern const config_data_basic_t * main_config_data_basic;
  25:../include/main.h **** extern const config_data_wx_sources_t * main_config_data_wx_sources;
  26:../include/main.h **** extern const config_data_umb_t * main_config_data_umb;
  27:../include/main.h **** extern const config_data_rtu_t * main_config_data_rtu;
  28:../include/main.h **** 
  29:../include/main.h **** extern int32_t main_wx_sensors_pool_timer;
  30:../include/main.h **** extern int32_t main_one_minute_pool_timer;
  31:../include/main.h **** extern int32_t main_one_second_pool_timer;
  32:../include/main.h **** extern int32_t main_two_second_pool_timer;
  33:../include/main.h **** extern int32_t main_ten_second_pool_timer;
  34:../include/main.h **** 
  35:../include/main.h **** extern AX25Ctx main_ax25;
  36:../include/main.h **** extern Afsk main_afsk;
  37:../include/main.h **** 
  38:../include/main.h **** extern AX25Call main_own_path[3];
  39:../include/main.h **** extern uint8_t main_own_path_ln;
  40:../include/main.h **** extern uint8_t main_own_aprs_msg_len;
  41:../include/main.h **** extern char main_own_aprs_msg[OWN_APRS_MSG_LN];
  42:../include/main.h **** 
  43:../include/main.h **** extern char main_string_latitude[9];
  44:../include/main.h **** extern char main_string_longitude[9];
  45:../include/main.h **** 
  46:../include/main.h **** extern char main_symbol_f;
  47:../include/main.h **** extern char main_symbol_s;
  48:../include/main.h **** 
  49:../include/main.h **** extern srl_context_t* main_kiss_srl_ctx_ptr;
  50:../include/main.h **** extern srl_context_t* main_wx_srl_ctx_ptr;
  51:../include/main.h **** 
  52:../include/main.h **** extern  uint8_t main_kiss_enabled;
  53:../include/main.h **** 
  54:../include/main.h **** extern char after_tx_lock;
  55:../include/main.h **** 
  56:../include/main.h **** extern unsigned short rx10m, tx10m, digi10m, digidrop10m, kiss10m;
  57:../include/main.h **** 
  58:../include/main.h **** uint16_t main_get_adc_sample(void);
  59:../include/main.h **** 
  60:../include/main.h **** void main_service_cpu_load_ticks(void);
  61:../include/main.h **** 
  62:../include/main.h **** inline uint32_t main_get_master_time(void) {
  63:../include/main.h **** 	return master_time;
 941              		.loc 4 63 0
 942 0018 434B     		ldr	r3, .L84+4
 943 001a 1A68     		ldr	r2, [r3]
 944              	.LBE40:
 945              	.LBE39:
 424:../system/src/drivers/analog_anemometer.c **** 
 946              		.loc 1 424 0
 947 001c 434B     		ldr	r3, .L84+8
 948 001e 1A60     		str	r2, [r3]
 427:../system/src/drivers/analog_anemometer.c **** #endif
 949              		.loc 1 427 0
 950 0020 434B     		ldr	r3, .L84+12
 951 0022 1A78     		ldrb	r2, [r3]	@ zero_extendqisi2
 952 0024 501C     		adds	r0, r2, #1
 953              	.LVL95:
 954 0026 1870     		strb	r0, [r3]
 955 0028 424B     		ldr	r3, .L84+16
 956 002a A3FB0203 		umull	r0, r3, r3, r2
 957 002e DB08     		lsrs	r3, r3, #3
 958 0030 03EB8303 		add	r3, r3, r3, lsl #2
 959 0034 5800     		lsls	r0, r3, #1
 960 0036 121A     		subs	r2, r2, r0
 961 0038 D2B2     		uxtb	r2, r2
 962 003a 3F4B     		ldr	r3, .L84+20
 963 003c 23F81210 		strh	r1, [r3, r2, lsl #1]	@ movhi
 431:../system/src/drivers/analog_anemometer.c **** 
 964              		.loc 1 431 0
 965 0040 42F25803 		movw	r3, #8280
 966 0044 9942     		cmp	r1, r3
 967 0046 32D8     		bhi	.L80
 439:../system/src/drivers/analog_anemometer.c **** 		// upscaling by factor of 1000 to omit usage of the floating point arithmetics
 968              		.loc 1 439 0
 969 0048 3C4B     		ldr	r3, .L84+24
 970 004a 93F90030 		ldrsb	r3, [r3]
 971 004e 012B     		cmp	r3, #1
 972 0050 33D0     		beq	.L81
 462:../system/src/drivers/analog_anemometer.c **** 		downscaled_angle = analog_anemometer_direction_sparkfun(current_value);
 973              		.loc 1 462 0
 974 0052 022B     		cmp	r3, #2
 975 0054 5BD0     		beq	.L82
 407:../system/src/drivers/analog_anemometer.c **** 
 976              		.loc 1 407 0
 977 0056 0024     		movs	r4, #0
 978              	.LVL96:
 979              	.L73:
 469:../system/src/drivers/analog_anemometer.c **** 
 980              		.loc 1 469 0
 981 0058 394B     		ldr	r3, .L84+28
 982 005a 0022     		movs	r2, #0
 983 005c 1A80     		strh	r2, [r3]	@ movhi
 471:../system/src/drivers/analog_anemometer.c **** 
 984              		.loc 1 471 0
 985 005e 394B     		ldr	r3, .L84+32
 986 0060 1C80     		strh	r4, [r3]	@ movhi
 474:../system/src/drivers/analog_anemometer.c **** 		led_control_led2_bottom(true);
 987              		.loc 1 474 0
 988 0062 631E     		subs	r3, r4, #1
 989 0064 9BB2     		uxth	r3, r3
 990 0066 B22B     		cmp	r3, #178
 991 0068 56D8     		bhi	.L74
 992              	.LVL97:
 993              	.LBB41:
 994              	.LBB42:
  44:../include/LedConfig.h **** 	}
 995              		.loc 3 44 0
 996 006a 02F18042 		add	r2, r2, #1073741824
 997 006e 02F58832 		add	r2, r2, #69632
 998 0072 1369     		ldr	r3, [r2, #16]
 999 0074 43F40073 		orr	r3, r3, #512
 1000 0078 1361     		str	r3, [r2, #16]
 1001              	.LVL98:
 1002              	.L75:
 1003              	.LBE42:
 1004              	.LBE41:
 481:../system/src/drivers/analog_anemometer.c **** 
 1005              		.loc 1 481 0
 1006 007a 2A4D     		ldr	r5, .L84
 1007 007c 0021     		movs	r1, #0
 1008 007e 2846     		mov	r0, r5
 1009 0080 FFF7FEFF 		bl	TIM_SetCounter
 1010              	.LVL99:
 483:../system/src/drivers/analog_anemometer.c **** 
 1011              		.loc 1 483 0
 1012 0084 0121     		movs	r1, #1
 1013 0086 2846     		mov	r0, r5
 1014 0088 FFF7FEFF 		bl	TIM_Cmd
 1015              	.LVL100:
 485:../system/src/drivers/analog_anemometer.c **** }
 1016              		.loc 1 485 0
 1017 008c 20B2     		sxth	r0, r4
 1018              	.LVL101:
 1019              	.L69:
 486:../system/src/drivers/analog_anemometer.c **** 
 1020              		.loc 1 486 0
 1021 008e 38BD     		pop	{r3, r4, r5, pc}
 1022              	.LVL102:
 1023              	.L79:
 414:../system/src/drivers/analog_anemometer.c **** 
 1024              		.loc 1 414 0
 1025 0090 0021     		movs	r1, #0
 1026 0092 2046     		mov	r0, r4
 1027              	.LVL103:
 1028 0094 FFF7FEFF 		bl	TIM_SetCounter
 1029              	.LVL104:
 416:../system/src/drivers/analog_anemometer.c **** 
 1030              		.loc 1 416 0
 1031 0098 0121     		movs	r1, #1
 1032 009a 2046     		mov	r0, r4
 1033 009c FFF7FEFF 		bl	TIM_Cmd
 1034              	.LVL105:
 418:../system/src/drivers/analog_anemometer.c **** 
 1035              		.loc 1 418 0
 1036 00a0 294B     		ldr	r3, .L84+36
 1037 00a2 0122     		movs	r2, #1
 1038 00a4 1A70     		strb	r2, [r3]
 420:../system/src/drivers/analog_anemometer.c **** 	}
 1039              		.loc 1 420 0
 1040 00a6 274B     		ldr	r3, .L84+32
 1041 00a8 B3F90000 		ldrsh	r0, [r3]
 1042 00ac EFE7     		b	.L69
 1043              	.L80:
 434:../system/src/drivers/analog_anemometer.c **** 
 1044              		.loc 1 434 0
 1045 00ae FFF7FEFF 		bl	analog_anemometer_direction_reset
 1046              	.LVL106:
 436:../system/src/drivers/analog_anemometer.c **** 	}
 1047              		.loc 1 436 0
 1048 00b2 244B     		ldr	r3, .L84+32
 1049 00b4 B3F90000 		ldrsh	r0, [r3]
 1050 00b8 E9E7     		b	.L69
 1051              	.L81:
 1052              	.LBB43:
 441:../system/src/drivers/analog_anemometer.c **** 
 1053              		.loc 1 441 0
 1054 00ba 6423     		movs	r3, #100
 1055 00bc 03FB01F1 		mul	r1, r3, r1
 1056              	.LVL107:
 444:../system/src/drivers/analog_anemometer.c **** 
 1057              		.loc 1 444 0
 1058 00c0 224B     		ldr	r3, .L84+40
 1059 00c2 A3FB0131 		umull	r3, r1, r3, r1
 1060              	.LVL108:
 447:../system/src/drivers/analog_anemometer.c **** 
 1061              		.loc 1 447 0
 1062 00c6 C1F34F31 		ubfx	r1, r1, #13, #16
 1063              	.LVL109:
 1064 00ca 4FF4B473 		mov	r3, #360
 1065 00ce 03FB01F1 		mul	r1, r3, r1
 1066              	.LVL110:
 450:../system/src/drivers/analog_anemometer.c **** 												upscaled_angle + 1000 * analog_anemometer_b_coeff;
 1067              		.loc 1 450 0
 1068 00d2 1F4B     		ldr	r3, .L84+44
 1069 00d4 B3F90030 		ldrsh	r3, [r3]
 451:../system/src/drivers/analog_anemometer.c **** 
 1070              		.loc 1 451 0
 1071 00d8 1E4A     		ldr	r2, .L84+48
 1072 00da B2F90000 		ldrsh	r0, [r2]
 1073 00de 4FF47A72 		mov	r2, #1000
 1074 00e2 02FB00F2 		mul	r2, r2, r0
 1075 00e6 01FB0323 		mla	r3, r1, r3, r2
 1076              	.LVL111:
 453:../system/src/drivers/analog_anemometer.c **** 			angle_adjusted_to_real_freq_borders = 0;
 1077              		.loc 1 453 0
 1078 00ea 002B     		cmp	r3, #0
 1079 00ec 0DDB     		blt	.L83
 1080              	.LVL112:
 1081              	.L72:
 457:../system/src/drivers/analog_anemometer.c **** 
 1082              		.loc 1 457 0
 1083 00ee 1A4C     		ldr	r4, .L84+52
 1084 00f0 84FB0324 		smull	r2, r4, r4, r3
 1085 00f4 DB17     		asrs	r3, r3, #31
 1086              	.LVL113:
 1087 00f6 C3EB2433 		rsb	r3, r3, r4, asr #12
 1088 00fa 9BB2     		uxth	r3, r3
 1089              	.LVL114:
 460:../system/src/drivers/analog_anemometer.c **** 	}
 1090              		.loc 1 460 0
 1091 00fc 174A     		ldr	r2, .L84+56
 1092 00fe 92F90000 		ldrsb	r0, [r2]
 1093 0102 00FB03F0 		mul	r0, r0, r3
 1094 0106 84B2     		uxth	r4, r0
 1095              	.LVL115:
 1096              	.LBE43:
 1097 0108 A6E7     		b	.L73
 1098              	.LVL116:
 1099              	.L83:
 1100              	.LBB44:
 454:../system/src/drivers/analog_anemometer.c **** 
 1101              		.loc 1 454 0
 1102 010a 0023     		movs	r3, #0
 1103              	.LVL117:
 1104 010c EFE7     		b	.L72
 1105              	.LVL118:
 1106              	.L82:
 1107              	.LBE44:
 463:../system/src/drivers/analog_anemometer.c **** 	}
 1108              		.loc 1 463 0
 1109 010e 0846     		mov	r0, r1
 1110 0110 FFF7FEFF 		bl	analog_anemometer_direction_sparkfun
 1111              	.LVL119:
 1112 0114 84B2     		uxth	r4, r0
 1113              	.LVL120:
 1114 0116 9FE7     		b	.L73
 1115              	.L74:
 1116              	.LVL121:
 1117              	.LBB45:
 1118              	.LBB46:
  47:../include/LedConfig.h **** 	}
 1119              		.loc 3 47 0
 1120 0118 114A     		ldr	r2, .L84+60
 1121 011a 1369     		ldr	r3, [r2, #16]
 1122 011c 43F00073 		orr	r3, r3, #33554432
 1123 0120 1361     		str	r3, [r2, #16]
 1124 0122 AAE7     		b	.L75
 1125              	.L85:
 1126              		.align	2
 1127              	.L84:
 1128 0124 00040040 		.word	1073742848
 1129 0128 00000000 		.word	master_time
 1130 012c 00000000 		.word	wx_last_good_wind_time
 1131 0130 00000000 		.word	.LANCHOR9
 1132 0134 CDCCCCCC 		.word	-858993459
 1133 0138 00000000 		.word	analog_anemometer_direction_timer_values
 1134 013c 00000000 		.word	.LANCHOR10
 1135 0140 00000000 		.word	.LANCHOR11
 1136 0144 00000000 		.word	rte_wx_winddirection_last
 1137 0148 00000000 		.word	.LANCHOR8
 1138 014c 6D7B47FD 		.word	-45646995
 1139 0150 00000000 		.word	.LANCHOR1
 1140 0154 00000000 		.word	.LANCHOR2
 1141 0158 AD8BDB68 		.word	1759218605
 1142 015c 00000000 		.word	.LANCHOR3
 1143 0160 00100140 		.word	1073811456
 1144              	.LBE46:
 1145              	.LBE45:
 1146              		.cfi_endproc
 1147              	.LFE101:
 1149              		.section	.text.analog_anemometer_get_qf,"ax",%progbits
 1150              		.align	1
 1151              		.global	analog_anemometer_get_qf
 1152              		.syntax unified
 1153              		.thumb
 1154              		.thumb_func
 1155              		.fpu softvfp
 1157              	analog_anemometer_get_qf:
 1158              	.LFB104:
 519:../system/src/drivers/analog_anemometer.c **** 
 520:../system/src/drivers/analog_anemometer.c **** analog_wind_qf_t analog_anemometer_get_qf(void) {
 1159              		.loc 1 520 0
 1160              		.cfi_startproc
 1161              		@ args = 0, pretend = 0, frame = 0
 1162              		@ frame_needed = 0, uses_anonymous_args = 0
 1163              		@ link register save eliminated.
 521:../system/src/drivers/analog_anemometer.c **** 
 522:../system/src/drivers/analog_anemometer.c **** 	analog_wind_qf_t out;
 523:../system/src/drivers/analog_anemometer.c **** 
 524:../system/src/drivers/analog_anemometer.c **** 	if (
 525:../system/src/drivers/analog_anemometer.c **** 			analog_anemometer_slew_limit_fired == 0 &&
 1164              		.loc 1 525 0
 1165 0000 234B     		ldr	r3, .L102
 1166 0002 1B78     		ldrb	r3, [r3]	@ zero_extendqisi2
 524:../system/src/drivers/analog_anemometer.c **** 			analog_anemometer_slew_limit_fired == 0 &&
 1167              		.loc 1 524 0
 1168 0004 33B9     		cbnz	r3, .L87
 526:../system/src/drivers/analog_anemometer.c **** 			analog_anemometer_deboucing_fired == 0 &&
 1169              		.loc 1 526 0
 1170 0006 234A     		ldr	r2, .L102+4
 1171 0008 1278     		ldrb	r2, [r2]	@ zero_extendqisi2
 525:../system/src/drivers/analog_anemometer.c **** 			analog_anemometer_deboucing_fired == 0 &&
 1172              		.loc 1 525 0
 1173 000a 1AB9     		cbnz	r2, .L87
 527:../system/src/drivers/analog_anemometer.c **** 			analog_anemometer_direction_doesnt_work == 0
 1174              		.loc 1 527 0
 1175 000c 224A     		ldr	r2, .L102+8
 1176 000e 1278     		ldrb	r2, [r2]	@ zero_extendqisi2
 526:../system/src/drivers/analog_anemometer.c **** 			analog_anemometer_deboucing_fired == 0 &&
 1177              		.loc 1 526 0
 1178 0010 002A     		cmp	r2, #0
 1179 0012 35D0     		beq	.L92
 1180              	.L87:
 528:../system/src/drivers/analog_anemometer.c **** 			)
 529:../system/src/drivers/analog_anemometer.c **** 	{
 530:../system/src/drivers/analog_anemometer.c **** 		out = AN_WIND_QF_FULL;
 531:../system/src/drivers/analog_anemometer.c **** 	}
 532:../system/src/drivers/analog_anemometer.c **** 	else if (
 1181              		.loc 1 532 0
 1182 0014 012B     		cmp	r3, #1
 1183 0016 19D0     		beq	.L99
 1184              	.L89:
 533:../system/src/drivers/analog_anemometer.c **** 			analog_anemometer_slew_limit_fired == 1 &&
 534:../system/src/drivers/analog_anemometer.c **** 			analog_anemometer_deboucing_fired == 0 &&
 535:../system/src/drivers/analog_anemometer.c **** 			analog_anemometer_direction_doesnt_work == 0
 536:../system/src/drivers/analog_anemometer.c **** 			)
 537:../system/src/drivers/analog_anemometer.c **** 	{
 538:../system/src/drivers/analog_anemometer.c **** 		out = AN_WIND_QF_DEGRADED_SLEW;
 539:../system/src/drivers/analog_anemometer.c **** 	}
 540:../system/src/drivers/analog_anemometer.c **** 	else if (
 1185              		.loc 1 540 0
 1186 0018 1BB9     		cbnz	r3, .L90
 541:../system/src/drivers/analog_anemometer.c **** 			analog_anemometer_slew_limit_fired == 0 &&
 542:../system/src/drivers/analog_anemometer.c **** 			analog_anemometer_deboucing_fired == 1 &&
 1187              		.loc 1 542 0
 1188 001a 1E4A     		ldr	r2, .L102+4
 1189 001c 1278     		ldrb	r2, [r2]	@ zero_extendqisi2
 541:../system/src/drivers/analog_anemometer.c **** 			analog_anemometer_slew_limit_fired == 0 &&
 1190              		.loc 1 541 0
 1191 001e 012A     		cmp	r2, #1
 1192 0020 1ED0     		beq	.L100
 1193              	.L90:
 543:../system/src/drivers/analog_anemometer.c **** 			analog_anemometer_direction_doesnt_work == 0
 544:../system/src/drivers/analog_anemometer.c **** 			)
 545:../system/src/drivers/analog_anemometer.c **** 	{
 546:../system/src/drivers/analog_anemometer.c **** 		out = AN_WIND_QF_DEGRADED_DEBOUNCE;
 547:../system/src/drivers/analog_anemometer.c **** 
 548:../system/src/drivers/analog_anemometer.c **** 	}
 549:../system/src/drivers/analog_anemometer.c **** 	else if (
 1194              		.loc 1 549 0
 1195 0022 012B     		cmp	r3, #1
 1196 0024 22D0     		beq	.L101
 1197              	.L91:
 550:../system/src/drivers/analog_anemometer.c **** 			analog_anemometer_slew_limit_fired == 1 &&
 551:../system/src/drivers/analog_anemometer.c **** 			analog_anemometer_deboucing_fired == 1 &&
 552:../system/src/drivers/analog_anemometer.c **** 			analog_anemometer_direction_doesnt_work == 0
 553:../system/src/drivers/analog_anemometer.c **** 			)
 554:../system/src/drivers/analog_anemometer.c **** 	{
 555:../system/src/drivers/analog_anemometer.c **** 		out = AN_WIND_QF_DEGRADED;
 556:../system/src/drivers/analog_anemometer.c **** 
 557:../system/src/drivers/analog_anemometer.c **** 	}
 558:../system/src/drivers/analog_anemometer.c **** 	else if (
 1198              		.loc 1 558 0
 1199 0026 002B     		cmp	r3, #0
 1200 0028 2CD1     		bne	.L96
 559:../system/src/drivers/analog_anemometer.c **** 			analog_anemometer_slew_limit_fired == 0 &&
 560:../system/src/drivers/analog_anemometer.c **** 			analog_anemometer_deboucing_fired == 0 &&
 1201              		.loc 1 560 0
 1202 002a 1A4B     		ldr	r3, .L102+4
 1203 002c 1B78     		ldrb	r3, [r3]	@ zero_extendqisi2
 559:../system/src/drivers/analog_anemometer.c **** 			analog_anemometer_slew_limit_fired == 0 &&
 1204              		.loc 1 559 0
 1205 002e 002B     		cmp	r3, #0
 1206 0030 2AD1     		bne	.L97
 561:../system/src/drivers/analog_anemometer.c **** 			analog_anemometer_direction_doesnt_work == 1
 1207              		.loc 1 561 0
 1208 0032 194B     		ldr	r3, .L102+8
 1209 0034 1B78     		ldrb	r3, [r3]	@ zero_extendqisi2
 560:../system/src/drivers/analog_anemometer.c **** 			analog_anemometer_direction_doesnt_work == 1
 1210              		.loc 1 560 0
 1211 0036 012B     		cmp	r3, #1
 1212 0038 28D0     		beq	.L98
 562:../system/src/drivers/analog_anemometer.c **** 			)
 563:../system/src/drivers/analog_anemometer.c **** 	{
 564:../system/src/drivers/analog_anemometer.c **** 		out = AN_WIND_QF_NOT_AVALIABLE;
 565:../system/src/drivers/analog_anemometer.c **** 
 566:../system/src/drivers/analog_anemometer.c **** 	}
 567:../system/src/drivers/analog_anemometer.c **** 	else {
 568:../system/src/drivers/analog_anemometer.c **** 		out = AN_WIND_QF_UNKNOWN;
 1213              		.loc 1 568 0
 1214 003a 0520     		movs	r0, #5
 1215              	.L88:
 1216              	.LVL122:
 569:../system/src/drivers/analog_anemometer.c **** 
 570:../system/src/drivers/analog_anemometer.c **** 	}
 571:../system/src/drivers/analog_anemometer.c **** 
 572:../system/src/drivers/analog_anemometer.c **** 	// reseting flags
 573:../system/src/drivers/analog_anemometer.c **** 	analog_anemometer_slew_limit_fired = 0;
 1217              		.loc 1 573 0
 1218 003c 0023     		movs	r3, #0
 1219 003e 144A     		ldr	r2, .L102
 1220 0040 1370     		strb	r3, [r2]
 574:../system/src/drivers/analog_anemometer.c **** 	analog_anemometer_deboucing_fired = 0;
 1221              		.loc 1 574 0
 1222 0042 144A     		ldr	r2, .L102+4
 1223 0044 1370     		strb	r3, [r2]
 575:../system/src/drivers/analog_anemometer.c **** 	analog_anemometer_direction_doesnt_work = 0;
 1224              		.loc 1 575 0
 1225 0046 144A     		ldr	r2, .L102+8
 1226 0048 1370     		strb	r3, [r2]
 576:../system/src/drivers/analog_anemometer.c **** 
 577:../system/src/drivers/analog_anemometer.c **** 	return out;
 578:../system/src/drivers/analog_anemometer.c **** 
 579:../system/src/drivers/analog_anemometer.c **** }
 1227              		.loc 1 579 0
 1228 004a 7047     		bx	lr
 1229              	.LVL123:
 1230              	.L99:
 534:../system/src/drivers/analog_anemometer.c **** 			analog_anemometer_direction_doesnt_work == 0
 1231              		.loc 1 534 0
 1232 004c 114A     		ldr	r2, .L102+4
 1233 004e 1278     		ldrb	r2, [r2]	@ zero_extendqisi2
 533:../system/src/drivers/analog_anemometer.c **** 			analog_anemometer_deboucing_fired == 0 &&
 1234              		.loc 1 533 0
 1235 0050 002A     		cmp	r2, #0
 1236 0052 E1D1     		bne	.L89
 535:../system/src/drivers/analog_anemometer.c **** 			)
 1237              		.loc 1 535 0
 1238 0054 104A     		ldr	r2, .L102+8
 1239 0056 1278     		ldrb	r2, [r2]	@ zero_extendqisi2
 534:../system/src/drivers/analog_anemometer.c **** 			analog_anemometer_direction_doesnt_work == 0
 1240              		.loc 1 534 0
 1241 0058 002A     		cmp	r2, #0
 1242 005a DDD1     		bne	.L89
 538:../system/src/drivers/analog_anemometer.c **** 	}
 1243              		.loc 1 538 0
 1244 005c 0220     		movs	r0, #2
 1245 005e EDE7     		b	.L88
 1246              	.L100:
 543:../system/src/drivers/analog_anemometer.c **** 			)
 1247              		.loc 1 543 0
 1248 0060 0D4A     		ldr	r2, .L102+8
 1249 0062 1278     		ldrb	r2, [r2]	@ zero_extendqisi2
