   1              		.cpu cortex-m4
   2              		.eabi_attribute 27, 1
   3              		.eabi_attribute 28, 1
   4              		.eabi_attribute 20, 1
   5              		.eabi_attribute 21, 1
   6              		.eabi_attribute 23, 3
   7              		.eabi_attribute 24, 1
   8              		.eabi_attribute 25, 1
   9              		.eabi_attribute 26, 1
  10              		.eabi_attribute 30, 1
  11              		.eabi_attribute 34, 1
  12              		.eabi_attribute 18, 4
  13              		.file	"delay.c"
  14              		.text
  15              	.Ltext0:
  16              		.cfi_sections	.debug_frame
  17              		.section	.text.delay_fixed,"ax",%progbits
  18              		.align	1
  19              		.global	delay_fixed
  20              		.syntax unified
  21              		.thumb
  22              		.thumb_func
  23              		.fpu fpv4-sp-d16
  25              	delay_fixed:
  26              	.LFB351:
  27              		.file 1 "../src/delay.c"
   1:../src/delay.c **** /*
   2:../src/delay.c ****  * delay.c
   3:../src/delay.c ****  *
   4:../src/delay.c ****  *  Created on: 26.01.2019
   5:../src/delay.c ****  *      Author: mateusz
   6:../src/delay.c ****  */
   7:../src/delay.c **** 
   8:../src/delay.c **** #include "main.h"
   9:../src/delay.c **** 
  10:../src/delay.c **** uint16_t preset_delay_msecs = 0;
  11:../src/delay.c **** uint8_t preset_use_random = 0;
  12:../src/delay.c **** 
  13:../src/delay.c **** // counter decrement in Systick handler
  14:../src/delay.c **** volatile uint16_t delay_cnt = 0;
  15:../src/delay.c **** 
  16:../src/delay.c **** void delay_fixed(uint16_t delay_in_msecs) {
  28              		.loc 1 16 0
  29              		.cfi_startproc
  30              		@ args = 0, pretend = 0, frame = 0
  31              		@ frame_needed = 0, uses_anonymous_args = 0
  32              		@ link register save eliminated.
  33              	.LVL0:
  17:../src/delay.c **** 
  18:../src/delay.c **** 	delay_cnt = delay_in_msecs;
  34              		.loc 1 18 0
  35 0000 034B     		ldr	r3, .L3
  36 0002 1880     		strh	r0, [r3]	@ movhi
  37              	.L2:
  19:../src/delay.c **** 
  20:../src/delay.c **** 	while(delay_cnt > 0);
  38              		.loc 1 20 0 discriminator 1
  39 0004 024B     		ldr	r3, .L3
  40 0006 1B88     		ldrh	r3, [r3]
  41 0008 9BB2     		uxth	r3, r3
  42 000a 002B     		cmp	r3, #0
  43 000c FAD1     		bne	.L2
  21:../src/delay.c **** 
  22:../src/delay.c **** 	return;
  23:../src/delay.c **** 
  24:../src/delay.c **** }
  44              		.loc 1 24 0
  45 000e 7047     		bx	lr
  46              	.L4:
  47              		.align	2
  48              	.L3:
  49 0010 00000000 		.word	.LANCHOR0
  50              		.cfi_endproc
  51              	.LFE351:
  53              		.section	.text.delay_fixed_with_count,"ax",%progbits
  54              		.align	1
  55              		.global	delay_fixed_with_count
  56              		.syntax unified
  57              		.thumb
  58              		.thumb_func
  59              		.fpu fpv4-sp-d16
  61              	delay_fixed_with_count:
  62              	.LFB352:
  25:../src/delay.c **** 
  26:../src/delay.c **** uint32_t delay_fixed_with_count(uint16_t delay_in_msecs) {
  63              		.loc 1 26 0
  64              		.cfi_startproc
  65              		@ args = 0, pretend = 0, frame = 0
  66              		@ frame_needed = 0, uses_anonymous_args = 0
  67              		@ link register save eliminated.
  68              	.LVL1:
  27:../src/delay.c **** 
  28:../src/delay.c **** 	uint32_t ret = 0;
  29:../src/delay.c **** 
  30:../src/delay.c **** 	delay_cnt = delay_in_msecs;
  69              		.loc 1 30 0
  70 0000 054B     		ldr	r3, .L8
  71 0002 1880     		strh	r0, [r3]	@ movhi
  28:../src/delay.c **** 
  72              		.loc 1 28 0
  73 0004 0020     		movs	r0, #0
  74              	.LVL2:
  31:../src/delay.c **** 
  32:../src/delay.c **** 	while(delay_cnt > 0) {
  75              		.loc 1 32 0
  76 0006 00E0     		b	.L6
  77              	.LVL3:
  78              	.L7:
  33:../src/delay.c **** 		ret++;
  79              		.loc 1 33 0
  80 0008 0130     		adds	r0, r0, #1
  81              	.LVL4:
  82              	.L6:
  32:../src/delay.c **** 		ret++;
  83              		.loc 1 32 0
  84 000a 034B     		ldr	r3, .L8
  85 000c 1B88     		ldrh	r3, [r3]
  86 000e 9BB2     		uxth	r3, r3
  87 0010 002B     		cmp	r3, #0
  88 0012 F9D1     		bne	.L7
  34:../src/delay.c **** 	}
  35:../src/delay.c **** 
  36:../src/delay.c **** 	return ret;
  37:../src/delay.c **** }
  89              		.loc 1 37 0
  90 0014 7047     		bx	lr
  91              	.L9:
  92 0016 00BF     		.align	2
  93              	.L8:
  94 0018 00000000 		.word	.LANCHOR0
  95              		.cfi_endproc
  96              	.LFE352:
  98              		.section	.text.delay_random,"ax",%progbits
  99              		.align	1
 100              		.global	delay_random
 101              		.syntax unified
 102              		.thumb
 103              		.thumb_func
 104              		.fpu fpv4-sp-d16
 106              	delay_random:
 107              	.LFB353:
  38:../src/delay.c **** 
  39:../src/delay.c **** void delay_random(void) {
 108              		.loc 1 39 0
 109              		.cfi_startproc
 110              		@ args = 0, pretend = 0, frame = 0
 111              		@ frame_needed = 0, uses_anonymous_args = 0
 112 0000 08B5     		push	{r3, lr}
 113              		.cfi_def_cfa_offset 8
 114              		.cfi_offset 3, -8
 115              		.cfi_offset 14, -4
  40:../src/delay.c **** 
  41:../src/delay.c **** 	uint16_t sample = main_get_adc_sample();
 116              		.loc 1 41 0
 117 0002 FFF7FEFF 		bl	main_get_adc_sample
 118              	.LVL5:
  42:../src/delay.c **** 
  43:../src/delay.c **** 	// random element of delay value could vary from 0 to 300msecs in 20msec steps
  44:../src/delay.c **** 	delay_cnt = (uint16_t)(preset_delay_msecs / 4) + (sample % 15) * 20;
 119              		.loc 1 44 0
 120 0006 094B     		ldr	r3, .L12
 121 0008 1A88     		ldrh	r2, [r3]
 122 000a 094B     		ldr	r3, .L12+4
 123 000c A3FB0013 		umull	r1, r3, r3, r0
 124 0010 DB08     		lsrs	r3, r3, #3
 125 0012 C3EB0313 		rsb	r3, r3, r3, lsl #4
 126 0016 C01A     		subs	r0, r0, r3
 127              	.LVL6:
 128 0018 00EB8000 		add	r0, r0, r0, lsl #2
 129 001c 8300     		lsls	r3, r0, #2
 130 001e 03EB9203 		add	r3, r3, r2, lsr #2
 131 0022 9BB2     		uxth	r3, r3
 132 0024 034A     		ldr	r2, .L12+8
 133 0026 1380     		strh	r3, [r2]	@ movhi
  45:../src/delay.c **** 
  46:../src/delay.c **** }
 134              		.loc 1 46 0
 135 0028 08BD     		pop	{r3, pc}
 136              	.L13:
 137 002a 00BF     		.align	2
 138              	.L12:
 139 002c 00000000 		.word	.LANCHOR1
 140 0030 89888888 		.word	-2004318071
 141 0034 00000000 		.word	.LANCHOR0
 142              		.cfi_endproc
 143              	.LFE353:
 145              		.section	.text.delay_set,"ax",%progbits
 146              		.align	1
 147              		.global	delay_set
 148              		.syntax unified
 149              		.thumb
 150              		.thumb_func
 151              		.fpu fpv4-sp-d16
 153              	delay_set:
 154              	.LFB354:
  47:../src/delay.c **** 
  48:../src/delay.c **** void delay_set(uint16_t delay_in_msecs, uint8_t randomize) {
 155              		.loc 1 48 0
 156              		.cfi_startproc
 157              		@ args = 0, pretend = 0, frame = 0
 158              		@ frame_needed = 0, uses_anonymous_args = 0
 159              		@ link register save eliminated.
 160              	.LVL7:
  49:../src/delay.c **** 	preset_delay_msecs = delay_in_msecs * 50;
 161              		.loc 1 49 0
 162 0000 00EB8000 		add	r0, r0, r0, lsl #2
 163              	.LVL8:
 164 0004 00EB8000 		add	r0, r0, r0, lsl #2
 165 0008 4300     		lsls	r3, r0, #1
 166 000a 064A     		ldr	r2, .L18
 167 000c 1380     		strh	r3, [r2]	@ movhi
  50:../src/delay.c **** 
  51:../src/delay.c **** 	if (randomize == 1) {
 168              		.loc 1 51 0
 169 000e 0129     		cmp	r1, #1
 170 0010 03D0     		beq	.L17
  52:../src/delay.c **** 		preset_use_random = 1;
  53:../src/delay.c **** 	}
  54:../src/delay.c **** 	else {
  55:../src/delay.c **** 		preset_use_random = 0;
 171              		.loc 1 55 0
 172 0012 054B     		ldr	r3, .L18+4
 173 0014 0022     		movs	r2, #0
 174 0016 1A70     		strb	r2, [r3]
  56:../src/delay.c **** 	}
  57:../src/delay.c **** }
 175              		.loc 1 57 0
 176 0018 7047     		bx	lr
 177              	.L17:
  52:../src/delay.c **** 		preset_use_random = 1;
 178              		.loc 1 52 0
 179 001a 034B     		ldr	r3, .L18+4
 180 001c 0122     		movs	r2, #1
 181 001e 1A70     		strb	r2, [r3]
 182 0020 7047     		bx	lr
 183              	.L19:
 184 0022 00BF     		.align	2
 185              	.L18:
 186 0024 00000000 		.word	.LANCHOR1
 187 0028 00000000 		.word	.LANCHOR2
 188              		.cfi_endproc
 189              	.LFE354:
 191              		.section	.text.delay_from_preset,"ax",%progbits
 192              		.align	1
 193              		.global	delay_from_preset
 194              		.syntax unified
 195              		.thumb
 196              		.thumb_func
 197              		.fpu fpv4-sp-d16
 199              	delay_from_preset:
 200              	.LFB355:
  58:../src/delay.c **** 
  59:../src/delay.c **** void delay_from_preset(void) {
 201              		.loc 1 59 0
 202              		.cfi_startproc
 203              		@ args = 0, pretend = 0, frame = 0
 204              		@ frame_needed = 0, uses_anonymous_args = 0
 205 0000 08B5     		push	{r3, lr}
 206              		.cfi_def_cfa_offset 8
 207              		.cfi_offset 3, -8
 208              		.cfi_offset 14, -4
  60:../src/delay.c **** 
  61:../src/delay.c **** 	delay_cnt = preset_delay_msecs;
 209              		.loc 1 61 0
 210 0002 084B     		ldr	r3, .L25
 211 0004 1A88     		ldrh	r2, [r3]
 212 0006 084B     		ldr	r3, .L25+4
 213 0008 1A80     		strh	r2, [r3]	@ movhi
 214              	.L21:
  62:../src/delay.c **** 
  63:../src/delay.c **** 	while(delay_cnt > (uint16_t)0);
 215              		.loc 1 63 0 discriminator 1
 216 000a 074B     		ldr	r3, .L25+4
 217 000c 1B88     		ldrh	r3, [r3]
 218 000e 9BB2     		uxth	r3, r3
 219 0010 002B     		cmp	r3, #0
 220 0012 FAD1     		bne	.L21
  64:../src/delay.c **** 
  65:../src/delay.c **** 	if (preset_use_random == 1) {
 221              		.loc 1 65 0
 222 0014 054B     		ldr	r3, .L25+8
 223 0016 1B78     		ldrb	r3, [r3]	@ zero_extendqisi2
 224 0018 012B     		cmp	r3, #1
 225 001a 00D0     		beq	.L24
 226              	.L20:
  66:../src/delay.c **** 		delay_random();
  67:../src/delay.c **** 	}
  68:../src/delay.c **** 
  69:../src/delay.c **** 
  70:../src/delay.c **** }
 227              		.loc 1 70 0
 228 001c 08BD     		pop	{r3, pc}
 229              	.L24:
  66:../src/delay.c **** 		delay_random();
 230              		.loc 1 66 0
 231 001e FFF7FEFF 		bl	delay_random
 232              	.LVL9:
 233              		.loc 1 70 0
 234 0022 FBE7     		b	.L20
 235              	.L26:
 236              		.align	2
 237              	.L25:
 238 0024 00000000 		.word	.LANCHOR1
 239 0028 00000000 		.word	.LANCHOR0
 240 002c 00000000 		.word	.LANCHOR2
 241              		.cfi_endproc
 242              	.LFE355:
 244              		.global	delay_cnt
 245              		.global	preset_use_random
 246              		.global	preset_delay_msecs
 247              		.section	.bss.delay_cnt,"aw",%nobits
 248              		.align	1
 249              		.set	.LANCHOR0,. + 0
 252              	delay_cnt:
 253 0000 0000     		.space	2
 254              		.section	.bss.preset_delay_msecs,"aw",%nobits
 255              		.align	1
 256              		.set	.LANCHOR1,. + 0
 259              	preset_delay_msecs:
 260 0000 0000     		.space	2
 261              		.section	.bss.preset_use_random,"aw",%nobits
 262              		.set	.LANCHOR2,. + 0
 265              	preset_use_random:
 266 0000 00       		.space	1
 267              		.text
 268              	.Letext0:
 269              		.file 2 "/usr/local/bin/gcc-arm-none-eabi-7-2018-q2-update/lib/gcc/arm-none-eabi/7.3.1/include/std
 270              		.file 3 "../system/include/aprs/cfifo.h"
 271              		.file 4 "../system/include/aprs/afsk.h"
 272              		.file 5 "../system/include/aprs/ax25.h"
 273              		.file 6 "../system/include/cmsis/stm32l4xx/core_cm4.h"
 274              		.file 7 "../system/include/cmsis/stm32l4xx/device/system_stm32l4xx.h"
 275              		.file 8 "../system/include/cmsis/stm32l4xx/device/stm32l471xx.h"
 276              		.file 9 "../system/include/drivers/serial.h"
 277              		.file 10 "../include/config_data.h"
 278              		.file 11 "../include/main.h"
DEFINED SYMBOLS
                            *ABS*:0000000000000000 delay.c
     /tmp/ccDPN1z3.s:18     .text.delay_fixed:0000000000000000 $t
     /tmp/ccDPN1z3.s:25     .text.delay_fixed:0000000000000000 delay_fixed
     /tmp/ccDPN1z3.s:49     .text.delay_fixed:0000000000000010 $d
     /tmp/ccDPN1z3.s:54     .text.delay_fixed_with_count:0000000000000000 $t
     /tmp/ccDPN1z3.s:61     .text.delay_fixed_with_count:0000000000000000 delay_fixed_with_count
     /tmp/ccDPN1z3.s:94     .text.delay_fixed_with_count:0000000000000018 $d
     /tmp/ccDPN1z3.s:99     .text.delay_random:0000000000000000 $t
     /tmp/ccDPN1z3.s:106    .text.delay_random:0000000000000000 delay_random
     /tmp/ccDPN1z3.s:139    .text.delay_random:000000000000002c $d
     /tmp/ccDPN1z3.s:146    .text.delay_set:0000000000000000 $t
     /tmp/ccDPN1z3.s:153    .text.delay_set:0000000000000000 delay_set
     /tmp/ccDPN1z3.s:186    .text.delay_set:0000000000000024 $d
     /tmp/ccDPN1z3.s:192    .text.delay_from_preset:0000000000000000 $t
     /tmp/ccDPN1z3.s:199    .text.delay_from_preset:0000000000000000 delay_from_preset
     /tmp/ccDPN1z3.s:238    .text.delay_from_preset:0000000000000024 $d
     /tmp/ccDPN1z3.s:252    .bss.delay_cnt:0000000000000000 delay_cnt
     /tmp/ccDPN1z3.s:265    .bss.preset_use_random:0000000000000000 preset_use_random
     /tmp/ccDPN1z3.s:259    .bss.preset_delay_msecs:0000000000000000 preset_delay_msecs
     /tmp/ccDPN1z3.s:248    .bss.delay_cnt:0000000000000000 $d
     /tmp/ccDPN1z3.s:255    .bss.preset_delay_msecs:0000000000000000 $d
     /tmp/ccDPN1z3.s:266    .bss.preset_use_random:0000000000000000 $d
                           .group:0000000000000000 wm4.0.95bc707da9dcffdc6c8c58936cbc8421
                           .group:0000000000000000 wm4.stdbool.h.29.07dce69c3b78884144b7f7bd19483461
                           .group:0000000000000000 wm4.stdintgcc.h.29.6d480f4ba0f60596e88234283d42444f
                           .group:0000000000000000 wm4.macros.h.2.7a7a5ac48d4160b7481c806e80b68442
                           .group:0000000000000000 wm4.config.h.2.f5e96167cb26b0ce97c5e7513a95bc8b
                           .group:0000000000000000 wm4.afsk.h.17.cf8f922069680e152e1eddb76cd4cc82
                           .group:0000000000000000 wm4.ax25.h.18.077e42a4af9016476e34900472a8fe18
                           .group:0000000000000000 wm4.stm32l4xx.h.39.54a1fe1e096c7852edd649652f013a11
                           .group:0000000000000000 wm4.stm32l471xx.h.35.e78ad65c513105dda311dc495ac74d04
                           .group:0000000000000000 wm4.cmsis_version.h.32.46e8eccfa2cfeaae11d008bb2823a3ed
                           .group:0000000000000000 wm4.core_cm4.h.66.e4ff136c4a17abc46741866f64f8e729
                           .group:0000000000000000 wm4.cmsis_gcc.h.26.b6144e50d34fc998dd4c2cfb6387cf91
                           .group:0000000000000000 wm4.core_cm4.h.174.fcddd62df80231752fa39eb9b61dadfe
                           .group:0000000000000000 wm4.mpu_armv7.h.32.4049752bb5792d4e15357775e9506cfc
                           .group:0000000000000000 wm4.stm32l471xx.h.423.ceac761476affad641a3347d7727acfd
                           .group:0000000000000000 wm4.stm32l4xx.h.197.fb1c68184133668ca24c44c29ba4361f
                           .group:0000000000000000 wm4.stm32l4xx_ll_usart.h.22.ec2beebcd146668c5b35749264d7b58a
                           .group:0000000000000000 wm4.serial.h.14.eed7cf013c382ed4598746b40f0e2523
                           .group:0000000000000000 wm4.config_data.h.9.6026a38cd2f39158a8fd50707ba1bf90
                           .group:0000000000000000 wm4.main.h.8.3d6ad69e5f061008d8c5cc5f5c9dd15a

UNDEFINED SYMBOLS
main_get_adc_sample
