   1              		.cpu cortex-m4
   2              		.eabi_attribute 27, 1
   3              		.eabi_attribute 28, 1
   4              		.eabi_attribute 20, 1
   5              		.eabi_attribute 21, 1
   6              		.eabi_attribute 23, 3
   7              		.eabi_attribute 24, 1
   8              		.eabi_attribute 25, 1
   9              		.eabi_attribute 26, 1
  10              		.eabi_attribute 30, 1
  11              		.eabi_attribute 34, 1
  12              		.eabi_attribute 18, 4
  13              		.file	"main.c"
  14              		.text
  15              	.Ltext0:
  16              		.cfi_sections	.debug_frame
  17              		.section	.text.message_callback,"ax",%progbits
  18              		.align	1
  19              		.syntax unified
  20              		.thumb
  21              		.thumb_func
  22              		.fpu fpv4-sp-d16
  24              	message_callback:
  25              	.LFB629:
  26              		.file 1 "../src/main.c"
   1:../src/main.c **** #include "station_config_target_hw.h"
   2:../src/main.c **** 
   3:../src/main.c **** #ifdef STM32F10X_MD_VL
   4:../src/main.c **** #include <stm32f10x_rcc.h>
   5:../src/main.c **** #include <stm32f10x_iwdg.h>
   6:../src/main.c **** #include <stm32f10x.h>
   7:../src/main.c **** #include <drivers/f1/gpio_conf_stm32f1x.h>
   8:../src/main.c **** #endif
   9:../src/main.c **** 
  10:../src/main.c **** #ifdef STM32L471xx
  11:../src/main.c **** #include <stm32l4xx_hal_cortex.h>
  12:../src/main.c **** #include <stm32l4xx.h>
  13:../src/main.c **** #include <stm32l4xx_ll_iwdg.h>
  14:../src/main.c **** #include <stm32l4xx_ll_rcc.h>
  15:../src/main.c **** #include <stm32l4xx_ll_gpio.h>
  16:../src/main.c **** #include "cmsis/stm32l4xx/system_stm32l4xx.h"
  17:../src/main.c **** #endif
  18:../src/main.c **** 
  19:../src/main.c **** #include <delay.h>
  20:../src/main.c **** #include <LedConfig.h>
  21:../src/main.c **** #include <stdio.h>
  22:../src/main.c **** #include <stdlib.h>
  23:../src/main.c **** #include <string.h>
  24:../src/main.c **** 
  25:../src/main.c **** #include "main.h"
  26:../src/main.c **** #include "packet_tx_handler.h"
  27:../src/main.c **** 
  28:../src/main.c **** #include "station_config.h"
  29:../src/main.c **** #include "config_data_externs.h"
  30:../src/main.c **** #include "configuration_handler.h"
  31:../src/main.c **** 
  32:../src/main.c **** #include "diag/Trace.h"
  33:../src/main.c **** #include "antilib_adc.h"
  34:../src/main.c **** #include "afsk_pr.h"
  35:../src/main.c **** #include "TimerConfig.h"
  36:../src/main.c **** #include "PathConfig.h"
  37:../src/main.c **** #include "LedConfig.h"
  38:../src/main.c **** #include "io.h"
  39:../src/main.c **** #include "float_to_string.h"
  40:../src/main.c **** #include "pwr_save.h"
  41:../src/main.c **** #include "pwr_switch.h"
  42:../src/main.c **** 
  43:../src/main.c **** #include "it_handlers.h"
  44:../src/main.c **** 
  45:../src/main.c **** #include "aprs/digi.h"
  46:../src/main.c **** #include "aprs/telemetry.h"
  47:../src/main.c **** #include "aprs/dac.h"
  48:../src/main.c **** #include "aprs/beacon.h"
  49:../src/main.c **** 
  50:../src/main.c **** #include "ve_direct_protocol/parser.h"
  51:../src/main.c **** 
  52:../src/main.c **** #include "rte_wx.h"
  53:../src/main.c **** #include "rte_pv.h"
  54:../src/main.c **** #include "rte_main.h"
  55:../src/main.c **** #include "rte_rtu.h"
  56:../src/main.c **** 
  57:../src/main.c **** #include <wx_handler.h>
  58:../src/main.c **** #include "drivers/dallas.h"
  59:../src/main.c **** #include "drivers/i2c.h"
  60:../src/main.c **** #include "drivers/analog_anemometer.h"
  61:../src/main.c **** #include "aprs/wx.h"
  62:../src/main.c **** 
  63:../src/main.c **** #include "../system/include/modbus_rtu/rtu_serial_io.h"
  64:../src/main.c **** 
  65:../src/main.c **** #include "../system/include/davis_vantage/davis.h"
  66:../src/main.c **** #include "../system/include/davis_vantage/davis_parsers.h"
  67:../src/main.c **** 
  68:../src/main.c **** #include "drivers/ms5611.h"
  69:../src/main.c **** #include <drivers/bme280.h>
  70:../src/main.c **** 
  71:../src/main.c **** #include "umb_master/umb_master.h"
  72:../src/main.c **** #include "umb_master/umb_channel_pool.h"
  73:../src/main.c **** #include "umb_master/umb_0x26_status.h"
  74:../src/main.c **** 
  75:../src/main.c **** #include "drivers/dallas.h"
  76:../src/main.c **** 
  77:../src/main.c **** #include "KissCommunication.h"
  78:../src/main.c **** 
  79:../src/main.c **** #define SOH 0x01
  80:../src/main.c **** 
  81:../src/main.c **** 
  82:../src/main.c **** //#define SERIAL_TX_TEST_MODE
  83:../src/main.c **** 
  84:../src/main.c **** // Niebieska dioda -> DCD
  85:../src/main.c **** // Zielona dioda -> anemometr albo TX
  86:../src/main.c **** 
  87:../src/main.c **** // backup registers (ParaTNC)
  88:../src/main.c **** // 0 ->
  89:../src/main.c **** // 2 -> boot and hard fault count
  90:../src/main.c **** // 3 -> controller configuration status
  91:../src/main.c **** // 4 ->
  92:../src/main.c **** // 5 ->
  93:../src/main.c **** // 6 ->
  94:../src/main.c **** 
  95:../src/main.c **** // backup registers (ParaMETEO)
  96:../src/main.c **** // 0 -> powersave status
  97:../src/main.c **** // 3 -> controller configuration status
  98:../src/main.c **** 
  99:../src/main.c **** 
 100:../src/main.c **** #define CONFIG_FIRST_RESTORED 			(1)
 101:../src/main.c **** #define CONFIG_FIRST_FAIL_RESTORING	  	(1 << 1)
 102:../src/main.c **** #define CONFIG_FIRST_CRC_OK				(1 << 2)
 103:../src/main.c **** 
 104:../src/main.c **** #define CONFIG_SECOND_RESTORED 				(1 << 3)
 105:../src/main.c **** #define CONFIG_SECOND_FAIL_RESTORING	  	(1 << 4)
 106:../src/main.c **** #define CONFIG_SECOND_CRC_OK				(1 << 5)
 107:../src/main.c **** 
 108:../src/main.c **** // ----- main() ---------------------------------------------------------------
 109:../src/main.c **** 
 110:../src/main.c **** // Sample pragmas to cope with warnings. Please note the related line at
 111:../src/main.c **** // the end of this function, used to pop the compiler diagnostics status.
 112:../src/main.c **** #pragma GCC diagnostic push
 113:../src/main.c **** #pragma GCC diagnostic ignored "-Wunused-parameter"
 114:../src/main.c **** #pragma GCC diagnostic ignored "-Wmissing-declarations"
 115:../src/main.c **** #pragma GCC diagnostic ignored "-Wreturn-type"
 116:../src/main.c **** #pragma GCC diagnostic ignored "-Wempty-body"
 117:../src/main.c **** 
 118:../src/main.c **** // used configuration structures
 119:../src/main.c **** const config_data_mode_t * main_config_data_mode = 0;
 120:../src/main.c **** const config_data_basic_t * main_config_data_basic = 0;
 121:../src/main.c **** const config_data_wx_sources_t * main_config_data_wx_sources = 0;
 122:../src/main.c **** const config_data_umb_t * main_config_data_umb = 0;
 123:../src/main.c **** const config_data_rtu_t * main_config_data_rtu = 0;
 124:../src/main.c **** 
 125:../src/main.c **** // global variable incremented by the SysTick handler to measure time in miliseconds
 126:../src/main.c **** uint32_t master_time = 0;
 127:../src/main.c **** 
 128:../src/main.c **** // this global variable stores numbers of ticks of idling CPU
 129:../src/main.c **** uint32_t main_idle_cpu_ticks = 0;
 130:../src/main.c **** 
 131:../src/main.c **** // current cpu idle ticks
 132:../src/main.c **** uint32_t main_current_cpu_idle_ticks = 0;
 133:../src/main.c **** 
 134:../src/main.c **** // approx cpu load in percents
 135:../src/main.c **** int8_t main_cpu_load = 0;
 136:../src/main.c **** 
 137:../src/main.c **** // global variable used as a timer to trigger meteo sensors mesurements
 138:../src/main.c **** int32_t main_wx_sensors_pool_timer = 65500;
 139:../src/main.c **** 
 140:../src/main.c **** // global variable used as a timer to trigger packet sending
 141:../src/main.c **** int32_t main_one_minute_pool_timer = 45000;
 142:../src/main.c **** 
 143:../src/main.c **** // one second pool interval
 144:../src/main.c **** int32_t main_one_second_pool_timer = 1000;
 145:../src/main.c **** 
 146:../src/main.c **** // two second pool interval
 147:../src/main.c **** int32_t main_two_second_pool_timer = 2000;
 148:../src/main.c **** 
 149:../src/main.c **** // ten second pool interval
 150:../src/main.c **** int32_t main_ten_second_pool_timer = 10000;
 151:../src/main.c **** 
 152:../src/main.c **** // serial context for UART used to KISS
 153:../src/main.c **** srl_context_t main_kiss_srl_ctx;
 154:../src/main.c **** 
 155:../src/main.c **** // serial context for UART used for comm with wx sensors
 156:../src/main.c **** srl_context_t main_wx_srl_ctx;
 157:../src/main.c **** 
 158:../src/main.c **** // a pointer to KISS context
 159:../src/main.c **** srl_context_t* main_kiss_srl_ctx_ptr;
 160:../src/main.c **** 
 161:../src/main.c **** // a pointer to wx comms context
 162:../src/main.c **** srl_context_t* main_wx_srl_ctx_ptr;
 163:../src/main.c **** 
 164:../src/main.c **** // target USART1 (kiss) baudrate
 165:../src/main.c **** uint32_t main_target_kiss_baudrate;
 166:../src/main.c **** 
 167:../src/main.c **** // target USART2 (wx) baudrate
 168:../src/main.c **** uint32_t main_target_wx_baudrate;
 169:../src/main.c **** 
 170:../src/main.c **** // controls if the KISS modem is enabled
 171:../src/main.c **** uint8_t main_kiss_enabled = 1;
 172:../src/main.c **** 
 173:../src/main.c **** // controls if DAVIS serialprotocol client is enabled by the configuration
 174:../src/main.c **** uint8_t main_davis_serial_enabled = 0;
 175:../src/main.c **** 
 176:../src/main.c **** uint8_t main_modbus_rtu_master_enabled = 0;
 177:../src/main.c **** 
 178:../src/main.c **** // global variables represending the AX25/APRS stack
 179:../src/main.c **** AX25Ctx main_ax25;
 180:../src/main.c **** Afsk main_afsk;
 181:../src/main.c **** 
 182:../src/main.c **** 
 183:../src/main.c **** AX25Call main_own_path[3];
 184:../src/main.c **** uint8_t main_own_path_ln = 0;
 185:../src/main.c **** uint8_t main_own_aprs_msg_len;
 186:../src/main.c **** char main_own_aprs_msg[OWN_APRS_MSG_LN];
 187:../src/main.c **** 
 188:../src/main.c **** char main_string_latitude[9];
 189:../src/main.c **** char main_string_longitude[9];
 190:../src/main.c **** 
 191:../src/main.c **** char main_symbol_f = '/';
 192:../src/main.c **** char main_symbol_s = '#';
 193:../src/main.c **** 
 194:../src/main.c **** // global variable used to store return value from various functions
 195:../src/main.c **** volatile uint8_t retval = 100;
 196:../src/main.c **** 
 197:../src/main.c **** uint16_t buffer_len = 0;
 198:../src/main.c **** 
 199:../src/main.c **** // return value from UMB related functions
 200:../src/main.c **** umb_retval_t main_umb_retval = UMB_UNINITIALIZED;
 201:../src/main.c **** 
 202:../src/main.c **** // result of CRC calculation
 203:../src/main.c **** uint32_t main_crc_result = 0;
 204:../src/main.c **** 
 205:../src/main.c **** char after_tx_lock;
 206:../src/main.c **** 
 207:../src/main.c **** unsigned short rx10m = 0, tx10m = 0, digi10m = 0, digidrop10m = 0, kiss10m = 0;
 208:../src/main.c **** 
 209:../src/main.c **** #if defined(STM32L471xx)
 210:../src/main.c **** LL_GPIO_InitTypeDef GPIO_InitTypeDef;
 211:../src/main.c **** #endif
 212:../src/main.c **** 
 213:../src/main.c **** static void message_callback(struct AX25Msg *msg) {
  27              		.loc 1 213 0
  28              		.cfi_startproc
  29              		@ args = 0, pretend = 0, frame = 0
  30              		@ frame_needed = 0, uses_anonymous_args = 0
  31              		@ link register save eliminated.
  32              	.LVL0:
 214:../src/main.c **** 
 215:../src/main.c **** }
  33              		.loc 1 215 0
  34 0000 7047     		bx	lr
  35              		.cfi_endproc
  36              	.LFE629:
  38              		.section	.text.main,"ax",%progbits
  39              		.align	1
  40              		.global	main
  41              		.syntax unified
  42              		.thumb
  43              		.thumb_func
  44              		.fpu fpv4-sp-d16
  46              	main:
  47              	.LFB630:
 216:../src/main.c **** 
 217:../src/main.c **** int main(int argc, char* argv[]){
  48              		.loc 1 217 0
  49              		.cfi_startproc
  50              		@ args = 0, pretend = 0, frame = 0
  51              		@ frame_needed = 0, uses_anonymous_args = 0
  52              	.LVL1:
  53 0000 2DE9F043 		push	{r4, r5, r6, r7, r8, r9, lr}
  54              		.cfi_def_cfa_offset 28
  55              		.cfi_offset 4, -28
  56              		.cfi_offset 5, -24
  57              		.cfi_offset 6, -20
  58              		.cfi_offset 7, -16
  59              		.cfi_offset 8, -12
  60              		.cfi_offset 9, -8
  61              		.cfi_offset 14, -4
  62 0004 87B0     		sub	sp, sp, #28
  63              		.cfi_def_cfa_offset 56
  64              	.LVL2:
 218:../src/main.c **** 
 219:../src/main.c ****   int32_t ln = 0;
 220:../src/main.c **** 
 221:../src/main.c ****   uint8_t button_inhibit = 0;
 222:../src/main.c **** 
 223:../src/main.c ****   memset(main_own_aprs_msg, 0x00, OWN_APRS_MSG_LN);
  65              		.loc 1 223 0
  66 0006 A022     		movs	r2, #160
  67 0008 0021     		movs	r1, #0
  68              	.LVL3:
  69 000a 7E48     		ldr	r0, .L117
  70              	.LVL4:
  71 000c FFF7FEFF 		bl	memset
  72              	.LVL5:
 224:../src/main.c **** 
 225:../src/main.c **** #if defined(PARATNC_HWREV_A) || defined(PARATNC_HWREV_B) || defined(PARATNC_HWREV_C)
 226:../src/main.c ****   RCC->APB1ENR |= (RCC_APB1ENR_TIM2EN | RCC_APB1ENR_TIM3EN | RCC_APB1ENR_TIM7EN | RCC_APB1ENR_TIM4E
 227:../src/main.c ****   RCC->APB2ENR |= (RCC_APB2ENR_IOPAEN | RCC_APB2ENR_IOPBEN | RCC_APB2ENR_IOPCEN | RCC_APB2ENR_IOPDE
 228:../src/main.c ****   RCC->AHBENR |= RCC_AHBENR_CRCEN;
 229:../src/main.c **** 
 230:../src/main.c ****   NVIC_PriorityGroupConfig(NVIC_PriorityGroup_4);
 231:../src/main.c **** 
 232:../src/main.c ****   // choosing the signal source for the SysTick timer.
 233:../src/main.c ****   SysTick_CLKSourceConfig(SysTick_CLKSource_HCLK);
 234:../src/main.c **** 
 235:../src/main.c ****   // Configuring the SysTick timer to generate interrupt 100x per second (one interrupt = 10ms)
 236:../src/main.c ****   SysTick_Config(SystemCoreClock / SYSTICK_TICKS_PER_SECONDS);
 237:../src/main.c **** 
 238:../src/main.c ****   // setting an Systick interrupt priority
 239:../src/main.c ****   NVIC_SetPriority(SysTick_IRQn, 5);
 240:../src/main.c **** 
 241:../src/main.c ****   // enable access to BKP registers
 242:../src/main.c ****   RCC->APB1ENR |= (RCC_APB1ENR_PWREN | RCC_APB1ENR_BKPEN);
 243:../src/main.c ****   PWR->CR |= PWR_CR_DBP;
 244:../src/main.c **** 
 245:../src/main.c ****   // read current number of boot cycles
 246:../src/main.c ****   rte_main_boot_cycles = (uint8_t)(BKP->DR2 & 0xFF);
 247:../src/main.c **** 
 248:../src/main.c ****   // read current number of hard faults
 249:../src/main.c ****   rte_main_hard_faults = (uint8_t)((BKP->DR2 & 0xFF00) >> 8);
 250:../src/main.c **** 
 251:../src/main.c ****   // increase boot cycles count
 252:../src/main.c ****   rte_main_boot_cycles++;
 253:../src/main.c **** 
 254:../src/main.c ****   // erasing old value from backup registers
 255:../src/main.c ****   BKP->DR2 &= (0xFFFF ^ 0xFF);
 256:../src/main.c **** 
 257:../src/main.c ****   // storing increased value
 258:../src/main.c ****   BKP->DR2 |= rte_main_boot_cycles;
 259:../src/main.c **** 
 260:../src/main.c ****   BKP->DR3 = 0;
 261:../src/main.c ****   BKP->DR4 = 0;
 262:../src/main.c ****   BKP->DR5 = 0;
 263:../src/main.c ****   BKP->DR6 = 0;
 264:../src/main.c **** #endif
 265:../src/main.c **** 
 266:../src/main.c **** #if defined(STM32L471xx)
 267:../src/main.c ****   system_clock_update_l4();
  73              		.loc 1 267 0
  74 0010 FFF7FEFF 		bl	system_clock_update_l4
  75              	.LVL6:
 268:../src/main.c **** 
 269:../src/main.c ****   if (system_clock_configure_l4() != 0) {
  76              		.loc 1 269 0
  77 0014 FFF7FEFF 		bl	system_clock_configure_l4
  78              	.LVL7:
  79 0018 0028     		cmp	r0, #0
  80 001a 50D1     		bne	.L77
  81              	.L3:
 270:../src/main.c **** 	  HAL_NVIC_SystemReset();
 271:../src/main.c **** 
 272:../src/main.c ****   }
 273:../src/main.c **** 
 274:../src/main.c ****   // enable access to PWR control registers
 275:../src/main.c ****   RCC->APB1ENR1 |= RCC_APB1ENR1_PWREN;
  82              		.loc 1 275 0
  83 001c 7A4C     		ldr	r4, .L117+4
  84 001e A36D     		ldr	r3, [r4, #88]
  85 0020 43F08053 		orr	r3, r3, #268435456
  86 0024 A365     		str	r3, [r4, #88]
 276:../src/main.c **** 
 277:../src/main.c ****   system_clock_update_l4();
  87              		.loc 1 277 0
  88 0026 FFF7FEFF 		bl	system_clock_update_l4
  89              	.LVL8:
 278:../src/main.c **** 
 279:../src/main.c ****   system_clock_configure_rtc_l4();
  90              		.loc 1 279 0
  91 002a FFF7FEFF 		bl	system_clock_configure_rtc_l4
  92              	.LVL9:
 280:../src/main.c **** 
 281:../src/main.c ****   RCC->APB1ENR1 |= (RCC_APB1ENR1_TIM2EN | RCC_APB1ENR1_TIM3EN | RCC_APB1ENR1_TIM4EN | RCC_APB1ENR1_
  93              		.loc 1 281 0
  94 002e A26D     		ldr	r2, [r4, #88]
  95 0030 764B     		ldr	r3, .L117+8
  96 0032 1343     		orrs	r3, r3, r2
  97 0034 A365     		str	r3, [r4, #88]
 282:../src/main.c ****   RCC->APB2ENR |= (RCC_APB2ENR_TIM1EN | RCC_APB2ENR_USART1EN);
  98              		.loc 1 282 0
  99 0036 236E     		ldr	r3, [r4, #96]
 100 0038 43F49043 		orr	r3, r3, #18432
 101 003c 2366     		str	r3, [r4, #96]
 283:../src/main.c ****   RCC->AHB1ENR |= (RCC_AHB1ENR_CRCEN | RCC_AHB1ENR_DMA1EN);
 102              		.loc 1 283 0
 103 003e A36C     		ldr	r3, [r4, #72]
 104 0040 43F48053 		orr	r3, r3, #4096
 105 0044 43F00103 		orr	r3, r3, #1
 106 0048 A364     		str	r3, [r4, #72]
 284:../src/main.c ****   RCC->AHB2ENR |= (RCC_AHB2ENR_ADCEN | RCC_AHB2ENR_GPIOAEN | RCC_AHB2ENR_GPIOBEN | RCC_AHB2ENR_GPIO
 107              		.loc 1 284 0
 108 004a E36C     		ldr	r3, [r4, #76]
 109 004c 43F40053 		orr	r3, r3, #8192
 110 0050 43F00F03 		orr	r3, r3, #15
 111 0054 E364     		str	r3, [r4, #76]
 285:../src/main.c ****   RCC->BDCR |= RCC_BDCR_RTCEN;
 112              		.loc 1 285 0
 113 0056 D4F89030 		ldr	r3, [r4, #144]
 114 005a 43F40043 		orr	r3, r3, #32768
 115 005e C4F89030 		str	r3, [r4, #144]
 286:../src/main.c **** 
 287:../src/main.c ****   /* Set Interrupt Group Priority */
 288:../src/main.c ****   HAL_NVIC_SetPriorityGrouping(NVIC_PRIORITYGROUP_4);
 116              		.loc 1 288 0
 117 0062 0320     		movs	r0, #3
 118 0064 FFF7FEFF 		bl	HAL_NVIC_SetPriorityGrouping
 119              	.LVL10:
 289:../src/main.c **** 
 290:../src/main.c ****   // set systick frequency
 291:../src/main.c ****   HAL_SYSTICK_Config(SystemCoreClock / (1000U / (uint32_t)10));
 120              		.loc 1 291 0
 121 0068 694B     		ldr	r3, .L117+12
 122 006a 1868     		ldr	r0, [r3]
 123 006c 694B     		ldr	r3, .L117+16
 124 006e A3FB0030 		umull	r3, r0, r3, r0
 125 0072 4009     		lsrs	r0, r0, #5
 126 0074 FFF7FEFF 		bl	HAL_SYSTICK_Config
 127              	.LVL11:
 292:../src/main.c **** 
 293:../src/main.c ****   // set systick interrupt priority
 294:../src/main.c ****   HAL_NVIC_SetPriority(SysTick_IRQn, 5, 0U);
 128              		.loc 1 294 0
 129 0078 0022     		movs	r2, #0
 130 007a 0521     		movs	r1, #5
 131 007c 4FF0FF30 		mov	r0, #-1
 132 0080 FFF7FEFF 		bl	HAL_NVIC_SetPriority
 133              	.LVL12:
 295:../src/main.c **** #endif
 296:../src/main.c **** 
 297:../src/main.c ****   rte_main_reboot_req = 0;
 134              		.loc 1 297 0
 135 0084 644B     		ldr	r3, .L117+20
 136 0086 0022     		movs	r2, #0
 137 0088 1A70     		strb	r2, [r3]
 298:../src/main.c **** 
 299:../src/main.c ****   // initializing variables & arrays in rte_wx
 300:../src/main.c ****   rte_wx_init();
 138              		.loc 1 300 0
 139 008a FFF7FEFF 		bl	rte_wx_init
 140              	.LVL13:
 301:../src/main.c ****   rte_rtu_init();
 141              		.loc 1 301 0
 142 008e FFF7FEFF 		bl	rte_rtu_init
 143              	.LVL14:
 302:../src/main.c **** 
 303:../src/main.c ****   // calculate CRC over configuration blocks
 304:../src/main.c ****   main_crc_result = configuration_handler_check_crc();
 144              		.loc 1 304 0
 145 0092 FFF7FEFF 		bl	configuration_handler_check_crc
 146              	.LVL15:
 147 0096 614B     		ldr	r3, .L117+24
 148 0098 1860     		str	r0, [r3]
 305:../src/main.c **** 
 306:../src/main.c ****   // if first section has wrong CRC and it hasn't been restored before
 307:../src/main.c ****   if ((main_crc_result & 0x01) == 0 && (configuration_get_register() & CONFIG_FIRST_FAIL_RESTORING)
 149              		.loc 1 307 0
 150 009a 10F0010F 		tst	r0, #1
 151 009e 15D1     		bne	.L4
 152              		.loc 1 307 0 is_stmt 0 discriminator 1
 153 00a0 FFF7FEFF 		bl	configuration_get_register
 154              	.LVL16:
 155 00a4 10F0020F 		tst	r0, #2
 156 00a8 10D1     		bne	.L4
 308:../src/main.c **** 	  // restore default configuration
 309:../src/main.c **** 	  if (configuration_handler_restore_default_first() == 0) {
 157              		.loc 1 309 0 is_stmt 1
 158 00aa FFF7FEFF 		bl	configuration_handler_restore_default_first
 159              	.LVL17:
 160 00ae 48B9     		cbnz	r0, .L5
 310:../src/main.c **** 
 311:../src/main.c **** 		  // if configuration has been restored successfully
 312:../src/main.c **** 		  configuration_set_bits_register(CONFIG_FIRST_RESTORED);
 161              		.loc 1 312 0
 162 00b0 0120     		movs	r0, #1
 163 00b2 FFF7FEFF 		bl	configuration_set_bits_register
 164              	.LVL18:
 313:../src/main.c **** 
 314:../src/main.c **** 		  // set also CRC flag because if restoring is successfull the region has good CRC
 315:../src/main.c **** 		  configuration_set_bits_register(CONFIG_FIRST_CRC_OK);
 165              		.loc 1 315 0
 166 00b6 0420     		movs	r0, #4
 167 00b8 FFF7FEFF 		bl	configuration_set_bits_register
 168              	.LVL19:
 169 00bc 0BE0     		b	.L6
 170              	.L77:
 270:../src/main.c **** 
 171              		.loc 1 270 0
 172 00be FFF7FEFF 		bl	HAL_NVIC_SystemReset
 173              	.LVL20:
 174 00c2 ABE7     		b	.L3
 175              	.L5:
 316:../src/main.c **** 
 317:../src/main.c **** 	  }
 318:../src/main.c **** 	  else {
 319:../src/main.c **** 		  // if not store the flag in the backup register to block
 320:../src/main.c **** 		  // reinitializing once again in the consecutive restart
 321:../src/main.c **** 		  configuration_set_bits_register(CONFIG_FIRST_FAIL_RESTORING);
 176              		.loc 1 321 0
 177 00c4 0220     		movs	r0, #2
 178 00c6 FFF7FEFF 		bl	configuration_set_bits_register
 179              	.LVL21:
 180 00ca 04E0     		b	.L6
 181              	.L4:
 322:../src/main.c **** 	  }
 323:../src/main.c **** 
 324:../src/main.c **** 
 325:../src/main.c ****   }
 326:../src/main.c ****   else {
 327:../src/main.c **** 	  // if the combined confition is not met check failed restoring flag
 328:../src/main.c **** 	  if ((configuration_get_register() & CONFIG_FIRST_FAIL_RESTORING) == 0) {
 182              		.loc 1 328 0
 183 00cc FFF7FEFF 		bl	configuration_get_register
 184              	.LVL22:
 185 00d0 10F0020F 		tst	r0, #2
 186 00d4 13D0     		beq	.L78
 187              	.L6:
 329:../src/main.c **** 		  // a CRC checksum is ok, so first configuration section can be used further
 330:../src/main.c **** 		  configuration_set_bits_register(CONFIG_FIRST_CRC_OK);
 331:../src/main.c **** 	  }
 332:../src/main.c **** 	  else {
 333:../src/main.c **** 		  ;
 334:../src/main.c **** 	  }
 335:../src/main.c ****   }
 336:../src/main.c **** 
 337:../src/main.c ****   // if second section has wrong CRC and it hasn't been restored before
 338:../src/main.c ****   if ((main_crc_result & 0x02) == 0 && (configuration_get_register() & CONFIG_SECOND_FAIL_RESTORING
 188              		.loc 1 338 0
 189 00d6 514B     		ldr	r3, .L117+24
 190 00d8 1B68     		ldr	r3, [r3]
 191 00da 13F0020F 		tst	r3, #2
 192 00de 19D1     		bne	.L7
 193              		.loc 1 338 0 is_stmt 0 discriminator 1
 194 00e0 FFF7FEFF 		bl	configuration_get_register
 195              	.LVL23:
 196 00e4 10F0100F 		tst	r0, #16
 197 00e8 14D1     		bne	.L7
 339:../src/main.c **** 	  // restore default configuration
 340:../src/main.c **** 	  if (configuration_handler_restore_default_second() == 0) {
 198              		.loc 1 340 0 is_stmt 1
 199 00ea FFF7FEFF 		bl	configuration_handler_restore_default_second
 200              	.LVL24:
 201 00ee 50B9     		cbnz	r0, .L8
 341:../src/main.c **** 
 342:../src/main.c **** 		  // if configuration has been restored successfully
 343:../src/main.c **** 		  configuration_set_bits_register(CONFIG_SECOND_RESTORED);
 202              		.loc 1 343 0
 203 00f0 0820     		movs	r0, #8
 204 00f2 FFF7FEFF 		bl	configuration_set_bits_register
 205              	.LVL25:
 344:../src/main.c **** 
 345:../src/main.c **** 		  // set also CRC flag as if restoring is successfull the region has good CRC
 346:../src/main.c **** 		  configuration_set_bits_register(CONFIG_SECOND_CRC_OK);
 206              		.loc 1 346 0
 207 00f6 2020     		movs	r0, #32
 208 00f8 FFF7FEFF 		bl	configuration_set_bits_register
 209              	.LVL26:
 210 00fc 0FE0     		b	.L9
 211              	.L78:
 330:../src/main.c **** 	  }
 212              		.loc 1 330 0
 213 00fe 0420     		movs	r0, #4
 214 0100 FFF7FEFF 		bl	configuration_set_bits_register
 215              	.LVL27:
 216 0104 E7E7     		b	.L6
 217              	.L8:
 347:../src/main.c **** 
 348:../src/main.c **** 	  }
 349:../src/main.c **** 	  else {
 350:../src/main.c **** 		  // if not store the flag in the backup register
 351:../src/main.c **** 		  configuration_set_bits_register(CONFIG_SECOND_FAIL_RESTORING);
 218              		.loc 1 351 0
 219 0106 1020     		movs	r0, #16
 220 0108 FFF7FEFF 		bl	configuration_set_bits_register
 221              	.LVL28:
 352:../src/main.c **** 
 353:../src/main.c **** 		  configuration_clear_bits_register(CONFIG_SECOND_CRC_OK);
 222              		.loc 1 353 0
 223 010c 2020     		movs	r0, #32
 224 010e FFF7FEFF 		bl	configuration_clear_bits_register
 225              	.LVL29:
 226 0112 04E0     		b	.L9
 227              	.L7:
 354:../src/main.c **** 	  }
 355:../src/main.c **** 
 356:../src/main.c **** 
 357:../src/main.c ****   }
 358:../src/main.c ****   else {
 359:../src/main.c **** 	  // check failed restoring flag
 360:../src/main.c **** 	  if ((configuration_get_register() & CONFIG_SECOND_FAIL_RESTORING) == 0) {
 228              		.loc 1 360 0
 229 0114 FFF7FEFF 		bl	configuration_get_register
 230              	.LVL30:
 231 0118 10F0100F 		tst	r0, #16
 232 011c 13D0     		beq	.L79
 233              	.L9:
 361:../src/main.c **** 		  // second configuration section has good CRC and can be used further
 362:../src/main.c **** 		  configuration_set_bits_register(CONFIG_SECOND_CRC_OK);
 363:../src/main.c **** 	  }
 364:../src/main.c **** 	  else {
 365:../src/main.c **** 		  ;
 366:../src/main.c **** 	  }
 367:../src/main.c ****   }
 368:../src/main.c **** 
 369:../src/main.c ****   // at this point both sections have either verified CRC or restored values to default
 370:../src/main.c ****   if ((configuration_get_register() & CONFIG_FIRST_CRC_OK) != 0 && (configuration_get_register() & 
 234              		.loc 1 370 0
 235 011e FFF7FEFF 		bl	configuration_get_register
 236              	.LVL31:
 237 0122 10F0040F 		tst	r0, #4
 238 0126 16D0     		beq	.L10
 239              		.loc 1 370 0 is_stmt 0 discriminator 1
 240 0128 FFF7FEFF 		bl	configuration_get_register
 241              	.LVL32:
 242 012c 10F0200F 		tst	r0, #32
 243 0130 11D0     		beq	.L10
 371:../src/main.c **** 	  // if both sections are OK check programming counters
 372:../src/main.c **** 	  if (config_data_pgm_cntr_first > config_data_pgm_cntr_second) {
 244              		.loc 1 372 0 is_stmt 1
 245 0132 3B4B     		ldr	r3, .L117+28
 246 0134 1A88     		ldrh	r2, [r3]
 247 0136 3B4B     		ldr	r3, .L117+32
 248 0138 1B88     		ldrh	r3, [r3]
 249 013a 9A42     		cmp	r2, r3
 250 013c 07D9     		bls	.L11
 373:../src/main.c **** 		  // if first section has bigger programing counter use it
 374:../src/main.c **** 		  configuration_handler_load_configuration(REGION_FIRST);
 251              		.loc 1 374 0
 252 013e 0120     		movs	r0, #1
 253 0140 FFF7FEFF 		bl	configuration_handler_load_configuration
 254              	.LVL33:
 255 0144 26E0     		b	.L12
 256              	.L79:
 362:../src/main.c **** 	  }
 257              		.loc 1 362 0
 258 0146 2020     		movs	r0, #32
 259 0148 FFF7FEFF 		bl	configuration_set_bits_register
 260              	.LVL34:
 261 014c E7E7     		b	.L9
 262              	.L11:
 375:../src/main.c **** 	  }
 376:../src/main.c **** 	  else {
 377:../src/main.c **** 		  configuration_handler_load_configuration(REGION_SECOND);
 263              		.loc 1 377 0
 264 014e 0220     		movs	r0, #2
 265 0150 FFF7FEFF 		bl	configuration_handler_load_configuration
 266              	.LVL35:
 267 0154 1EE0     		b	.L12
 268              	.L10:
 378:../src/main.c **** 
 379:../src/main.c **** 	  }
 380:../src/main.c ****   }
 381:../src/main.c ****   else if ((configuration_get_register() & CONFIG_FIRST_CRC_OK) != 0 && (configuration_get_register
 269              		.loc 1 381 0
 270 0156 FFF7FEFF 		bl	configuration_get_register
 271              	.LVL36:
 272 015a 10F0040F 		tst	r0, #4
 273 015e 08D0     		beq	.L13
 274              		.loc 1 381 0 is_stmt 0 discriminator 1
 275 0160 FFF7FEFF 		bl	configuration_get_register
 276              	.LVL37:
 277 0164 10F0200F 		tst	r0, #32
 278 0168 03D1     		bne	.L13
 382:../src/main.c **** 	  // if only first region is OK use it
 383:../src/main.c **** 	  configuration_handler_load_configuration(REGION_FIRST);
 279              		.loc 1 383 0 is_stmt 1
 280 016a 0120     		movs	r0, #1
 281 016c FFF7FEFF 		bl	configuration_handler_load_configuration
 282              	.LVL38:
 283 0170 10E0     		b	.L12
 284              	.L13:
 384:../src/main.c ****   }
 385:../src/main.c ****   else if ((configuration_get_register() & CONFIG_FIRST_CRC_OK) == 0 && (configuration_get_register
 285              		.loc 1 385 0
 286 0172 FFF7FEFF 		bl	configuration_get_register
 287              	.LVL39:
 288 0176 10F0040F 		tst	r0, #4
 289 017a 08D1     		bne	.L14
 290              		.loc 1 385 0 is_stmt 0 discriminator 1
 291 017c FFF7FEFF 		bl	configuration_get_register
 292              	.LVL40:
 293 0180 10F0200F 		tst	r0, #32
 294 0184 03D0     		beq	.L14
 386:../src/main.c **** 	  // if only first region is OK use it
 387:../src/main.c **** 	  configuration_handler_load_configuration(REGION_FIRST);
 295              		.loc 1 387 0 is_stmt 1
 296 0186 0120     		movs	r0, #1
 297 0188 FFF7FEFF 		bl	configuration_handler_load_configuration
 298              	.LVL41:
 299 018c 02E0     		b	.L12
 300              	.L14:
 388:../src/main.c ****   }
 389:../src/main.c ****   else {
 390:../src/main.c **** 	  configuration_handler_load_configuration(REGION_DEFAULT);
 301              		.loc 1 390 0
 302 018e 0020     		movs	r0, #0
 303 0190 FFF7FEFF 		bl	configuration_handler_load_configuration
 304              	.LVL42:
 305              	.L12:
 391:../src/main.c ****   }
 392:../src/main.c **** 
 393:../src/main.c ****   // set packets intervals
 394:../src/main.c ****   packet_tx_configure(main_config_data_basic->wx_transmit_period, main_config_data_basic->beacon_tr
 306              		.loc 1 394 0
 307 0194 244C     		ldr	r4, .L117+36
 308 0196 2368     		ldr	r3, [r4]
 309 0198 244A     		ldr	r2, .L117+40
 310 019a 1268     		ldr	r2, [r2]
 311 019c D27A     		ldrb	r2, [r2, #11]	@ zero_extendqisi2
 312 019e 93F89910 		ldrb	r1, [r3, #153]	@ zero_extendqisi2
 313 01a2 93F89800 		ldrb	r0, [r3, #152]	@ zero_extendqisi2
 314 01a6 FFF7FEFF 		bl	packet_tx_configure
 315              	.LVL43:
 395:../src/main.c **** 
 396:../src/main.c **** #if defined(PARATNC_HWREV_A) || defined(PARATNC_HWREV_B) || defined(PARATNC_HWREV_C)
 397:../src/main.c ****   // disabling access to BKP registers
 398:../src/main.c ****   RCC->APB1ENR &= (0xFFFFFFFF ^ (RCC_APB1ENR_PWREN | RCC_APB1ENR_BKPEN));
 399:../src/main.c ****   PWR->CR &= (0xFFFFFFFF ^ PWR_CR_DBP);
 400:../src/main.c **** #endif
 401:../src/main.c **** 
 402:../src/main.c ****   // converting latitude into string
 403:../src/main.c ****   memset(main_string_latitude, 0x00, sizeof(main_string_latitude));
 316              		.loc 1 403 0
 317 01aa 214D     		ldr	r5, .L117+44
 318 01ac 0922     		movs	r2, #9
 319 01ae 0021     		movs	r1, #0
 320 01b0 2846     		mov	r0, r5
 321 01b2 FFF7FEFF 		bl	memset
 322              	.LVL44:
 404:../src/main.c ****   float_to_string(main_config_data_basic->latitude, main_string_latitude, sizeof(main_string_latitu
 323              		.loc 1 404 0
 324 01b6 2668     		ldr	r6, [r4]
 325 01b8 0223     		movs	r3, #2
 326 01ba 1A46     		mov	r2, r3
 327 01bc 0921     		movs	r1, #9
 328 01be 2846     		mov	r0, r5
 329 01c0 96ED020A 		vldr.32	s0, [r6, #8]
 330 01c4 FFF7FEFF 		bl	float_to_string
 331              	.LVL45:
 405:../src/main.c **** 
 406:../src/main.c ****   // converting longitude into string
 407:../src/main.c ****   memset(main_string_longitude, 0x00, sizeof(main_string_longitude));
 332              		.loc 1 407 0
 333 01c8 1A4D     		ldr	r5, .L117+48
 334 01ca 0922     		movs	r2, #9
 335 01cc 0021     		movs	r1, #0
 336 01ce 2846     		mov	r0, r5
 337 01d0 FFF7FEFF 		bl	memset
 338              	.LVL46:
 408:../src/main.c ****   float_to_string(main_config_data_basic->longitude, main_string_longitude, sizeof(main_string_long
 339              		.loc 1 408 0
 340 01d4 2668     		ldr	r6, [r4]
 341 01d6 0523     		movs	r3, #5
 342 01d8 0222     		movs	r2, #2
 343 01da 0921     		movs	r1, #9
 344 01dc 2846     		mov	r0, r5
 345 01de 96ED040A 		vldr.32	s0, [r6, #16]
 346 01e2 FFF7FEFF 		bl	float_to_string
 347              	.LVL47:
 409:../src/main.c **** 
 410:../src/main.c ****   switch(main_config_data_basic->symbol) {
 348              		.loc 1 410 0
 349 01e6 2368     		ldr	r3, [r4]
 350 01e8 93F89530 		ldrb	r3, [r3, #149]	@ zero_extendqisi2
 351 01ec 052B     		cmp	r3, #5
 352 01ee 00F2D081 		bhi	.L15
 353 01f2 DFE813F0 		tbh	[pc, r3, lsl #1]
 354              	.L17:
 355 01f6 2100     		.2byte	(.L16-.L17)/2
 356 01f8 7F01     		.2byte	(.L18-.L17)/2
 357 01fa 8601     		.2byte	(.L19-.L17)/2
 358 01fc 8D01     		.2byte	(.L20-.L17)/2
 359 01fe CE01     		.2byte	(.L15-.L17)/2
 360 0200 C701     		.2byte	(.L21-.L17)/2
 361              		.p2align 1
 362              	.L118:
 363 0202 00BF     		.align	2
 364              	.L117:
 365 0204 00000000 		.word	main_own_aprs_msg
 366 0208 00100240 		.word	1073876992
 367 020c 2F002620 		.word	539361327
 368 0210 00000000 		.word	SystemCoreClock
 369 0214 1F85EB51 		.word	1374389535
 370 0218 00000000 		.word	rte_main_reboot_req
 371 021c 00000000 		.word	.LANCHOR0
 372 0220 00000000 		.word	config_data_pgm_cntr_first
 373 0224 00000000 		.word	config_data_pgm_cntr_second
 374 0228 00000000 		.word	.LANCHOR1
 375 022c 00000000 		.word	.LANCHOR2
 376 0230 00000000 		.word	main_string_latitude
 377 0234 00000000 		.word	main_string_longitude
 378              	.L16:
 411:../src/main.c ****   case 0:		// _SYMBOL_DIGI
 412:../src/main.c **** 	  main_symbol_f = '/';
 379              		.loc 1 412 0
 380 0238 B94B     		ldr	r3, .L119
 381 023a 2F22     		movs	r2, #47
 382 023c 1A70     		strb	r2, [r3]
 413:../src/main.c **** 	  main_symbol_s = '#';
 383              		.loc 1 413 0
 384 023e B94B     		ldr	r3, .L119+4
 385 0240 2322     		movs	r2, #35
 386 0242 1A70     		strb	r2, [r3]
 387              	.L22:
 414:../src/main.c **** 	  break;
 415:../src/main.c ****   case 1:		// _SYMBOL_WIDE1_DIGI
 416:../src/main.c **** 	  main_symbol_f = '1';
 417:../src/main.c **** 	  main_symbol_s = '#';
 418:../src/main.c **** 	  break;
 419:../src/main.c ****   case 2:		// _SYMBOL_HOUSE
 420:../src/main.c **** 	  main_symbol_f = '/';
 421:../src/main.c **** 	  main_symbol_s = '-';
 422:../src/main.c **** 	  break;
 423:../src/main.c ****   case 3:		// _SYMBOL_RXIGATE
 424:../src/main.c **** 	  main_symbol_f = 'I';
 425:../src/main.c **** 	  main_symbol_s = '&';
 426:../src/main.c **** 	  break;
 427:../src/main.c ****   case 5:		// _SYMBOL_SAILBOAT
 428:../src/main.c **** 	  main_symbol_f = '/';
 429:../src/main.c **** 	  main_symbol_s = 'Y';
 430:../src/main.c **** 	  break;
 431:../src/main.c ****   default:		// _SYMBOL_IGATE
 432:../src/main.c **** 	  main_symbol_f = 'R';
 433:../src/main.c **** 	  main_symbol_s = '&';
 434:../src/main.c **** 	  break;
 435:../src/main.c **** 
 436:../src/main.c ****   }
 437:../src/main.c **** 
 438:../src/main.c **** #if defined _RANDOM_DELAY
 439:../src/main.c ****   // configuring a default delay value
 440:../src/main.c ****   delay_set(_DELAY_BASE, 1);
 441:../src/main.c **** #elif !defined _RANDOM_DELAY
 442:../src/main.c ****   delay_set(_DELAY_BASE, 0);
 388              		.loc 1 442 0
 389 0244 0021     		movs	r1, #0
 390 0246 1420     		movs	r0, #20
 391 0248 FFF7FEFF 		bl	delay_set
 392              	.LVL48:
 443:../src/main.c **** 
 444:../src/main.c **** #endif
 445:../src/main.c **** 
 446:../src/main.c **** #if defined(STM32L471xx)
 447:../src/main.c ****   // initialize all powersaving functions
 448:../src/main.c ****   pwr_save_init(main_config_data_mode->powersave);
 393              		.loc 1 448 0
 394 024c DFF82493 		ldr	r9, .L119+84
 395 0250 D9F80030 		ldr	r3, [r9]
 396 0254 D87A     		ldrb	r0, [r3, #11]	@ zero_extendqisi2
 397 0256 FFF7FEFF 		bl	pwr_save_init
 398              	.LVL49:
 449:../src/main.c **** #endif
 450:../src/main.c **** 
 451:../src/main.c ****   // initalizing separated Open Collector output
 452:../src/main.c ****   io_oc_init();
 399              		.loc 1 452 0
 400 025a FFF7FEFF 		bl	io_oc_init
 401              	.LVL50:
 453:../src/main.c **** 
 454:../src/main.c ****   // initialize sensor power control and switch off supply voltage
 455:../src/main.c ****   wx_pwr_switch_init();
 402              		.loc 1 455 0
 403 025e FFF7FEFF 		bl	wx_pwr_switch_init
 404              	.LVL51:
 456:../src/main.c **** 
 457:../src/main.c ****   // call periodic handle to wait for 1 second and then switch on voltage
 458:../src/main.c ****   wx_pwr_switch_periodic_handle();
 405              		.loc 1 458 0
 406 0262 FFF7FEFF 		bl	wx_pwr_switch_periodic_handle
 407              	.LVL52:
 459:../src/main.c **** 
 460:../src/main.c ****   // waiting for 1 second to count number of ticks when the CPU is idle
 461:../src/main.c ****   main_idle_cpu_ticks = delay_fixed_with_count(1000);
 408              		.loc 1 461 0
 409 0266 4FF47A70 		mov	r0, #1000
 410 026a FFF7FEFF 		bl	delay_fixed_with_count
 411              	.LVL53:
 412 026e AE4B     		ldr	r3, .L119+8
 413 0270 1860     		str	r0, [r3]
 462:../src/main.c **** 
 463:../src/main.c **** #if defined(PARATNC_HWREV_A) || defined(PARATNC_HWREV_B) || defined(PARATNC_HWREV_C)
 464:../src/main.c **** 
 465:../src/main.c ****   // Configure I/O pins for USART1 (Kiss modem)
 466:../src/main.c ****   Configure_GPIO(GPIOA,10,PUD_INPUT);		// RX
 467:../src/main.c ****   Configure_GPIO(GPIOA,9,AFPP_OUTPUT_2MHZ);	// TX
 468:../src/main.c **** 
 469:../src/main.c ****   // Configure I/O pins for USART2 (wx meteo comm)
 470:../src/main.c ****   Configure_GPIO(GPIOA,3,PUD_INPUT);		// RX
 471:../src/main.c ****   Configure_GPIO(GPIOA,2,AFPP_OUTPUT_2MHZ);	// TX
 472:../src/main.c **** 
 473:../src/main.c **** #endif
 474:../src/main.c **** 
 475:../src/main.c **** #if defined(PARAMETEO)
 476:../src/main.c ****   	// USART1 - KISS
 477:../src/main.c **** 	GPIO_InitTypeDef.Mode = LL_GPIO_MODE_ALTERNATE;
 414              		.loc 1 477 0
 415 0272 AE4C     		ldr	r4, .L119+12
 416 0274 4FF00208 		mov	r8, #2
 417 0278 C4F80480 		str	r8, [r4, #4]
 478:../src/main.c **** 	GPIO_InitTypeDef.Pin = LL_GPIO_PIN_10;
 418              		.loc 1 478 0
 419 027c 4FF48063 		mov	r3, #1024
 420 0280 2360     		str	r3, [r4]
 479:../src/main.c **** 	GPIO_InitTypeDef.Pull = LL_GPIO_PULL_NO;
 421              		.loc 1 479 0
 422 0282 0025     		movs	r5, #0
 423 0284 2561     		str	r5, [r4, #16]
 480:../src/main.c **** 	GPIO_InitTypeDef.Speed = LL_GPIO_SPEED_FREQ_VERY_HIGH;
 424              		.loc 1 480 0
 425 0286 0327     		movs	r7, #3
 426 0288 A760     		str	r7, [r4, #8]
 481:../src/main.c **** 	GPIO_InitTypeDef.Alternate = LL_GPIO_AF_7;
 427              		.loc 1 481 0
 428 028a 0726     		movs	r6, #7
 429 028c 6661     		str	r6, [r4, #20]
 482:../src/main.c **** 	GPIO_InitTypeDef.OutputType = LL_GPIO_OUTPUT_PUSHPULL;
 430              		.loc 1 482 0
 431 028e E560     		str	r5, [r4, #12]
 483:../src/main.c **** 	LL_GPIO_Init(GPIOA, &GPIO_InitTypeDef);		// RX
 432              		.loc 1 483 0
 433 0290 2146     		mov	r1, r4
 434 0292 4FF09040 		mov	r0, #1207959552
 435 0296 FFF7FEFF 		bl	LL_GPIO_Init
 436              	.LVL54:
 484:../src/main.c **** 
 485:../src/main.c **** 	GPIO_InitTypeDef.Mode = LL_GPIO_MODE_ALTERNATE;
 437              		.loc 1 485 0
 438 029a C4F80480 		str	r8, [r4, #4]
 486:../src/main.c **** 	GPIO_InitTypeDef.Pin = LL_GPIO_PIN_9;
 439              		.loc 1 486 0
 440 029e 4FF40073 		mov	r3, #512
 441 02a2 2360     		str	r3, [r4]
 487:../src/main.c **** 	GPIO_InitTypeDef.Pull = LL_GPIO_PULL_NO;
 442              		.loc 1 487 0
 443 02a4 2561     		str	r5, [r4, #16]
 488:../src/main.c **** 	GPIO_InitTypeDef.Speed = LL_GPIO_SPEED_FREQ_VERY_HIGH;
 444              		.loc 1 488 0
 445 02a6 A760     		str	r7, [r4, #8]
 489:../src/main.c **** 	GPIO_InitTypeDef.Alternate = LL_GPIO_AF_7;
 446              		.loc 1 489 0
 447 02a8 6661     		str	r6, [r4, #20]
 490:../src/main.c **** 	GPIO_InitTypeDef.OutputType = LL_GPIO_OUTPUT_PUSHPULL;
 448              		.loc 1 490 0
 449 02aa E560     		str	r5, [r4, #12]
 491:../src/main.c **** 	LL_GPIO_Init(GPIOA, &GPIO_InitTypeDef);		// TX
 450              		.loc 1 491 0
 451 02ac 2146     		mov	r1, r4
 452 02ae 4FF09040 		mov	r0, #1207959552
 453 02b2 FFF7FEFF 		bl	LL_GPIO_Init
 454              	.LVL55:
 492:../src/main.c **** 
 493:../src/main.c **** 	// USART2 - METEO
 494:../src/main.c **** 	GPIO_InitTypeDef.Mode = LL_GPIO_MODE_ALTERNATE;
 455              		.loc 1 494 0
 456 02b6 C4F80480 		str	r8, [r4, #4]
 495:../src/main.c **** 	GPIO_InitTypeDef.Pin = LL_GPIO_PIN_3;
 457              		.loc 1 495 0
 458 02ba 0823     		movs	r3, #8
 459 02bc 2360     		str	r3, [r4]
 496:../src/main.c **** 	GPIO_InitTypeDef.Pull = LL_GPIO_PULL_NO;
 460              		.loc 1 496 0
 461 02be 2561     		str	r5, [r4, #16]
 497:../src/main.c **** 	GPIO_InitTypeDef.Speed = LL_GPIO_SPEED_FREQ_VERY_HIGH;
 462              		.loc 1 497 0
 463 02c0 A760     		str	r7, [r4, #8]
 498:../src/main.c **** 	GPIO_InitTypeDef.Alternate = LL_GPIO_AF_7;
 464              		.loc 1 498 0
 465 02c2 6661     		str	r6, [r4, #20]
 499:../src/main.c **** 	GPIO_InitTypeDef.OutputType = LL_GPIO_OUTPUT_PUSHPULL;
 466              		.loc 1 499 0
 467 02c4 E560     		str	r5, [r4, #12]
 500:../src/main.c **** 	LL_GPIO_Init(GPIOA, &GPIO_InitTypeDef);		// RX
 468              		.loc 1 500 0
 469 02c6 2146     		mov	r1, r4
 470 02c8 4FF09040 		mov	r0, #1207959552
 471 02cc FFF7FEFF 		bl	LL_GPIO_Init
 472              	.LVL56:
 501:../src/main.c **** 
 502:../src/main.c **** 	GPIO_InitTypeDef.Mode = LL_GPIO_MODE_ALTERNATE;
 473              		.loc 1 502 0
 474 02d0 C4F80480 		str	r8, [r4, #4]
 503:../src/main.c **** 	GPIO_InitTypeDef.Pin = LL_GPIO_PIN_2;
 475              		.loc 1 503 0
 476 02d4 4FF00408 		mov	r8, #4
 477 02d8 C4F80080 		str	r8, [r4]
 504:../src/main.c **** 	GPIO_InitTypeDef.Pull = LL_GPIO_PULL_NO;
 478              		.loc 1 504 0
 479 02dc 2561     		str	r5, [r4, #16]
 505:../src/main.c **** 	GPIO_InitTypeDef.Speed = LL_GPIO_SPEED_FREQ_VERY_HIGH;
 480              		.loc 1 505 0
 481 02de A760     		str	r7, [r4, #8]
 506:../src/main.c **** 	GPIO_InitTypeDef.Alternate = LL_GPIO_AF_7;
 482              		.loc 1 506 0
 483 02e0 6661     		str	r6, [r4, #20]
 507:../src/main.c **** 	GPIO_InitTypeDef.OutputType = LL_GPIO_OUTPUT_PUSHPULL;
 484              		.loc 1 507 0
 485 02e2 E560     		str	r5, [r4, #12]
 508:../src/main.c **** 	LL_GPIO_Init(GPIOA, &GPIO_InitTypeDef);		// TX
 486              		.loc 1 508 0
 487 02e4 2146     		mov	r1, r4
 488 02e6 4FF09040 		mov	r0, #1207959552
 489 02ea FFF7FEFF 		bl	LL_GPIO_Init
 490              	.LVL57:
 509:../src/main.c **** 
 510:../src/main.c **** #endif
 511:../src/main.c **** 
 512:../src/main.c **** #if defined(PARATNC_HWREV_A) || defined(PARATNC_HWREV_B)
 513:../src/main.c ****   Configure_GPIO(GPIOA,7,GPPP_OUTPUT_2MHZ);	// re/te
 514:../src/main.c ****   GPIO_ResetBits(GPIOA, GPIO_Pin_7);
 515:../src/main.c **** #endif
 516:../src/main.c **** #if defined(PARATNC_HWREV_C)
 517:../src/main.c ****   Configure_GPIO(GPIOA,8,GPPP_OUTPUT_2MHZ);	// re/te
 518:../src/main.c ****   GPIO_ResetBits(GPIOA, GPIO_Pin_8);
 519:../src/main.c **** #endif
 520:../src/main.c **** 
 521:../src/main.c **** #if defined(PARAMETEO)
 522:../src/main.c **** 	GPIO_InitTypeDef.Mode = LL_GPIO_MODE_OUTPUT;
 491              		.loc 1 522 0
 492 02ee 0123     		movs	r3, #1
 493 02f0 6360     		str	r3, [r4, #4]
 523:../src/main.c **** 	GPIO_InitTypeDef.OutputType = LL_GPIO_OUTPUT_PUSHPULL;
 494              		.loc 1 523 0
 495 02f2 E560     		str	r5, [r4, #12]
 524:../src/main.c **** 	GPIO_InitTypeDef.Pin = LL_GPIO_PIN_2;
 496              		.loc 1 524 0
 497 02f4 C4F80080 		str	r8, [r4]
 525:../src/main.c **** 	GPIO_InitTypeDef.Pull = LL_GPIO_PULL_NO;
 498              		.loc 1 525 0
 499 02f8 2561     		str	r5, [r4, #16]
 526:../src/main.c **** 	GPIO_InitTypeDef.Speed = LL_GPIO_SPEED_FREQ_MEDIUM;
 500              		.loc 1 526 0
 501 02fa A360     		str	r3, [r4, #8]
 527:../src/main.c **** 	GPIO_InitTypeDef.Alternate = LL_GPIO_AF_7;
 502              		.loc 1 527 0
 503 02fc 6661     		str	r6, [r4, #20]
 528:../src/main.c **** 	LL_GPIO_Init(GPIOA, &GPIO_InitTypeDef);		// RE-TE
 504              		.loc 1 528 0
 505 02fe 2146     		mov	r1, r4
 506 0300 4FF09040 		mov	r0, #1207959552
 507 0304 FFF7FEFF 		bl	LL_GPIO_Init
 508              	.LVL58:
 529:../src/main.c **** #endif
 530:../src/main.c **** 
 531:../src/main.c **** #if defined(PARATNC_HWREV_A) || defined(PARATNC_HWREV_B) || defined(PARATNC_HWREV_C)
 532:../src/main.c ****   // enabling the clock for both USARTs
 533:../src/main.c ****   RCC->APB2ENR |= RCC_APB2ENR_USART1EN;
 534:../src/main.c ****   RCC->APB1ENR |= RCC_APB1ENR_USART2EN;
 535:../src/main.c **** #endif
 536:../src/main.c **** 
 537:../src/main.c ****   main_kiss_srl_ctx_ptr = &main_kiss_srl_ctx;
 509              		.loc 1 537 0
 510 0308 894B     		ldr	r3, .L119+16
 511 030a 8A4A     		ldr	r2, .L119+20
 512 030c 1A60     		str	r2, [r3]
 538:../src/main.c ****   main_wx_srl_ctx_ptr = &main_wx_srl_ctx;
 513              		.loc 1 538 0
 514 030e 8A4B     		ldr	r3, .L119+24
 515 0310 8A4A     		ldr	r2, .L119+28
 516 0312 1A60     		str	r2, [r3]
 539:../src/main.c **** 
 540:../src/main.c ****   main_target_kiss_baudrate = 9600u;
 517              		.loc 1 540 0
 518 0314 4FF41653 		mov	r3, #9600
 519 0318 894A     		ldr	r2, .L119+32
 520 031a 1360     		str	r3, [r2]
 541:../src/main.c ****   main_target_wx_baudrate = _SERIAL_BAUDRATE;
 521              		.loc 1 541 0
 522 031c 894A     		ldr	r2, .L119+36
 523 031e 1360     		str	r3, [r2]
 542:../src/main.c **** 
 543:../src/main.c **** #if defined(PARAMETEO)
 544:../src/main.c ****   // swtich power to M4. turn on sensors but keep GSM modem turned off
 545:../src/main.c ****   pwr_save_switch_mode_to_m4();
 524              		.loc 1 545 0
 525 0320 FFF7FEFF 		bl	pwr_save_switch_mode_to_m4
 526              	.LVL59:
 546:../src/main.c **** #endif
 547:../src/main.c **** 
 548:../src/main.c ****   // if Victron VE-direct protocol is enabled set the baudrate to the 19200u
 549:../src/main.c ****   if (main_config_data_mode->victron == 1) {
 527              		.loc 1 549 0
 528 0324 D9F80030 		ldr	r3, [r9]
 529 0328 DA79     		ldrb	r2, [r3, #7]	@ zero_extendqisi2
 530 032a 012A     		cmp	r2, #1
 531 032c 00F03881 		beq	.L80
 532              	.L23:
 550:../src/main.c ****     main_target_kiss_baudrate = 19200u;
 551:../src/main.c **** 
 552:../src/main.c ****     // and disable the kiss TNC option as it shares the same port
 553:../src/main.c ****     main_kiss_enabled = 0;
 554:../src/main.c ****   }
 555:../src/main.c **** 
 556:../src/main.c **** 
 557:../src/main.c ****   if (main_config_data_mode->wx_davis == 1) {
 533              		.loc 1 557 0
 534 0330 1A79     		ldrb	r2, [r3, #4]	@ zero_extendqisi2
 535 0332 012A     		cmp	r2, #1
 536 0334 00F03B81 		beq	.L81
 558:../src/main.c **** 	  // reinitialize the KISS serial port temporary to davis baudrate
 559:../src/main.c **** 	  main_target_kiss_baudrate = DAVIS_DEFAULT_BAUDRATE;
 560:../src/main.c **** 
 561:../src/main.c **** 	  // reset RX state to allow reinitialization with changed baudrate
 562:../src/main.c **** 	  main_kiss_srl_ctx_ptr->srl_rx_state = SRL_RX_NOT_CONFIG;
 563:../src/main.c **** 
 564:../src/main.c **** 	  // reinitializing serial hardware to wake up Davis wx station
 565:../src/main.c **** 	  srl_init(main_kiss_srl_ctx_ptr, USART1, srl_usart1_rx_buffer, RX_BUFFER_1_LN, srl_usart1_tx_buff
 566:../src/main.c **** 
 567:../src/main.c **** 	  srl_switch_timeout(main_kiss_srl_ctx_ptr, SRL_TIMEOUT_ENABLE, 3000);
 568:../src/main.c **** 
 569:../src/main.c **** 	  davis_init(main_kiss_srl_ctx_ptr);
 570:../src/main.c **** 
 571:../src/main.c **** 	  // try to wake up the davis base
 572:../src/main.c **** 	  rte_wx_davis_station_avaliable = (davis_wake_up(DAVIS_BLOCKING_IO) == 0 ? 1 : 0);
 573:../src/main.c **** 
 574:../src/main.c **** 	  // if davis weather stations is connected to SERIAL port
 575:../src/main.c **** 	  if (rte_wx_davis_station_avaliable == 1) {
 576:../src/main.c **** 		  // turn LCD backlight on..
 577:../src/main.c **** 		  davis_control_backlight(1);
 578:../src/main.c **** 
 579:../src/main.c **** 		  // wait for a while
 580:../src/main.c **** 		  delay_fixed(1000);
 581:../src/main.c **** 
 582:../src/main.c **** 		  // and then off to let the user know that communication is working
 583:../src/main.c **** 		  davis_control_backlight(0);
 584:../src/main.c **** 
 585:../src/main.c **** 		  // disable the KISS modem as the UART will be used for DAVIS wx station
 586:../src/main.c **** 		  main_kiss_enabled = 0;
 587:../src/main.c **** 
 588:../src/main.c **** 		  // enable the davis serial protocol client to allow pooling callbacks to be called in main loop
 589:../src/main.c **** 		  // This only controls the callback it doesn't mean that the station itself is responding to
 590:../src/main.c **** 		  // communication. It stays set to one event if Davis station
 591:../src/main.c **** 		  main_davis_serial_enabled = 1;
 592:../src/main.c **** 
 593:../src/main.c **** 		  // trigger the rxcheck to get all counter values
 594:../src/main.c **** 		  davis_trigger_rxcheck_packet();
 595:../src/main.c **** 
 596:../src/main.c **** 	  }
 597:../src/main.c **** 	  else {
 598:../src/main.c **** 		  // if not revert back to KISS configuration
 599:../src/main.c **** 		  main_target_kiss_baudrate = 9600u;
 600:../src/main.c **** 		  main_kiss_srl_ctx_ptr->srl_rx_state = SRL_RX_NOT_CONFIG;
 601:../src/main.c **** 
 602:../src/main.c **** 		  // initializing UART drvier
 603:../src/main.c **** 		  srl_init(main_kiss_srl_ctx_ptr, USART1, srl_usart1_rx_buffer, RX_BUFFER_1_LN, srl_usart1_tx_buf
 604:../src/main.c **** 		  srl_init(main_wx_srl_ctx_ptr, USART2, srl_usart2_rx_buffer, RX_BUFFER_2_LN, srl_usart2_tx_buffe
 605:../src/main.c **** 
 606:../src/main.c **** 	  }
 607:../src/main.c ****   }
 608:../src/main.c ****   else if (main_config_data_mode->wx_modbus == 1) {
 537              		.loc 1 608 0
 538 0338 DB78     		ldrb	r3, [r3, #3]	@ zero_extendqisi2
 539 033a 012B     		cmp	r3, #1
 540 033c 00F09481 		beq	.L82
 609:../src/main.c **** 
 610:../src/main.c **** 	  rtu_serial_init(&rte_rtu_pool_queue, 1, main_wx_srl_ctx_ptr, main_config_data_rtu);
 611:../src/main.c **** 
 612:../src/main.c **** 	  main_target_wx_baudrate = main_config_data_rtu->slave_speed;
 613:../src/main.c **** 
 614:../src/main.c **** 	  // initialize serial ports according to RS485 network configuration for Modbus-RTU
 615:../src/main.c **** 	  srl_init(main_kiss_srl_ctx_ptr, USART1, srl_usart1_rx_buffer, RX_BUFFER_1_LN, srl_usart1_tx_buff
 616:../src/main.c **** 	  srl_init(main_wx_srl_ctx_ptr, USART2, srl_usart2_rx_buffer, RX_BUFFER_2_LN, srl_usart2_tx_buffer
 617:../src/main.c **** 	  srl_switch_tx_delay(main_wx_srl_ctx_ptr, 1);
 618:../src/main.c **** 
 619:../src/main.c **** 	  // enabling rtu master code
 620:../src/main.c **** 	  main_modbus_rtu_master_enabled = 1;
 621:../src/main.c **** 
 622:../src/main.c **** 	  rtu_serial_start();
 623:../src/main.c ****   }
 624:../src/main.c ****   else {
 625:../src/main.c **** 	  // initializing UART drvier
 626:../src/main.c **** 	  srl_init(main_kiss_srl_ctx_ptr, USART1, srl_usart1_rx_buffer, RX_BUFFER_1_LN, srl_usart1_tx_buff
 541              		.loc 1 626 0
 542 0340 7B4B     		ldr	r3, .L119+16
 543 0342 1868     		ldr	r0, [r3]
 544 0344 0124     		movs	r4, #1
 545 0346 0394     		str	r4, [sp, #12]
 546 0348 7D4B     		ldr	r3, .L119+32
 547 034a 1B68     		ldr	r3, [r3]
 548 034c 0293     		str	r3, [sp, #8]
 549 034e 4FF40073 		mov	r3, #512
 550 0352 0193     		str	r3, [sp, #4]
 551 0354 7C4A     		ldr	r2, .L119+40
 552 0356 0092     		str	r2, [sp]
 553 0358 7C4A     		ldr	r2, .L119+44
 554 035a 7D49     		ldr	r1, .L119+48
 555 035c FFF7FEFF 		bl	srl_init
 556              	.LVL60:
 627:../src/main.c **** 	  srl_init(main_wx_srl_ctx_ptr, USART2, srl_usart2_rx_buffer, RX_BUFFER_2_LN, srl_usart2_tx_buffer
 557              		.loc 1 627 0
 558 0360 754B     		ldr	r3, .L119+24
 559 0362 1868     		ldr	r0, [r3]
 560 0364 0394     		str	r4, [sp, #12]
 561 0366 774B     		ldr	r3, .L119+36
 562 0368 1B68     		ldr	r3, [r3]
 563 036a 0293     		str	r3, [sp, #8]
 564 036c 6023     		movs	r3, #96
 565 036e 0193     		str	r3, [sp, #4]
 566 0370 784A     		ldr	r2, .L119+52
 567 0372 0092     		str	r2, [sp]
 568 0374 784A     		ldr	r2, .L119+56
 569 0376 7949     		ldr	r1, .L119+60
 570 0378 FFF7FEFF 		bl	srl_init
 571              	.LVL61:
 572              	.L26:
 628:../src/main.c ****   }
 629:../src/main.c **** 
 630:../src/main.c **** #if defined(PARATNC_HWREV_A) || defined(PARATNC_HWREV_B)
 631:../src/main.c ****   main_wx_srl_ctx_ptr->te_pin = GPIO_Pin_7;
 632:../src/main.c ****   main_wx_srl_ctx_ptr->te_port = GPIOA;
 633:../src/main.c **** #endif
 634:../src/main.c **** #if defined(PARATNC_HWREV_C)
 635:../src/main.c ****   main_wx_srl_ctx_ptr->te_pin = GPIO_Pin_8;
 636:../src/main.c ****   main_wx_srl_ctx_ptr->te_port = GPIOA;
 637:../src/main.c **** #endif
 638:../src/main.c **** #if defined(PARAMETEO)
 639:../src/main.c ****   main_wx_srl_ctx_ptr->te_pin = LL_GPIO_PIN_8;
 573              		.loc 1 639 0
 574 037c 6E4B     		ldr	r3, .L119+24
 575 037e 1B68     		ldr	r3, [r3]
 576 0380 4FF48072 		mov	r2, #256
 577 0384 1A82     		strh	r2, [r3, #16]	@ movhi
 640:../src/main.c ****   main_wx_srl_ctx_ptr->te_port = GPIOA;
 578              		.loc 1 640 0
 579 0386 4FF09042 		mov	r2, #1207959552
 580 038a DA60     		str	r2, [r3, #12]
 641:../src/main.c **** #endif
 642:../src/main.c **** 
 643:../src/main.c ****   // initialize APRS path with zeros
 644:../src/main.c ****   memset (main_own_path, 0x00, sizeof(main_own_path));
 581              		.loc 1 644 0
 582 038c 744C     		ldr	r4, .L119+64
 583 038e 1522     		movs	r2, #21
 584 0390 0021     		movs	r1, #0
 585 0392 2046     		mov	r0, r4
 586 0394 FFF7FEFF 		bl	memset
 587              	.LVL62:
 645:../src/main.c **** 
 646:../src/main.c ****   // configuring an APRS path used to transmit own packets (telemetry, wx, beacons)
 647:../src/main.c ****   main_own_path_ln = ConfigPath(main_own_path, main_config_data_basic);
 588              		.loc 1 647 0
 589 0398 724B     		ldr	r3, .L119+68
 590 039a 1968     		ldr	r1, [r3]
 591 039c 2046     		mov	r0, r4
 592 039e FFF7FEFF 		bl	ConfigPath
 593              	.LVL63:
 594 03a2 714B     		ldr	r3, .L119+72
 595 03a4 1870     		strb	r0, [r3]
 648:../src/main.c **** 
 649:../src/main.c **** #ifdef INTERNAL_WATCHDOG
 650:../src/main.c **** #if defined(PARATNC_HWREV_A) || defined(PARATNC_HWREV_B) || defined(PARATNC_HWREV_C)
 651:../src/main.c ****   // enable write access to watchdog registers
 652:../src/main.c ****   IWDG_WriteAccessCmd(IWDG_WriteAccess_Enable);
 653:../src/main.c **** 
 654:../src/main.c ****   // Set watchdog prescaler
 655:../src/main.c ****   IWDG_SetPrescaler(IWDG_Prescaler_128);
 656:../src/main.c **** 
 657:../src/main.c ****   // Set the counter value to program watchdog for about 13 seconds
 658:../src/main.c ****   IWDG_SetReload(0xFFF);
 659:../src/main.c **** 
 660:../src/main.c ****   // enable the watchdog
 661:../src/main.c ****   IWDG_Enable();
 662:../src/main.c **** 
 663:../src/main.c ****   // do not disable the watchdog when the core is halted on a breakpoint
 664:../src/main.c ****   DBGMCU_Config(DBGMCU_IWDG_STOP, ENABLE);
 665:../src/main.c **** 
 666:../src/main.c ****   // reload watchdog counter
 667:../src/main.c ****   IWDG_ReloadCounter();
 668:../src/main.c **** #endif
 669:../src/main.c **** #endif
 670:../src/main.c **** 
 671:../src/main.c **** #ifdef _METEO
 672:../src/main.c ****   // initialize i2c controller
 673:../src/main.c ****   i2cConfigure();
 596              		.loc 1 673 0
 597 03a6 FFF7FEFF 		bl	i2cConfigure
 598              	.LVL64:
 674:../src/main.c **** #endif
 675:../src/main.c **** 
 676:../src/main.c ****   // initialize GPIO pins leds are connecting to
 677:../src/main.c ****   led_init();
 599              		.loc 1 677 0
 600 03aa FFF7FEFF 		bl	led_init
 601              	.LVL65:
 678:../src/main.c **** 
 679:../src/main.c ****   // initialize AX25 & APRS stuff
 680:../src/main.c ****   AFSK_Init(&main_afsk);
 602              		.loc 1 680 0
 603 03ae 6F4C     		ldr	r4, .L119+76
 604 03b0 2046     		mov	r0, r4
 605 03b2 FFF7FEFF 		bl	AFSK_Init
 606              	.LVL66:
 681:../src/main.c ****   ax25_init(&main_ax25, &main_afsk, 0, 0x00);
 607              		.loc 1 681 0
 608 03b6 0023     		movs	r3, #0
 609 03b8 1A46     		mov	r2, r3
 610 03ba 2146     		mov	r1, r4
 611 03bc 6C48     		ldr	r0, .L119+80
 612 03be FFF7FEFF 		bl	ax25_init
 613              	.LVL67:
 682:../src/main.c ****   DA_Init();
 614              		.loc 1 682 0
 615 03c2 FFF7FEFF 		bl	DA_Init
 616              	.LVL68:
 683:../src/main.c **** 
 684:../src/main.c ****   // configure external watchdog
 685:../src/main.c ****   io_ext_watchdog_config();
 617              		.loc 1 685 0
 618 03c6 FFF7FEFF 		bl	io_ext_watchdog_config
 619              	.LVL69:
 686:../src/main.c **** 
 687:../src/main.c ****   // initializing the digipeater configuration
 688:../src/main.c ****   digi_init(main_config_data_mode);
 620              		.loc 1 688 0
 621 03ca 6A4C     		ldr	r4, .L119+84
 622 03cc 2068     		ldr	r0, [r4]
 623 03ce FFF7FEFF 		bl	digi_init
 624              	.LVL70:
 689:../src/main.c **** 
 690:../src/main.c ****   if ((main_config_data_mode->wx & WX_ENABLED) == 1) {
 625              		.loc 1 690 0
 626 03d2 2368     		ldr	r3, [r4]
 627 03d4 5B78     		ldrb	r3, [r3, #1]	@ zero_extendqisi2
 628 03d6 13F0010F 		tst	r3, #1
 629 03da 40F07881 		bne	.L83
 630              	.L28:
 691:../src/main.c **** #if defined(PARATNC_HWREV_A) || defined(PARATNC_HWREV_B) || defined(PARATNC_HWREV_C)
 692:../src/main.c **** 	  dallas_init(GPIOC, GPIO_Pin_11, GPIO_PinSource11, &rte_wx_dallas_average);
 693:../src/main.c **** #endif
 694:../src/main.c **** 
 695:../src/main.c **** #if defined(PARAMETEO)
 696:../src/main.c **** 
 697:../src/main.c **** 	  // switch on voltages exclusively for ParaMETEO
 698:../src/main.c **** 
 699:../src/main.c **** 	  // initialize dallas one-wire driver for termometer
 700:../src/main.c **** 	  dallas_init(GPIOC, LL_GPIO_PIN_11, 0x0, &rte_wx_dallas_average);
 701:../src/main.c **** #endif
 702:../src/main.c **** 
 703:../src/main.c **** 	  if (main_config_data_mode->wx_umb == 1) {
 704:../src/main.c **** 		  // client initialization
 705:../src/main.c **** 		  umb_master_init(&rte_wx_umb_context, main_wx_srl_ctx_ptr, main_config_data_umb);
 706:../src/main.c **** 	  }
 707:../src/main.c **** 
 708:../src/main.c **** 	  if ((main_config_data_mode->wx & WX_INTERNAL_SPARKFUN_WIND) == 0) {
 709:../src/main.c **** 		  analog_anemometer_init(main_config_data_mode->wx_anemometer_pulses_constant, 38, 100, 1);
 710:../src/main.c **** 	  }
 711:../src/main.c **** 	  else {
 712:../src/main.c **** 		  analog_anemometer_init(main_config_data_mode->wx_anemometer_pulses_constant, 38, 100, 1);
 713:../src/main.c **** 	  }
 714:../src/main.c ****   }
 715:../src/main.c **** 
 716:../src/main.c ****   // configuring interrupt priorities
 717:../src/main.c ****   it_handlers_set_priorities();
 631              		.loc 1 717 0
 632 03de FFF7FEFF 		bl	it_handlers_set_priorities
 633              	.LVL71:
 718:../src/main.c **** 
 719:../src/main.c **** 	if (main_config_data_mode->wx_ms5611_or_bme == 0) {
 634              		.loc 1 719 0
 635 03e2 644B     		ldr	r3, .L119+84
 636 03e4 1B68     		ldr	r3, [r3]
 637 03e6 5B79     		ldrb	r3, [r3, #5]	@ zero_extendqisi2
 638 03e8 002B     		cmp	r3, #0
 639 03ea 00F09681 		beq	.L84
 720:../src/main.c **** 	 ms5611_reset(&rte_wx_ms5611_qf);
 721:../src/main.c **** 	 ms5611_read_calibration(SensorCalData, &rte_wx_ms5611_qf);
 722:../src/main.c **** 	 ms5611_trigger_measure(0, 0);
 723:../src/main.c **** 	}
 724:../src/main.c **** 	else if (main_config_data_mode->wx_ms5611_or_bme == 1) {
 640              		.loc 1 724 0
 641 03ee 012B     		cmp	r3, #1
 642 03f0 00F0A081 		beq	.L85
 643              	.L32:
 725:../src/main.c **** 	 bme280_reset(&rte_wx_bme280_qf);
 726:../src/main.c **** 	 bme280_setup();
 727:../src/main.c **** 	 bme280_read_calibration(bme280_calibration_data);
 728:../src/main.c **** 	}
 729:../src/main.c **** 
 730:../src/main.c ****  if (main_kiss_enabled == 1) {
 644              		.loc 1 730 0
 645 03f4 604B     		ldr	r3, .L119+88
 646 03f6 1B78     		ldrb	r3, [r3]	@ zero_extendqisi2
 647 03f8 012B     		cmp	r3, #1
 648 03fa 00F0A481 		beq	.L86
 649              	.LVL72:
 650              	.L33:
 731:../src/main.c **** 	  // preparing initial beacon which will be sent to host PC using KISS protocol via UART
 732:../src/main.c **** 	  main_own_aprs_msg_len = sprintf(main_own_aprs_msg, "=%s%c%c%s%c%c %s", main_string_latitude, mai
 733:../src/main.c **** 
 734:../src/main.c **** 	  // terminating the aprs message
 735:../src/main.c **** 	  main_own_aprs_msg[main_own_aprs_msg_len] = 0;
 736:../src/main.c **** 
 737:../src/main.c **** 	  // 'sending' the message which will only encapsulate it inside AX25 protocol (ax25_starttx is no
 738:../src/main.c **** 	  //ax25_sendVia(&main_ax25, main_own_path, (sizeof(main_own_path) / sizeof(*(main_own_path))), ma
 739:../src/main.c **** 	  ln = ax25_sendVia_toBuffer(main_own_path, (sizeof(main_own_path) / sizeof(*(main_own_path))), ma
 740:../src/main.c **** 
 741:../src/main.c **** 	  // SendKISSToHost function cleares the output buffer hence routine need to wait till the UART wi
 742:../src/main.c **** 	  // Here this could be omitted because UART isn't used before but general idea
 743:../src/main.c **** 	  while(main_kiss_srl_ctx.srl_tx_state != SRL_TX_IDLE && main_kiss_srl_ctx.srl_tx_state != SRL_TX_
 744:../src/main.c **** 
 745:../src/main.c **** 	  // converting AX25 with beacon to KISS format
 746:../src/main.c **** 	  //ln = SendKISSToHost(main_afsk.tx_buf + 1, main_afsk.tx_fifo.tail - main_afsk.tx_fifo.head - 4,
 747:../src/main.c **** 
 748:../src/main.c **** 
 749:../src/main.c **** 	  // checking if KISS-framing was done correctly
 750:../src/main.c **** 	  if (ln != KISS_TOO_LONG_FRM) {
 751:../src/main.c **** 	#ifdef SERIAL_TX_TEST_MODE
 752:../src/main.c **** 		  // infinite loop for testing UART transmission
 753:../src/main.c **** 		  for (;;) {
 754:../src/main.c **** 
 755:../src/main.c **** 			  retval = srl_receive_data(main_kiss_srl_ctx_ptr, 100, FEND, FEND, 0, 0, 0);
 756:../src/main.c **** 	#endif
 757:../src/main.c **** 			  retval = srl_start_tx(main_kiss_srl_ctx_ptr, ln);
 758:../src/main.c **** 
 759:../src/main.c **** 	#ifdef SERIAL_TX_TEST_MODE
 760:../src/main.c **** 			  	  	while(main_kiss_srl_ctx_ptr->srl_tx_state != SRL_TX_IDLE);
 761:../src/main.c **** 
 762:../src/main.c **** 				#if defined(PARAMETEO)
 763:../src/main.c **** 			  	 	LL_GPIO_TogglePin(GPIOC, LL_GPIO_PIN_9);
 764:../src/main.c **** 				#else
 765:../src/main.c **** 		  	  		GPIOC->ODR = (GPIOC->ODR ^ GPIO_Pin_9);
 766:../src/main.c **** 				#endif
 767:../src/main.c **** 
 768:../src/main.c **** 			  if (main_kiss_srl_ctx_ptr->srl_rx_state == SRL_RX_DONE) {
 769:../src/main.c **** 				#if defined(PARAMETEO)
 770:../src/main.c **** 			  	 		LL_GPIO_TogglePin(GPIOC, LL_GPIO_PIN_9);
 771:../src/main.c **** 				#else
 772:../src/main.c **** 						GPIOC->ODR = (GPIOC->ODR ^ GPIO_Pin_9);
 773:../src/main.c **** 				#endif
 774:../src/main.c **** 				  retval = 200;
 775:../src/main.c **** 			  }
 776:../src/main.c **** 		  }
 777:../src/main.c **** 	#endif
 778:../src/main.c **** 	  }
 779:../src/main.c **** 
 780:../src/main.c ****  }
 781:../src/main.c **** 
 782:../src/main.c ****   // reinitializing AFSK and AX25 driver
 783:../src/main.c ****   AFSK_Init(&main_afsk);
 651              		.loc 1 783 0
 652 03fe 5B4C     		ldr	r4, .L119+76
 653 0400 2046     		mov	r0, r4
 654 0402 FFF7FEFF 		bl	AFSK_Init
 655              	.LVL73:
 784:../src/main.c **** 
 785:../src/main.c ****   ADCStartConfig();
 656              		.loc 1 785 0
 657 0406 FFF7FEFF 		bl	ADCStartConfig
 658              	.LVL74:
 786:../src/main.c ****   DACStartConfig();
 659              		.loc 1 786 0
 660 040a FFF7FEFF 		bl	DACStartConfig
 661              	.LVL75:
 787:../src/main.c ****   AFSK_Init(&main_afsk);
 662              		.loc 1 787 0
 663 040e 2046     		mov	r0, r4
 664 0410 FFF7FEFF 		bl	AFSK_Init
 665              	.LVL76:
 788:../src/main.c ****   ax25_init(&main_ax25, &main_afsk, 0, message_callback);
 666              		.loc 1 788 0
 667 0414 594B     		ldr	r3, .L119+92
 668 0416 0022     		movs	r2, #0
 669 0418 2146     		mov	r1, r4
 670 041a 5548     		ldr	r0, .L119+80
 671 041c FFF7FEFF 		bl	ax25_init
 672              	.LVL77:
 789:../src/main.c **** 
 790:../src/main.c **** 	if ((main_config_data_mode->wx & WX_ENABLED) == 1) {
 673              		.loc 1 790 0
 674 0420 544B     		ldr	r3, .L119+84
 675 0422 1968     		ldr	r1, [r3]
 676 0424 4B78     		ldrb	r3, [r1, #1]	@ zero_extendqisi2
 677 0426 13F0010F 		tst	r3, #1
 678 042a 40F0C481 		bne	.L87
 679              	.L36:
 791:../src/main.c **** 	  // getting all meteo measuremenets to be sure that WX frames want be sent with zeros
 792:../src/main.c **** 	  wx_get_all_measurements(main_config_data_wx_sources, main_config_data_mode, main_config_data_umb
 793:../src/main.c **** 	}
 794:../src/main.c **** 
 795:../src/main.c ****   // start serial port i/o transaction depending on station configuration
 796:../src/main.c ****   if (main_config_data_mode->victron == 1) {
 680              		.loc 1 796 0
 681 042e 514B     		ldr	r3, .L119+84
 682 0430 1B68     		ldr	r3, [r3]
 683 0432 DB79     		ldrb	r3, [r3, #7]	@ zero_extendqisi2
 684 0434 012B     		cmp	r3, #1
 685 0436 00F0C781 		beq	.L88
 797:../src/main.c **** 	  // initializing protocol parser
 798:../src/main.c **** 	  ve_direct_parser_init(&rte_pv_struct, &rte_pv_average);
 799:../src/main.c **** 
 800:../src/main.c **** 	  // enabling timeout handling for serial port. This is required because VE protocol frame may var
 801:../src/main.c **** 	  // and serial port driver could finish reception only either on stop character or when declared 
 802:../src/main.c **** 	  // has been received.
 803:../src/main.c **** 	  srl_switch_timeout(main_kiss_srl_ctx_ptr, 1, 50);
 804:../src/main.c **** 
 805:../src/main.c **** 	  // switching UART to receive mode to be ready for data from charging controller
 806:../src/main.c **** 	  srl_receive_data(main_kiss_srl_ctx_ptr, VE_DIRECT_MAX_FRAME_LN, 0, 0, 0, 0, 0);
 807:../src/main.c ****   }
 808:../src/main.c ****   else {
 809:../src/main.c **** 	  // switching UART to receive mode to be ready for KISS frames from host
 810:../src/main.c **** 	  srl_receive_data(main_kiss_srl_ctx_ptr, 100, FEND, FEND, 0, 0, 0);
 686              		.loc 1 810 0
 687 043a 3D4B     		ldr	r3, .L119+16
 688 043c 1868     		ldr	r0, [r3]
 689 043e 0023     		movs	r3, #0
 690 0440 0293     		str	r3, [sp, #8]
 691 0442 0193     		str	r3, [sp, #4]
 692 0444 0093     		str	r3, [sp]
 693 0446 6FF03F03 		mvn	r3, #63
 694 044a 1A46     		mov	r2, r3
 695 044c 6421     		movs	r1, #100
 696 044e FFF7FEFF 		bl	srl_receive_data
 697              	.LVL78:
 698              	.L38:
 811:../src/main.c ****   }
 812:../src/main.c **** 
 813:../src/main.c ****   io_oc_output_low();
 699              		.loc 1 813 0
 700 0452 FFF7FEFF 		bl	io_oc_output_low
 701              	.LVL79:
 702              	.LBB54:
 703              	.LBB55:
 704              		.file 2 "../include/LedConfig.h"
   1:../include/LedConfig.h **** /*
   2:../include/LedConfig.h ****  * LedConfig.h
   3:../include/LedConfig.h ****  *
   4:../include/LedConfig.h ****  *  Created on: 05.07.2017
   5:../include/LedConfig.h ****  *      Author: mateusz
   6:../include/LedConfig.h ****  */
   7:../include/LedConfig.h **** 
   8:../include/LedConfig.h **** #ifndef LEDCONFIG_H_
   9:../include/LedConfig.h **** #define LEDCONFIG_H_
  10:../include/LedConfig.h **** 
  11:../include/LedConfig.h **** // PC8 - LED1 - upper
  12:../include/LedConfig.h **** // PC9 - LED2 - lower
  13:../include/LedConfig.h **** 
  14:../include/LedConfig.h **** #ifdef STM32F10X_MD_VL
  15:../include/LedConfig.h **** #include <stm32f10x.h>
  16:../include/LedConfig.h **** #endif
  17:../include/LedConfig.h **** #ifdef STM32L471xx
  18:../include/LedConfig.h **** #include <stm32l4xx.h>
  19:../include/LedConfig.h **** #include <stm32l4xx_ll_gpio.h>
  20:../include/LedConfig.h **** #endif
  21:../include/LedConfig.h **** 
  22:../include/LedConfig.h **** #include <stdint.h>
  23:../include/LedConfig.h **** #include <stdbool.h>
  24:../include/LedConfig.h **** 
  25:../include/LedConfig.h **** #define BLINK_DURATION_MSEC 		20 * BLINK_MSEC_PER_SVC_CALL
  26:../include/LedConfig.h **** #define BLINK_MSEC_PER_SVC_CALL 	10
  27:../include/LedConfig.h **** 
  28:../include/LedConfig.h **** /* C++ detection */
  29:../include/LedConfig.h **** #ifdef __cplusplus
  30:../include/LedConfig.h **** extern "C" {
  31:../include/LedConfig.h **** #endif
  32:../include/LedConfig.h **** 
  33:../include/LedConfig.h **** extern uint8_t led_blinking_led2;
  34:../include/LedConfig.h **** extern uint8_t led_blinking_led1;
  35:../include/LedConfig.h **** 
  36:../include/LedConfig.h **** void led_config(void);
  37:../include/LedConfig.h **** void led_init(void);
  38:../include/LedConfig.h **** void led_service_blink(void);
  39:../include/LedConfig.h **** 
  40:../include/LedConfig.h **** #ifdef STM32F10X_MD_VL
  41:../include/LedConfig.h **** inline void led_control_led1_upper(bool _in) {
  42:../include/LedConfig.h **** 	if (_in == true) {
  43:../include/LedConfig.h **** 		GPIOC->BSRR |= GPIO_BSRR_BS8;
  44:../include/LedConfig.h **** 	}
  45:../include/LedConfig.h **** 	else {
  46:../include/LedConfig.h **** 		GPIOC->BSRR |= GPIO_BSRR_BR8;
  47:../include/LedConfig.h **** 	}
  48:../include/LedConfig.h **** }
  49:../include/LedConfig.h **** 
  50:../include/LedConfig.h **** inline void led_control_led2_bottom(bool _in) {
  51:../include/LedConfig.h **** 	if (_in == true) {
  52:../include/LedConfig.h **** 		GPIOC->BSRR |= GPIO_BSRR_BS9;
  53:../include/LedConfig.h **** 	}
  54:../include/LedConfig.h **** 	else {
  55:../include/LedConfig.h **** 		GPIOC->BSRR |= GPIO_BSRR_BR9;
  56:../include/LedConfig.h **** 	}
  57:../include/LedConfig.h **** }
  58:../include/LedConfig.h **** 
  59:../include/LedConfig.h **** inline void led_flip_led1_upper(void) {
  60:../include/LedConfig.h **** 	if ((GPIOC->ODR & GPIO_ODR_ODR8)  == GPIO_ODR_ODR8) {
  61:../include/LedConfig.h **** 		GPIOC->BSRR |= GPIO_BSRR_BR8;
  62:../include/LedConfig.h **** 	}
  63:../include/LedConfig.h **** 	else {
  64:../include/LedConfig.h **** 		GPIOC->BSRR |= GPIO_BSRR_BS8;
  65:../include/LedConfig.h **** 	}
  66:../include/LedConfig.h **** }
  67:../include/LedConfig.h **** 
  68:../include/LedConfig.h **** inline void led_flip_led2_bottom(void) {
  69:../include/LedConfig.h **** 	if ((GPIOC->ODR & GPIO_ODR_ODR9)  == GPIO_ODR_ODR9) {
  70:../include/LedConfig.h **** 		GPIOC->BSRR |= GPIO_BSRR_BR9;
  71:../include/LedConfig.h **** 	}
  72:../include/LedConfig.h **** 	else {
  73:../include/LedConfig.h **** 		GPIOC->BSRR |= GPIO_BSRR_BS9;
  74:../include/LedConfig.h **** 	}
  75:../include/LedConfig.h **** }
  76:../include/LedConfig.h **** 
  77:../include/LedConfig.h **** inline void led_blink_led1_upper(void) {
  78:../include/LedConfig.h **** 	led_blinking_led1 = BLINK_DURATION_MSEC;
  79:../include/LedConfig.h **** 
  80:../include/LedConfig.h **** 	led_flip_led1_upper();
  81:../include/LedConfig.h **** }
  82:../include/LedConfig.h **** 
  83:../include/LedConfig.h **** inline void led_blink_led2_botoom(void) {
  84:../include/LedConfig.h **** 	led_blinking_led2 = BLINK_DURATION_MSEC;
  85:../include/LedConfig.h **** 
  86:../include/LedConfig.h **** 	led_flip_led2_bottom();
  87:../include/LedConfig.h **** 
  88:../include/LedConfig.h **** }
  89:../include/LedConfig.h **** #endif
  90:../include/LedConfig.h **** 
  91:../include/LedConfig.h **** #ifdef STM32L471xx
  92:../include/LedConfig.h **** inline void led_control_led1_upper(bool _in) {
  93:../include/LedConfig.h **** 	if (_in == true) {
  94:../include/LedConfig.h **** 		GPIOC->BSRR |= GPIO_BSRR_BS8;
  95:../include/LedConfig.h **** 	}
  96:../include/LedConfig.h **** 	else {
  97:../include/LedConfig.h **** 		GPIOC->BSRR |= GPIO_BSRR_BR8;
 705              		.loc 2 97 0
 706 0456 4A4C     		ldr	r4, .L119+96
 707 0458 A369     		ldr	r3, [r4, #24]
 708 045a 43F08073 		orr	r3, r3, #16777216
 709 045e A361     		str	r3, [r4, #24]
 710              	.LVL80:
 711              	.LBE55:
 712              	.LBE54:
 713              	.LBB56:
 714              	.LBB57:
  98:../include/LedConfig.h **** 	}
  99:../include/LedConfig.h **** }
 100:../include/LedConfig.h **** 
 101:../include/LedConfig.h **** inline void led_control_led2_bottom(bool _in) {
 102:../include/LedConfig.h **** 	if (_in == true) {
 103:../include/LedConfig.h **** 		GPIOC->BSRR |= GPIO_BSRR_BS9;
 104:../include/LedConfig.h **** 	}
 105:../include/LedConfig.h **** 	else {
 106:../include/LedConfig.h **** 		GPIOC->BSRR |= GPIO_BSRR_BR9;
 715              		.loc 2 106 0
 716 0460 A369     		ldr	r3, [r4, #24]
 717 0462 43F00073 		orr	r3, r3, #33554432
 718 0466 A361     		str	r3, [r4, #24]
 719              	.LVL81:
 720              	.LBE57:
 721              	.LBE56:
 814:../src/main.c **** 
 815:../src/main.c ****   led_control_led1_upper(false);
 816:../src/main.c ****   led_control_led2_bottom(false);
 817:../src/main.c **** 
 818:../src/main.c **** #if defined(PARAMETEO)
 819:../src/main.c ****    pwr_save_switch_mode_to_c0();
 722              		.loc 1 819 0
 723 0468 FFF7FEFF 		bl	pwr_save_switch_mode_to_c0
 724              	.LVL82:
 820:../src/main.c **** 
 821:../src/main.c ****    // sleep a little bit and wait for everything to power up completely
 822:../src/main.c ****    delay_fixed(1000);
 725              		.loc 1 822 0
 726 046c 4FF47A70 		mov	r0, #1000
 727 0470 FFF7FEFF 		bl	delay_fixed
 728              	.LVL83:
 729              	.LBB58:
 730              	.LBB59:
  94:../include/LedConfig.h **** 	}
 731              		.loc 2 94 0
 732 0474 A369     		ldr	r3, [r4, #24]
 733 0476 43F48073 		orr	r3, r3, #256
 734 047a A361     		str	r3, [r4, #24]
 735              	.LVL84:
 736              	.LBE59:
 737              	.LBE58:
 738              	.LBB60:
 739              	.LBB61:
 740              		.loc 2 106 0
 741 047c A369     		ldr	r3, [r4, #24]
 742 047e 43F00073 		orr	r3, r3, #33554432
 743 0482 A361     		str	r3, [r4, #24]
 744              	.LVL85:
 745              	.LBE61:
 746              	.LBE60:
 823:../src/main.c **** 
 824:../src/main.c ****    led_control_led1_upper(true);
 825:../src/main.c ****    led_control_led2_bottom(false);
 826:../src/main.c **** 
 827:../src/main.c ****    delay_fixed(1000);
 747              		.loc 1 827 0
 748 0484 4FF47A70 		mov	r0, #1000
 749 0488 FFF7FEFF 		bl	delay_fixed
 750              	.LVL86:
 751              	.LBB62:
 752              	.LBB63:
  97:../include/LedConfig.h **** 	}
 753              		.loc 2 97 0
 754 048c A369     		ldr	r3, [r4, #24]
 755 048e 43F08073 		orr	r3, r3, #16777216
 756 0492 A361     		str	r3, [r4, #24]
 757              	.LVL87:
 758              	.LBE63:
 759              	.LBE62:
 760              	.LBB64:
 761              	.LBB65:
 103:../include/LedConfig.h **** 	}
 762              		.loc 2 103 0
 763 0494 A369     		ldr	r3, [r4, #24]
 764 0496 43F40073 		orr	r3, r3, #512
 765 049a A361     		str	r3, [r4, #24]
 766              	.LVL88:
 767              	.LBE65:
 768              	.LBE64:
 828:../src/main.c **** 
 829:../src/main.c ****    led_control_led1_upper(false);
 830:../src/main.c ****    led_control_led2_bottom(true);
 831:../src/main.c **** 
 832:../src/main.c ****    delay_fixed(1000);
 769              		.loc 1 832 0
 770 049c 4FF47A70 		mov	r0, #1000
 771 04a0 FFF7FEFF 		bl	delay_fixed
 772              	.LVL89:
 773              	.LBB66:
 774              	.LBB67:
  94:../include/LedConfig.h **** 	}
 775              		.loc 2 94 0
 776 04a4 A369     		ldr	r3, [r4, #24]
 777 04a6 43F48073 		orr	r3, r3, #256
 778 04aa A361     		str	r3, [r4, #24]
 779              	.LVL90:
 780              	.LBE67:
 781              	.LBE66:
 782              	.LBB68:
 783              	.LBB69:
 103:../include/LedConfig.h **** 	}
 784              		.loc 2 103 0
 785 04ac A369     		ldr	r3, [r4, #24]
 786 04ae 43F40073 		orr	r3, r3, #512
 787 04b2 A361     		str	r3, [r4, #24]
 788              	.LVL91:
 789              	.LBE69:
 790              	.LBE68:
 833:../src/main.c **** 
 834:../src/main.c ****    led_control_led1_upper(true);
 835:../src/main.c ****    led_control_led2_bottom(true);
 836:../src/main.c **** 
 837:../src/main.c ****    delay_fixed(1000);
 791              		.loc 1 837 0
 792 04b4 4FF47A70 		mov	r0, #1000
 793 04b8 FFF7FEFF 		bl	delay_fixed
 794              	.LVL92:
 795              	.LBB70:
 796              	.LBB71:
  97:../include/LedConfig.h **** 	}
 797              		.loc 2 97 0
 798 04bc A369     		ldr	r3, [r4, #24]
 799 04be 43F08073 		orr	r3, r3, #16777216
 800 04c2 A361     		str	r3, [r4, #24]
 801              	.LVL93:
 802              	.LBE71:
 803              	.LBE70:
 804              	.LBB72:
 805              	.LBB73:
 806              		.loc 2 106 0
 807 04c4 A369     		ldr	r3, [r4, #24]
 808 04c6 43F00073 		orr	r3, r3, #33554432
 809 04ca A361     		str	r3, [r4, #24]
 810              	.LVL94:
 811              	.LBE73:
 812              	.LBE72:
 838:../src/main.c **** 
 839:../src/main.c ****    led_control_led1_upper(false);
 840:../src/main.c ****    led_control_led2_bottom(false);
 841:../src/main.c **** 
 842:../src/main.c **** #endif
 843:../src/main.c **** 
 844:../src/main.c ****   // configuting system timers
 845:../src/main.c ****   TimerConfig();
 813              		.loc 1 845 0
 814 04cc FFF7FEFF 		bl	TimerConfig
 815              	.LVL95:
 846:../src/main.c **** 
 847:../src/main.c ****   // initialize UMB transaction
 848:../src/main.c ****   if (main_config_data_mode->wx_umb == 1) {
 816              		.loc 1 848 0
 817 04d0 284B     		ldr	r3, .L119+84
 818 04d2 1B68     		ldr	r3, [r3]
 819 04d4 9B78     		ldrb	r3, [r3, #2]	@ zero_extendqisi2
 820 04d6 012B     		cmp	r3, #1
 821 04d8 00F08A81 		beq	.L89
 822              	.L39:
 849:../src/main.c **** 	umb_0x26_status_request(&rte_wx_umb, &rte_wx_umb_context, main_config_data_umb);
 850:../src/main.c ****   }
 851:../src/main.c **** 
 852:../src/main.c **** #ifdef INTERNAL_WATCHDOG
 853:../src/main.c ****    // reload watchdog counter
 854:../src/main.c ****    IWDG_ReloadCounter();
 855:../src/main.c **** #endif
 856:../src/main.c **** 
 857:../src/main.c ****    io_ext_watchdog_service();
 823              		.loc 1 857 0
 824 04dc FFF7FEFF 		bl	io_ext_watchdog_service
 825              	.LVL96:
 858:../src/main.c **** 
 859:../src/main.c ****    if (main_config_data_basic-> beacon_at_bootup == 1) {
 826              		.loc 1 859 0
 827 04e0 204B     		ldr	r3, .L119+68
 828 04e2 1B68     		ldr	r3, [r3]
 829 04e4 93F89730 		ldrb	r3, [r3, #151]	@ zero_extendqisi2
 830 04e8 012B     		cmp	r3, #1
 831 04ea 40F06582 		bne	.L68
 860:../src/main.c **** 	   beacon_send_own();
 832              		.loc 1 860 0
 833 04ee FFF7FEFF 		bl	beacon_send_own
 834              	.LVL97:
 835 04f2 61E2     		b	.L68
 836              	.LVL98:
 837              	.L18:
 416:../src/main.c **** 	  main_symbol_s = '#';
 838              		.loc 1 416 0
 839 04f4 0A4B     		ldr	r3, .L119
 840 04f6 3122     		movs	r2, #49
 841 04f8 1A70     		strb	r2, [r3]
 417:../src/main.c **** 	  break;
 842              		.loc 1 417 0
 843 04fa 0A4B     		ldr	r3, .L119+4
 844 04fc 2322     		movs	r2, #35
 845 04fe 1A70     		strb	r2, [r3]
 418:../src/main.c ****   case 2:		// _SYMBOL_HOUSE
 846              		.loc 1 418 0
 847 0500 A0E6     		b	.L22
 848              	.L19:
 420:../src/main.c **** 	  main_symbol_s = '-';
 849              		.loc 1 420 0
 850 0502 074B     		ldr	r3, .L119
 851 0504 2F22     		movs	r2, #47
 852 0506 1A70     		strb	r2, [r3]
 421:../src/main.c **** 	  break;
 853              		.loc 1 421 0
 854 0508 064B     		ldr	r3, .L119+4
 855 050a 2D22     		movs	r2, #45
 856 050c 1A70     		strb	r2, [r3]
 422:../src/main.c ****   case 3:		// _SYMBOL_RXIGATE
 857              		.loc 1 422 0
 858 050e 99E6     		b	.L22
 859              	.L20:
 424:../src/main.c **** 	  main_symbol_s = '&';
 860              		.loc 1 424 0
 861 0510 034B     		ldr	r3, .L119
 862 0512 4922     		movs	r2, #73
 863 0514 1A70     		strb	r2, [r3]
 425:../src/main.c **** 	  break;
 864              		.loc 1 425 0
 865 0516 034B     		ldr	r3, .L119+4
 866 0518 2622     		movs	r2, #38
 867 051a 1A70     		strb	r2, [r3]
 426:../src/main.c ****   case 5:		// _SYMBOL_SAILBOAT
 868              		.loc 1 426 0
 869 051c 92E6     		b	.L22
 870              	.L120:
 871 051e 00BF     		.align	2
 872              	.L119:
 873 0520 00000000 		.word	.LANCHOR3
 874 0524 00000000 		.word	.LANCHOR4
 875 0528 00000000 		.word	.LANCHOR5
 876 052c 00000000 		.word	GPIO_InitTypeDef
 877 0530 00000000 		.word	main_kiss_srl_ctx_ptr
 878 0534 00000000 		.word	main_kiss_srl_ctx
 879 0538 00000000 		.word	main_wx_srl_ctx_ptr
 880 053c 00000000 		.word	main_wx_srl_ctx
 881 0540 00000000 		.word	main_target_kiss_baudrate
 882 0544 00000000 		.word	main_target_wx_baudrate
 883 0548 00000000 		.word	srl_usart1_tx_buffer
 884 054c 00000000 		.word	srl_usart1_rx_buffer
 885 0550 00380140 		.word	1073821696
 886 0554 00000000 		.word	srl_usart2_tx_buffer
 887 0558 00000000 		.word	srl_usart2_rx_buffer
 888 055c 00440040 		.word	1073759232
 889 0560 00000000 		.word	main_own_path
 890 0564 00000000 		.word	.LANCHOR1
 891 0568 00000000 		.word	.LANCHOR10
 892 056c 00000000 		.word	main_afsk
 893 0570 00000000 		.word	main_ax25
 894 0574 00000000 		.word	.LANCHOR2
 895 0578 00000000 		.word	.LANCHOR6
 896 057c 00000000 		.word	message_callback
 897 0580 00080048 		.word	1207961600
 898              	.L21:
 428:../src/main.c **** 	  main_symbol_s = 'Y';
 899              		.loc 1 428 0
 900 0584 A44B     		ldr	r3, .L121
 901 0586 2F22     		movs	r2, #47
 902 0588 1A70     		strb	r2, [r3]
 429:../src/main.c **** 	  break;
 903              		.loc 1 429 0
 904 058a A44B     		ldr	r3, .L121+4
 905 058c 5922     		movs	r2, #89
 906 058e 1A70     		strb	r2, [r3]
 430:../src/main.c ****   default:		// _SYMBOL_IGATE
 907              		.loc 1 430 0
 908 0590 58E6     		b	.L22
 909              	.L15:
 432:../src/main.c **** 	  main_symbol_s = '&';
 910              		.loc 1 432 0
 911 0592 A14B     		ldr	r3, .L121
 912 0594 5222     		movs	r2, #82
 913 0596 1A70     		strb	r2, [r3]
 433:../src/main.c **** 	  break;
 914              		.loc 1 433 0
 915 0598 A04B     		ldr	r3, .L121+4
 916 059a 2622     		movs	r2, #38
 917 059c 1A70     		strb	r2, [r3]
 434:../src/main.c **** 
 918              		.loc 1 434 0
 919 059e 51E6     		b	.L22
 920              	.L80:
 550:../src/main.c **** 
 921              		.loc 1 550 0
 922 05a0 9F4A     		ldr	r2, .L121+8
 923 05a2 4FF49641 		mov	r1, #19200
 924 05a6 1160     		str	r1, [r2]
 553:../src/main.c ****   }
 925              		.loc 1 553 0
 926 05a8 9E4A     		ldr	r2, .L121+12
 927 05aa 1570     		strb	r5, [r2]
 928 05ac C0E6     		b	.L23
 929              	.L81:
 559:../src/main.c **** 
 930              		.loc 1 559 0
 931 05ae 4FF49643 		mov	r3, #19200
 932 05b2 9B4A     		ldr	r2, .L121+8
 933 05b4 1360     		str	r3, [r2]
 562:../src/main.c **** 
 934              		.loc 1 562 0
 935 05b6 9C4D     		ldr	r5, .L121+16
 936 05b8 2868     		ldr	r0, [r5]
 937 05ba 0022     		movs	r2, #0
 938 05bc 80F84420 		strb	r2, [r0, #68]
 565:../src/main.c **** 
 939              		.loc 1 565 0
 940 05c0 0124     		movs	r4, #1
 941 05c2 0394     		str	r4, [sp, #12]
 942 05c4 0293     		str	r3, [sp, #8]
 943 05c6 4FF40073 		mov	r3, #512
 944 05ca 0193     		str	r3, [sp, #4]
 945 05cc 974A     		ldr	r2, .L121+20
 946 05ce 0092     		str	r2, [sp]
 947 05d0 974A     		ldr	r2, .L121+24
 948 05d2 9849     		ldr	r1, .L121+28
 949 05d4 FFF7FEFF 		bl	srl_init
 950              	.LVL99:
 567:../src/main.c **** 
 951              		.loc 1 567 0
 952 05d8 40F6B832 		movw	r2, #3000
 953 05dc 2146     		mov	r1, r4
 954 05de 2868     		ldr	r0, [r5]
 955 05e0 FFF7FEFF 		bl	srl_switch_timeout
 956              	.LVL100:
 569:../src/main.c **** 
 957              		.loc 1 569 0
 958 05e4 2868     		ldr	r0, [r5]
 959 05e6 FFF7FEFF 		bl	davis_init
 960              	.LVL101:
 572:../src/main.c **** 
 961              		.loc 1 572 0
 962 05ea 2046     		mov	r0, r4
 963 05ec FFF7FEFF 		bl	davis_wake_up
 964              	.LVL102:
 965 05f0 B0FA80F0 		clz	r0, r0
 966 05f4 4009     		lsrs	r0, r0, #5
 967 05f6 904B     		ldr	r3, .L121+32
 968 05f8 1870     		strb	r0, [r3]
 575:../src/main.c **** 		  // turn LCD backlight on..
 969              		.loc 1 575 0
 970 05fa 88B1     		cbz	r0, .L25
 577:../src/main.c **** 
 971              		.loc 1 577 0
 972 05fc 2046     		mov	r0, r4
 973 05fe FFF7FEFF 		bl	davis_control_backlight
 974              	.LVL103:
 580:../src/main.c **** 
 975              		.loc 1 580 0
 976 0602 4FF47A70 		mov	r0, #1000
 977 0606 FFF7FEFF 		bl	delay_fixed
 978              	.LVL104:
 583:../src/main.c **** 
 979              		.loc 1 583 0
 980 060a 0020     		movs	r0, #0
 981 060c FFF7FEFF 		bl	davis_control_backlight
 982              	.LVL105:
 586:../src/main.c **** 
 983              		.loc 1 586 0
 984 0610 844B     		ldr	r3, .L121+12
 985 0612 0022     		movs	r2, #0
 986 0614 1A70     		strb	r2, [r3]
 591:../src/main.c **** 
 987              		.loc 1 591 0
 988 0616 894B     		ldr	r3, .L121+36
 989 0618 1C70     		strb	r4, [r3]
 594:../src/main.c **** 
 990              		.loc 1 594 0
 991 061a FFF7FEFF 		bl	davis_trigger_rxcheck_packet
 992              	.LVL106:
 993 061e ADE6     		b	.L26
 994              	.L25:
 599:../src/main.c **** 		  main_kiss_srl_ctx_ptr->srl_rx_state = SRL_RX_NOT_CONFIG;
 995              		.loc 1 599 0
 996 0620 4FF41653 		mov	r3, #9600
 997 0624 7E4A     		ldr	r2, .L121+8
 998 0626 1360     		str	r3, [r2]
 600:../src/main.c **** 
 999              		.loc 1 600 0
 1000 0628 7F4A     		ldr	r2, .L121+16
 1001 062a 1068     		ldr	r0, [r2]
 1002 062c 0022     		movs	r2, #0
 1003 062e 80F84420 		strb	r2, [r0, #68]
 603:../src/main.c **** 		  srl_init(main_wx_srl_ctx_ptr, USART2, srl_usart2_rx_buffer, RX_BUFFER_2_LN, srl_usart2_tx_buffe
 1004              		.loc 1 603 0
 1005 0632 0124     		movs	r4, #1
 1006 0634 0394     		str	r4, [sp, #12]
 1007 0636 0293     		str	r3, [sp, #8]
 1008 0638 4FF40073 		mov	r3, #512
 1009 063c 0193     		str	r3, [sp, #4]
 1010 063e 7B4A     		ldr	r2, .L121+20
 1011 0640 0092     		str	r2, [sp]
 1012 0642 7B4A     		ldr	r2, .L121+24
 1013 0644 7B49     		ldr	r1, .L121+28
 1014 0646 FFF7FEFF 		bl	srl_init
 1015              	.LVL107:
 604:../src/main.c **** 
 1016              		.loc 1 604 0
 1017 064a 0394     		str	r4, [sp, #12]
 1018 064c 7C4B     		ldr	r3, .L121+40
 1019 064e 1B68     		ldr	r3, [r3]
 1020 0650 0293     		str	r3, [sp, #8]
 1021 0652 6023     		movs	r3, #96
 1022 0654 0193     		str	r3, [sp, #4]
 1023 0656 7B4A     		ldr	r2, .L121+44
 1024 0658 0092     		str	r2, [sp]
 1025 065a 7B4A     		ldr	r2, .L121+48
 1026 065c 7B49     		ldr	r1, .L121+52
 1027 065e 7C48     		ldr	r0, .L121+56
 1028 0660 0068     		ldr	r0, [r0]
 1029 0662 FFF7FEFF 		bl	srl_init
 1030              	.LVL108:
 1031 0666 89E6     		b	.L26
 1032              	.L82:
 610:../src/main.c **** 
 1033              		.loc 1 610 0
 1034 0668 7A4E     		ldr	r6, .L121+60
 1035 066a 794D     		ldr	r5, .L121+56
 1036 066c 3368     		ldr	r3, [r6]
 1037 066e 2A68     		ldr	r2, [r5]
 1038 0670 0121     		movs	r1, #1
 1039 0672 7948     		ldr	r0, .L121+64
 1040 0674 FFF7FEFF 		bl	rtu_serial_init
 1041              	.LVL109:
 612:../src/main.c **** 
 1042              		.loc 1 612 0
 1043 0678 3368     		ldr	r3, [r6]
 1044 067a 1B88     		ldrh	r3, [r3]
 1045 067c 704F     		ldr	r7, .L121+40
 1046 067e 3B60     		str	r3, [r7]
 615:../src/main.c **** 	  srl_init(main_wx_srl_ctx_ptr, USART2, srl_usart2_rx_buffer, RX_BUFFER_2_LN, srl_usart2_tx_buffer
 1047              		.loc 1 615 0
 1048 0680 0124     		movs	r4, #1
 1049 0682 0394     		str	r4, [sp, #12]
 1050 0684 664B     		ldr	r3, .L121+8
 1051 0686 1B68     		ldr	r3, [r3]
 1052 0688 0293     		str	r3, [sp, #8]
 1053 068a 4FF40073 		mov	r3, #512
 1054 068e 0193     		str	r3, [sp, #4]
 1055 0690 664A     		ldr	r2, .L121+20
 1056 0692 0092     		str	r2, [sp]
 1057 0694 664A     		ldr	r2, .L121+24
 1058 0696 6749     		ldr	r1, .L121+28
 1059 0698 6348     		ldr	r0, .L121+16
 1060 069a 0068     		ldr	r0, [r0]
 1061 069c FFF7FEFF 		bl	srl_init
 1062              	.LVL110:
 616:../src/main.c **** 	  srl_switch_tx_delay(main_wx_srl_ctx_ptr, 1);
 1063              		.loc 1 616 0
 1064 06a0 3368     		ldr	r3, [r6]
 1065 06a2 DB78     		ldrb	r3, [r3, #3]	@ zero_extendqisi2
 1066 06a4 0393     		str	r3, [sp, #12]
 1067 06a6 3B68     		ldr	r3, [r7]
 1068 06a8 0293     		str	r3, [sp, #8]
 1069 06aa 6023     		movs	r3, #96
 1070 06ac 0193     		str	r3, [sp, #4]
 1071 06ae 654A     		ldr	r2, .L121+44
 1072 06b0 0092     		str	r2, [sp]
 1073 06b2 654A     		ldr	r2, .L121+48
 1074 06b4 6549     		ldr	r1, .L121+52
 1075 06b6 2868     		ldr	r0, [r5]
 1076 06b8 FFF7FEFF 		bl	srl_init
 1077              	.LVL111:
 617:../src/main.c **** 
 1078              		.loc 1 617 0
 1079 06bc 2146     		mov	r1, r4
 1080 06be 2868     		ldr	r0, [r5]
 1081 06c0 FFF7FEFF 		bl	srl_switch_tx_delay
 1082              	.LVL112:
 620:../src/main.c **** 
 1083              		.loc 1 620 0
 1084 06c4 654B     		ldr	r3, .L121+68
 1085 06c6 1C70     		strb	r4, [r3]
 622:../src/main.c ****   }
 1086              		.loc 1 622 0
 1087 06c8 FFF7FEFF 		bl	rtu_serial_start
 1088              	.LVL113:
 1089 06cc 56E6     		b	.L26
 1090              	.L83:
 700:../src/main.c **** #endif
 1091              		.loc 1 700 0
 1092 06ce 644B     		ldr	r3, .L121+72
 1093 06d0 0022     		movs	r2, #0
 1094 06d2 4FF40061 		mov	r1, #2048
 1095 06d6 6348     		ldr	r0, .L121+76
 1096 06d8 FFF7FEFF 		bl	dallas_init
 1097              	.LVL114:
 703:../src/main.c **** 		  // client initialization
 1098              		.loc 1 703 0
 1099 06dc 2368     		ldr	r3, [r4]
 1100 06de 9B78     		ldrb	r3, [r3, #2]	@ zero_extendqisi2
 1101 06e0 012B     		cmp	r3, #1
 1102 06e2 06D1     		bne	.L29
 705:../src/main.c **** 	  }
 1103              		.loc 1 705 0
 1104 06e4 604B     		ldr	r3, .L121+80
 1105 06e6 1A68     		ldr	r2, [r3]
 1106 06e8 594B     		ldr	r3, .L121+56
 1107 06ea 1968     		ldr	r1, [r3]
 1108 06ec 5F48     		ldr	r0, .L121+84
 1109 06ee FFF7FEFF 		bl	umb_master_init
 1110              	.LVL115:
 1111              	.L29:
 708:../src/main.c **** 		  analog_anemometer_init(main_config_data_mode->wx_anemometer_pulses_constant, 38, 100, 1);
 1112              		.loc 1 708 0
 1113 06f2 5F4B     		ldr	r3, .L121+88
 1114 06f4 1868     		ldr	r0, [r3]
 1115 06f6 4378     		ldrb	r3, [r0, #1]	@ zero_extendqisi2
 1116 06f8 13F0040F 		tst	r3, #4
 1117 06fc 06D1     		bne	.L30
 709:../src/main.c **** 	  }
 1118              		.loc 1 709 0
 1119 06fe 0123     		movs	r3, #1
 1120 0700 6422     		movs	r2, #100
 1121 0702 2621     		movs	r1, #38
 1122 0704 8079     		ldrb	r0, [r0, #6]	@ zero_extendqisi2
 1123 0706 FFF7FEFF 		bl	analog_anemometer_init
 1124              	.LVL116:
 1125 070a 68E6     		b	.L28
 1126              	.L30:
 712:../src/main.c **** 	  }
 1127              		.loc 1 712 0
 1128 070c 0123     		movs	r3, #1
 1129 070e 6422     		movs	r2, #100
 1130 0710 2621     		movs	r1, #38
 1131 0712 8079     		ldrb	r0, [r0, #6]	@ zero_extendqisi2
 1132 0714 FFF7FEFF 		bl	analog_anemometer_init
 1133              	.LVL117:
 1134 0718 61E6     		b	.L28
 1135              	.L84:
 720:../src/main.c **** 	 ms5611_read_calibration(SensorCalData, &rte_wx_ms5611_qf);
 1136              		.loc 1 720 0
 1137 071a 564C     		ldr	r4, .L121+92
 1138 071c 2046     		mov	r0, r4
 1139 071e FFF7FEFF 		bl	ms5611_reset
 1140              	.LVL118:
 721:../src/main.c **** 	 ms5611_trigger_measure(0, 0);
 1141              		.loc 1 721 0
 1142 0722 2146     		mov	r1, r4
 1143 0724 5448     		ldr	r0, .L121+96
 1144 0726 FFF7FEFF 		bl	ms5611_read_calibration
 1145              	.LVL119:
 722:../src/main.c **** 	}
 1146              		.loc 1 722 0
 1147 072a 0021     		movs	r1, #0
 1148 072c 0846     		mov	r0, r1
 1149 072e FFF7FEFF 		bl	ms5611_trigger_measure
 1150              	.LVL120:
 1151 0732 5FE6     		b	.L32
 1152              	.L85:
 725:../src/main.c **** 	 bme280_setup();
 1153              		.loc 1 725 0
 1154 0734 5148     		ldr	r0, .L121+100
 1155 0736 FFF7FEFF 		bl	bme280_reset
 1156              	.LVL121:
 726:../src/main.c **** 	 bme280_read_calibration(bme280_calibration_data);
 1157              		.loc 1 726 0
 1158 073a FFF7FEFF 		bl	bme280_setup
 1159              	.LVL122:
 727:../src/main.c **** 	}
 1160              		.loc 1 727 0
 1161 073e 5048     		ldr	r0, .L121+104
 1162 0740 FFF7FEFF 		bl	bme280_read_calibration
 1163              	.LVL123:
 1164 0744 56E6     		b	.L32
 1165              	.L86:
 732:../src/main.c **** 
 1166              		.loc 1 732 0
 1167 0746 4F4B     		ldr	r3, .L121+108
 1168 0748 1A68     		ldr	r2, [r3]
 1169 074a 92F90C30 		ldrsb	r3, [r2, #12]
 1170 074e 92F91410 		ldrsb	r1, [r2, #20]
 1171 0752 1532     		adds	r2, r2, #21
 1172 0754 4C4C     		ldr	r4, .L121+112
 1173 0756 0492     		str	r2, [sp, #16]
 1174 0758 304A     		ldr	r2, .L121+4
 1175 075a 92F90020 		ldrsb	r2, [r2]
 1176 075e 0392     		str	r2, [sp, #12]
 1177 0760 0291     		str	r1, [sp, #8]
 1178 0762 4A4A     		ldr	r2, .L121+116
 1179 0764 0192     		str	r2, [sp, #4]
 1180 0766 2C4A     		ldr	r2, .L121
 1181 0768 92F90020 		ldrsb	r2, [r2]
 1182 076c 0092     		str	r2, [sp]
 1183 076e 484A     		ldr	r2, .L121+120
 1184 0770 4849     		ldr	r1, .L121+124
 1185 0772 2046     		mov	r0, r4
 1186 0774 FFF7FEFF 		bl	sprintf
 1187              	.LVL124:
 1188 0778 C3B2     		uxtb	r3, r0
 1189 077a 474A     		ldr	r2, .L121+128
 1190 077c 1370     		strb	r3, [r2]
 735:../src/main.c **** 
 1191              		.loc 1 735 0
 1192 077e 0022     		movs	r2, #0
 1193 0780 E254     		strb	r2, [r4, r3]
 739:../src/main.c **** 
 1194              		.loc 1 739 0
 1195 0782 4FF40072 		mov	r2, #512
 1196 0786 0192     		str	r2, [sp, #4]
 1197 0788 444A     		ldr	r2, .L121+132
 1198 078a 5269     		ldr	r2, [r2, #20]
 1199 078c 0092     		str	r2, [sp]
 1200 078e 2246     		mov	r2, r4
 1201 0790 0321     		movs	r1, #3
 1202 0792 4348     		ldr	r0, .L121+136
 1203 0794 FFF7FEFF 		bl	ax25_sendVia_toBuffer
 1204              	.LVL125:
 1205              	.L35:
 743:../src/main.c **** 
 1206              		.loc 1 743 0 discriminator 2
 1207 0798 404B     		ldr	r3, .L121+132
 1208 079a 93F84530 		ldrb	r3, [r3, #69]	@ zero_extendqisi2
 1209 079e 012B     		cmp	r3, #1
 1210 07a0 01D0     		beq	.L34
 743:../src/main.c **** 
 1211              		.loc 1 743 0 is_stmt 0 discriminator 1
 1212 07a2 042B     		cmp	r3, #4
 1213 07a4 F8D1     		bne	.L35
 1214              	.L34:
 757:../src/main.c **** 
 1215              		.loc 1 757 0 is_stmt 1
 1216 07a6 01B2     		sxth	r1, r0
 1217 07a8 1F4B     		ldr	r3, .L121+16
 1218 07aa 1868     		ldr	r0, [r3]
 1219              	.LVL126:
 1220 07ac FFF7FEFF 		bl	srl_start_tx
 1221              	.LVL127:
 1222 07b0 3C4B     		ldr	r3, .L121+140
 1223 07b2 1870     		strb	r0, [r3]
 1224 07b4 23E6     		b	.L33
 1225              	.L87:
 792:../src/main.c **** 	}
 1226              		.loc 1 792 0
 1227 07b6 274B     		ldr	r3, .L121+60
 1228 07b8 1B68     		ldr	r3, [r3]
 1229 07ba 2B4A     		ldr	r2, .L121+80
 1230 07bc 1268     		ldr	r2, [r2]
 1231 07be 3A48     		ldr	r0, .L121+144
 1232 07c0 0068     		ldr	r0, [r0]
 1233 07c2 FFF7FEFF 		bl	wx_get_all_measurements
 1234              	.LVL128:
 1235 07c6 32E6     		b	.L36
 1236              	.L88:
 798:../src/main.c **** 
 1237              		.loc 1 798 0
 1238 07c8 3849     		ldr	r1, .L121+148
 1239 07ca 3948     		ldr	r0, .L121+152
 1240 07cc FFF7FEFF 		bl	ve_direct_parser_init
 1241              	.LVL129:
 803:../src/main.c **** 
 1242              		.loc 1 803 0
 1243 07d0 154C     		ldr	r4, .L121+16
 1244 07d2 3222     		movs	r2, #50
 1245 07d4 0121     		movs	r1, #1
 1246 07d6 2068     		ldr	r0, [r4]
 1247 07d8 FFF7FEFF 		bl	srl_switch_timeout
 1248              	.LVL130:
 806:../src/main.c ****   }
 1249              		.loc 1 806 0
 1250 07dc 0022     		movs	r2, #0
 1251 07de 0292     		str	r2, [sp, #8]
 1252 07e0 0192     		str	r2, [sp, #4]
 1253 07e2 0092     		str	r2, [sp]
 1254 07e4 1346     		mov	r3, r2
 1255 07e6 BA21     		movs	r1, #186
 1256 07e8 2068     		ldr	r0, [r4]
 1257 07ea FFF7FEFF 		bl	srl_receive_data
 1258              	.LVL131:
 1259 07ee 30E6     		b	.L38
 1260              	.L89:
 849:../src/main.c ****   }
 1261              		.loc 1 849 0
 1262 07f0 1D4B     		ldr	r3, .L121+80
 1263 07f2 1A68     		ldr	r2, [r3]
 1264 07f4 1D49     		ldr	r1, .L121+84
 1265 07f6 2F48     		ldr	r0, .L121+156
 1266 07f8 FFF7FEFF 		bl	umb_0x26_status_request
 1267              	.LVL132:
 1268 07fc 6EE6     		b	.L39
 1269              	.L103:
 1270              	.LBB74:
 1271              	.LBB75:
 1272              	.LBB76:
 1273              	.LBB77:
 1274              		.file 3 "../system/include/cmsis/stm32l4xx/cmsis_gcc.h"
   1:../system/include/cmsis/stm32l4xx/cmsis_gcc.h **** /**************************************************************************//**
   2:../system/include/cmsis/stm32l4xx/cmsis_gcc.h ****  * @file     cmsis_gcc.h
   3:../system/include/cmsis/stm32l4xx/cmsis_gcc.h ****  * @brief    CMSIS compiler GCC header file
   4:../system/include/cmsis/stm32l4xx/cmsis_gcc.h ****  * @version  V5.2.0
   5:../system/include/cmsis/stm32l4xx/cmsis_gcc.h ****  * @date     08. May 2019
   6:../system/include/cmsis/stm32l4xx/cmsis_gcc.h ****  ******************************************************************************/
   7:../system/include/cmsis/stm32l4xx/cmsis_gcc.h **** /*
   8:../system/include/cmsis/stm32l4xx/cmsis_gcc.h ****  * Copyright (c) 2009-2019 Arm Limited. All rights reserved.
   9:../system/include/cmsis/stm32l4xx/cmsis_gcc.h ****  *
  10:../system/include/cmsis/stm32l4xx/cmsis_gcc.h ****  * SPDX-License-Identifier: Apache-2.0
  11:../system/include/cmsis/stm32l4xx/cmsis_gcc.h ****  *
  12:../system/include/cmsis/stm32l4xx/cmsis_gcc.h ****  * Licensed under the Apache License, Version 2.0 (the License); you may
  13:../system/include/cmsis/stm32l4xx/cmsis_gcc.h ****  * not use this file except in compliance with the License.
  14:../system/include/cmsis/stm32l4xx/cmsis_gcc.h ****  * You may obtain a copy of the License at
  15:../system/include/cmsis/stm32l4xx/cmsis_gcc.h ****  *
  16:../system/include/cmsis/stm32l4xx/cmsis_gcc.h ****  * www.apache.org/licenses/LICENSE-2.0
  17:../system/include/cmsis/stm32l4xx/cmsis_gcc.h ****  *
  18:../system/include/cmsis/stm32l4xx/cmsis_gcc.h ****  * Unless required by applicable law or agreed to in writing, software
  19:../system/include/cmsis/stm32l4xx/cmsis_gcc.h ****  * distributed under the License is distributed on an AS IS BASIS, WITHOUT
  20:../system/include/cmsis/stm32l4xx/cmsis_gcc.h ****  * WARRANTIES OR CONDITIONS OF ANY KIND, either express or implied.
  21:../system/include/cmsis/stm32l4xx/cmsis_gcc.h ****  * See the License for the specific language governing permissions and
  22:../system/include/cmsis/stm32l4xx/cmsis_gcc.h ****  * limitations under the License.
  23:../system/include/cmsis/stm32l4xx/cmsis_gcc.h ****  */
  24:../system/include/cmsis/stm32l4xx/cmsis_gcc.h **** 
  25:../system/include/cmsis/stm32l4xx/cmsis_gcc.h **** #ifndef __CMSIS_GCC_H
  26:../system/include/cmsis/stm32l4xx/cmsis_gcc.h **** #define __CMSIS_GCC_H
  27:../system/include/cmsis/stm32l4xx/cmsis_gcc.h **** 
  28:../system/include/cmsis/stm32l4xx/cmsis_gcc.h **** /* ignore some GCC warnings */
  29:../system/include/cmsis/stm32l4xx/cmsis_gcc.h **** #pragma GCC diagnostic push
  30:../system/include/cmsis/stm32l4xx/cmsis_gcc.h **** #pragma GCC diagnostic ignored "-Wsign-conversion"
  31:../system/include/cmsis/stm32l4xx/cmsis_gcc.h **** #pragma GCC diagnostic ignored "-Wconversion"
  32:../system/include/cmsis/stm32l4xx/cmsis_gcc.h **** #pragma GCC diagnostic ignored "-Wunused-parameter"
  33:../system/include/cmsis/stm32l4xx/cmsis_gcc.h **** 
  34:../system/include/cmsis/stm32l4xx/cmsis_gcc.h **** /* Fallback for __has_builtin */
  35:../system/include/cmsis/stm32l4xx/cmsis_gcc.h **** #ifndef __has_builtin
  36:../system/include/cmsis/stm32l4xx/cmsis_gcc.h ****   #define __has_builtin(x) (0)
  37:../system/include/cmsis/stm32l4xx/cmsis_gcc.h **** #endif
  38:../system/include/cmsis/stm32l4xx/cmsis_gcc.h **** 
  39:../system/include/cmsis/stm32l4xx/cmsis_gcc.h **** /* CMSIS compiler specific defines */
  40:../system/include/cmsis/stm32l4xx/cmsis_gcc.h **** #ifndef   __ASM
  41:../system/include/cmsis/stm32l4xx/cmsis_gcc.h ****   #define __ASM                                  __asm
  42:../system/include/cmsis/stm32l4xx/cmsis_gcc.h **** #endif
  43:../system/include/cmsis/stm32l4xx/cmsis_gcc.h **** #ifndef   __INLINE
  44:../system/include/cmsis/stm32l4xx/cmsis_gcc.h ****   #define __INLINE                               inline
  45:../system/include/cmsis/stm32l4xx/cmsis_gcc.h **** #endif
  46:../system/include/cmsis/stm32l4xx/cmsis_gcc.h **** #ifndef   __STATIC_INLINE
  47:../system/include/cmsis/stm32l4xx/cmsis_gcc.h ****   #define __STATIC_INLINE                        static inline
  48:../system/include/cmsis/stm32l4xx/cmsis_gcc.h **** #endif
  49:../system/include/cmsis/stm32l4xx/cmsis_gcc.h **** #ifndef   __STATIC_FORCEINLINE                 
  50:../system/include/cmsis/stm32l4xx/cmsis_gcc.h ****   #define __STATIC_FORCEINLINE                   __attribute__((always_inline)) static inline
  51:../system/include/cmsis/stm32l4xx/cmsis_gcc.h **** #endif                                           
  52:../system/include/cmsis/stm32l4xx/cmsis_gcc.h **** #ifndef   __NO_RETURN
  53:../system/include/cmsis/stm32l4xx/cmsis_gcc.h ****   #define __NO_RETURN                            __attribute__((__noreturn__))
  54:../system/include/cmsis/stm32l4xx/cmsis_gcc.h **** #endif
  55:../system/include/cmsis/stm32l4xx/cmsis_gcc.h **** #ifndef   __USED
  56:../system/include/cmsis/stm32l4xx/cmsis_gcc.h ****   #define __USED                                 __attribute__((used))
  57:../system/include/cmsis/stm32l4xx/cmsis_gcc.h **** #endif
  58:../system/include/cmsis/stm32l4xx/cmsis_gcc.h **** #ifndef   __WEAK
  59:../system/include/cmsis/stm32l4xx/cmsis_gcc.h ****   #define __WEAK                                 __attribute__((weak))
  60:../system/include/cmsis/stm32l4xx/cmsis_gcc.h **** #endif
  61:../system/include/cmsis/stm32l4xx/cmsis_gcc.h **** #ifndef   __PACKED
  62:../system/include/cmsis/stm32l4xx/cmsis_gcc.h ****   #define __PACKED                               __attribute__((packed, aligned(1)))
  63:../system/include/cmsis/stm32l4xx/cmsis_gcc.h **** #endif
  64:../system/include/cmsis/stm32l4xx/cmsis_gcc.h **** #ifndef   __PACKED_STRUCT
  65:../system/include/cmsis/stm32l4xx/cmsis_gcc.h ****   #define __PACKED_STRUCT                        struct __attribute__((packed, aligned(1)))
  66:../system/include/cmsis/stm32l4xx/cmsis_gcc.h **** #endif
  67:../system/include/cmsis/stm32l4xx/cmsis_gcc.h **** #ifndef   __PACKED_UNION
  68:../system/include/cmsis/stm32l4xx/cmsis_gcc.h ****   #define __PACKED_UNION                         union __attribute__((packed, aligned(1)))
  69:../system/include/cmsis/stm32l4xx/cmsis_gcc.h **** #endif
  70:../system/include/cmsis/stm32l4xx/cmsis_gcc.h **** #ifndef   __UNALIGNED_UINT32        /* deprecated */
  71:../system/include/cmsis/stm32l4xx/cmsis_gcc.h ****   #pragma GCC diagnostic push
  72:../system/include/cmsis/stm32l4xx/cmsis_gcc.h ****   #pragma GCC diagnostic ignored "-Wpacked"
  73:../system/include/cmsis/stm32l4xx/cmsis_gcc.h ****   #pragma GCC diagnostic ignored "-Wattributes"
  74:../system/include/cmsis/stm32l4xx/cmsis_gcc.h ****   struct __attribute__((packed)) T_UINT32 { uint32_t v; };
  75:../system/include/cmsis/stm32l4xx/cmsis_gcc.h ****   #pragma GCC diagnostic pop
  76:../system/include/cmsis/stm32l4xx/cmsis_gcc.h ****   #define __UNALIGNED_UINT32(x)                  (((struct T_UINT32 *)(x))->v)
  77:../system/include/cmsis/stm32l4xx/cmsis_gcc.h **** #endif
  78:../system/include/cmsis/stm32l4xx/cmsis_gcc.h **** #ifndef   __UNALIGNED_UINT16_WRITE
  79:../system/include/cmsis/stm32l4xx/cmsis_gcc.h ****   #pragma GCC diagnostic push
  80:../system/include/cmsis/stm32l4xx/cmsis_gcc.h ****   #pragma GCC diagnostic ignored "-Wpacked"
  81:../system/include/cmsis/stm32l4xx/cmsis_gcc.h ****   #pragma GCC diagnostic ignored "-Wattributes"
  82:../system/include/cmsis/stm32l4xx/cmsis_gcc.h ****   __PACKED_STRUCT T_UINT16_WRITE { uint16_t v; };
  83:../system/include/cmsis/stm32l4xx/cmsis_gcc.h ****   #pragma GCC diagnostic pop
  84:../system/include/cmsis/stm32l4xx/cmsis_gcc.h ****   #define __UNALIGNED_UINT16_WRITE(addr, val)    (void)((((struct T_UINT16_WRITE *)(void *)(addr))-
  85:../system/include/cmsis/stm32l4xx/cmsis_gcc.h **** #endif
  86:../system/include/cmsis/stm32l4xx/cmsis_gcc.h **** #ifndef   __UNALIGNED_UINT16_READ
  87:../system/include/cmsis/stm32l4xx/cmsis_gcc.h ****   #pragma GCC diagnostic push
  88:../system/include/cmsis/stm32l4xx/cmsis_gcc.h ****   #pragma GCC diagnostic ignored "-Wpacked"
  89:../system/include/cmsis/stm32l4xx/cmsis_gcc.h ****   #pragma GCC diagnostic ignored "-Wattributes"
  90:../system/include/cmsis/stm32l4xx/cmsis_gcc.h ****   __PACKED_STRUCT T_UINT16_READ { uint16_t v; };
  91:../system/include/cmsis/stm32l4xx/cmsis_gcc.h ****   #pragma GCC diagnostic pop
  92:../system/include/cmsis/stm32l4xx/cmsis_gcc.h ****   #define __UNALIGNED_UINT16_READ(addr)          (((const struct T_UINT16_READ *)(const void *)(add
  93:../system/include/cmsis/stm32l4xx/cmsis_gcc.h **** #endif
  94:../system/include/cmsis/stm32l4xx/cmsis_gcc.h **** #ifndef   __UNALIGNED_UINT32_WRITE
  95:../system/include/cmsis/stm32l4xx/cmsis_gcc.h ****   #pragma GCC diagnostic push
  96:../system/include/cmsis/stm32l4xx/cmsis_gcc.h ****   #pragma GCC diagnostic ignored "-Wpacked"
  97:../system/include/cmsis/stm32l4xx/cmsis_gcc.h ****   #pragma GCC diagnostic ignored "-Wattributes"
  98:../system/include/cmsis/stm32l4xx/cmsis_gcc.h ****   __PACKED_STRUCT T_UINT32_WRITE { uint32_t v; };
  99:../system/include/cmsis/stm32l4xx/cmsis_gcc.h ****   #pragma GCC diagnostic pop
 100:../system/include/cmsis/stm32l4xx/cmsis_gcc.h ****   #define __UNALIGNED_UINT32_WRITE(addr, val)    (void)((((struct T_UINT32_WRITE *)(void *)(addr))-
 101:../system/include/cmsis/stm32l4xx/cmsis_gcc.h **** #endif
 102:../system/include/cmsis/stm32l4xx/cmsis_gcc.h **** #ifndef   __UNALIGNED_UINT32_READ
 103:../system/include/cmsis/stm32l4xx/cmsis_gcc.h ****   #pragma GCC diagnostic push
 104:../system/include/cmsis/stm32l4xx/cmsis_gcc.h ****   #pragma GCC diagnostic ignored "-Wpacked"
 105:../system/include/cmsis/stm32l4xx/cmsis_gcc.h ****   #pragma GCC diagnostic ignored "-Wattributes"
 106:../system/include/cmsis/stm32l4xx/cmsis_gcc.h ****   __PACKED_STRUCT T_UINT32_READ { uint32_t v; };
 107:../system/include/cmsis/stm32l4xx/cmsis_gcc.h ****   #pragma GCC diagnostic pop
 108:../system/include/cmsis/stm32l4xx/cmsis_gcc.h ****   #define __UNALIGNED_UINT32_READ(addr)          (((const struct T_UINT32_READ *)(const void *)(add
 109:../system/include/cmsis/stm32l4xx/cmsis_gcc.h **** #endif
 110:../system/include/cmsis/stm32l4xx/cmsis_gcc.h **** #ifndef   __ALIGNED
 111:../system/include/cmsis/stm32l4xx/cmsis_gcc.h ****   #define __ALIGNED(x)                           __attribute__((aligned(x)))
 112:../system/include/cmsis/stm32l4xx/cmsis_gcc.h **** #endif
 113:../system/include/cmsis/stm32l4xx/cmsis_gcc.h **** #ifndef   __RESTRICT
 114:../system/include/cmsis/stm32l4xx/cmsis_gcc.h ****   #define __RESTRICT                             __restrict
 115:../system/include/cmsis/stm32l4xx/cmsis_gcc.h **** #endif
 116:../system/include/cmsis/stm32l4xx/cmsis_gcc.h **** #ifndef   __COMPILER_BARRIER
 117:../system/include/cmsis/stm32l4xx/cmsis_gcc.h ****   #define __COMPILER_BARRIER()                   __ASM volatile("":::"memory")
 118:../system/include/cmsis/stm32l4xx/cmsis_gcc.h **** #endif
 119:../system/include/cmsis/stm32l4xx/cmsis_gcc.h **** 
 120:../system/include/cmsis/stm32l4xx/cmsis_gcc.h **** /* #########################  Startup and Lowlevel Init  ######################## */
 121:../system/include/cmsis/stm32l4xx/cmsis_gcc.h **** 
 122:../system/include/cmsis/stm32l4xx/cmsis_gcc.h **** #ifndef __PROGRAM_START
 123:../system/include/cmsis/stm32l4xx/cmsis_gcc.h **** 
 124:../system/include/cmsis/stm32l4xx/cmsis_gcc.h **** /**
 125:../system/include/cmsis/stm32l4xx/cmsis_gcc.h ****   \brief   Initializes data and bss sections
 126:../system/include/cmsis/stm32l4xx/cmsis_gcc.h ****   \details This default implementations initialized all data and additional bss
 127:../system/include/cmsis/stm32l4xx/cmsis_gcc.h ****            sections relying on .copy.table and .zero.table specified properly
 128:../system/include/cmsis/stm32l4xx/cmsis_gcc.h ****            in the used linker script.
 129:../system/include/cmsis/stm32l4xx/cmsis_gcc.h ****   
 130:../system/include/cmsis/stm32l4xx/cmsis_gcc.h ****  */
 131:../system/include/cmsis/stm32l4xx/cmsis_gcc.h **** __STATIC_FORCEINLINE __NO_RETURN void __cmsis_start(void)
 132:../system/include/cmsis/stm32l4xx/cmsis_gcc.h **** {
 133:../system/include/cmsis/stm32l4xx/cmsis_gcc.h ****   extern void _start(void) __NO_RETURN;
 134:../system/include/cmsis/stm32l4xx/cmsis_gcc.h ****   
 135:../system/include/cmsis/stm32l4xx/cmsis_gcc.h ****   typedef struct {
 136:../system/include/cmsis/stm32l4xx/cmsis_gcc.h ****     uint32_t const* src;
 137:../system/include/cmsis/stm32l4xx/cmsis_gcc.h ****     uint32_t* dest;
 138:../system/include/cmsis/stm32l4xx/cmsis_gcc.h ****     uint32_t  wlen;
 139:../system/include/cmsis/stm32l4xx/cmsis_gcc.h ****   } __copy_table_t;
 140:../system/include/cmsis/stm32l4xx/cmsis_gcc.h ****   
 141:../system/include/cmsis/stm32l4xx/cmsis_gcc.h ****   typedef struct {
 142:../system/include/cmsis/stm32l4xx/cmsis_gcc.h ****     uint32_t* dest;
 143:../system/include/cmsis/stm32l4xx/cmsis_gcc.h ****     uint32_t  wlen;
 144:../system/include/cmsis/stm32l4xx/cmsis_gcc.h ****   } __zero_table_t;
 145:../system/include/cmsis/stm32l4xx/cmsis_gcc.h ****   
 146:../system/include/cmsis/stm32l4xx/cmsis_gcc.h ****   extern const __copy_table_t __copy_table_start__;
 147:../system/include/cmsis/stm32l4xx/cmsis_gcc.h ****   extern const __copy_table_t __copy_table_end__;
 148:../system/include/cmsis/stm32l4xx/cmsis_gcc.h ****   extern const __zero_table_t __zero_table_start__;
 149:../system/include/cmsis/stm32l4xx/cmsis_gcc.h ****   extern const __zero_table_t __zero_table_end__;
 150:../system/include/cmsis/stm32l4xx/cmsis_gcc.h **** 
 151:../system/include/cmsis/stm32l4xx/cmsis_gcc.h ****   for (__copy_table_t const* pTable = &__copy_table_start__; pTable < &__copy_table_end__; ++pTable
 152:../system/include/cmsis/stm32l4xx/cmsis_gcc.h ****     for(uint32_t i=0u; i<pTable->wlen; ++i) {
 153:../system/include/cmsis/stm32l4xx/cmsis_gcc.h ****       pTable->dest[i] = pTable->src[i];
 154:../system/include/cmsis/stm32l4xx/cmsis_gcc.h ****     }
 155:../system/include/cmsis/stm32l4xx/cmsis_gcc.h ****   }
 156:../system/include/cmsis/stm32l4xx/cmsis_gcc.h ****  
 157:../system/include/cmsis/stm32l4xx/cmsis_gcc.h ****   for (__zero_table_t const* pTable = &__zero_table_start__; pTable < &__zero_table_end__; ++pTable
 158:../system/include/cmsis/stm32l4xx/cmsis_gcc.h ****     for(uint32_t i=0u; i<pTable->wlen; ++i) {
 159:../system/include/cmsis/stm32l4xx/cmsis_gcc.h ****       pTable->dest[i] = 0u;
 160:../system/include/cmsis/stm32l4xx/cmsis_gcc.h ****     }
 161:../system/include/cmsis/stm32l4xx/cmsis_gcc.h ****   }
 162:../system/include/cmsis/stm32l4xx/cmsis_gcc.h ****  
 163:../system/include/cmsis/stm32l4xx/cmsis_gcc.h ****   _start();
 164:../system/include/cmsis/stm32l4xx/cmsis_gcc.h **** }
 165:../system/include/cmsis/stm32l4xx/cmsis_gcc.h ****   
 166:../system/include/cmsis/stm32l4xx/cmsis_gcc.h **** #define __PROGRAM_START           __cmsis_start
 167:../system/include/cmsis/stm32l4xx/cmsis_gcc.h **** #endif
 168:../system/include/cmsis/stm32l4xx/cmsis_gcc.h **** 
 169:../system/include/cmsis/stm32l4xx/cmsis_gcc.h **** #ifndef __INITIAL_SP
 170:../system/include/cmsis/stm32l4xx/cmsis_gcc.h **** #define __INITIAL_SP              __StackTop
 171:../system/include/cmsis/stm32l4xx/cmsis_gcc.h **** #endif
 172:../system/include/cmsis/stm32l4xx/cmsis_gcc.h **** 
 173:../system/include/cmsis/stm32l4xx/cmsis_gcc.h **** #ifndef __STACK_LIMIT
 174:../system/include/cmsis/stm32l4xx/cmsis_gcc.h **** #define __STACK_LIMIT             __StackLimit
 175:../system/include/cmsis/stm32l4xx/cmsis_gcc.h **** #endif
 176:../system/include/cmsis/stm32l4xx/cmsis_gcc.h **** 
 177:../system/include/cmsis/stm32l4xx/cmsis_gcc.h **** #ifndef __VECTOR_TABLE
 178:../system/include/cmsis/stm32l4xx/cmsis_gcc.h **** #define __VECTOR_TABLE            __Vectors
 179:../system/include/cmsis/stm32l4xx/cmsis_gcc.h **** #endif
 180:../system/include/cmsis/stm32l4xx/cmsis_gcc.h **** 
 181:../system/include/cmsis/stm32l4xx/cmsis_gcc.h **** #ifndef __VECTOR_TABLE_ATTRIBUTE
 182:../system/include/cmsis/stm32l4xx/cmsis_gcc.h **** #define __VECTOR_TABLE_ATTRIBUTE  __attribute((used, section(".vectors")))
 183:../system/include/cmsis/stm32l4xx/cmsis_gcc.h **** #endif
 184:../system/include/cmsis/stm32l4xx/cmsis_gcc.h **** 
 185:../system/include/cmsis/stm32l4xx/cmsis_gcc.h **** /* ###########################  Core Function Access  ########################### */
 186:../system/include/cmsis/stm32l4xx/cmsis_gcc.h **** /** \ingroup  CMSIS_Core_FunctionInterface
 187:../system/include/cmsis/stm32l4xx/cmsis_gcc.h ****     \defgroup CMSIS_Core_RegAccFunctions CMSIS Core Register Access Functions
 188:../system/include/cmsis/stm32l4xx/cmsis_gcc.h ****   @{
 189:../system/include/cmsis/stm32l4xx/cmsis_gcc.h ****  */
 190:../system/include/cmsis/stm32l4xx/cmsis_gcc.h **** 
 191:../system/include/cmsis/stm32l4xx/cmsis_gcc.h **** /**
 192:../system/include/cmsis/stm32l4xx/cmsis_gcc.h ****   \brief   Enable IRQ Interrupts
 193:../system/include/cmsis/stm32l4xx/cmsis_gcc.h ****   \details Enables IRQ interrupts by clearing the I-bit in the CPSR.
 194:../system/include/cmsis/stm32l4xx/cmsis_gcc.h ****            Can only be executed in Privileged modes.
 195:../system/include/cmsis/stm32l4xx/cmsis_gcc.h ****  */
 196:../system/include/cmsis/stm32l4xx/cmsis_gcc.h **** __STATIC_FORCEINLINE void __enable_irq(void)
 197:../system/include/cmsis/stm32l4xx/cmsis_gcc.h **** {
 198:../system/include/cmsis/stm32l4xx/cmsis_gcc.h ****   __ASM volatile ("cpsie i" : : : "memory");
 199:../system/include/cmsis/stm32l4xx/cmsis_gcc.h **** }
 200:../system/include/cmsis/stm32l4xx/cmsis_gcc.h **** 
 201:../system/include/cmsis/stm32l4xx/cmsis_gcc.h **** 
 202:../system/include/cmsis/stm32l4xx/cmsis_gcc.h **** /**
 203:../system/include/cmsis/stm32l4xx/cmsis_gcc.h ****   \brief   Disable IRQ Interrupts
 204:../system/include/cmsis/stm32l4xx/cmsis_gcc.h ****   \details Disables IRQ interrupts by setting the I-bit in the CPSR.
 205:../system/include/cmsis/stm32l4xx/cmsis_gcc.h ****            Can only be executed in Privileged modes.
 206:../system/include/cmsis/stm32l4xx/cmsis_gcc.h ****  */
 207:../system/include/cmsis/stm32l4xx/cmsis_gcc.h **** __STATIC_FORCEINLINE void __disable_irq(void)
 208:../system/include/cmsis/stm32l4xx/cmsis_gcc.h **** {
 209:../system/include/cmsis/stm32l4xx/cmsis_gcc.h ****   __ASM volatile ("cpsid i" : : : "memory");
 210:../system/include/cmsis/stm32l4xx/cmsis_gcc.h **** }
 211:../system/include/cmsis/stm32l4xx/cmsis_gcc.h **** 
 212:../system/include/cmsis/stm32l4xx/cmsis_gcc.h **** 
 213:../system/include/cmsis/stm32l4xx/cmsis_gcc.h **** /**
 214:../system/include/cmsis/stm32l4xx/cmsis_gcc.h ****   \brief   Get Control Register
 215:../system/include/cmsis/stm32l4xx/cmsis_gcc.h ****   \details Returns the content of the Control Register.
 216:../system/include/cmsis/stm32l4xx/cmsis_gcc.h ****   \return               Control Register value
 217:../system/include/cmsis/stm32l4xx/cmsis_gcc.h ****  */
 218:../system/include/cmsis/stm32l4xx/cmsis_gcc.h **** __STATIC_FORCEINLINE uint32_t __get_CONTROL(void)
 219:../system/include/cmsis/stm32l4xx/cmsis_gcc.h **** {
 220:../system/include/cmsis/stm32l4xx/cmsis_gcc.h ****   uint32_t result;
 221:../system/include/cmsis/stm32l4xx/cmsis_gcc.h **** 
 222:../system/include/cmsis/stm32l4xx/cmsis_gcc.h ****   __ASM volatile ("MRS %0, control" : "=r" (result) );
 223:../system/include/cmsis/stm32l4xx/cmsis_gcc.h ****   return(result);
 224:../system/include/cmsis/stm32l4xx/cmsis_gcc.h **** }
 225:../system/include/cmsis/stm32l4xx/cmsis_gcc.h **** 
 226:../system/include/cmsis/stm32l4xx/cmsis_gcc.h **** 
 227:../system/include/cmsis/stm32l4xx/cmsis_gcc.h **** #if (defined (__ARM_FEATURE_CMSE ) && (__ARM_FEATURE_CMSE == 3))
 228:../system/include/cmsis/stm32l4xx/cmsis_gcc.h **** /**
 229:../system/include/cmsis/stm32l4xx/cmsis_gcc.h ****   \brief   Get Control Register (non-secure)
 230:../system/include/cmsis/stm32l4xx/cmsis_gcc.h ****   \details Returns the content of the non-secure Control Register when in secure mode.
 231:../system/include/cmsis/stm32l4xx/cmsis_gcc.h ****   \return               non-secure Control Register value
 232:../system/include/cmsis/stm32l4xx/cmsis_gcc.h ****  */
 233:../system/include/cmsis/stm32l4xx/cmsis_gcc.h **** __STATIC_FORCEINLINE uint32_t __TZ_get_CONTROL_NS(void)
 234:../system/include/cmsis/stm32l4xx/cmsis_gcc.h **** {
 235:../system/include/cmsis/stm32l4xx/cmsis_gcc.h ****   uint32_t result;
 236:../system/include/cmsis/stm32l4xx/cmsis_gcc.h **** 
 237:../system/include/cmsis/stm32l4xx/cmsis_gcc.h ****   __ASM volatile ("MRS %0, control_ns" : "=r" (result) );
 238:../system/include/cmsis/stm32l4xx/cmsis_gcc.h ****   return(result);
 239:../system/include/cmsis/stm32l4xx/cmsis_gcc.h **** }
 240:../system/include/cmsis/stm32l4xx/cmsis_gcc.h **** #endif
 241:../system/include/cmsis/stm32l4xx/cmsis_gcc.h **** 
 242:../system/include/cmsis/stm32l4xx/cmsis_gcc.h **** 
 243:../system/include/cmsis/stm32l4xx/cmsis_gcc.h **** /**
 244:../system/include/cmsis/stm32l4xx/cmsis_gcc.h ****   \brief   Set Control Register
 245:../system/include/cmsis/stm32l4xx/cmsis_gcc.h ****   \details Writes the given value to the Control Register.
 246:../system/include/cmsis/stm32l4xx/cmsis_gcc.h ****   \param [in]    control  Control Register value to set
 247:../system/include/cmsis/stm32l4xx/cmsis_gcc.h ****  */
 248:../system/include/cmsis/stm32l4xx/cmsis_gcc.h **** __STATIC_FORCEINLINE void __set_CONTROL(uint32_t control)
 249:../system/include/cmsis/stm32l4xx/cmsis_gcc.h **** {
 250:../system/include/cmsis/stm32l4xx/cmsis_gcc.h ****   __ASM volatile ("MSR control, %0" : : "r" (control) : "memory");
 251:../system/include/cmsis/stm32l4xx/cmsis_gcc.h **** }
 252:../system/include/cmsis/stm32l4xx/cmsis_gcc.h **** 
 253:../system/include/cmsis/stm32l4xx/cmsis_gcc.h **** 
 254:../system/include/cmsis/stm32l4xx/cmsis_gcc.h **** #if (defined (__ARM_FEATURE_CMSE ) && (__ARM_FEATURE_CMSE == 3))
 255:../system/include/cmsis/stm32l4xx/cmsis_gcc.h **** /**
 256:../system/include/cmsis/stm32l4xx/cmsis_gcc.h ****   \brief   Set Control Register (non-secure)
 257:../system/include/cmsis/stm32l4xx/cmsis_gcc.h ****   \details Writes the given value to the non-secure Control Register when in secure state.
 258:../system/include/cmsis/stm32l4xx/cmsis_gcc.h ****   \param [in]    control  Control Register value to set
 259:../system/include/cmsis/stm32l4xx/cmsis_gcc.h ****  */
 260:../system/include/cmsis/stm32l4xx/cmsis_gcc.h **** __STATIC_FORCEINLINE void __TZ_set_CONTROL_NS(uint32_t control)
 261:../system/include/cmsis/stm32l4xx/cmsis_gcc.h **** {
 262:../system/include/cmsis/stm32l4xx/cmsis_gcc.h ****   __ASM volatile ("MSR control_ns, %0" : : "r" (control) : "memory");
 263:../system/include/cmsis/stm32l4xx/cmsis_gcc.h **** }
 264:../system/include/cmsis/stm32l4xx/cmsis_gcc.h **** #endif
 265:../system/include/cmsis/stm32l4xx/cmsis_gcc.h **** 
 266:../system/include/cmsis/stm32l4xx/cmsis_gcc.h **** 
 267:../system/include/cmsis/stm32l4xx/cmsis_gcc.h **** /**
 268:../system/include/cmsis/stm32l4xx/cmsis_gcc.h ****   \brief   Get IPSR Register
 269:../system/include/cmsis/stm32l4xx/cmsis_gcc.h ****   \details Returns the content of the IPSR Register.
 270:../system/include/cmsis/stm32l4xx/cmsis_gcc.h ****   \return               IPSR Register value
 271:../system/include/cmsis/stm32l4xx/cmsis_gcc.h ****  */
 272:../system/include/cmsis/stm32l4xx/cmsis_gcc.h **** __STATIC_FORCEINLINE uint32_t __get_IPSR(void)
 273:../system/include/cmsis/stm32l4xx/cmsis_gcc.h **** {
 274:../system/include/cmsis/stm32l4xx/cmsis_gcc.h ****   uint32_t result;
 275:../system/include/cmsis/stm32l4xx/cmsis_gcc.h **** 
 276:../system/include/cmsis/stm32l4xx/cmsis_gcc.h ****   __ASM volatile ("MRS %0, ipsr" : "=r" (result) );
 277:../system/include/cmsis/stm32l4xx/cmsis_gcc.h ****   return(result);
 278:../system/include/cmsis/stm32l4xx/cmsis_gcc.h **** }
 279:../system/include/cmsis/stm32l4xx/cmsis_gcc.h **** 
 280:../system/include/cmsis/stm32l4xx/cmsis_gcc.h **** 
 281:../system/include/cmsis/stm32l4xx/cmsis_gcc.h **** /**
 282:../system/include/cmsis/stm32l4xx/cmsis_gcc.h ****   \brief   Get APSR Register
 283:../system/include/cmsis/stm32l4xx/cmsis_gcc.h ****   \details Returns the content of the APSR Register.
 284:../system/include/cmsis/stm32l4xx/cmsis_gcc.h ****   \return               APSR Register value
 285:../system/include/cmsis/stm32l4xx/cmsis_gcc.h ****  */
 286:../system/include/cmsis/stm32l4xx/cmsis_gcc.h **** __STATIC_FORCEINLINE uint32_t __get_APSR(void)
 287:../system/include/cmsis/stm32l4xx/cmsis_gcc.h **** {
 288:../system/include/cmsis/stm32l4xx/cmsis_gcc.h ****   uint32_t result;
 289:../system/include/cmsis/stm32l4xx/cmsis_gcc.h **** 
 290:../system/include/cmsis/stm32l4xx/cmsis_gcc.h ****   __ASM volatile ("MRS %0, apsr" : "=r" (result) );
 291:../system/include/cmsis/stm32l4xx/cmsis_gcc.h ****   return(result);
 292:../system/include/cmsis/stm32l4xx/cmsis_gcc.h **** }
 293:../system/include/cmsis/stm32l4xx/cmsis_gcc.h **** 
 294:../system/include/cmsis/stm32l4xx/cmsis_gcc.h **** 
 295:../system/include/cmsis/stm32l4xx/cmsis_gcc.h **** /**
 296:../system/include/cmsis/stm32l4xx/cmsis_gcc.h ****   \brief   Get xPSR Register
 297:../system/include/cmsis/stm32l4xx/cmsis_gcc.h ****   \details Returns the content of the xPSR Register.
 298:../system/include/cmsis/stm32l4xx/cmsis_gcc.h ****   \return               xPSR Register value
 299:../system/include/cmsis/stm32l4xx/cmsis_gcc.h ****  */
 300:../system/include/cmsis/stm32l4xx/cmsis_gcc.h **** __STATIC_FORCEINLINE uint32_t __get_xPSR(void)
 301:../system/include/cmsis/stm32l4xx/cmsis_gcc.h **** {
 302:../system/include/cmsis/stm32l4xx/cmsis_gcc.h ****   uint32_t result;
 303:../system/include/cmsis/stm32l4xx/cmsis_gcc.h **** 
 304:../system/include/cmsis/stm32l4xx/cmsis_gcc.h ****   __ASM volatile ("MRS %0, xpsr" : "=r" (result) );
 305:../system/include/cmsis/stm32l4xx/cmsis_gcc.h ****   return(result);
 306:../system/include/cmsis/stm32l4xx/cmsis_gcc.h **** }
 307:../system/include/cmsis/stm32l4xx/cmsis_gcc.h **** 
 308:../system/include/cmsis/stm32l4xx/cmsis_gcc.h **** 
 309:../system/include/cmsis/stm32l4xx/cmsis_gcc.h **** /**
 310:../system/include/cmsis/stm32l4xx/cmsis_gcc.h ****   \brief   Get Process Stack Pointer
 311:../system/include/cmsis/stm32l4xx/cmsis_gcc.h ****   \details Returns the current value of the Process Stack Pointer (PSP).
 312:../system/include/cmsis/stm32l4xx/cmsis_gcc.h ****   \return               PSP Register value
 313:../system/include/cmsis/stm32l4xx/cmsis_gcc.h ****  */
 314:../system/include/cmsis/stm32l4xx/cmsis_gcc.h **** __STATIC_FORCEINLINE uint32_t __get_PSP(void)
 315:../system/include/cmsis/stm32l4xx/cmsis_gcc.h **** {
 316:../system/include/cmsis/stm32l4xx/cmsis_gcc.h ****   uint32_t result;
 317:../system/include/cmsis/stm32l4xx/cmsis_gcc.h **** 
 318:../system/include/cmsis/stm32l4xx/cmsis_gcc.h ****   __ASM volatile ("MRS %0, psp"  : "=r" (result) );
 319:../system/include/cmsis/stm32l4xx/cmsis_gcc.h ****   return(result);
 320:../system/include/cmsis/stm32l4xx/cmsis_gcc.h **** }
 321:../system/include/cmsis/stm32l4xx/cmsis_gcc.h **** 
 322:../system/include/cmsis/stm32l4xx/cmsis_gcc.h **** 
 323:../system/include/cmsis/stm32l4xx/cmsis_gcc.h **** #if (defined (__ARM_FEATURE_CMSE ) && (__ARM_FEATURE_CMSE == 3))
 324:../system/include/cmsis/stm32l4xx/cmsis_gcc.h **** /**
 325:../system/include/cmsis/stm32l4xx/cmsis_gcc.h ****   \brief   Get Process Stack Pointer (non-secure)
 326:../system/include/cmsis/stm32l4xx/cmsis_gcc.h ****   \details Returns the current value of the non-secure Process Stack Pointer (PSP) when in secure s
 327:../system/include/cmsis/stm32l4xx/cmsis_gcc.h ****   \return               PSP Register value
 328:../system/include/cmsis/stm32l4xx/cmsis_gcc.h ****  */
 329:../system/include/cmsis/stm32l4xx/cmsis_gcc.h **** __STATIC_FORCEINLINE uint32_t __TZ_get_PSP_NS(void)
 330:../system/include/cmsis/stm32l4xx/cmsis_gcc.h **** {
 331:../system/include/cmsis/stm32l4xx/cmsis_gcc.h ****   uint32_t result;
 332:../system/include/cmsis/stm32l4xx/cmsis_gcc.h **** 
 333:../system/include/cmsis/stm32l4xx/cmsis_gcc.h ****   __ASM volatile ("MRS %0, psp_ns"  : "=r" (result) );
 334:../system/include/cmsis/stm32l4xx/cmsis_gcc.h ****   return(result);
 335:../system/include/cmsis/stm32l4xx/cmsis_gcc.h **** }
 336:../system/include/cmsis/stm32l4xx/cmsis_gcc.h **** #endif
 337:../system/include/cmsis/stm32l4xx/cmsis_gcc.h **** 
 338:../system/include/cmsis/stm32l4xx/cmsis_gcc.h **** 
 339:../system/include/cmsis/stm32l4xx/cmsis_gcc.h **** /**
 340:../system/include/cmsis/stm32l4xx/cmsis_gcc.h ****   \brief   Set Process Stack Pointer
 341:../system/include/cmsis/stm32l4xx/cmsis_gcc.h ****   \details Assigns the given value to the Process Stack Pointer (PSP).
 342:../system/include/cmsis/stm32l4xx/cmsis_gcc.h ****   \param [in]    topOfProcStack  Process Stack Pointer value to set
 343:../system/include/cmsis/stm32l4xx/cmsis_gcc.h ****  */
 344:../system/include/cmsis/stm32l4xx/cmsis_gcc.h **** __STATIC_FORCEINLINE void __set_PSP(uint32_t topOfProcStack)
 345:../system/include/cmsis/stm32l4xx/cmsis_gcc.h **** {
 346:../system/include/cmsis/stm32l4xx/cmsis_gcc.h ****   __ASM volatile ("MSR psp, %0" : : "r" (topOfProcStack) : );
 347:../system/include/cmsis/stm32l4xx/cmsis_gcc.h **** }
 348:../system/include/cmsis/stm32l4xx/cmsis_gcc.h **** 
 349:../system/include/cmsis/stm32l4xx/cmsis_gcc.h **** 
 350:../system/include/cmsis/stm32l4xx/cmsis_gcc.h **** #if (defined (__ARM_FEATURE_CMSE ) && (__ARM_FEATURE_CMSE == 3))
 351:../system/include/cmsis/stm32l4xx/cmsis_gcc.h **** /**
 352:../system/include/cmsis/stm32l4xx/cmsis_gcc.h ****   \brief   Set Process Stack Pointer (non-secure)
 353:../system/include/cmsis/stm32l4xx/cmsis_gcc.h ****   \details Assigns the given value to the non-secure Process Stack Pointer (PSP) when in secure sta
 354:../system/include/cmsis/stm32l4xx/cmsis_gcc.h ****   \param [in]    topOfProcStack  Process Stack Pointer value to set
 355:../system/include/cmsis/stm32l4xx/cmsis_gcc.h ****  */
 356:../system/include/cmsis/stm32l4xx/cmsis_gcc.h **** __STATIC_FORCEINLINE void __TZ_set_PSP_NS(uint32_t topOfProcStack)
 357:../system/include/cmsis/stm32l4xx/cmsis_gcc.h **** {
 358:../system/include/cmsis/stm32l4xx/cmsis_gcc.h ****   __ASM volatile ("MSR psp_ns, %0" : : "r" (topOfProcStack) : );
 359:../system/include/cmsis/stm32l4xx/cmsis_gcc.h **** }
 360:../system/include/cmsis/stm32l4xx/cmsis_gcc.h **** #endif
 361:../system/include/cmsis/stm32l4xx/cmsis_gcc.h **** 
 362:../system/include/cmsis/stm32l4xx/cmsis_gcc.h **** 
 363:../system/include/cmsis/stm32l4xx/cmsis_gcc.h **** /**
 364:../system/include/cmsis/stm32l4xx/cmsis_gcc.h ****   \brief   Get Main Stack Pointer
 365:../system/include/cmsis/stm32l4xx/cmsis_gcc.h ****   \details Returns the current value of the Main Stack Pointer (MSP).
 366:../system/include/cmsis/stm32l4xx/cmsis_gcc.h ****   \return               MSP Register value
 367:../system/include/cmsis/stm32l4xx/cmsis_gcc.h ****  */
 368:../system/include/cmsis/stm32l4xx/cmsis_gcc.h **** __STATIC_FORCEINLINE uint32_t __get_MSP(void)
 369:../system/include/cmsis/stm32l4xx/cmsis_gcc.h **** {
 370:../system/include/cmsis/stm32l4xx/cmsis_gcc.h ****   uint32_t result;
 371:../system/include/cmsis/stm32l4xx/cmsis_gcc.h **** 
 372:../system/include/cmsis/stm32l4xx/cmsis_gcc.h ****   __ASM volatile ("MRS %0, msp" : "=r" (result) );
 373:../system/include/cmsis/stm32l4xx/cmsis_gcc.h ****   return(result);
 374:../system/include/cmsis/stm32l4xx/cmsis_gcc.h **** }
 375:../system/include/cmsis/stm32l4xx/cmsis_gcc.h **** 
 376:../system/include/cmsis/stm32l4xx/cmsis_gcc.h **** 
 377:../system/include/cmsis/stm32l4xx/cmsis_gcc.h **** #if (defined (__ARM_FEATURE_CMSE ) && (__ARM_FEATURE_CMSE == 3))
 378:../system/include/cmsis/stm32l4xx/cmsis_gcc.h **** /**
 379:../system/include/cmsis/stm32l4xx/cmsis_gcc.h ****   \brief   Get Main Stack Pointer (non-secure)
 380:../system/include/cmsis/stm32l4xx/cmsis_gcc.h ****   \details Returns the current value of the non-secure Main Stack Pointer (MSP) when in secure stat
 381:../system/include/cmsis/stm32l4xx/cmsis_gcc.h ****   \return               MSP Register value
 382:../system/include/cmsis/stm32l4xx/cmsis_gcc.h ****  */
 383:../system/include/cmsis/stm32l4xx/cmsis_gcc.h **** __STATIC_FORCEINLINE uint32_t __TZ_get_MSP_NS(void)
 384:../system/include/cmsis/stm32l4xx/cmsis_gcc.h **** {
 385:../system/include/cmsis/stm32l4xx/cmsis_gcc.h ****   uint32_t result;
 386:../system/include/cmsis/stm32l4xx/cmsis_gcc.h **** 
 387:../system/include/cmsis/stm32l4xx/cmsis_gcc.h ****   __ASM volatile ("MRS %0, msp_ns" : "=r" (result) );
 388:../system/include/cmsis/stm32l4xx/cmsis_gcc.h ****   return(result);
 389:../system/include/cmsis/stm32l4xx/cmsis_gcc.h **** }
 390:../system/include/cmsis/stm32l4xx/cmsis_gcc.h **** #endif
 391:../system/include/cmsis/stm32l4xx/cmsis_gcc.h **** 
 392:../system/include/cmsis/stm32l4xx/cmsis_gcc.h **** 
 393:../system/include/cmsis/stm32l4xx/cmsis_gcc.h **** /**
 394:../system/include/cmsis/stm32l4xx/cmsis_gcc.h ****   \brief   Set Main Stack Pointer
 395:../system/include/cmsis/stm32l4xx/cmsis_gcc.h ****   \details Assigns the given value to the Main Stack Pointer (MSP).
 396:../system/include/cmsis/stm32l4xx/cmsis_gcc.h ****   \param [in]    topOfMainStack  Main Stack Pointer value to set
 397:../system/include/cmsis/stm32l4xx/cmsis_gcc.h ****  */
 398:../system/include/cmsis/stm32l4xx/cmsis_gcc.h **** __STATIC_FORCEINLINE void __set_MSP(uint32_t topOfMainStack)
 399:../system/include/cmsis/stm32l4xx/cmsis_gcc.h **** {
 400:../system/include/cmsis/stm32l4xx/cmsis_gcc.h ****   __ASM volatile ("MSR msp, %0" : : "r" (topOfMainStack) : );
 401:../system/include/cmsis/stm32l4xx/cmsis_gcc.h **** }
 402:../system/include/cmsis/stm32l4xx/cmsis_gcc.h **** 
 403:../system/include/cmsis/stm32l4xx/cmsis_gcc.h **** 
 404:../system/include/cmsis/stm32l4xx/cmsis_gcc.h **** #if (defined (__ARM_FEATURE_CMSE ) && (__ARM_FEATURE_CMSE == 3))
 405:../system/include/cmsis/stm32l4xx/cmsis_gcc.h **** /**
 406:../system/include/cmsis/stm32l4xx/cmsis_gcc.h ****   \brief   Set Main Stack Pointer (non-secure)
 407:../system/include/cmsis/stm32l4xx/cmsis_gcc.h ****   \details Assigns the given value to the non-secure Main Stack Pointer (MSP) when in secure state.
 408:../system/include/cmsis/stm32l4xx/cmsis_gcc.h ****   \param [in]    topOfMainStack  Main Stack Pointer value to set
 409:../system/include/cmsis/stm32l4xx/cmsis_gcc.h ****  */
 410:../system/include/cmsis/stm32l4xx/cmsis_gcc.h **** __STATIC_FORCEINLINE void __TZ_set_MSP_NS(uint32_t topOfMainStack)
 411:../system/include/cmsis/stm32l4xx/cmsis_gcc.h **** {
 412:../system/include/cmsis/stm32l4xx/cmsis_gcc.h ****   __ASM volatile ("MSR msp_ns, %0" : : "r" (topOfMainStack) : );
 413:../system/include/cmsis/stm32l4xx/cmsis_gcc.h **** }
 414:../system/include/cmsis/stm32l4xx/cmsis_gcc.h **** #endif
 415:../system/include/cmsis/stm32l4xx/cmsis_gcc.h **** 
 416:../system/include/cmsis/stm32l4xx/cmsis_gcc.h **** 
 417:../system/include/cmsis/stm32l4xx/cmsis_gcc.h **** #if (defined (__ARM_FEATURE_CMSE ) && (__ARM_FEATURE_CMSE == 3))
 418:../system/include/cmsis/stm32l4xx/cmsis_gcc.h **** /**
 419:../system/include/cmsis/stm32l4xx/cmsis_gcc.h ****   \brief   Get Stack Pointer (non-secure)
 420:../system/include/cmsis/stm32l4xx/cmsis_gcc.h ****   \details Returns the current value of the non-secure Stack Pointer (SP) when in secure state.
 421:../system/include/cmsis/stm32l4xx/cmsis_gcc.h ****   \return               SP Register value
 422:../system/include/cmsis/stm32l4xx/cmsis_gcc.h ****  */
 423:../system/include/cmsis/stm32l4xx/cmsis_gcc.h **** __STATIC_FORCEINLINE uint32_t __TZ_get_SP_NS(void)
 424:../system/include/cmsis/stm32l4xx/cmsis_gcc.h **** {
 425:../system/include/cmsis/stm32l4xx/cmsis_gcc.h ****   uint32_t result;
 426:../system/include/cmsis/stm32l4xx/cmsis_gcc.h **** 
 427:../system/include/cmsis/stm32l4xx/cmsis_gcc.h ****   __ASM volatile ("MRS %0, sp_ns" : "=r" (result) );
 428:../system/include/cmsis/stm32l4xx/cmsis_gcc.h ****   return(result);
 429:../system/include/cmsis/stm32l4xx/cmsis_gcc.h **** }
 430:../system/include/cmsis/stm32l4xx/cmsis_gcc.h **** 
 431:../system/include/cmsis/stm32l4xx/cmsis_gcc.h **** 
 432:../system/include/cmsis/stm32l4xx/cmsis_gcc.h **** /**
 433:../system/include/cmsis/stm32l4xx/cmsis_gcc.h ****   \brief   Set Stack Pointer (non-secure)
 434:../system/include/cmsis/stm32l4xx/cmsis_gcc.h ****   \details Assigns the given value to the non-secure Stack Pointer (SP) when in secure state.
 435:../system/include/cmsis/stm32l4xx/cmsis_gcc.h ****   \param [in]    topOfStack  Stack Pointer value to set
 436:../system/include/cmsis/stm32l4xx/cmsis_gcc.h ****  */
 437:../system/include/cmsis/stm32l4xx/cmsis_gcc.h **** __STATIC_FORCEINLINE void __TZ_set_SP_NS(uint32_t topOfStack)
 438:../system/include/cmsis/stm32l4xx/cmsis_gcc.h **** {
 439:../system/include/cmsis/stm32l4xx/cmsis_gcc.h ****   __ASM volatile ("MSR sp_ns, %0" : : "r" (topOfStack) : );
 440:../system/include/cmsis/stm32l4xx/cmsis_gcc.h **** }
 441:../system/include/cmsis/stm32l4xx/cmsis_gcc.h **** #endif
 442:../system/include/cmsis/stm32l4xx/cmsis_gcc.h **** 
 443:../system/include/cmsis/stm32l4xx/cmsis_gcc.h **** 
 444:../system/include/cmsis/stm32l4xx/cmsis_gcc.h **** /**
 445:../system/include/cmsis/stm32l4xx/cmsis_gcc.h ****   \brief   Get Priority Mask
 446:../system/include/cmsis/stm32l4xx/cmsis_gcc.h ****   \details Returns the current state of the priority mask bit from the Priority Mask Register.
 447:../system/include/cmsis/stm32l4xx/cmsis_gcc.h ****   \return               Priority Mask value
 448:../system/include/cmsis/stm32l4xx/cmsis_gcc.h ****  */
 449:../system/include/cmsis/stm32l4xx/cmsis_gcc.h **** __STATIC_FORCEINLINE uint32_t __get_PRIMASK(void)
 450:../system/include/cmsis/stm32l4xx/cmsis_gcc.h **** {
 451:../system/include/cmsis/stm32l4xx/cmsis_gcc.h ****   uint32_t result;
 452:../system/include/cmsis/stm32l4xx/cmsis_gcc.h **** 
 453:../system/include/cmsis/stm32l4xx/cmsis_gcc.h ****   __ASM volatile ("MRS %0, primask" : "=r" (result) :: "memory");
 454:../system/include/cmsis/stm32l4xx/cmsis_gcc.h ****   return(result);
 455:../system/include/cmsis/stm32l4xx/cmsis_gcc.h **** }
 456:../system/include/cmsis/stm32l4xx/cmsis_gcc.h **** 
 457:../system/include/cmsis/stm32l4xx/cmsis_gcc.h **** 
 458:../system/include/cmsis/stm32l4xx/cmsis_gcc.h **** #if (defined (__ARM_FEATURE_CMSE ) && (__ARM_FEATURE_CMSE == 3))
 459:../system/include/cmsis/stm32l4xx/cmsis_gcc.h **** /**
 460:../system/include/cmsis/stm32l4xx/cmsis_gcc.h ****   \brief   Get Priority Mask (non-secure)
 461:../system/include/cmsis/stm32l4xx/cmsis_gcc.h ****   \details Returns the current state of the non-secure priority mask bit from the Priority Mask Reg
 462:../system/include/cmsis/stm32l4xx/cmsis_gcc.h ****   \return               Priority Mask value
 463:../system/include/cmsis/stm32l4xx/cmsis_gcc.h ****  */
 464:../system/include/cmsis/stm32l4xx/cmsis_gcc.h **** __STATIC_FORCEINLINE uint32_t __TZ_get_PRIMASK_NS(void)
 465:../system/include/cmsis/stm32l4xx/cmsis_gcc.h **** {
 466:../system/include/cmsis/stm32l4xx/cmsis_gcc.h ****   uint32_t result;
 467:../system/include/cmsis/stm32l4xx/cmsis_gcc.h **** 
 468:../system/include/cmsis/stm32l4xx/cmsis_gcc.h ****   __ASM volatile ("MRS %0, primask_ns" : "=r" (result) :: "memory");
 469:../system/include/cmsis/stm32l4xx/cmsis_gcc.h ****   return(result);
 470:../system/include/cmsis/stm32l4xx/cmsis_gcc.h **** }
 471:../system/include/cmsis/stm32l4xx/cmsis_gcc.h **** #endif
 472:../system/include/cmsis/stm32l4xx/cmsis_gcc.h **** 
 473:../system/include/cmsis/stm32l4xx/cmsis_gcc.h **** 
 474:../system/include/cmsis/stm32l4xx/cmsis_gcc.h **** /**
 475:../system/include/cmsis/stm32l4xx/cmsis_gcc.h ****   \brief   Set Priority Mask
 476:../system/include/cmsis/stm32l4xx/cmsis_gcc.h ****   \details Assigns the given value to the Priority Mask Register.
 477:../system/include/cmsis/stm32l4xx/cmsis_gcc.h ****   \param [in]    priMask  Priority Mask
 478:../system/include/cmsis/stm32l4xx/cmsis_gcc.h ****  */
 479:../system/include/cmsis/stm32l4xx/cmsis_gcc.h **** __STATIC_FORCEINLINE void __set_PRIMASK(uint32_t priMask)
 480:../system/include/cmsis/stm32l4xx/cmsis_gcc.h **** {
 481:../system/include/cmsis/stm32l4xx/cmsis_gcc.h ****   __ASM volatile ("MSR primask, %0" : : "r" (priMask) : "memory");
 482:../system/include/cmsis/stm32l4xx/cmsis_gcc.h **** }
 483:../system/include/cmsis/stm32l4xx/cmsis_gcc.h **** 
 484:../system/include/cmsis/stm32l4xx/cmsis_gcc.h **** 
 485:../system/include/cmsis/stm32l4xx/cmsis_gcc.h **** #if (defined (__ARM_FEATURE_CMSE ) && (__ARM_FEATURE_CMSE == 3))
 486:../system/include/cmsis/stm32l4xx/cmsis_gcc.h **** /**
 487:../system/include/cmsis/stm32l4xx/cmsis_gcc.h ****   \brief   Set Priority Mask (non-secure)
 488:../system/include/cmsis/stm32l4xx/cmsis_gcc.h ****   \details Assigns the given value to the non-secure Priority Mask Register when in secure state.
 489:../system/include/cmsis/stm32l4xx/cmsis_gcc.h ****   \param [in]    priMask  Priority Mask
 490:../system/include/cmsis/stm32l4xx/cmsis_gcc.h ****  */
 491:../system/include/cmsis/stm32l4xx/cmsis_gcc.h **** __STATIC_FORCEINLINE void __TZ_set_PRIMASK_NS(uint32_t priMask)
 492:../system/include/cmsis/stm32l4xx/cmsis_gcc.h **** {
 493:../system/include/cmsis/stm32l4xx/cmsis_gcc.h ****   __ASM volatile ("MSR primask_ns, %0" : : "r" (priMask) : "memory");
 494:../system/include/cmsis/stm32l4xx/cmsis_gcc.h **** }
 495:../system/include/cmsis/stm32l4xx/cmsis_gcc.h **** #endif
 496:../system/include/cmsis/stm32l4xx/cmsis_gcc.h **** 
 497:../system/include/cmsis/stm32l4xx/cmsis_gcc.h **** 
 498:../system/include/cmsis/stm32l4xx/cmsis_gcc.h **** #if ((defined (__ARM_ARCH_7M__      ) && (__ARM_ARCH_7M__      == 1)) || \
 499:../system/include/cmsis/stm32l4xx/cmsis_gcc.h ****      (defined (__ARM_ARCH_7EM__     ) && (__ARM_ARCH_7EM__     == 1)) || \
 500:../system/include/cmsis/stm32l4xx/cmsis_gcc.h ****      (defined (__ARM_ARCH_8M_MAIN__ ) && (__ARM_ARCH_8M_MAIN__ == 1))    )
 501:../system/include/cmsis/stm32l4xx/cmsis_gcc.h **** /**
 502:../system/include/cmsis/stm32l4xx/cmsis_gcc.h ****   \brief   Enable FIQ
 503:../system/include/cmsis/stm32l4xx/cmsis_gcc.h ****   \details Enables FIQ interrupts by clearing the F-bit in the CPSR.
 504:../system/include/cmsis/stm32l4xx/cmsis_gcc.h ****            Can only be executed in Privileged modes.
 505:../system/include/cmsis/stm32l4xx/cmsis_gcc.h ****  */
 506:../system/include/cmsis/stm32l4xx/cmsis_gcc.h **** __STATIC_FORCEINLINE void __enable_fault_irq(void)
 507:../system/include/cmsis/stm32l4xx/cmsis_gcc.h **** {
 508:../system/include/cmsis/stm32l4xx/cmsis_gcc.h ****   __ASM volatile ("cpsie f" : : : "memory");
 509:../system/include/cmsis/stm32l4xx/cmsis_gcc.h **** }
 510:../system/include/cmsis/stm32l4xx/cmsis_gcc.h **** 
 511:../system/include/cmsis/stm32l4xx/cmsis_gcc.h **** 
 512:../system/include/cmsis/stm32l4xx/cmsis_gcc.h **** /**
 513:../system/include/cmsis/stm32l4xx/cmsis_gcc.h ****   \brief   Disable FIQ
 514:../system/include/cmsis/stm32l4xx/cmsis_gcc.h ****   \details Disables FIQ interrupts by setting the F-bit in the CPSR.
 515:../system/include/cmsis/stm32l4xx/cmsis_gcc.h ****            Can only be executed in Privileged modes.
 516:../system/include/cmsis/stm32l4xx/cmsis_gcc.h ****  */
 517:../system/include/cmsis/stm32l4xx/cmsis_gcc.h **** __STATIC_FORCEINLINE void __disable_fault_irq(void)
 518:../system/include/cmsis/stm32l4xx/cmsis_gcc.h **** {
 519:../system/include/cmsis/stm32l4xx/cmsis_gcc.h ****   __ASM volatile ("cpsid f" : : : "memory");
 520:../system/include/cmsis/stm32l4xx/cmsis_gcc.h **** }
 521:../system/include/cmsis/stm32l4xx/cmsis_gcc.h **** 
 522:../system/include/cmsis/stm32l4xx/cmsis_gcc.h **** 
 523:../system/include/cmsis/stm32l4xx/cmsis_gcc.h **** /**
 524:../system/include/cmsis/stm32l4xx/cmsis_gcc.h ****   \brief   Get Base Priority
 525:../system/include/cmsis/stm32l4xx/cmsis_gcc.h ****   \details Returns the current value of the Base Priority register.
 526:../system/include/cmsis/stm32l4xx/cmsis_gcc.h ****   \return               Base Priority register value
 527:../system/include/cmsis/stm32l4xx/cmsis_gcc.h ****  */
 528:../system/include/cmsis/stm32l4xx/cmsis_gcc.h **** __STATIC_FORCEINLINE uint32_t __get_BASEPRI(void)
 529:../system/include/cmsis/stm32l4xx/cmsis_gcc.h **** {
 530:../system/include/cmsis/stm32l4xx/cmsis_gcc.h ****   uint32_t result;
 531:../system/include/cmsis/stm32l4xx/cmsis_gcc.h **** 
 532:../system/include/cmsis/stm32l4xx/cmsis_gcc.h ****   __ASM volatile ("MRS %0, basepri" : "=r" (result) );
 533:../system/include/cmsis/stm32l4xx/cmsis_gcc.h ****   return(result);
 534:../system/include/cmsis/stm32l4xx/cmsis_gcc.h **** }
 535:../system/include/cmsis/stm32l4xx/cmsis_gcc.h **** 
 536:../system/include/cmsis/stm32l4xx/cmsis_gcc.h **** 
 537:../system/include/cmsis/stm32l4xx/cmsis_gcc.h **** #if (defined (__ARM_FEATURE_CMSE ) && (__ARM_FEATURE_CMSE == 3))
 538:../system/include/cmsis/stm32l4xx/cmsis_gcc.h **** /**
 539:../system/include/cmsis/stm32l4xx/cmsis_gcc.h ****   \brief   Get Base Priority (non-secure)
 540:../system/include/cmsis/stm32l4xx/cmsis_gcc.h ****   \details Returns the current value of the non-secure Base Priority register when in secure state.
 541:../system/include/cmsis/stm32l4xx/cmsis_gcc.h ****   \return               Base Priority register value
 542:../system/include/cmsis/stm32l4xx/cmsis_gcc.h ****  */
 543:../system/include/cmsis/stm32l4xx/cmsis_gcc.h **** __STATIC_FORCEINLINE uint32_t __TZ_get_BASEPRI_NS(void)
 544:../system/include/cmsis/stm32l4xx/cmsis_gcc.h **** {
 545:../system/include/cmsis/stm32l4xx/cmsis_gcc.h ****   uint32_t result;
 546:../system/include/cmsis/stm32l4xx/cmsis_gcc.h **** 
 547:../system/include/cmsis/stm32l4xx/cmsis_gcc.h ****   __ASM volatile ("MRS %0, basepri_ns" : "=r" (result) );
 548:../system/include/cmsis/stm32l4xx/cmsis_gcc.h ****   return(result);
 549:../system/include/cmsis/stm32l4xx/cmsis_gcc.h **** }
 550:../system/include/cmsis/stm32l4xx/cmsis_gcc.h **** #endif
 551:../system/include/cmsis/stm32l4xx/cmsis_gcc.h **** 
 552:../system/include/cmsis/stm32l4xx/cmsis_gcc.h **** 
 553:../system/include/cmsis/stm32l4xx/cmsis_gcc.h **** /**
 554:../system/include/cmsis/stm32l4xx/cmsis_gcc.h ****   \brief   Set Base Priority
 555:../system/include/cmsis/stm32l4xx/cmsis_gcc.h ****   \details Assigns the given value to the Base Priority register.
 556:../system/include/cmsis/stm32l4xx/cmsis_gcc.h ****   \param [in]    basePri  Base Priority value to set
 557:../system/include/cmsis/stm32l4xx/cmsis_gcc.h ****  */
 558:../system/include/cmsis/stm32l4xx/cmsis_gcc.h **** __STATIC_FORCEINLINE void __set_BASEPRI(uint32_t basePri)
 559:../system/include/cmsis/stm32l4xx/cmsis_gcc.h **** {
 560:../system/include/cmsis/stm32l4xx/cmsis_gcc.h ****   __ASM volatile ("MSR basepri, %0" : : "r" (basePri) : "memory");
 561:../system/include/cmsis/stm32l4xx/cmsis_gcc.h **** }
 562:../system/include/cmsis/stm32l4xx/cmsis_gcc.h **** 
 563:../system/include/cmsis/stm32l4xx/cmsis_gcc.h **** 
 564:../system/include/cmsis/stm32l4xx/cmsis_gcc.h **** #if (defined (__ARM_FEATURE_CMSE ) && (__ARM_FEATURE_CMSE == 3))
 565:../system/include/cmsis/stm32l4xx/cmsis_gcc.h **** /**
 566:../system/include/cmsis/stm32l4xx/cmsis_gcc.h ****   \brief   Set Base Priority (non-secure)
 567:../system/include/cmsis/stm32l4xx/cmsis_gcc.h ****   \details Assigns the given value to the non-secure Base Priority register when in secure state.
 568:../system/include/cmsis/stm32l4xx/cmsis_gcc.h ****   \param [in]    basePri  Base Priority value to set
 569:../system/include/cmsis/stm32l4xx/cmsis_gcc.h ****  */
 570:../system/include/cmsis/stm32l4xx/cmsis_gcc.h **** __STATIC_FORCEINLINE void __TZ_set_BASEPRI_NS(uint32_t basePri)
 571:../system/include/cmsis/stm32l4xx/cmsis_gcc.h **** {
 572:../system/include/cmsis/stm32l4xx/cmsis_gcc.h ****   __ASM volatile ("MSR basepri_ns, %0" : : "r" (basePri) : "memory");
 573:../system/include/cmsis/stm32l4xx/cmsis_gcc.h **** }
 574:../system/include/cmsis/stm32l4xx/cmsis_gcc.h **** #endif
 575:../system/include/cmsis/stm32l4xx/cmsis_gcc.h **** 
 576:../system/include/cmsis/stm32l4xx/cmsis_gcc.h **** 
 577:../system/include/cmsis/stm32l4xx/cmsis_gcc.h **** /**
 578:../system/include/cmsis/stm32l4xx/cmsis_gcc.h ****   \brief   Set Base Priority with condition
 579:../system/include/cmsis/stm32l4xx/cmsis_gcc.h ****   \details Assigns the given value to the Base Priority register only if BASEPRI masking is disable
 580:../system/include/cmsis/stm32l4xx/cmsis_gcc.h ****            or the new value increases the BASEPRI priority level.
 581:../system/include/cmsis/stm32l4xx/cmsis_gcc.h ****   \param [in]    basePri  Base Priority value to set
 582:../system/include/cmsis/stm32l4xx/cmsis_gcc.h ****  */
 583:../system/include/cmsis/stm32l4xx/cmsis_gcc.h **** __STATIC_FORCEINLINE void __set_BASEPRI_MAX(uint32_t basePri)
 584:../system/include/cmsis/stm32l4xx/cmsis_gcc.h **** {
 585:../system/include/cmsis/stm32l4xx/cmsis_gcc.h ****   __ASM volatile ("MSR basepri_max, %0" : : "r" (basePri) : "memory");
 586:../system/include/cmsis/stm32l4xx/cmsis_gcc.h **** }
 587:../system/include/cmsis/stm32l4xx/cmsis_gcc.h **** 
 588:../system/include/cmsis/stm32l4xx/cmsis_gcc.h **** 
 589:../system/include/cmsis/stm32l4xx/cmsis_gcc.h **** /**
 590:../system/include/cmsis/stm32l4xx/cmsis_gcc.h ****   \brief   Get Fault Mask
 591:../system/include/cmsis/stm32l4xx/cmsis_gcc.h ****   \details Returns the current value of the Fault Mask register.
 592:../system/include/cmsis/stm32l4xx/cmsis_gcc.h ****   \return               Fault Mask register value
 593:../system/include/cmsis/stm32l4xx/cmsis_gcc.h ****  */
 594:../system/include/cmsis/stm32l4xx/cmsis_gcc.h **** __STATIC_FORCEINLINE uint32_t __get_FAULTMASK(void)
 595:../system/include/cmsis/stm32l4xx/cmsis_gcc.h **** {
 596:../system/include/cmsis/stm32l4xx/cmsis_gcc.h ****   uint32_t result;
 597:../system/include/cmsis/stm32l4xx/cmsis_gcc.h **** 
 598:../system/include/cmsis/stm32l4xx/cmsis_gcc.h ****   __ASM volatile ("MRS %0, faultmask" : "=r" (result) );
 599:../system/include/cmsis/stm32l4xx/cmsis_gcc.h ****   return(result);
 600:../system/include/cmsis/stm32l4xx/cmsis_gcc.h **** }
 601:../system/include/cmsis/stm32l4xx/cmsis_gcc.h **** 
 602:../system/include/cmsis/stm32l4xx/cmsis_gcc.h **** 
 603:../system/include/cmsis/stm32l4xx/cmsis_gcc.h **** #if (defined (__ARM_FEATURE_CMSE ) && (__ARM_FEATURE_CMSE == 3))
 604:../system/include/cmsis/stm32l4xx/cmsis_gcc.h **** /**
 605:../system/include/cmsis/stm32l4xx/cmsis_gcc.h ****   \brief   Get Fault Mask (non-secure)
 606:../system/include/cmsis/stm32l4xx/cmsis_gcc.h ****   \details Returns the current value of the non-secure Fault Mask register when in secure state.
 607:../system/include/cmsis/stm32l4xx/cmsis_gcc.h ****   \return               Fault Mask register value
 608:../system/include/cmsis/stm32l4xx/cmsis_gcc.h ****  */
 609:../system/include/cmsis/stm32l4xx/cmsis_gcc.h **** __STATIC_FORCEINLINE uint32_t __TZ_get_FAULTMASK_NS(void)
 610:../system/include/cmsis/stm32l4xx/cmsis_gcc.h **** {
 611:../system/include/cmsis/stm32l4xx/cmsis_gcc.h ****   uint32_t result;
 612:../system/include/cmsis/stm32l4xx/cmsis_gcc.h **** 
 613:../system/include/cmsis/stm32l4xx/cmsis_gcc.h ****   __ASM volatile ("MRS %0, faultmask_ns" : "=r" (result) );
 614:../system/include/cmsis/stm32l4xx/cmsis_gcc.h ****   return(result);
 615:../system/include/cmsis/stm32l4xx/cmsis_gcc.h **** }
 616:../system/include/cmsis/stm32l4xx/cmsis_gcc.h **** #endif
 617:../system/include/cmsis/stm32l4xx/cmsis_gcc.h **** 
 618:../system/include/cmsis/stm32l4xx/cmsis_gcc.h **** 
 619:../system/include/cmsis/stm32l4xx/cmsis_gcc.h **** /**
 620:../system/include/cmsis/stm32l4xx/cmsis_gcc.h ****   \brief   Set Fault Mask
 621:../system/include/cmsis/stm32l4xx/cmsis_gcc.h ****   \details Assigns the given value to the Fault Mask register.
 622:../system/include/cmsis/stm32l4xx/cmsis_gcc.h ****   \param [in]    faultMask  Fault Mask value to set
 623:../system/include/cmsis/stm32l4xx/cmsis_gcc.h ****  */
 624:../system/include/cmsis/stm32l4xx/cmsis_gcc.h **** __STATIC_FORCEINLINE void __set_FAULTMASK(uint32_t faultMask)
 625:../system/include/cmsis/stm32l4xx/cmsis_gcc.h **** {
 626:../system/include/cmsis/stm32l4xx/cmsis_gcc.h ****   __ASM volatile ("MSR faultmask, %0" : : "r" (faultMask) : "memory");
 627:../system/include/cmsis/stm32l4xx/cmsis_gcc.h **** }
 628:../system/include/cmsis/stm32l4xx/cmsis_gcc.h **** 
 629:../system/include/cmsis/stm32l4xx/cmsis_gcc.h **** 
 630:../system/include/cmsis/stm32l4xx/cmsis_gcc.h **** #if (defined (__ARM_FEATURE_CMSE ) && (__ARM_FEATURE_CMSE == 3))
 631:../system/include/cmsis/stm32l4xx/cmsis_gcc.h **** /**
 632:../system/include/cmsis/stm32l4xx/cmsis_gcc.h ****   \brief   Set Fault Mask (non-secure)
 633:../system/include/cmsis/stm32l4xx/cmsis_gcc.h ****   \details Assigns the given value to the non-secure Fault Mask register when in secure state.
 634:../system/include/cmsis/stm32l4xx/cmsis_gcc.h ****   \param [in]    faultMask  Fault Mask value to set
 635:../system/include/cmsis/stm32l4xx/cmsis_gcc.h ****  */
 636:../system/include/cmsis/stm32l4xx/cmsis_gcc.h **** __STATIC_FORCEINLINE void __TZ_set_FAULTMASK_NS(uint32_t faultMask)
 637:../system/include/cmsis/stm32l4xx/cmsis_gcc.h **** {
 638:../system/include/cmsis/stm32l4xx/cmsis_gcc.h ****   __ASM volatile ("MSR faultmask_ns, %0" : : "r" (faultMask) : "memory");
 639:../system/include/cmsis/stm32l4xx/cmsis_gcc.h **** }
 640:../system/include/cmsis/stm32l4xx/cmsis_gcc.h **** #endif
 641:../system/include/cmsis/stm32l4xx/cmsis_gcc.h **** 
 642:../system/include/cmsis/stm32l4xx/cmsis_gcc.h **** #endif /* ((defined (__ARM_ARCH_7M__      ) && (__ARM_ARCH_7M__      == 1)) || \
 643:../system/include/cmsis/stm32l4xx/cmsis_gcc.h ****            (defined (__ARM_ARCH_7EM__     ) && (__ARM_ARCH_7EM__     == 1)) || \
 644:../system/include/cmsis/stm32l4xx/cmsis_gcc.h ****            (defined (__ARM_ARCH_8M_MAIN__ ) && (__ARM_ARCH_8M_MAIN__ == 1))    ) */
 645:../system/include/cmsis/stm32l4xx/cmsis_gcc.h **** 
 646:../system/include/cmsis/stm32l4xx/cmsis_gcc.h **** 
 647:../system/include/cmsis/stm32l4xx/cmsis_gcc.h **** #if ((defined (__ARM_ARCH_8M_MAIN__ ) && (__ARM_ARCH_8M_MAIN__ == 1)) || \
 648:../system/include/cmsis/stm32l4xx/cmsis_gcc.h ****      (defined (__ARM_ARCH_8M_BASE__ ) && (__ARM_ARCH_8M_BASE__ == 1))    )
 649:../system/include/cmsis/stm32l4xx/cmsis_gcc.h **** 
 650:../system/include/cmsis/stm32l4xx/cmsis_gcc.h **** /**
 651:../system/include/cmsis/stm32l4xx/cmsis_gcc.h ****   \brief   Get Process Stack Pointer Limit
 652:../system/include/cmsis/stm32l4xx/cmsis_gcc.h ****   Devices without ARMv8-M Main Extensions (i.e. Cortex-M23) lack the non-secure
 653:../system/include/cmsis/stm32l4xx/cmsis_gcc.h ****   Stack Pointer Limit register hence zero is returned always in non-secure
 654:../system/include/cmsis/stm32l4xx/cmsis_gcc.h ****   mode.
 655:../system/include/cmsis/stm32l4xx/cmsis_gcc.h ****   
 656:../system/include/cmsis/stm32l4xx/cmsis_gcc.h ****   \details Returns the current value of the Process Stack Pointer Limit (PSPLIM).
 657:../system/include/cmsis/stm32l4xx/cmsis_gcc.h ****   \return               PSPLIM Register value
 658:../system/include/cmsis/stm32l4xx/cmsis_gcc.h ****  */
 659:../system/include/cmsis/stm32l4xx/cmsis_gcc.h **** __STATIC_FORCEINLINE uint32_t __get_PSPLIM(void)
 660:../system/include/cmsis/stm32l4xx/cmsis_gcc.h **** {
 661:../system/include/cmsis/stm32l4xx/cmsis_gcc.h **** #if (!(defined (__ARM_ARCH_8M_MAIN__ ) && (__ARM_ARCH_8M_MAIN__ == 1)) && \
 662:../system/include/cmsis/stm32l4xx/cmsis_gcc.h ****     (!defined (__ARM_FEATURE_CMSE) || (__ARM_FEATURE_CMSE < 3)))
 663:../system/include/cmsis/stm32l4xx/cmsis_gcc.h ****     // without main extensions, the non-secure PSPLIM is RAZ/WI
 664:../system/include/cmsis/stm32l4xx/cmsis_gcc.h ****   return 0U;
 665:../system/include/cmsis/stm32l4xx/cmsis_gcc.h **** #else
 666:../system/include/cmsis/stm32l4xx/cmsis_gcc.h ****   uint32_t result;
 667:../system/include/cmsis/stm32l4xx/cmsis_gcc.h ****   __ASM volatile ("MRS %0, psplim"  : "=r" (result) );
 668:../system/include/cmsis/stm32l4xx/cmsis_gcc.h ****   return result;
 669:../system/include/cmsis/stm32l4xx/cmsis_gcc.h **** #endif
 670:../system/include/cmsis/stm32l4xx/cmsis_gcc.h **** }
 671:../system/include/cmsis/stm32l4xx/cmsis_gcc.h **** 
 672:../system/include/cmsis/stm32l4xx/cmsis_gcc.h **** #if (defined (__ARM_FEATURE_CMSE) && (__ARM_FEATURE_CMSE == 3))
 673:../system/include/cmsis/stm32l4xx/cmsis_gcc.h **** /**
 674:../system/include/cmsis/stm32l4xx/cmsis_gcc.h ****   \brief   Get Process Stack Pointer Limit (non-secure)
 675:../system/include/cmsis/stm32l4xx/cmsis_gcc.h ****   Devices without ARMv8-M Main Extensions (i.e. Cortex-M23) lack the non-secure
 676:../system/include/cmsis/stm32l4xx/cmsis_gcc.h ****   Stack Pointer Limit register hence zero is returned always.
 677:../system/include/cmsis/stm32l4xx/cmsis_gcc.h **** 
 678:../system/include/cmsis/stm32l4xx/cmsis_gcc.h ****   \details Returns the current value of the non-secure Process Stack Pointer Limit (PSPLIM) when in
 679:../system/include/cmsis/stm32l4xx/cmsis_gcc.h ****   \return               PSPLIM Register value
 680:../system/include/cmsis/stm32l4xx/cmsis_gcc.h ****  */
 681:../system/include/cmsis/stm32l4xx/cmsis_gcc.h **** __STATIC_FORCEINLINE uint32_t __TZ_get_PSPLIM_NS(void)
 682:../system/include/cmsis/stm32l4xx/cmsis_gcc.h **** {
 683:../system/include/cmsis/stm32l4xx/cmsis_gcc.h **** #if (!(defined (__ARM_ARCH_8M_MAIN__ ) && (__ARM_ARCH_8M_MAIN__ == 1)))
 684:../system/include/cmsis/stm32l4xx/cmsis_gcc.h ****   // without main extensions, the non-secure PSPLIM is RAZ/WI
 685:../system/include/cmsis/stm32l4xx/cmsis_gcc.h ****   return 0U;
 686:../system/include/cmsis/stm32l4xx/cmsis_gcc.h **** #else
 687:../system/include/cmsis/stm32l4xx/cmsis_gcc.h ****   uint32_t result;
 688:../system/include/cmsis/stm32l4xx/cmsis_gcc.h ****   __ASM volatile ("MRS %0, psplim_ns"  : "=r" (result) );
 689:../system/include/cmsis/stm32l4xx/cmsis_gcc.h ****   return result;
 690:../system/include/cmsis/stm32l4xx/cmsis_gcc.h **** #endif
 691:../system/include/cmsis/stm32l4xx/cmsis_gcc.h **** }
 692:../system/include/cmsis/stm32l4xx/cmsis_gcc.h **** #endif
 693:../system/include/cmsis/stm32l4xx/cmsis_gcc.h **** 
 694:../system/include/cmsis/stm32l4xx/cmsis_gcc.h **** 
 695:../system/include/cmsis/stm32l4xx/cmsis_gcc.h **** /**
 696:../system/include/cmsis/stm32l4xx/cmsis_gcc.h ****   \brief   Set Process Stack Pointer Limit
 697:../system/include/cmsis/stm32l4xx/cmsis_gcc.h ****   Devices without ARMv8-M Main Extensions (i.e. Cortex-M23) lack the non-secure
 698:../system/include/cmsis/stm32l4xx/cmsis_gcc.h ****   Stack Pointer Limit register hence the write is silently ignored in non-secure
 699:../system/include/cmsis/stm32l4xx/cmsis_gcc.h ****   mode.
 700:../system/include/cmsis/stm32l4xx/cmsis_gcc.h ****   
 701:../system/include/cmsis/stm32l4xx/cmsis_gcc.h ****   \details Assigns the given value to the Process Stack Pointer Limit (PSPLIM).
 702:../system/include/cmsis/stm32l4xx/cmsis_gcc.h ****   \param [in]    ProcStackPtrLimit  Process Stack Pointer Limit value to set
 703:../system/include/cmsis/stm32l4xx/cmsis_gcc.h ****  */
 704:../system/include/cmsis/stm32l4xx/cmsis_gcc.h **** __STATIC_FORCEINLINE void __set_PSPLIM(uint32_t ProcStackPtrLimit)
 705:../system/include/cmsis/stm32l4xx/cmsis_gcc.h **** {
 706:../system/include/cmsis/stm32l4xx/cmsis_gcc.h **** #if (!(defined (__ARM_ARCH_8M_MAIN__ ) && (__ARM_ARCH_8M_MAIN__ == 1)) && \
 707:../system/include/cmsis/stm32l4xx/cmsis_gcc.h ****     (!defined (__ARM_FEATURE_CMSE) || (__ARM_FEATURE_CMSE < 3)))
 708:../system/include/cmsis/stm32l4xx/cmsis_gcc.h ****   // without main extensions, the non-secure PSPLIM is RAZ/WI
 709:../system/include/cmsis/stm32l4xx/cmsis_gcc.h ****   (void)ProcStackPtrLimit;
 710:../system/include/cmsis/stm32l4xx/cmsis_gcc.h **** #else
 711:../system/include/cmsis/stm32l4xx/cmsis_gcc.h ****   __ASM volatile ("MSR psplim, %0" : : "r" (ProcStackPtrLimit));
 712:../system/include/cmsis/stm32l4xx/cmsis_gcc.h **** #endif
 713:../system/include/cmsis/stm32l4xx/cmsis_gcc.h **** }
 714:../system/include/cmsis/stm32l4xx/cmsis_gcc.h **** 
 715:../system/include/cmsis/stm32l4xx/cmsis_gcc.h **** 
 716:../system/include/cmsis/stm32l4xx/cmsis_gcc.h **** #if (defined (__ARM_FEATURE_CMSE  ) && (__ARM_FEATURE_CMSE   == 3))
 717:../system/include/cmsis/stm32l4xx/cmsis_gcc.h **** /**
 718:../system/include/cmsis/stm32l4xx/cmsis_gcc.h ****   \brief   Set Process Stack Pointer (non-secure)
 719:../system/include/cmsis/stm32l4xx/cmsis_gcc.h ****   Devices without ARMv8-M Main Extensions (i.e. Cortex-M23) lack the non-secure
 720:../system/include/cmsis/stm32l4xx/cmsis_gcc.h ****   Stack Pointer Limit register hence the write is silently ignored.
 721:../system/include/cmsis/stm32l4xx/cmsis_gcc.h **** 
 722:../system/include/cmsis/stm32l4xx/cmsis_gcc.h ****   \details Assigns the given value to the non-secure Process Stack Pointer Limit (PSPLIM) when in s
 723:../system/include/cmsis/stm32l4xx/cmsis_gcc.h ****   \param [in]    ProcStackPtrLimit  Process Stack Pointer Limit value to set
 724:../system/include/cmsis/stm32l4xx/cmsis_gcc.h ****  */
 725:../system/include/cmsis/stm32l4xx/cmsis_gcc.h **** __STATIC_FORCEINLINE void __TZ_set_PSPLIM_NS(uint32_t ProcStackPtrLimit)
 726:../system/include/cmsis/stm32l4xx/cmsis_gcc.h **** {
 727:../system/include/cmsis/stm32l4xx/cmsis_gcc.h **** #if (!(defined (__ARM_ARCH_8M_MAIN__ ) && (__ARM_ARCH_8M_MAIN__ == 1)))
 728:../system/include/cmsis/stm32l4xx/cmsis_gcc.h ****   // without main extensions, the non-secure PSPLIM is RAZ/WI
 729:../system/include/cmsis/stm32l4xx/cmsis_gcc.h ****   (void)ProcStackPtrLimit;
 730:../system/include/cmsis/stm32l4xx/cmsis_gcc.h **** #else
 731:../system/include/cmsis/stm32l4xx/cmsis_gcc.h ****   __ASM volatile ("MSR psplim_ns, %0\n" : : "r" (ProcStackPtrLimit));
 732:../system/include/cmsis/stm32l4xx/cmsis_gcc.h **** #endif
 733:../system/include/cmsis/stm32l4xx/cmsis_gcc.h **** }
 734:../system/include/cmsis/stm32l4xx/cmsis_gcc.h **** #endif
 735:../system/include/cmsis/stm32l4xx/cmsis_gcc.h **** 
 736:../system/include/cmsis/stm32l4xx/cmsis_gcc.h **** 
 737:../system/include/cmsis/stm32l4xx/cmsis_gcc.h **** /**
 738:../system/include/cmsis/stm32l4xx/cmsis_gcc.h ****   \brief   Get Main Stack Pointer Limit
 739:../system/include/cmsis/stm32l4xx/cmsis_gcc.h ****   Devices without ARMv8-M Main Extensions (i.e. Cortex-M23) lack the non-secure
 740:../system/include/cmsis/stm32l4xx/cmsis_gcc.h ****   Stack Pointer Limit register hence zero is returned always in non-secure
 741:../system/include/cmsis/stm32l4xx/cmsis_gcc.h ****   mode.
 742:../system/include/cmsis/stm32l4xx/cmsis_gcc.h **** 
 743:../system/include/cmsis/stm32l4xx/cmsis_gcc.h ****   \details Returns the current value of the Main Stack Pointer Limit (MSPLIM).
 744:../system/include/cmsis/stm32l4xx/cmsis_gcc.h ****   \return               MSPLIM Register value
 745:../system/include/cmsis/stm32l4xx/cmsis_gcc.h ****  */
 746:../system/include/cmsis/stm32l4xx/cmsis_gcc.h **** __STATIC_FORCEINLINE uint32_t __get_MSPLIM(void)
 747:../system/include/cmsis/stm32l4xx/cmsis_gcc.h **** {
 748:../system/include/cmsis/stm32l4xx/cmsis_gcc.h **** #if (!(defined (__ARM_ARCH_8M_MAIN__ ) && (__ARM_ARCH_8M_MAIN__ == 1)) && \
 749:../system/include/cmsis/stm32l4xx/cmsis_gcc.h ****     (!defined (__ARM_FEATURE_CMSE) || (__ARM_FEATURE_CMSE < 3)))
 750:../system/include/cmsis/stm32l4xx/cmsis_gcc.h ****   // without main extensions, the non-secure MSPLIM is RAZ/WI
 751:../system/include/cmsis/stm32l4xx/cmsis_gcc.h ****   return 0U;
 752:../system/include/cmsis/stm32l4xx/cmsis_gcc.h **** #else
 753:../system/include/cmsis/stm32l4xx/cmsis_gcc.h ****   uint32_t result;
 754:../system/include/cmsis/stm32l4xx/cmsis_gcc.h ****   __ASM volatile ("MRS %0, msplim" : "=r" (result) );
 755:../system/include/cmsis/stm32l4xx/cmsis_gcc.h ****   return result;
 756:../system/include/cmsis/stm32l4xx/cmsis_gcc.h **** #endif
 757:../system/include/cmsis/stm32l4xx/cmsis_gcc.h **** }
 758:../system/include/cmsis/stm32l4xx/cmsis_gcc.h **** 
 759:../system/include/cmsis/stm32l4xx/cmsis_gcc.h **** 
 760:../system/include/cmsis/stm32l4xx/cmsis_gcc.h **** #if (defined (__ARM_FEATURE_CMSE  ) && (__ARM_FEATURE_CMSE   == 3))
 761:../system/include/cmsis/stm32l4xx/cmsis_gcc.h **** /**
 762:../system/include/cmsis/stm32l4xx/cmsis_gcc.h ****   \brief   Get Main Stack Pointer Limit (non-secure)
 763:../system/include/cmsis/stm32l4xx/cmsis_gcc.h ****   Devices without ARMv8-M Main Extensions (i.e. Cortex-M23) lack the non-secure
 764:../system/include/cmsis/stm32l4xx/cmsis_gcc.h ****   Stack Pointer Limit register hence zero is returned always.
 765:../system/include/cmsis/stm32l4xx/cmsis_gcc.h **** 
 766:../system/include/cmsis/stm32l4xx/cmsis_gcc.h ****   \details Returns the current value of the non-secure Main Stack Pointer Limit(MSPLIM) when in sec
 767:../system/include/cmsis/stm32l4xx/cmsis_gcc.h ****   \return               MSPLIM Register value
 768:../system/include/cmsis/stm32l4xx/cmsis_gcc.h ****  */
 769:../system/include/cmsis/stm32l4xx/cmsis_gcc.h **** __STATIC_FORCEINLINE uint32_t __TZ_get_MSPLIM_NS(void)
 770:../system/include/cmsis/stm32l4xx/cmsis_gcc.h **** {
 771:../system/include/cmsis/stm32l4xx/cmsis_gcc.h **** #if (!(defined (__ARM_ARCH_8M_MAIN__ ) && (__ARM_ARCH_8M_MAIN__ == 1)))
 772:../system/include/cmsis/stm32l4xx/cmsis_gcc.h ****   // without main extensions, the non-secure MSPLIM is RAZ/WI
 773:../system/include/cmsis/stm32l4xx/cmsis_gcc.h ****   return 0U;
 774:../system/include/cmsis/stm32l4xx/cmsis_gcc.h **** #else
 775:../system/include/cmsis/stm32l4xx/cmsis_gcc.h ****   uint32_t result;
 776:../system/include/cmsis/stm32l4xx/cmsis_gcc.h ****   __ASM volatile ("MRS %0, msplim_ns" : "=r" (result) );
 777:../system/include/cmsis/stm32l4xx/cmsis_gcc.h ****   return result;
 778:../system/include/cmsis/stm32l4xx/cmsis_gcc.h **** #endif
 779:../system/include/cmsis/stm32l4xx/cmsis_gcc.h **** }
 780:../system/include/cmsis/stm32l4xx/cmsis_gcc.h **** #endif
 781:../system/include/cmsis/stm32l4xx/cmsis_gcc.h **** 
 782:../system/include/cmsis/stm32l4xx/cmsis_gcc.h **** 
 783:../system/include/cmsis/stm32l4xx/cmsis_gcc.h **** /**
 784:../system/include/cmsis/stm32l4xx/cmsis_gcc.h ****   \brief   Set Main Stack Pointer Limit
 785:../system/include/cmsis/stm32l4xx/cmsis_gcc.h ****   Devices without ARMv8-M Main Extensions (i.e. Cortex-M23) lack the non-secure
 786:../system/include/cmsis/stm32l4xx/cmsis_gcc.h ****   Stack Pointer Limit register hence the write is silently ignored in non-secure
 787:../system/include/cmsis/stm32l4xx/cmsis_gcc.h ****   mode.
 788:../system/include/cmsis/stm32l4xx/cmsis_gcc.h **** 
 789:../system/include/cmsis/stm32l4xx/cmsis_gcc.h ****   \details Assigns the given value to the Main Stack Pointer Limit (MSPLIM).
 790:../system/include/cmsis/stm32l4xx/cmsis_gcc.h ****   \param [in]    MainStackPtrLimit  Main Stack Pointer Limit value to set
 791:../system/include/cmsis/stm32l4xx/cmsis_gcc.h ****  */
 792:../system/include/cmsis/stm32l4xx/cmsis_gcc.h **** __STATIC_FORCEINLINE void __set_MSPLIM(uint32_t MainStackPtrLimit)
 793:../system/include/cmsis/stm32l4xx/cmsis_gcc.h **** {
 794:../system/include/cmsis/stm32l4xx/cmsis_gcc.h **** #if (!(defined (__ARM_ARCH_8M_MAIN__ ) && (__ARM_ARCH_8M_MAIN__ == 1)) && \
 795:../system/include/cmsis/stm32l4xx/cmsis_gcc.h ****     (!defined (__ARM_FEATURE_CMSE) || (__ARM_FEATURE_CMSE < 3)))
 796:../system/include/cmsis/stm32l4xx/cmsis_gcc.h ****   // without main extensions, the non-secure MSPLIM is RAZ/WI
 797:../system/include/cmsis/stm32l4xx/cmsis_gcc.h ****   (void)MainStackPtrLimit;
 798:../system/include/cmsis/stm32l4xx/cmsis_gcc.h **** #else
 799:../system/include/cmsis/stm32l4xx/cmsis_gcc.h ****   __ASM volatile ("MSR msplim, %0" : : "r" (MainStackPtrLimit));
 800:../system/include/cmsis/stm32l4xx/cmsis_gcc.h **** #endif
 801:../system/include/cmsis/stm32l4xx/cmsis_gcc.h **** }
 802:../system/include/cmsis/stm32l4xx/cmsis_gcc.h **** 
 803:../system/include/cmsis/stm32l4xx/cmsis_gcc.h **** 
 804:../system/include/cmsis/stm32l4xx/cmsis_gcc.h **** #if (defined (__ARM_FEATURE_CMSE  ) && (__ARM_FEATURE_CMSE   == 3))
 805:../system/include/cmsis/stm32l4xx/cmsis_gcc.h **** /**
 806:../system/include/cmsis/stm32l4xx/cmsis_gcc.h ****   \brief   Set Main Stack Pointer Limit (non-secure)
 807:../system/include/cmsis/stm32l4xx/cmsis_gcc.h ****   Devices without ARMv8-M Main Extensions (i.e. Cortex-M23) lack the non-secure
 808:../system/include/cmsis/stm32l4xx/cmsis_gcc.h ****   Stack Pointer Limit register hence the write is silently ignored.
 809:../system/include/cmsis/stm32l4xx/cmsis_gcc.h **** 
 810:../system/include/cmsis/stm32l4xx/cmsis_gcc.h ****   \details Assigns the given value to the non-secure Main Stack Pointer Limit (MSPLIM) when in secu
 811:../system/include/cmsis/stm32l4xx/cmsis_gcc.h ****   \param [in]    MainStackPtrLimit  Main Stack Pointer value to set
 812:../system/include/cmsis/stm32l4xx/cmsis_gcc.h ****  */
 813:../system/include/cmsis/stm32l4xx/cmsis_gcc.h **** __STATIC_FORCEINLINE void __TZ_set_MSPLIM_NS(uint32_t MainStackPtrLimit)
 814:../system/include/cmsis/stm32l4xx/cmsis_gcc.h **** {
 815:../system/include/cmsis/stm32l4xx/cmsis_gcc.h **** #if (!(defined (__ARM_ARCH_8M_MAIN__ ) && (__ARM_ARCH_8M_MAIN__ == 1)))
 816:../system/include/cmsis/stm32l4xx/cmsis_gcc.h ****   // without main extensions, the non-secure MSPLIM is RAZ/WI
 817:../system/include/cmsis/stm32l4xx/cmsis_gcc.h ****   (void)MainStackPtrLimit;
 818:../system/include/cmsis/stm32l4xx/cmsis_gcc.h **** #else
 819:../system/include/cmsis/stm32l4xx/cmsis_gcc.h ****   __ASM volatile ("MSR msplim_ns, %0" : : "r" (MainStackPtrLimit));
 820:../system/include/cmsis/stm32l4xx/cmsis_gcc.h **** #endif
 821:../system/include/cmsis/stm32l4xx/cmsis_gcc.h **** }
 822:../system/include/cmsis/stm32l4xx/cmsis_gcc.h **** #endif
 823:../system/include/cmsis/stm32l4xx/cmsis_gcc.h **** 
 824:../system/include/cmsis/stm32l4xx/cmsis_gcc.h **** #endif /* ((defined (__ARM_ARCH_8M_MAIN__ ) && (__ARM_ARCH_8M_MAIN__ == 1)) || \
 825:../system/include/cmsis/stm32l4xx/cmsis_gcc.h ****            (defined (__ARM_ARCH_8M_BASE__ ) && (__ARM_ARCH_8M_BASE__ == 1))    ) */
 826:../system/include/cmsis/stm32l4xx/cmsis_gcc.h **** 
 827:../system/include/cmsis/stm32l4xx/cmsis_gcc.h **** 
 828:../system/include/cmsis/stm32l4xx/cmsis_gcc.h **** /**
 829:../system/include/cmsis/stm32l4xx/cmsis_gcc.h ****   \brief   Get FPSCR
 830:../system/include/cmsis/stm32l4xx/cmsis_gcc.h ****   \details Returns the current value of the Floating Point Status/Control register.
 831:../system/include/cmsis/stm32l4xx/cmsis_gcc.h ****   \return               Floating Point Status/Control register value
 832:../system/include/cmsis/stm32l4xx/cmsis_gcc.h ****  */
 833:../system/include/cmsis/stm32l4xx/cmsis_gcc.h **** __STATIC_FORCEINLINE uint32_t __get_FPSCR(void)
 834:../system/include/cmsis/stm32l4xx/cmsis_gcc.h **** {
 835:../system/include/cmsis/stm32l4xx/cmsis_gcc.h **** #if ((defined (__FPU_PRESENT) && (__FPU_PRESENT == 1U)) && \
 836:../system/include/cmsis/stm32l4xx/cmsis_gcc.h ****      (defined (__FPU_USED   ) && (__FPU_USED    == 1U))     )
 837:../system/include/cmsis/stm32l4xx/cmsis_gcc.h **** #if __has_builtin(__builtin_arm_get_fpscr) 
 838:../system/include/cmsis/stm32l4xx/cmsis_gcc.h **** // Re-enable using built-in when GCC has been fixed
 839:../system/include/cmsis/stm32l4xx/cmsis_gcc.h **** // || (__GNUC__ > 7) || (__GNUC__ == 7 && __GNUC_MINOR__ >= 2)
 840:../system/include/cmsis/stm32l4xx/cmsis_gcc.h ****   /* see https://gcc.gnu.org/ml/gcc-patches/2017-04/msg00443.html */
 841:../system/include/cmsis/stm32l4xx/cmsis_gcc.h ****   return __builtin_arm_get_fpscr();
 842:../system/include/cmsis/stm32l4xx/cmsis_gcc.h **** #else
 843:../system/include/cmsis/stm32l4xx/cmsis_gcc.h ****   uint32_t result;
 844:../system/include/cmsis/stm32l4xx/cmsis_gcc.h **** 
 845:../system/include/cmsis/stm32l4xx/cmsis_gcc.h ****   __ASM volatile ("VMRS %0, fpscr" : "=r" (result) );
 846:../system/include/cmsis/stm32l4xx/cmsis_gcc.h ****   return(result);
 847:../system/include/cmsis/stm32l4xx/cmsis_gcc.h **** #endif
 848:../system/include/cmsis/stm32l4xx/cmsis_gcc.h **** #else
 849:../system/include/cmsis/stm32l4xx/cmsis_gcc.h ****   return(0U);
 850:../system/include/cmsis/stm32l4xx/cmsis_gcc.h **** #endif
 851:../system/include/cmsis/stm32l4xx/cmsis_gcc.h **** }
 852:../system/include/cmsis/stm32l4xx/cmsis_gcc.h **** 
 853:../system/include/cmsis/stm32l4xx/cmsis_gcc.h **** 
 854:../system/include/cmsis/stm32l4xx/cmsis_gcc.h **** /**
 855:../system/include/cmsis/stm32l4xx/cmsis_gcc.h ****   \brief   Set FPSCR
 856:../system/include/cmsis/stm32l4xx/cmsis_gcc.h ****   \details Assigns the given value to the Floating Point Status/Control register.
 857:../system/include/cmsis/stm32l4xx/cmsis_gcc.h ****   \param [in]    fpscr  Floating Point Status/Control value to set
 858:../system/include/cmsis/stm32l4xx/cmsis_gcc.h ****  */
 859:../system/include/cmsis/stm32l4xx/cmsis_gcc.h **** __STATIC_FORCEINLINE void __set_FPSCR(uint32_t fpscr)
 860:../system/include/cmsis/stm32l4xx/cmsis_gcc.h **** {
 861:../system/include/cmsis/stm32l4xx/cmsis_gcc.h **** #if ((defined (__FPU_PRESENT) && (__FPU_PRESENT == 1U)) && \
 862:../system/include/cmsis/stm32l4xx/cmsis_gcc.h ****      (defined (__FPU_USED   ) && (__FPU_USED    == 1U))     )
 863:../system/include/cmsis/stm32l4xx/cmsis_gcc.h **** #if __has_builtin(__builtin_arm_set_fpscr)
 864:../system/include/cmsis/stm32l4xx/cmsis_gcc.h **** // Re-enable using built-in when GCC has been fixed
 865:../system/include/cmsis/stm32l4xx/cmsis_gcc.h **** // || (__GNUC__ > 7) || (__GNUC__ == 7 && __GNUC_MINOR__ >= 2)
 866:../system/include/cmsis/stm32l4xx/cmsis_gcc.h ****   /* see https://gcc.gnu.org/ml/gcc-patches/2017-04/msg00443.html */
 867:../system/include/cmsis/stm32l4xx/cmsis_gcc.h ****   __builtin_arm_set_fpscr(fpscr);
 868:../system/include/cmsis/stm32l4xx/cmsis_gcc.h **** #else
 869:../system/include/cmsis/stm32l4xx/cmsis_gcc.h ****   __ASM volatile ("VMSR fpscr, %0" : : "r" (fpscr) : "vfpcc", "memory");
 870:../system/include/cmsis/stm32l4xx/cmsis_gcc.h **** #endif
 871:../system/include/cmsis/stm32l4xx/cmsis_gcc.h **** #else
 872:../system/include/cmsis/stm32l4xx/cmsis_gcc.h ****   (void)fpscr;
 873:../system/include/cmsis/stm32l4xx/cmsis_gcc.h **** #endif
 874:../system/include/cmsis/stm32l4xx/cmsis_gcc.h **** }
 875:../system/include/cmsis/stm32l4xx/cmsis_gcc.h **** 
 876:../system/include/cmsis/stm32l4xx/cmsis_gcc.h **** 
 877:../system/include/cmsis/stm32l4xx/cmsis_gcc.h **** /*@} end of CMSIS_Core_RegAccFunctions */
 878:../system/include/cmsis/stm32l4xx/cmsis_gcc.h **** 
 879:../system/include/cmsis/stm32l4xx/cmsis_gcc.h **** 
 880:../system/include/cmsis/stm32l4xx/cmsis_gcc.h **** /* ##########################  Core Instruction Access  ######################### */
 881:../system/include/cmsis/stm32l4xx/cmsis_gcc.h **** /** \defgroup CMSIS_Core_InstructionInterface CMSIS Core Instruction Interface
 882:../system/include/cmsis/stm32l4xx/cmsis_gcc.h ****   Access to dedicated instructions
 883:../system/include/cmsis/stm32l4xx/cmsis_gcc.h ****   @{
 884:../system/include/cmsis/stm32l4xx/cmsis_gcc.h **** */
 885:../system/include/cmsis/stm32l4xx/cmsis_gcc.h **** 
 886:../system/include/cmsis/stm32l4xx/cmsis_gcc.h **** /* Define macros for porting to both thumb1 and thumb2.
 887:../system/include/cmsis/stm32l4xx/cmsis_gcc.h ****  * For thumb1, use low register (r0-r7), specified by constraint "l"
 888:../system/include/cmsis/stm32l4xx/cmsis_gcc.h ****  * Otherwise, use general registers, specified by constraint "r" */
 889:../system/include/cmsis/stm32l4xx/cmsis_gcc.h **** #if defined (__thumb__) && !defined (__thumb2__)
 890:../system/include/cmsis/stm32l4xx/cmsis_gcc.h **** #define __CMSIS_GCC_OUT_REG(r) "=l" (r)
 891:../system/include/cmsis/stm32l4xx/cmsis_gcc.h **** #define __CMSIS_GCC_RW_REG(r) "+l" (r)
 892:../system/include/cmsis/stm32l4xx/cmsis_gcc.h **** #define __CMSIS_GCC_USE_REG(r) "l" (r)
 893:../system/include/cmsis/stm32l4xx/cmsis_gcc.h **** #else
 894:../system/include/cmsis/stm32l4xx/cmsis_gcc.h **** #define __CMSIS_GCC_OUT_REG(r) "=r" (r)
 895:../system/include/cmsis/stm32l4xx/cmsis_gcc.h **** #define __CMSIS_GCC_RW_REG(r) "+r" (r)
 896:../system/include/cmsis/stm32l4xx/cmsis_gcc.h **** #define __CMSIS_GCC_USE_REG(r) "r" (r)
 897:../system/include/cmsis/stm32l4xx/cmsis_gcc.h **** #endif
 898:../system/include/cmsis/stm32l4xx/cmsis_gcc.h **** 
 899:../system/include/cmsis/stm32l4xx/cmsis_gcc.h **** /**
 900:../system/include/cmsis/stm32l4xx/cmsis_gcc.h ****   \brief   No Operation
 901:../system/include/cmsis/stm32l4xx/cmsis_gcc.h ****   \details No Operation does nothing. This instruction can be used for code alignment purposes.
 902:../system/include/cmsis/stm32l4xx/cmsis_gcc.h ****  */
 903:../system/include/cmsis/stm32l4xx/cmsis_gcc.h **** #define __NOP()                             __ASM volatile ("nop")
 904:../system/include/cmsis/stm32l4xx/cmsis_gcc.h **** 
 905:../system/include/cmsis/stm32l4xx/cmsis_gcc.h **** /**
 906:../system/include/cmsis/stm32l4xx/cmsis_gcc.h ****   \brief   Wait For Interrupt
 907:../system/include/cmsis/stm32l4xx/cmsis_gcc.h ****   \details Wait For Interrupt is a hint instruction that suspends execution until one of a number o
 908:../system/include/cmsis/stm32l4xx/cmsis_gcc.h ****  */
 909:../system/include/cmsis/stm32l4xx/cmsis_gcc.h **** #define __WFI()                             __ASM volatile ("wfi")
 910:../system/include/cmsis/stm32l4xx/cmsis_gcc.h **** 
 911:../system/include/cmsis/stm32l4xx/cmsis_gcc.h **** 
 912:../system/include/cmsis/stm32l4xx/cmsis_gcc.h **** /**
 913:../system/include/cmsis/stm32l4xx/cmsis_gcc.h ****   \brief   Wait For Event
 914:../system/include/cmsis/stm32l4xx/cmsis_gcc.h ****   \details Wait For Event is a hint instruction that permits the processor to enter
 915:../system/include/cmsis/stm32l4xx/cmsis_gcc.h ****            a low-power state until one of a number of events occurs.
 916:../system/include/cmsis/stm32l4xx/cmsis_gcc.h ****  */
 917:../system/include/cmsis/stm32l4xx/cmsis_gcc.h **** #define __WFE()                             __ASM volatile ("wfe")
 918:../system/include/cmsis/stm32l4xx/cmsis_gcc.h **** 
 919:../system/include/cmsis/stm32l4xx/cmsis_gcc.h **** 
 920:../system/include/cmsis/stm32l4xx/cmsis_gcc.h **** /**
 921:../system/include/cmsis/stm32l4xx/cmsis_gcc.h ****   \brief   Send Event
 922:../system/include/cmsis/stm32l4xx/cmsis_gcc.h ****   \details Send Event is a hint instruction. It causes an event to be signaled to the CPU.
 923:../system/include/cmsis/stm32l4xx/cmsis_gcc.h ****  */
 924:../system/include/cmsis/stm32l4xx/cmsis_gcc.h **** #define __SEV()                             __ASM volatile ("sev")
 925:../system/include/cmsis/stm32l4xx/cmsis_gcc.h **** 
 926:../system/include/cmsis/stm32l4xx/cmsis_gcc.h **** 
 927:../system/include/cmsis/stm32l4xx/cmsis_gcc.h **** /**
 928:../system/include/cmsis/stm32l4xx/cmsis_gcc.h ****   \brief   Instruction Synchronization Barrier
 929:../system/include/cmsis/stm32l4xx/cmsis_gcc.h ****   \details Instruction Synchronization Barrier flushes the pipeline in the processor,
 930:../system/include/cmsis/stm32l4xx/cmsis_gcc.h ****            so that all instructions following the ISB are fetched from cache or memory,
 931:../system/include/cmsis/stm32l4xx/cmsis_gcc.h ****            after the instruction has been completed.
 932:../system/include/cmsis/stm32l4xx/cmsis_gcc.h ****  */
 933:../system/include/cmsis/stm32l4xx/cmsis_gcc.h **** __STATIC_FORCEINLINE void __ISB(void)
 934:../system/include/cmsis/stm32l4xx/cmsis_gcc.h **** {
 935:../system/include/cmsis/stm32l4xx/cmsis_gcc.h ****   __ASM volatile ("isb 0xF":::"memory");
 936:../system/include/cmsis/stm32l4xx/cmsis_gcc.h **** }
 937:../system/include/cmsis/stm32l4xx/cmsis_gcc.h **** 
 938:../system/include/cmsis/stm32l4xx/cmsis_gcc.h **** 
 939:../system/include/cmsis/stm32l4xx/cmsis_gcc.h **** /**
 940:../system/include/cmsis/stm32l4xx/cmsis_gcc.h ****   \brief   Data Synchronization Barrier
 941:../system/include/cmsis/stm32l4xx/cmsis_gcc.h ****   \details Acts as a special kind of Data Memory Barrier.
 942:../system/include/cmsis/stm32l4xx/cmsis_gcc.h ****            It completes when all explicit memory accesses before this instruction complete.
 943:../system/include/cmsis/stm32l4xx/cmsis_gcc.h ****  */
 944:../system/include/cmsis/stm32l4xx/cmsis_gcc.h **** __STATIC_FORCEINLINE void __DSB(void)
 945:../system/include/cmsis/stm32l4xx/cmsis_gcc.h **** {
 946:../system/include/cmsis/stm32l4xx/cmsis_gcc.h ****   __ASM volatile ("dsb 0xF":::"memory");
 1275              		.loc 3 946 0
 1276              		.syntax unified
 1277              	@ 946 "../system/include/cmsis/stm32l4xx/cmsis_gcc.h" 1
 1278 07fe BFF34F8F 		dsb 0xF
 1279              	@ 0 "" 2
 1280              		.thumb
 1281              		.syntax unified
 1282              	.LBE77:
 1283              	.LBE76:
 1284              		.file 4 "../system/include/cmsis/stm32l4xx/core_cm4.h"
   1:../system/include/cmsis/stm32l4xx/core_cm4.h **** /**************************************************************************//**
   2:../system/include/cmsis/stm32l4xx/core_cm4.h ****  * @file     core_cm4.h
   3:../system/include/cmsis/stm32l4xx/core_cm4.h ****  * @brief    CMSIS Cortex-M4 Core Peripheral Access Layer Header File
   4:../system/include/cmsis/stm32l4xx/core_cm4.h ****  * @version  V5.1.0
   5:../system/include/cmsis/stm32l4xx/core_cm4.h ****  * @date     13. March 2019
   6:../system/include/cmsis/stm32l4xx/core_cm4.h ****  ******************************************************************************/
   7:../system/include/cmsis/stm32l4xx/core_cm4.h **** /*
   8:../system/include/cmsis/stm32l4xx/core_cm4.h ****  * Copyright (c) 2009-2019 Arm Limited. All rights reserved.
   9:../system/include/cmsis/stm32l4xx/core_cm4.h ****  *
  10:../system/include/cmsis/stm32l4xx/core_cm4.h ****  * SPDX-License-Identifier: Apache-2.0
  11:../system/include/cmsis/stm32l4xx/core_cm4.h ****  *
  12:../system/include/cmsis/stm32l4xx/core_cm4.h ****  * Licensed under the Apache License, Version 2.0 (the License); you may
  13:../system/include/cmsis/stm32l4xx/core_cm4.h ****  * not use this file except in compliance with the License.
  14:../system/include/cmsis/stm32l4xx/core_cm4.h ****  * You may obtain a copy of the License at
  15:../system/include/cmsis/stm32l4xx/core_cm4.h ****  *
  16:../system/include/cmsis/stm32l4xx/core_cm4.h ****  * www.apache.org/licenses/LICENSE-2.0
  17:../system/include/cmsis/stm32l4xx/core_cm4.h ****  *
  18:../system/include/cmsis/stm32l4xx/core_cm4.h ****  * Unless required by applicable law or agreed to in writing, software
  19:../system/include/cmsis/stm32l4xx/core_cm4.h ****  * distributed under the License is distributed on an AS IS BASIS, WITHOUT
  20:../system/include/cmsis/stm32l4xx/core_cm4.h ****  * WARRANTIES OR CONDITIONS OF ANY KIND, either express or implied.
  21:../system/include/cmsis/stm32l4xx/core_cm4.h ****  * See the License for the specific language governing permissions and
  22:../system/include/cmsis/stm32l4xx/core_cm4.h ****  * limitations under the License.
  23:../system/include/cmsis/stm32l4xx/core_cm4.h ****  */
  24:../system/include/cmsis/stm32l4xx/core_cm4.h **** 
  25:../system/include/cmsis/stm32l4xx/core_cm4.h **** #if   defined ( __ICCARM__ )
  26:../system/include/cmsis/stm32l4xx/core_cm4.h ****   #pragma system_include         /* treat file as system include file for MISRA check */
  27:../system/include/cmsis/stm32l4xx/core_cm4.h **** #elif defined (__clang__)
  28:../system/include/cmsis/stm32l4xx/core_cm4.h ****   #pragma clang system_header   /* treat file as system include file */
  29:../system/include/cmsis/stm32l4xx/core_cm4.h **** #endif
  30:../system/include/cmsis/stm32l4xx/core_cm4.h **** 
  31:../system/include/cmsis/stm32l4xx/core_cm4.h **** #ifndef __CORE_CM4_H_GENERIC
  32:../system/include/cmsis/stm32l4xx/core_cm4.h **** #define __CORE_CM4_H_GENERIC
  33:../system/include/cmsis/stm32l4xx/core_cm4.h **** 
  34:../system/include/cmsis/stm32l4xx/core_cm4.h **** #include <stdint.h>
  35:../system/include/cmsis/stm32l4xx/core_cm4.h **** 
  36:../system/include/cmsis/stm32l4xx/core_cm4.h **** #ifdef __cplusplus
  37:../system/include/cmsis/stm32l4xx/core_cm4.h ****  extern "C" {
  38:../system/include/cmsis/stm32l4xx/core_cm4.h **** #endif
  39:../system/include/cmsis/stm32l4xx/core_cm4.h **** 
  40:../system/include/cmsis/stm32l4xx/core_cm4.h **** /**
  41:../system/include/cmsis/stm32l4xx/core_cm4.h ****   \page CMSIS_MISRA_Exceptions  MISRA-C:2004 Compliance Exceptions
  42:../system/include/cmsis/stm32l4xx/core_cm4.h ****   CMSIS violates the following MISRA-C:2004 rules:
  43:../system/include/cmsis/stm32l4xx/core_cm4.h **** 
  44:../system/include/cmsis/stm32l4xx/core_cm4.h ****    \li Required Rule 8.5, object/function definition in header file.<br>
  45:../system/include/cmsis/stm32l4xx/core_cm4.h ****      Function definitions in header files are used to allow 'inlining'.
  46:../system/include/cmsis/stm32l4xx/core_cm4.h **** 
  47:../system/include/cmsis/stm32l4xx/core_cm4.h ****    \li Required Rule 18.4, declaration of union type or object of union type: '{...}'.<br>
  48:../system/include/cmsis/stm32l4xx/core_cm4.h ****      Unions are used for effective representation of core registers.
  49:../system/include/cmsis/stm32l4xx/core_cm4.h **** 
  50:../system/include/cmsis/stm32l4xx/core_cm4.h ****    \li Advisory Rule 19.7, Function-like macro defined.<br>
  51:../system/include/cmsis/stm32l4xx/core_cm4.h ****      Function-like macros are used to allow more efficient code.
  52:../system/include/cmsis/stm32l4xx/core_cm4.h ****  */
  53:../system/include/cmsis/stm32l4xx/core_cm4.h **** 
  54:../system/include/cmsis/stm32l4xx/core_cm4.h **** 
  55:../system/include/cmsis/stm32l4xx/core_cm4.h **** /*******************************************************************************
  56:../system/include/cmsis/stm32l4xx/core_cm4.h ****  *                 CMSIS definitions
  57:../system/include/cmsis/stm32l4xx/core_cm4.h ****  ******************************************************************************/
  58:../system/include/cmsis/stm32l4xx/core_cm4.h **** /**
  59:../system/include/cmsis/stm32l4xx/core_cm4.h ****   \ingroup Cortex_M4
  60:../system/include/cmsis/stm32l4xx/core_cm4.h ****   @{
  61:../system/include/cmsis/stm32l4xx/core_cm4.h ****  */
  62:../system/include/cmsis/stm32l4xx/core_cm4.h **** 
  63:../system/include/cmsis/stm32l4xx/core_cm4.h **** #include "cmsis_version.h"
  64:../system/include/cmsis/stm32l4xx/core_cm4.h **** 
  65:../system/include/cmsis/stm32l4xx/core_cm4.h **** /* CMSIS CM4 definitions */
  66:../system/include/cmsis/stm32l4xx/core_cm4.h **** #define __CM4_CMSIS_VERSION_MAIN  (__CM_CMSIS_VERSION_MAIN)              /*!< \deprecated [31:16] C
  67:../system/include/cmsis/stm32l4xx/core_cm4.h **** #define __CM4_CMSIS_VERSION_SUB   (__CM_CMSIS_VERSION_SUB)               /*!< \deprecated [15:0]  C
  68:../system/include/cmsis/stm32l4xx/core_cm4.h **** #define __CM4_CMSIS_VERSION       ((__CM4_CMSIS_VERSION_MAIN << 16U) | \
  69:../system/include/cmsis/stm32l4xx/core_cm4.h ****                                     __CM4_CMSIS_VERSION_SUB           )  /*!< \deprecated CMSIS HAL
  70:../system/include/cmsis/stm32l4xx/core_cm4.h **** 
  71:../system/include/cmsis/stm32l4xx/core_cm4.h **** #define __CORTEX_M                (4U)                                   /*!< Cortex-M Core */
  72:../system/include/cmsis/stm32l4xx/core_cm4.h **** 
  73:../system/include/cmsis/stm32l4xx/core_cm4.h **** /** __FPU_USED indicates whether an FPU is used or not.
  74:../system/include/cmsis/stm32l4xx/core_cm4.h ****     For this, __FPU_PRESENT has to be checked prior to making use of FPU specific registers and fun
  75:../system/include/cmsis/stm32l4xx/core_cm4.h **** */
  76:../system/include/cmsis/stm32l4xx/core_cm4.h **** #if defined ( __CC_ARM )
  77:../system/include/cmsis/stm32l4xx/core_cm4.h ****   #if defined __TARGET_FPU_VFP
  78:../system/include/cmsis/stm32l4xx/core_cm4.h ****     #if defined (__FPU_PRESENT) && (__FPU_PRESENT == 1U)
  79:../system/include/cmsis/stm32l4xx/core_cm4.h ****       #define __FPU_USED       1U
  80:../system/include/cmsis/stm32l4xx/core_cm4.h ****     #else
  81:../system/include/cmsis/stm32l4xx/core_cm4.h ****       #error "Compiler generates FPU instructions for a device without an FPU (check __FPU_PRESENT)
  82:../system/include/cmsis/stm32l4xx/core_cm4.h ****       #define __FPU_USED       0U
  83:../system/include/cmsis/stm32l4xx/core_cm4.h ****     #endif
  84:../system/include/cmsis/stm32l4xx/core_cm4.h ****   #else
  85:../system/include/cmsis/stm32l4xx/core_cm4.h ****     #define __FPU_USED         0U
  86:../system/include/cmsis/stm32l4xx/core_cm4.h ****   #endif
  87:../system/include/cmsis/stm32l4xx/core_cm4.h **** 
  88:../system/include/cmsis/stm32l4xx/core_cm4.h **** #elif defined (__ARMCC_VERSION) && (__ARMCC_VERSION >= 6010050)
  89:../system/include/cmsis/stm32l4xx/core_cm4.h ****   #if defined __ARM_FP
  90:../system/include/cmsis/stm32l4xx/core_cm4.h ****     #if defined (__FPU_PRESENT) && (__FPU_PRESENT == 1U)
  91:../system/include/cmsis/stm32l4xx/core_cm4.h ****       #define __FPU_USED       1U
  92:../system/include/cmsis/stm32l4xx/core_cm4.h ****     #else
  93:../system/include/cmsis/stm32l4xx/core_cm4.h ****       #warning "Compiler generates FPU instructions for a device without an FPU (check __FPU_PRESEN
  94:../system/include/cmsis/stm32l4xx/core_cm4.h ****       #define __FPU_USED       0U
  95:../system/include/cmsis/stm32l4xx/core_cm4.h ****     #endif
  96:../system/include/cmsis/stm32l4xx/core_cm4.h ****   #else
  97:../system/include/cmsis/stm32l4xx/core_cm4.h ****     #define __FPU_USED         0U
  98:../system/include/cmsis/stm32l4xx/core_cm4.h ****   #endif
  99:../system/include/cmsis/stm32l4xx/core_cm4.h **** 
 100:../system/include/cmsis/stm32l4xx/core_cm4.h **** #elif defined ( __GNUC__ )
 101:../system/include/cmsis/stm32l4xx/core_cm4.h ****   #if defined (__VFP_FP__) && !defined(__SOFTFP__)
 102:../system/include/cmsis/stm32l4xx/core_cm4.h ****     #if defined (__FPU_PRESENT) && (__FPU_PRESENT == 1U)
 103:../system/include/cmsis/stm32l4xx/core_cm4.h ****       #define __FPU_USED       1U
 104:../system/include/cmsis/stm32l4xx/core_cm4.h ****     #else
 105:../system/include/cmsis/stm32l4xx/core_cm4.h ****       #error "Compiler generates FPU instructions for a device without an FPU (check __FPU_PRESENT)
 106:../system/include/cmsis/stm32l4xx/core_cm4.h ****       #define __FPU_USED       0U
 107:../system/include/cmsis/stm32l4xx/core_cm4.h ****     #endif
 108:../system/include/cmsis/stm32l4xx/core_cm4.h ****   #else
 109:../system/include/cmsis/stm32l4xx/core_cm4.h ****     #define __FPU_USED         0U
 110:../system/include/cmsis/stm32l4xx/core_cm4.h ****   #endif
 111:../system/include/cmsis/stm32l4xx/core_cm4.h **** 
 112:../system/include/cmsis/stm32l4xx/core_cm4.h **** #elif defined ( __ICCARM__ )
 113:../system/include/cmsis/stm32l4xx/core_cm4.h ****   #if defined __ARMVFP__
 114:../system/include/cmsis/stm32l4xx/core_cm4.h ****     #if defined (__FPU_PRESENT) && (__FPU_PRESENT == 1U)
 115:../system/include/cmsis/stm32l4xx/core_cm4.h ****       #define __FPU_USED       1U
 116:../system/include/cmsis/stm32l4xx/core_cm4.h ****     #else
 117:../system/include/cmsis/stm32l4xx/core_cm4.h ****       #error "Compiler generates FPU instructions for a device without an FPU (check __FPU_PRESENT)
 118:../system/include/cmsis/stm32l4xx/core_cm4.h ****       #define __FPU_USED       0U
 119:../system/include/cmsis/stm32l4xx/core_cm4.h ****     #endif
 120:../system/include/cmsis/stm32l4xx/core_cm4.h ****   #else
 121:../system/include/cmsis/stm32l4xx/core_cm4.h ****     #define __FPU_USED         0U
 122:../system/include/cmsis/stm32l4xx/core_cm4.h ****   #endif
 123:../system/include/cmsis/stm32l4xx/core_cm4.h **** 
 124:../system/include/cmsis/stm32l4xx/core_cm4.h **** #elif defined ( __TI_ARM__ )
 125:../system/include/cmsis/stm32l4xx/core_cm4.h ****   #if defined __TI_VFP_SUPPORT__
 126:../system/include/cmsis/stm32l4xx/core_cm4.h ****     #if defined (__FPU_PRESENT) && (__FPU_PRESENT == 1U)
 127:../system/include/cmsis/stm32l4xx/core_cm4.h ****       #define __FPU_USED       1U
 128:../system/include/cmsis/stm32l4xx/core_cm4.h ****     #else
 129:../system/include/cmsis/stm32l4xx/core_cm4.h ****       #error "Compiler generates FPU instructions for a device without an FPU (check __FPU_PRESENT)
 130:../system/include/cmsis/stm32l4xx/core_cm4.h ****       #define __FPU_USED       0U
 131:../system/include/cmsis/stm32l4xx/core_cm4.h ****     #endif
 132:../system/include/cmsis/stm32l4xx/core_cm4.h ****   #else
 133:../system/include/cmsis/stm32l4xx/core_cm4.h ****     #define __FPU_USED         0U
 134:../system/include/cmsis/stm32l4xx/core_cm4.h ****   #endif
 135:../system/include/cmsis/stm32l4xx/core_cm4.h **** 
 136:../system/include/cmsis/stm32l4xx/core_cm4.h **** #elif defined ( __TASKING__ )
 137:../system/include/cmsis/stm32l4xx/core_cm4.h ****   #if defined __FPU_VFP__
 138:../system/include/cmsis/stm32l4xx/core_cm4.h ****     #if defined (__FPU_PRESENT) && (__FPU_PRESENT == 1U)
 139:../system/include/cmsis/stm32l4xx/core_cm4.h ****       #define __FPU_USED       1U
 140:../system/include/cmsis/stm32l4xx/core_cm4.h ****     #else
 141:../system/include/cmsis/stm32l4xx/core_cm4.h ****       #error "Compiler generates FPU instructions for a device without an FPU (check __FPU_PRESENT)
 142:../system/include/cmsis/stm32l4xx/core_cm4.h ****       #define __FPU_USED       0U
 143:../system/include/cmsis/stm32l4xx/core_cm4.h ****     #endif
 144:../system/include/cmsis/stm32l4xx/core_cm4.h ****   #else
 145:../system/include/cmsis/stm32l4xx/core_cm4.h ****     #define __FPU_USED         0U
 146:../system/include/cmsis/stm32l4xx/core_cm4.h ****   #endif
 147:../system/include/cmsis/stm32l4xx/core_cm4.h **** 
 148:../system/include/cmsis/stm32l4xx/core_cm4.h **** #elif defined ( __CSMC__ )
 149:../system/include/cmsis/stm32l4xx/core_cm4.h ****   #if ( __CSMC__ & 0x400U)
 150:../system/include/cmsis/stm32l4xx/core_cm4.h ****     #if defined (__FPU_PRESENT) && (__FPU_PRESENT == 1U)
 151:../system/include/cmsis/stm32l4xx/core_cm4.h ****       #define __FPU_USED       1U
 152:../system/include/cmsis/stm32l4xx/core_cm4.h ****     #else
 153:../system/include/cmsis/stm32l4xx/core_cm4.h ****       #error "Compiler generates FPU instructions for a device without an FPU (check __FPU_PRESENT)
 154:../system/include/cmsis/stm32l4xx/core_cm4.h ****       #define __FPU_USED       0U
 155:../system/include/cmsis/stm32l4xx/core_cm4.h ****     #endif
 156:../system/include/cmsis/stm32l4xx/core_cm4.h ****   #else
 157:../system/include/cmsis/stm32l4xx/core_cm4.h ****     #define __FPU_USED         0U
 158:../system/include/cmsis/stm32l4xx/core_cm4.h ****   #endif
 159:../system/include/cmsis/stm32l4xx/core_cm4.h **** 
 160:../system/include/cmsis/stm32l4xx/core_cm4.h **** #endif
 161:../system/include/cmsis/stm32l4xx/core_cm4.h **** 
 162:../system/include/cmsis/stm32l4xx/core_cm4.h **** #include "cmsis_compiler.h"               /* CMSIS compiler specific defines */
 163:../system/include/cmsis/stm32l4xx/core_cm4.h **** 
 164:../system/include/cmsis/stm32l4xx/core_cm4.h **** 
 165:../system/include/cmsis/stm32l4xx/core_cm4.h **** #ifdef __cplusplus
 166:../system/include/cmsis/stm32l4xx/core_cm4.h **** }
 167:../system/include/cmsis/stm32l4xx/core_cm4.h **** #endif
 168:../system/include/cmsis/stm32l4xx/core_cm4.h **** 
 169:../system/include/cmsis/stm32l4xx/core_cm4.h **** #endif /* __CORE_CM4_H_GENERIC */
 170:../system/include/cmsis/stm32l4xx/core_cm4.h **** 
 171:../system/include/cmsis/stm32l4xx/core_cm4.h **** #ifndef __CMSIS_GENERIC
 172:../system/include/cmsis/stm32l4xx/core_cm4.h **** 
 173:../system/include/cmsis/stm32l4xx/core_cm4.h **** #ifndef __CORE_CM4_H_DEPENDANT
 174:../system/include/cmsis/stm32l4xx/core_cm4.h **** #define __CORE_CM4_H_DEPENDANT
 175:../system/include/cmsis/stm32l4xx/core_cm4.h **** 
 176:../system/include/cmsis/stm32l4xx/core_cm4.h **** #ifdef __cplusplus
 177:../system/include/cmsis/stm32l4xx/core_cm4.h ****  extern "C" {
 178:../system/include/cmsis/stm32l4xx/core_cm4.h **** #endif
 179:../system/include/cmsis/stm32l4xx/core_cm4.h **** 
 180:../system/include/cmsis/stm32l4xx/core_cm4.h **** /* check device defines and use defaults */
 181:../system/include/cmsis/stm32l4xx/core_cm4.h **** #if defined __CHECK_DEVICE_DEFINES
 182:../system/include/cmsis/stm32l4xx/core_cm4.h ****   #ifndef __CM4_REV
 183:../system/include/cmsis/stm32l4xx/core_cm4.h ****     #define __CM4_REV               0x0000U
 184:../system/include/cmsis/stm32l4xx/core_cm4.h ****     #warning "__CM4_REV not defined in device header file; using default!"
 185:../system/include/cmsis/stm32l4xx/core_cm4.h ****   #endif
 186:../system/include/cmsis/stm32l4xx/core_cm4.h **** 
 187:../system/include/cmsis/stm32l4xx/core_cm4.h ****   #ifndef __FPU_PRESENT
 188:../system/include/cmsis/stm32l4xx/core_cm4.h ****     #define __FPU_PRESENT             0U
 189:../system/include/cmsis/stm32l4xx/core_cm4.h ****     #warning "__FPU_PRESENT not defined in device header file; using default!"
 190:../system/include/cmsis/stm32l4xx/core_cm4.h ****   #endif
 191:../system/include/cmsis/stm32l4xx/core_cm4.h **** 
 192:../system/include/cmsis/stm32l4xx/core_cm4.h ****   #ifndef __MPU_PRESENT
 193:../system/include/cmsis/stm32l4xx/core_cm4.h ****     #define __MPU_PRESENT             0U
 194:../system/include/cmsis/stm32l4xx/core_cm4.h ****     #warning "__MPU_PRESENT not defined in device header file; using default!"
 195:../system/include/cmsis/stm32l4xx/core_cm4.h ****   #endif
 196:../system/include/cmsis/stm32l4xx/core_cm4.h **** 
 197:../system/include/cmsis/stm32l4xx/core_cm4.h ****   #ifndef __NVIC_PRIO_BITS
 198:../system/include/cmsis/stm32l4xx/core_cm4.h ****     #define __NVIC_PRIO_BITS          3U
 199:../system/include/cmsis/stm32l4xx/core_cm4.h ****     #warning "__NVIC_PRIO_BITS not defined in device header file; using default!"
 200:../system/include/cmsis/stm32l4xx/core_cm4.h ****   #endif
 201:../system/include/cmsis/stm32l4xx/core_cm4.h **** 
 202:../system/include/cmsis/stm32l4xx/core_cm4.h ****   #ifndef __Vendor_SysTickConfig
 203:../system/include/cmsis/stm32l4xx/core_cm4.h ****     #define __Vendor_SysTickConfig    0U
 204:../system/include/cmsis/stm32l4xx/core_cm4.h ****     #warning "__Vendor_SysTickConfig not defined in device header file; using default!"
 205:../system/include/cmsis/stm32l4xx/core_cm4.h ****   #endif
 206:../system/include/cmsis/stm32l4xx/core_cm4.h **** #endif
 207:../system/include/cmsis/stm32l4xx/core_cm4.h **** 
 208:../system/include/cmsis/stm32l4xx/core_cm4.h **** /* IO definitions (access restrictions to peripheral registers) */
 209:../system/include/cmsis/stm32l4xx/core_cm4.h **** /**
 210:../system/include/cmsis/stm32l4xx/core_cm4.h ****     \defgroup CMSIS_glob_defs CMSIS Global Defines
 211:../system/include/cmsis/stm32l4xx/core_cm4.h **** 
 212:../system/include/cmsis/stm32l4xx/core_cm4.h ****     <strong>IO Type Qualifiers</strong> are used
 213:../system/include/cmsis/stm32l4xx/core_cm4.h ****     \li to specify the access to peripheral variables.
 214:../system/include/cmsis/stm32l4xx/core_cm4.h ****     \li for automatic generation of peripheral register debug information.
 215:../system/include/cmsis/stm32l4xx/core_cm4.h **** */
 216:../system/include/cmsis/stm32l4xx/core_cm4.h **** #ifdef __cplusplus
 217:../system/include/cmsis/stm32l4xx/core_cm4.h ****   #define   __I     volatile             /*!< Defines 'read only' permissions */
 218:../system/include/cmsis/stm32l4xx/core_cm4.h **** #else
 219:../system/include/cmsis/stm32l4xx/core_cm4.h ****   #define   __I     volatile const       /*!< Defines 'read only' permissions */
 220:../system/include/cmsis/stm32l4xx/core_cm4.h **** #endif
 221:../system/include/cmsis/stm32l4xx/core_cm4.h **** #define     __O     volatile             /*!< Defines 'write only' permissions */
 222:../system/include/cmsis/stm32l4xx/core_cm4.h **** #define     __IO    volatile             /*!< Defines 'read / write' permissions */
 223:../system/include/cmsis/stm32l4xx/core_cm4.h **** 
 224:../system/include/cmsis/stm32l4xx/core_cm4.h **** /* following defines should be used for structure members */
 225:../system/include/cmsis/stm32l4xx/core_cm4.h **** #define     __IM     volatile const      /*! Defines 'read only' structure member permissions */
 226:../system/include/cmsis/stm32l4xx/core_cm4.h **** #define     __OM     volatile            /*! Defines 'write only' structure member permissions */
 227:../system/include/cmsis/stm32l4xx/core_cm4.h **** #define     __IOM    volatile            /*! Defines 'read / write' structure member permissions */
 228:../system/include/cmsis/stm32l4xx/core_cm4.h **** 
 229:../system/include/cmsis/stm32l4xx/core_cm4.h **** /*@} end of group Cortex_M4 */
 230:../system/include/cmsis/stm32l4xx/core_cm4.h **** 
 231:../system/include/cmsis/stm32l4xx/core_cm4.h **** 
 232:../system/include/cmsis/stm32l4xx/core_cm4.h **** 
 233:../system/include/cmsis/stm32l4xx/core_cm4.h **** /*******************************************************************************
 234:../system/include/cmsis/stm32l4xx/core_cm4.h ****  *                 Register Abstraction
 235:../system/include/cmsis/stm32l4xx/core_cm4.h ****   Core Register contain:
 236:../system/include/cmsis/stm32l4xx/core_cm4.h ****   - Core Register
 237:../system/include/cmsis/stm32l4xx/core_cm4.h ****   - Core NVIC Register
 238:../system/include/cmsis/stm32l4xx/core_cm4.h ****   - Core SCB Register
 239:../system/include/cmsis/stm32l4xx/core_cm4.h ****   - Core SysTick Register
 240:../system/include/cmsis/stm32l4xx/core_cm4.h ****   - Core Debug Register
 241:../system/include/cmsis/stm32l4xx/core_cm4.h ****   - Core MPU Register
 242:../system/include/cmsis/stm32l4xx/core_cm4.h ****   - Core FPU Register
 243:../system/include/cmsis/stm32l4xx/core_cm4.h ****  ******************************************************************************/
 244:../system/include/cmsis/stm32l4xx/core_cm4.h **** /**
 245:../system/include/cmsis/stm32l4xx/core_cm4.h ****   \defgroup CMSIS_core_register Defines and Type Definitions
 246:../system/include/cmsis/stm32l4xx/core_cm4.h ****   \brief Type definitions and defines for Cortex-M processor based devices.
 247:../system/include/cmsis/stm32l4xx/core_cm4.h **** */
 248:../system/include/cmsis/stm32l4xx/core_cm4.h **** 
 249:../system/include/cmsis/stm32l4xx/core_cm4.h **** /**
 250:../system/include/cmsis/stm32l4xx/core_cm4.h ****   \ingroup    CMSIS_core_register
 251:../system/include/cmsis/stm32l4xx/core_cm4.h ****   \defgroup   CMSIS_CORE  Status and Control Registers
 252:../system/include/cmsis/stm32l4xx/core_cm4.h ****   \brief      Core Register type definitions.
 253:../system/include/cmsis/stm32l4xx/core_cm4.h ****   @{
 254:../system/include/cmsis/stm32l4xx/core_cm4.h ****  */
 255:../system/include/cmsis/stm32l4xx/core_cm4.h **** 
 256:../system/include/cmsis/stm32l4xx/core_cm4.h **** /**
 257:../system/include/cmsis/stm32l4xx/core_cm4.h ****   \brief  Union type to access the Application Program Status Register (APSR).
 258:../system/include/cmsis/stm32l4xx/core_cm4.h ****  */
 259:../system/include/cmsis/stm32l4xx/core_cm4.h **** typedef union
 260:../system/include/cmsis/stm32l4xx/core_cm4.h **** {
 261:../system/include/cmsis/stm32l4xx/core_cm4.h ****   struct
 262:../system/include/cmsis/stm32l4xx/core_cm4.h ****   {
 263:../system/include/cmsis/stm32l4xx/core_cm4.h ****     uint32_t _reserved0:16;              /*!< bit:  0..15  Reserved */
 264:../system/include/cmsis/stm32l4xx/core_cm4.h ****     uint32_t GE:4;                       /*!< bit: 16..19  Greater than or Equal flags */
 265:../system/include/cmsis/stm32l4xx/core_cm4.h ****     uint32_t _reserved1:7;               /*!< bit: 20..26  Reserved */
 266:../system/include/cmsis/stm32l4xx/core_cm4.h ****     uint32_t Q:1;                        /*!< bit:     27  Saturation condition flag */
 267:../system/include/cmsis/stm32l4xx/core_cm4.h ****     uint32_t V:1;                        /*!< bit:     28  Overflow condition code flag */
 268:../system/include/cmsis/stm32l4xx/core_cm4.h ****     uint32_t C:1;                        /*!< bit:     29  Carry condition code flag */
 269:../system/include/cmsis/stm32l4xx/core_cm4.h ****     uint32_t Z:1;                        /*!< bit:     30  Zero condition code flag */
 270:../system/include/cmsis/stm32l4xx/core_cm4.h ****     uint32_t N:1;                        /*!< bit:     31  Negative condition code flag */
 271:../system/include/cmsis/stm32l4xx/core_cm4.h ****   } b;                                   /*!< Structure used for bit  access */
 272:../system/include/cmsis/stm32l4xx/core_cm4.h ****   uint32_t w;                            /*!< Type      used for word access */
 273:../system/include/cmsis/stm32l4xx/core_cm4.h **** } APSR_Type;
 274:../system/include/cmsis/stm32l4xx/core_cm4.h **** 
 275:../system/include/cmsis/stm32l4xx/core_cm4.h **** /* APSR Register Definitions */
 276:../system/include/cmsis/stm32l4xx/core_cm4.h **** #define APSR_N_Pos                         31U                                            /*!< APSR
 277:../system/include/cmsis/stm32l4xx/core_cm4.h **** #define APSR_N_Msk                         (1UL << APSR_N_Pos)                            /*!< APSR
 278:../system/include/cmsis/stm32l4xx/core_cm4.h **** 
 279:../system/include/cmsis/stm32l4xx/core_cm4.h **** #define APSR_Z_Pos                         30U                                            /*!< APSR
 280:../system/include/cmsis/stm32l4xx/core_cm4.h **** #define APSR_Z_Msk                         (1UL << APSR_Z_Pos)                            /*!< APSR
 281:../system/include/cmsis/stm32l4xx/core_cm4.h **** 
 282:../system/include/cmsis/stm32l4xx/core_cm4.h **** #define APSR_C_Pos                         29U                                            /*!< APSR
 283:../system/include/cmsis/stm32l4xx/core_cm4.h **** #define APSR_C_Msk                         (1UL << APSR_C_Pos)                            /*!< APSR
 284:../system/include/cmsis/stm32l4xx/core_cm4.h **** 
 285:../system/include/cmsis/stm32l4xx/core_cm4.h **** #define APSR_V_Pos                         28U                                            /*!< APSR
 286:../system/include/cmsis/stm32l4xx/core_cm4.h **** #define APSR_V_Msk                         (1UL << APSR_V_Pos)                            /*!< APSR
 287:../system/include/cmsis/stm32l4xx/core_cm4.h **** 
 288:../system/include/cmsis/stm32l4xx/core_cm4.h **** #define APSR_Q_Pos                         27U                                            /*!< APSR
 289:../system/include/cmsis/stm32l4xx/core_cm4.h **** #define APSR_Q_Msk                         (1UL << APSR_Q_Pos)                            /*!< APSR
 290:../system/include/cmsis/stm32l4xx/core_cm4.h **** 
 291:../system/include/cmsis/stm32l4xx/core_cm4.h **** #define APSR_GE_Pos                        16U                                            /*!< APSR
 292:../system/include/cmsis/stm32l4xx/core_cm4.h **** #define APSR_GE_Msk                        (0xFUL << APSR_GE_Pos)                         /*!< APSR
 293:../system/include/cmsis/stm32l4xx/core_cm4.h **** 
 294:../system/include/cmsis/stm32l4xx/core_cm4.h **** 
 295:../system/include/cmsis/stm32l4xx/core_cm4.h **** /**
 296:../system/include/cmsis/stm32l4xx/core_cm4.h ****   \brief  Union type to access the Interrupt Program Status Register (IPSR).
 297:../system/include/cmsis/stm32l4xx/core_cm4.h ****  */
 298:../system/include/cmsis/stm32l4xx/core_cm4.h **** typedef union
 299:../system/include/cmsis/stm32l4xx/core_cm4.h **** {
 300:../system/include/cmsis/stm32l4xx/core_cm4.h ****   struct
 301:../system/include/cmsis/stm32l4xx/core_cm4.h ****   {
 302:../system/include/cmsis/stm32l4xx/core_cm4.h ****     uint32_t ISR:9;                      /*!< bit:  0.. 8  Exception number */
 303:../system/include/cmsis/stm32l4xx/core_cm4.h ****     uint32_t _reserved0:23;              /*!< bit:  9..31  Reserved */
 304:../system/include/cmsis/stm32l4xx/core_cm4.h ****   } b;                                   /*!< Structure used for bit  access */
 305:../system/include/cmsis/stm32l4xx/core_cm4.h ****   uint32_t w;                            /*!< Type      used for word access */
 306:../system/include/cmsis/stm32l4xx/core_cm4.h **** } IPSR_Type;
 307:../system/include/cmsis/stm32l4xx/core_cm4.h **** 
 308:../system/include/cmsis/stm32l4xx/core_cm4.h **** /* IPSR Register Definitions */
 309:../system/include/cmsis/stm32l4xx/core_cm4.h **** #define IPSR_ISR_Pos                        0U                                            /*!< IPSR
 310:../system/include/cmsis/stm32l4xx/core_cm4.h **** #define IPSR_ISR_Msk                       (0x1FFUL /*<< IPSR_ISR_Pos*/)                  /*!< IPSR
 311:../system/include/cmsis/stm32l4xx/core_cm4.h **** 
 312:../system/include/cmsis/stm32l4xx/core_cm4.h **** 
 313:../system/include/cmsis/stm32l4xx/core_cm4.h **** /**
 314:../system/include/cmsis/stm32l4xx/core_cm4.h ****   \brief  Union type to access the Special-Purpose Program Status Registers (xPSR).
 315:../system/include/cmsis/stm32l4xx/core_cm4.h ****  */
 316:../system/include/cmsis/stm32l4xx/core_cm4.h **** typedef union
 317:../system/include/cmsis/stm32l4xx/core_cm4.h **** {
 318:../system/include/cmsis/stm32l4xx/core_cm4.h ****   struct
 319:../system/include/cmsis/stm32l4xx/core_cm4.h ****   {
 320:../system/include/cmsis/stm32l4xx/core_cm4.h ****     uint32_t ISR:9;                      /*!< bit:  0.. 8  Exception number */
 321:../system/include/cmsis/stm32l4xx/core_cm4.h ****     uint32_t _reserved0:1;               /*!< bit:      9  Reserved */
 322:../system/include/cmsis/stm32l4xx/core_cm4.h ****     uint32_t ICI_IT_1:6;                 /*!< bit: 10..15  ICI/IT part 1 */
 323:../system/include/cmsis/stm32l4xx/core_cm4.h ****     uint32_t GE:4;                       /*!< bit: 16..19  Greater than or Equal flags */
 324:../system/include/cmsis/stm32l4xx/core_cm4.h ****     uint32_t _reserved1:4;               /*!< bit: 20..23  Reserved */
 325:../system/include/cmsis/stm32l4xx/core_cm4.h ****     uint32_t T:1;                        /*!< bit:     24  Thumb bit */
 326:../system/include/cmsis/stm32l4xx/core_cm4.h ****     uint32_t ICI_IT_2:2;                 /*!< bit: 25..26  ICI/IT part 2 */
 327:../system/include/cmsis/stm32l4xx/core_cm4.h ****     uint32_t Q:1;                        /*!< bit:     27  Saturation condition flag */
 328:../system/include/cmsis/stm32l4xx/core_cm4.h ****     uint32_t V:1;                        /*!< bit:     28  Overflow condition code flag */
 329:../system/include/cmsis/stm32l4xx/core_cm4.h ****     uint32_t C:1;                        /*!< bit:     29  Carry condition code flag */
 330:../system/include/cmsis/stm32l4xx/core_cm4.h ****     uint32_t Z:1;                        /*!< bit:     30  Zero condition code flag */
 331:../system/include/cmsis/stm32l4xx/core_cm4.h ****     uint32_t N:1;                        /*!< bit:     31  Negative condition code flag */
 332:../system/include/cmsis/stm32l4xx/core_cm4.h ****   } b;                                   /*!< Structure used for bit  access */
 333:../system/include/cmsis/stm32l4xx/core_cm4.h ****   uint32_t w;                            /*!< Type      used for word access */
 334:../system/include/cmsis/stm32l4xx/core_cm4.h **** } xPSR_Type;
 335:../system/include/cmsis/stm32l4xx/core_cm4.h **** 
 336:../system/include/cmsis/stm32l4xx/core_cm4.h **** /* xPSR Register Definitions */
 337:../system/include/cmsis/stm32l4xx/core_cm4.h **** #define xPSR_N_Pos                         31U                                            /*!< xPSR
 338:../system/include/cmsis/stm32l4xx/core_cm4.h **** #define xPSR_N_Msk                         (1UL << xPSR_N_Pos)                            /*!< xPSR
 339:../system/include/cmsis/stm32l4xx/core_cm4.h **** 
 340:../system/include/cmsis/stm32l4xx/core_cm4.h **** #define xPSR_Z_Pos                         30U                                            /*!< xPSR
 341:../system/include/cmsis/stm32l4xx/core_cm4.h **** #define xPSR_Z_Msk                         (1UL << xPSR_Z_Pos)                            /*!< xPSR
 342:../system/include/cmsis/stm32l4xx/core_cm4.h **** 
 343:../system/include/cmsis/stm32l4xx/core_cm4.h **** #define xPSR_C_Pos                         29U                                            /*!< xPSR
 344:../system/include/cmsis/stm32l4xx/core_cm4.h **** #define xPSR_C_Msk                         (1UL << xPSR_C_Pos)                            /*!< xPSR
 345:../system/include/cmsis/stm32l4xx/core_cm4.h **** 
 346:../system/include/cmsis/stm32l4xx/core_cm4.h **** #define xPSR_V_Pos                         28U                                            /*!< xPSR
 347:../system/include/cmsis/stm32l4xx/core_cm4.h **** #define xPSR_V_Msk                         (1UL << xPSR_V_Pos)                            /*!< xPSR
 348:../system/include/cmsis/stm32l4xx/core_cm4.h **** 
 349:../system/include/cmsis/stm32l4xx/core_cm4.h **** #define xPSR_Q_Pos                         27U                                            /*!< xPSR
 350:../system/include/cmsis/stm32l4xx/core_cm4.h **** #define xPSR_Q_Msk                         (1UL << xPSR_Q_Pos)                            /*!< xPSR
 351:../system/include/cmsis/stm32l4xx/core_cm4.h **** 
 352:../system/include/cmsis/stm32l4xx/core_cm4.h **** #define xPSR_ICI_IT_2_Pos                  25U                                            /*!< xPSR
 353:../system/include/cmsis/stm32l4xx/core_cm4.h **** #define xPSR_ICI_IT_2_Msk                  (3UL << xPSR_ICI_IT_2_Pos)                     /*!< xPSR
 354:../system/include/cmsis/stm32l4xx/core_cm4.h **** 
 355:../system/include/cmsis/stm32l4xx/core_cm4.h **** #define xPSR_T_Pos                         24U                                            /*!< xPSR
 356:../system/include/cmsis/stm32l4xx/core_cm4.h **** #define xPSR_T_Msk                         (1UL << xPSR_T_Pos)                            /*!< xPSR
 357:../system/include/cmsis/stm32l4xx/core_cm4.h **** 
 358:../system/include/cmsis/stm32l4xx/core_cm4.h **** #define xPSR_GE_Pos                        16U                                            /*!< xPSR
 359:../system/include/cmsis/stm32l4xx/core_cm4.h **** #define xPSR_GE_Msk                        (0xFUL << xPSR_GE_Pos)                         /*!< xPSR
 360:../system/include/cmsis/stm32l4xx/core_cm4.h **** 
 361:../system/include/cmsis/stm32l4xx/core_cm4.h **** #define xPSR_ICI_IT_1_Pos                  10U                                            /*!< xPSR
 362:../system/include/cmsis/stm32l4xx/core_cm4.h **** #define xPSR_ICI_IT_1_Msk                  (0x3FUL << xPSR_ICI_IT_1_Pos)                  /*!< xPSR
 363:../system/include/cmsis/stm32l4xx/core_cm4.h **** 
 364:../system/include/cmsis/stm32l4xx/core_cm4.h **** #define xPSR_ISR_Pos                        0U                                            /*!< xPSR
 365:../system/include/cmsis/stm32l4xx/core_cm4.h **** #define xPSR_ISR_Msk                       (0x1FFUL /*<< xPSR_ISR_Pos*/)                  /*!< xPSR
 366:../system/include/cmsis/stm32l4xx/core_cm4.h **** 
 367:../system/include/cmsis/stm32l4xx/core_cm4.h **** 
 368:../system/include/cmsis/stm32l4xx/core_cm4.h **** /**
 369:../system/include/cmsis/stm32l4xx/core_cm4.h ****   \brief  Union type to access the Control Registers (CONTROL).
 370:../system/include/cmsis/stm32l4xx/core_cm4.h ****  */
 371:../system/include/cmsis/stm32l4xx/core_cm4.h **** typedef union
 372:../system/include/cmsis/stm32l4xx/core_cm4.h **** {
 373:../system/include/cmsis/stm32l4xx/core_cm4.h ****   struct
 374:../system/include/cmsis/stm32l4xx/core_cm4.h ****   {
 375:../system/include/cmsis/stm32l4xx/core_cm4.h ****     uint32_t nPRIV:1;                    /*!< bit:      0  Execution privilege in Thread mode */
 376:../system/include/cmsis/stm32l4xx/core_cm4.h ****     uint32_t SPSEL:1;                    /*!< bit:      1  Stack to be used */
 377:../system/include/cmsis/stm32l4xx/core_cm4.h ****     uint32_t FPCA:1;                     /*!< bit:      2  FP extension active flag */
 378:../system/include/cmsis/stm32l4xx/core_cm4.h ****     uint32_t _reserved0:29;              /*!< bit:  3..31  Reserved */
 379:../system/include/cmsis/stm32l4xx/core_cm4.h ****   } b;                                   /*!< Structure used for bit  access */
 380:../system/include/cmsis/stm32l4xx/core_cm4.h ****   uint32_t w;                            /*!< Type      used for word access */
 381:../system/include/cmsis/stm32l4xx/core_cm4.h **** } CONTROL_Type;
 382:../system/include/cmsis/stm32l4xx/core_cm4.h **** 
 383:../system/include/cmsis/stm32l4xx/core_cm4.h **** /* CONTROL Register Definitions */
 384:../system/include/cmsis/stm32l4xx/core_cm4.h **** #define CONTROL_FPCA_Pos                    2U                                            /*!< CONT
 385:../system/include/cmsis/stm32l4xx/core_cm4.h **** #define CONTROL_FPCA_Msk                   (1UL << CONTROL_FPCA_Pos)                      /*!< CONT
 386:../system/include/cmsis/stm32l4xx/core_cm4.h **** 
 387:../system/include/cmsis/stm32l4xx/core_cm4.h **** #define CONTROL_SPSEL_Pos                   1U                                            /*!< CONT
 388:../system/include/cmsis/stm32l4xx/core_cm4.h **** #define CONTROL_SPSEL_Msk                  (1UL << CONTROL_SPSEL_Pos)                     /*!< CONT
 389:../system/include/cmsis/stm32l4xx/core_cm4.h **** 
 390:../system/include/cmsis/stm32l4xx/core_cm4.h **** #define CONTROL_nPRIV_Pos                   0U                                            /*!< CONT
 391:../system/include/cmsis/stm32l4xx/core_cm4.h **** #define CONTROL_nPRIV_Msk                  (1UL /*<< CONTROL_nPRIV_Pos*/)                 /*!< CONT
 392:../system/include/cmsis/stm32l4xx/core_cm4.h **** 
 393:../system/include/cmsis/stm32l4xx/core_cm4.h **** /*@} end of group CMSIS_CORE */
 394:../system/include/cmsis/stm32l4xx/core_cm4.h **** 
 395:../system/include/cmsis/stm32l4xx/core_cm4.h **** 
 396:../system/include/cmsis/stm32l4xx/core_cm4.h **** /**
 397:../system/include/cmsis/stm32l4xx/core_cm4.h ****   \ingroup    CMSIS_core_register
 398:../system/include/cmsis/stm32l4xx/core_cm4.h ****   \defgroup   CMSIS_NVIC  Nested Vectored Interrupt Controller (NVIC)
 399:../system/include/cmsis/stm32l4xx/core_cm4.h ****   \brief      Type definitions for the NVIC Registers
 400:../system/include/cmsis/stm32l4xx/core_cm4.h ****   @{
 401:../system/include/cmsis/stm32l4xx/core_cm4.h ****  */
 402:../system/include/cmsis/stm32l4xx/core_cm4.h **** 
 403:../system/include/cmsis/stm32l4xx/core_cm4.h **** /**
 404:../system/include/cmsis/stm32l4xx/core_cm4.h ****   \brief  Structure type to access the Nested Vectored Interrupt Controller (NVIC).
 405:../system/include/cmsis/stm32l4xx/core_cm4.h ****  */
 406:../system/include/cmsis/stm32l4xx/core_cm4.h **** typedef struct
 407:../system/include/cmsis/stm32l4xx/core_cm4.h **** {
 408:../system/include/cmsis/stm32l4xx/core_cm4.h ****   __IOM uint32_t ISER[8U];               /*!< Offset: 0x000 (R/W)  Interrupt Set Enable Register */
 409:../system/include/cmsis/stm32l4xx/core_cm4.h ****         uint32_t RESERVED0[24U];
 410:../system/include/cmsis/stm32l4xx/core_cm4.h ****   __IOM uint32_t ICER[8U];               /*!< Offset: 0x080 (R/W)  Interrupt Clear Enable Register 
 411:../system/include/cmsis/stm32l4xx/core_cm4.h ****         uint32_t RESERVED1[24U];
 412:../system/include/cmsis/stm32l4xx/core_cm4.h ****   __IOM uint32_t ISPR[8U];               /*!< Offset: 0x100 (R/W)  Interrupt Set Pending Register *
 413:../system/include/cmsis/stm32l4xx/core_cm4.h ****         uint32_t RESERVED2[24U];
 414:../system/include/cmsis/stm32l4xx/core_cm4.h ****   __IOM uint32_t ICPR[8U];               /*!< Offset: 0x180 (R/W)  Interrupt Clear Pending Register
 415:../system/include/cmsis/stm32l4xx/core_cm4.h ****         uint32_t RESERVED3[24U];
 416:../system/include/cmsis/stm32l4xx/core_cm4.h ****   __IOM uint32_t IABR[8U];               /*!< Offset: 0x200 (R/W)  Interrupt Active bit Register */
 417:../system/include/cmsis/stm32l4xx/core_cm4.h ****         uint32_t RESERVED4[56U];
 418:../system/include/cmsis/stm32l4xx/core_cm4.h ****   __IOM uint8_t  IP[240U];               /*!< Offset: 0x300 (R/W)  Interrupt Priority Register (8Bi
 419:../system/include/cmsis/stm32l4xx/core_cm4.h ****         uint32_t RESERVED5[644U];
 420:../system/include/cmsis/stm32l4xx/core_cm4.h ****   __OM  uint32_t STIR;                   /*!< Offset: 0xE00 ( /W)  Software Trigger Interrupt Regis
 421:../system/include/cmsis/stm32l4xx/core_cm4.h **** }  NVIC_Type;
 422:../system/include/cmsis/stm32l4xx/core_cm4.h **** 
 423:../system/include/cmsis/stm32l4xx/core_cm4.h **** /* Software Triggered Interrupt Register Definitions */
 424:../system/include/cmsis/stm32l4xx/core_cm4.h **** #define NVIC_STIR_INTID_Pos                 0U                                         /*!< STIR: I
 425:../system/include/cmsis/stm32l4xx/core_cm4.h **** #define NVIC_STIR_INTID_Msk                (0x1FFUL /*<< NVIC_STIR_INTID_Pos*/)        /*!< STIR: I
 426:../system/include/cmsis/stm32l4xx/core_cm4.h **** 
 427:../system/include/cmsis/stm32l4xx/core_cm4.h **** /*@} end of group CMSIS_NVIC */
 428:../system/include/cmsis/stm32l4xx/core_cm4.h **** 
 429:../system/include/cmsis/stm32l4xx/core_cm4.h **** 
 430:../system/include/cmsis/stm32l4xx/core_cm4.h **** /**
 431:../system/include/cmsis/stm32l4xx/core_cm4.h ****   \ingroup  CMSIS_core_register
 432:../system/include/cmsis/stm32l4xx/core_cm4.h ****   \defgroup CMSIS_SCB     System Control Block (SCB)
 433:../system/include/cmsis/stm32l4xx/core_cm4.h ****   \brief    Type definitions for the System Control Block Registers
 434:../system/include/cmsis/stm32l4xx/core_cm4.h ****   @{
 435:../system/include/cmsis/stm32l4xx/core_cm4.h ****  */
 436:../system/include/cmsis/stm32l4xx/core_cm4.h **** 
 437:../system/include/cmsis/stm32l4xx/core_cm4.h **** /**
 438:../system/include/cmsis/stm32l4xx/core_cm4.h ****   \brief  Structure type to access the System Control Block (SCB).
 439:../system/include/cmsis/stm32l4xx/core_cm4.h ****  */
 440:../system/include/cmsis/stm32l4xx/core_cm4.h **** typedef struct
 441:../system/include/cmsis/stm32l4xx/core_cm4.h **** {
 442:../system/include/cmsis/stm32l4xx/core_cm4.h ****   __IM  uint32_t CPUID;                  /*!< Offset: 0x000 (R/ )  CPUID Base Register */
 443:../system/include/cmsis/stm32l4xx/core_cm4.h ****   __IOM uint32_t ICSR;                   /*!< Offset: 0x004 (R/W)  Interrupt Control and State Regi
 444:../system/include/cmsis/stm32l4xx/core_cm4.h ****   __IOM uint32_t VTOR;                   /*!< Offset: 0x008 (R/W)  Vector Table Offset Register */
 445:../system/include/cmsis/stm32l4xx/core_cm4.h ****   __IOM uint32_t AIRCR;                  /*!< Offset: 0x00C (R/W)  Application Interrupt and Reset 
 446:../system/include/cmsis/stm32l4xx/core_cm4.h ****   __IOM uint32_t SCR;                    /*!< Offset: 0x010 (R/W)  System Control Register */
 447:../system/include/cmsis/stm32l4xx/core_cm4.h ****   __IOM uint32_t CCR;                    /*!< Offset: 0x014 (R/W)  Configuration Control Register *
 448:../system/include/cmsis/stm32l4xx/core_cm4.h ****   __IOM uint8_t  SHP[12U];               /*!< Offset: 0x018 (R/W)  System Handlers Priority Registe
 449:../system/include/cmsis/stm32l4xx/core_cm4.h ****   __IOM uint32_t SHCSR;                  /*!< Offset: 0x024 (R/W)  System Handler Control and State
 450:../system/include/cmsis/stm32l4xx/core_cm4.h ****   __IOM uint32_t CFSR;                   /*!< Offset: 0x028 (R/W)  Configurable Fault Status Regist
 451:../system/include/cmsis/stm32l4xx/core_cm4.h ****   __IOM uint32_t HFSR;                   /*!< Offset: 0x02C (R/W)  HardFault Status Register */
 452:../system/include/cmsis/stm32l4xx/core_cm4.h ****   __IOM uint32_t DFSR;                   /*!< Offset: 0x030 (R/W)  Debug Fault Status Register */
 453:../system/include/cmsis/stm32l4xx/core_cm4.h ****   __IOM uint32_t MMFAR;                  /*!< Offset: 0x034 (R/W)  MemManage Fault Address Register
 454:../system/include/cmsis/stm32l4xx/core_cm4.h ****   __IOM uint32_t BFAR;                   /*!< Offset: 0x038 (R/W)  BusFault Address Register */
 455:../system/include/cmsis/stm32l4xx/core_cm4.h ****   __IOM uint32_t AFSR;                   /*!< Offset: 0x03C (R/W)  Auxiliary Fault Status Register 
 456:../system/include/cmsis/stm32l4xx/core_cm4.h ****   __IM  uint32_t PFR[2U];                /*!< Offset: 0x040 (R/ )  Processor Feature Register */
 457:../system/include/cmsis/stm32l4xx/core_cm4.h ****   __IM  uint32_t DFR;                    /*!< Offset: 0x048 (R/ )  Debug Feature Register */
 458:../system/include/cmsis/stm32l4xx/core_cm4.h ****   __IM  uint32_t ADR;                    /*!< Offset: 0x04C (R/ )  Auxiliary Feature Register */
 459:../system/include/cmsis/stm32l4xx/core_cm4.h ****   __IM  uint32_t MMFR[4U];               /*!< Offset: 0x050 (R/ )  Memory Model Feature Register */
 460:../system/include/cmsis/stm32l4xx/core_cm4.h ****   __IM  uint32_t ISAR[5U];               /*!< Offset: 0x060 (R/ )  Instruction Set Attributes Regis
 461:../system/include/cmsis/stm32l4xx/core_cm4.h ****         uint32_t RESERVED0[5U];
 462:../system/include/cmsis/stm32l4xx/core_cm4.h ****   __IOM uint32_t CPACR;                  /*!< Offset: 0x088 (R/W)  Coprocessor Access Control Regis
 463:../system/include/cmsis/stm32l4xx/core_cm4.h **** } SCB_Type;
 464:../system/include/cmsis/stm32l4xx/core_cm4.h **** 
 465:../system/include/cmsis/stm32l4xx/core_cm4.h **** /* SCB CPUID Register Definitions */
 466:../system/include/cmsis/stm32l4xx/core_cm4.h **** #define SCB_CPUID_IMPLEMENTER_Pos          24U                                            /*!< SCB 
 467:../system/include/cmsis/stm32l4xx/core_cm4.h **** #define SCB_CPUID_IMPLEMENTER_Msk          (0xFFUL << SCB_CPUID_IMPLEMENTER_Pos)          /*!< SCB 
 468:../system/include/cmsis/stm32l4xx/core_cm4.h **** 
 469:../system/include/cmsis/stm32l4xx/core_cm4.h **** #define SCB_CPUID_VARIANT_Pos              20U                                            /*!< SCB 
 470:../system/include/cmsis/stm32l4xx/core_cm4.h **** #define SCB_CPUID_VARIANT_Msk              (0xFUL << SCB_CPUID_VARIANT_Pos)               /*!< SCB 
 471:../system/include/cmsis/stm32l4xx/core_cm4.h **** 
 472:../system/include/cmsis/stm32l4xx/core_cm4.h **** #define SCB_CPUID_ARCHITECTURE_Pos         16U                                            /*!< SCB 
 473:../system/include/cmsis/stm32l4xx/core_cm4.h **** #define SCB_CPUID_ARCHITECTURE_Msk         (0xFUL << SCB_CPUID_ARCHITECTURE_Pos)          /*!< SCB 
 474:../system/include/cmsis/stm32l4xx/core_cm4.h **** 
 475:../system/include/cmsis/stm32l4xx/core_cm4.h **** #define SCB_CPUID_PARTNO_Pos                4U                                            /*!< SCB 
 476:../system/include/cmsis/stm32l4xx/core_cm4.h **** #define SCB_CPUID_PARTNO_Msk               (0xFFFUL << SCB_CPUID_PARTNO_Pos)              /*!< SCB 
 477:../system/include/cmsis/stm32l4xx/core_cm4.h **** 
 478:../system/include/cmsis/stm32l4xx/core_cm4.h **** #define SCB_CPUID_REVISION_Pos              0U                                            /*!< SCB 
 479:../system/include/cmsis/stm32l4xx/core_cm4.h **** #define SCB_CPUID_REVISION_Msk             (0xFUL /*<< SCB_CPUID_REVISION_Pos*/)          /*!< SCB 
 480:../system/include/cmsis/stm32l4xx/core_cm4.h **** 
 481:../system/include/cmsis/stm32l4xx/core_cm4.h **** /* SCB Interrupt Control State Register Definitions */
 482:../system/include/cmsis/stm32l4xx/core_cm4.h **** #define SCB_ICSR_NMIPENDSET_Pos            31U                                            /*!< SCB 
 483:../system/include/cmsis/stm32l4xx/core_cm4.h **** #define SCB_ICSR_NMIPENDSET_Msk            (1UL << SCB_ICSR_NMIPENDSET_Pos)               /*!< SCB 
 484:../system/include/cmsis/stm32l4xx/core_cm4.h **** 
 485:../system/include/cmsis/stm32l4xx/core_cm4.h **** #define SCB_ICSR_PENDSVSET_Pos             28U                                            /*!< SCB 
 486:../system/include/cmsis/stm32l4xx/core_cm4.h **** #define SCB_ICSR_PENDSVSET_Msk             (1UL << SCB_ICSR_PENDSVSET_Pos)                /*!< SCB 
 487:../system/include/cmsis/stm32l4xx/core_cm4.h **** 
 488:../system/include/cmsis/stm32l4xx/core_cm4.h **** #define SCB_ICSR_PENDSVCLR_Pos             27U                                            /*!< SCB 
 489:../system/include/cmsis/stm32l4xx/core_cm4.h **** #define SCB_ICSR_PENDSVCLR_Msk             (1UL << SCB_ICSR_PENDSVCLR_Pos)                /*!< SCB 
 490:../system/include/cmsis/stm32l4xx/core_cm4.h **** 
 491:../system/include/cmsis/stm32l4xx/core_cm4.h **** #define SCB_ICSR_PENDSTSET_Pos             26U                                            /*!< SCB 
 492:../system/include/cmsis/stm32l4xx/core_cm4.h **** #define SCB_ICSR_PENDSTSET_Msk             (1UL << SCB_ICSR_PENDSTSET_Pos)                /*!< SCB 
 493:../system/include/cmsis/stm32l4xx/core_cm4.h **** 
 494:../system/include/cmsis/stm32l4xx/core_cm4.h **** #define SCB_ICSR_PENDSTCLR_Pos             25U                                            /*!< SCB 
 495:../system/include/cmsis/stm32l4xx/core_cm4.h **** #define SCB_ICSR_PENDSTCLR_Msk             (1UL << SCB_ICSR_PENDSTCLR_Pos)                /*!< SCB 
 496:../system/include/cmsis/stm32l4xx/core_cm4.h **** 
 497:../system/include/cmsis/stm32l4xx/core_cm4.h **** #define SCB_ICSR_ISRPREEMPT_Pos            23U                                            /*!< SCB 
 498:../system/include/cmsis/stm32l4xx/core_cm4.h **** #define SCB_ICSR_ISRPREEMPT_Msk            (1UL << SCB_ICSR_ISRPREEMPT_Pos)               /*!< SCB 
 499:../system/include/cmsis/stm32l4xx/core_cm4.h **** 
 500:../system/include/cmsis/stm32l4xx/core_cm4.h **** #define SCB_ICSR_ISRPENDING_Pos            22U                                            /*!< SCB 
 501:../system/include/cmsis/stm32l4xx/core_cm4.h **** #define SCB_ICSR_ISRPENDING_Msk            (1UL << SCB_ICSR_ISRPENDING_Pos)               /*!< SCB 
 502:../system/include/cmsis/stm32l4xx/core_cm4.h **** 
 503:../system/include/cmsis/stm32l4xx/core_cm4.h **** #define SCB_ICSR_VECTPENDING_Pos           12U                                            /*!< SCB 
 504:../system/include/cmsis/stm32l4xx/core_cm4.h **** #define SCB_ICSR_VECTPENDING_Msk           (0x1FFUL << SCB_ICSR_VECTPENDING_Pos)          /*!< SCB 
 505:../system/include/cmsis/stm32l4xx/core_cm4.h **** 
 506:../system/include/cmsis/stm32l4xx/core_cm4.h **** #define SCB_ICSR_RETTOBASE_Pos             11U                                            /*!< SCB 
 507:../system/include/cmsis/stm32l4xx/core_cm4.h **** #define SCB_ICSR_RETTOBASE_Msk             (1UL << SCB_ICSR_RETTOBASE_Pos)                /*!< SCB 
 508:../system/include/cmsis/stm32l4xx/core_cm4.h **** 
 509:../system/include/cmsis/stm32l4xx/core_cm4.h **** #define SCB_ICSR_VECTACTIVE_Pos             0U                                            /*!< SCB 
 510:../system/include/cmsis/stm32l4xx/core_cm4.h **** #define SCB_ICSR_VECTACTIVE_Msk            (0x1FFUL /*<< SCB_ICSR_VECTACTIVE_Pos*/)       /*!< SCB 
 511:../system/include/cmsis/stm32l4xx/core_cm4.h **** 
 512:../system/include/cmsis/stm32l4xx/core_cm4.h **** /* SCB Vector Table Offset Register Definitions */
 513:../system/include/cmsis/stm32l4xx/core_cm4.h **** #define SCB_VTOR_TBLOFF_Pos                 7U                                            /*!< SCB 
 514:../system/include/cmsis/stm32l4xx/core_cm4.h **** #define SCB_VTOR_TBLOFF_Msk                (0x1FFFFFFUL << SCB_VTOR_TBLOFF_Pos)           /*!< SCB 
 515:../system/include/cmsis/stm32l4xx/core_cm4.h **** 
 516:../system/include/cmsis/stm32l4xx/core_cm4.h **** /* SCB Application Interrupt and Reset Control Register Definitions */
 517:../system/include/cmsis/stm32l4xx/core_cm4.h **** #define SCB_AIRCR_VECTKEY_Pos              16U                                            /*!< SCB 
 518:../system/include/cmsis/stm32l4xx/core_cm4.h **** #define SCB_AIRCR_VECTKEY_Msk              (0xFFFFUL << SCB_AIRCR_VECTKEY_Pos)            /*!< SCB 
 519:../system/include/cmsis/stm32l4xx/core_cm4.h **** 
 520:../system/include/cmsis/stm32l4xx/core_cm4.h **** #define SCB_AIRCR_VECTKEYSTAT_Pos          16U                                            /*!< SCB 
 521:../system/include/cmsis/stm32l4xx/core_cm4.h **** #define SCB_AIRCR_VECTKEYSTAT_Msk          (0xFFFFUL << SCB_AIRCR_VECTKEYSTAT_Pos)        /*!< SCB 
 522:../system/include/cmsis/stm32l4xx/core_cm4.h **** 
 523:../system/include/cmsis/stm32l4xx/core_cm4.h **** #define SCB_AIRCR_ENDIANESS_Pos            15U                                            /*!< SCB 
 524:../system/include/cmsis/stm32l4xx/core_cm4.h **** #define SCB_AIRCR_ENDIANESS_Msk            (1UL << SCB_AIRCR_ENDIANESS_Pos)               /*!< SCB 
 525:../system/include/cmsis/stm32l4xx/core_cm4.h **** 
 526:../system/include/cmsis/stm32l4xx/core_cm4.h **** #define SCB_AIRCR_PRIGROUP_Pos              8U                                            /*!< SCB 
 527:../system/include/cmsis/stm32l4xx/core_cm4.h **** #define SCB_AIRCR_PRIGROUP_Msk             (7UL << SCB_AIRCR_PRIGROUP_Pos)                /*!< SCB 
 528:../system/include/cmsis/stm32l4xx/core_cm4.h **** 
 529:../system/include/cmsis/stm32l4xx/core_cm4.h **** #define SCB_AIRCR_SYSRESETREQ_Pos           2U                                            /*!< SCB 
 530:../system/include/cmsis/stm32l4xx/core_cm4.h **** #define SCB_AIRCR_SYSRESETREQ_Msk          (1UL << SCB_AIRCR_SYSRESETREQ_Pos)             /*!< SCB 
 531:../system/include/cmsis/stm32l4xx/core_cm4.h **** 
 532:../system/include/cmsis/stm32l4xx/core_cm4.h **** #define SCB_AIRCR_VECTCLRACTIVE_Pos         1U                                            /*!< SCB 
 533:../system/include/cmsis/stm32l4xx/core_cm4.h **** #define SCB_AIRCR_VECTCLRACTIVE_Msk        (1UL << SCB_AIRCR_VECTCLRACTIVE_Pos)           /*!< SCB 
 534:../system/include/cmsis/stm32l4xx/core_cm4.h **** 
 535:../system/include/cmsis/stm32l4xx/core_cm4.h **** #define SCB_AIRCR_VECTRESET_Pos             0U                                            /*!< SCB 
 536:../system/include/cmsis/stm32l4xx/core_cm4.h **** #define SCB_AIRCR_VECTRESET_Msk            (1UL /*<< SCB_AIRCR_VECTRESET_Pos*/)           /*!< SCB 
 537:../system/include/cmsis/stm32l4xx/core_cm4.h **** 
 538:../system/include/cmsis/stm32l4xx/core_cm4.h **** /* SCB System Control Register Definitions */
 539:../system/include/cmsis/stm32l4xx/core_cm4.h **** #define SCB_SCR_SEVONPEND_Pos               4U                                            /*!< SCB 
 540:../system/include/cmsis/stm32l4xx/core_cm4.h **** #define SCB_SCR_SEVONPEND_Msk              (1UL << SCB_SCR_SEVONPEND_Pos)                 /*!< SCB 
 541:../system/include/cmsis/stm32l4xx/core_cm4.h **** 
 542:../system/include/cmsis/stm32l4xx/core_cm4.h **** #define SCB_SCR_SLEEPDEEP_Pos               2U                                            /*!< SCB 
 543:../system/include/cmsis/stm32l4xx/core_cm4.h **** #define SCB_SCR_SLEEPDEEP_Msk              (1UL << SCB_SCR_SLEEPDEEP_Pos)                 /*!< SCB 
 544:../system/include/cmsis/stm32l4xx/core_cm4.h **** 
 545:../system/include/cmsis/stm32l4xx/core_cm4.h **** #define SCB_SCR_SLEEPONEXIT_Pos             1U                                            /*!< SCB 
 546:../system/include/cmsis/stm32l4xx/core_cm4.h **** #define SCB_SCR_SLEEPONEXIT_Msk            (1UL << SCB_SCR_SLEEPONEXIT_Pos)               /*!< SCB 
 547:../system/include/cmsis/stm32l4xx/core_cm4.h **** 
 548:../system/include/cmsis/stm32l4xx/core_cm4.h **** /* SCB Configuration Control Register Definitions */
 549:../system/include/cmsis/stm32l4xx/core_cm4.h **** #define SCB_CCR_STKALIGN_Pos                9U                                            /*!< SCB 
 550:../system/include/cmsis/stm32l4xx/core_cm4.h **** #define SCB_CCR_STKALIGN_Msk               (1UL << SCB_CCR_STKALIGN_Pos)                  /*!< SCB 
 551:../system/include/cmsis/stm32l4xx/core_cm4.h **** 
 552:../system/include/cmsis/stm32l4xx/core_cm4.h **** #define SCB_CCR_BFHFNMIGN_Pos               8U                                            /*!< SCB 
 553:../system/include/cmsis/stm32l4xx/core_cm4.h **** #define SCB_CCR_BFHFNMIGN_Msk              (1UL << SCB_CCR_BFHFNMIGN_Pos)                 /*!< SCB 
 554:../system/include/cmsis/stm32l4xx/core_cm4.h **** 
 555:../system/include/cmsis/stm32l4xx/core_cm4.h **** #define SCB_CCR_DIV_0_TRP_Pos               4U                                            /*!< SCB 
 556:../system/include/cmsis/stm32l4xx/core_cm4.h **** #define SCB_CCR_DIV_0_TRP_Msk              (1UL << SCB_CCR_DIV_0_TRP_Pos)                 /*!< SCB 
 557:../system/include/cmsis/stm32l4xx/core_cm4.h **** 
 558:../system/include/cmsis/stm32l4xx/core_cm4.h **** #define SCB_CCR_UNALIGN_TRP_Pos             3U                                            /*!< SCB 
 559:../system/include/cmsis/stm32l4xx/core_cm4.h **** #define SCB_CCR_UNALIGN_TRP_Msk            (1UL << SCB_CCR_UNALIGN_TRP_Pos)               /*!< SCB 
 560:../system/include/cmsis/stm32l4xx/core_cm4.h **** 
 561:../system/include/cmsis/stm32l4xx/core_cm4.h **** #define SCB_CCR_USERSETMPEND_Pos            1U                                            /*!< SCB 
 562:../system/include/cmsis/stm32l4xx/core_cm4.h **** #define SCB_CCR_USERSETMPEND_Msk           (1UL << SCB_CCR_USERSETMPEND_Pos)              /*!< SCB 
 563:../system/include/cmsis/stm32l4xx/core_cm4.h **** 
 564:../system/include/cmsis/stm32l4xx/core_cm4.h **** #define SCB_CCR_NONBASETHRDENA_Pos          0U                                            /*!< SCB 
 565:../system/include/cmsis/stm32l4xx/core_cm4.h **** #define SCB_CCR_NONBASETHRDENA_Msk         (1UL /*<< SCB_CCR_NONBASETHRDENA_Pos*/)        /*!< SCB 
 566:../system/include/cmsis/stm32l4xx/core_cm4.h **** 
 567:../system/include/cmsis/stm32l4xx/core_cm4.h **** /* SCB System Handler Control and State Register Definitions */
 568:../system/include/cmsis/stm32l4xx/core_cm4.h **** #define SCB_SHCSR_USGFAULTENA_Pos          18U                                            /*!< SCB 
 569:../system/include/cmsis/stm32l4xx/core_cm4.h **** #define SCB_SHCSR_USGFAULTENA_Msk          (1UL << SCB_SHCSR_USGFAULTENA_Pos)             /*!< SCB 
 570:../system/include/cmsis/stm32l4xx/core_cm4.h **** 
 571:../system/include/cmsis/stm32l4xx/core_cm4.h **** #define SCB_SHCSR_BUSFAULTENA_Pos          17U                                            /*!< SCB 
 572:../system/include/cmsis/stm32l4xx/core_cm4.h **** #define SCB_SHCSR_BUSFAULTENA_Msk          (1UL << SCB_SHCSR_BUSFAULTENA_Pos)             /*!< SCB 
 573:../system/include/cmsis/stm32l4xx/core_cm4.h **** 
 574:../system/include/cmsis/stm32l4xx/core_cm4.h **** #define SCB_SHCSR_MEMFAULTENA_Pos          16U                                            /*!< SCB 
 575:../system/include/cmsis/stm32l4xx/core_cm4.h **** #define SCB_SHCSR_MEMFAULTENA_Msk          (1UL << SCB_SHCSR_MEMFAULTENA_Pos)             /*!< SCB 
 576:../system/include/cmsis/stm32l4xx/core_cm4.h **** 
 577:../system/include/cmsis/stm32l4xx/core_cm4.h **** #define SCB_SHCSR_SVCALLPENDED_Pos         15U                                            /*!< SCB 
 578:../system/include/cmsis/stm32l4xx/core_cm4.h **** #define SCB_SHCSR_SVCALLPENDED_Msk         (1UL << SCB_SHCSR_SVCALLPENDED_Pos)            /*!< SCB 
 579:../system/include/cmsis/stm32l4xx/core_cm4.h **** 
 580:../system/include/cmsis/stm32l4xx/core_cm4.h **** #define SCB_SHCSR_BUSFAULTPENDED_Pos       14U                                            /*!< SCB 
 581:../system/include/cmsis/stm32l4xx/core_cm4.h **** #define SCB_SHCSR_BUSFAULTPENDED_Msk       (1UL << SCB_SHCSR_BUSFAULTPENDED_Pos)          /*!< SCB 
 582:../system/include/cmsis/stm32l4xx/core_cm4.h **** 
 583:../system/include/cmsis/stm32l4xx/core_cm4.h **** #define SCB_SHCSR_MEMFAULTPENDED_Pos       13U                                            /*!< SCB 
 584:../system/include/cmsis/stm32l4xx/core_cm4.h **** #define SCB_SHCSR_MEMFAULTPENDED_Msk       (1UL << SCB_SHCSR_MEMFAULTPENDED_Pos)          /*!< SCB 
 585:../system/include/cmsis/stm32l4xx/core_cm4.h **** 
 586:../system/include/cmsis/stm32l4xx/core_cm4.h **** #define SCB_SHCSR_USGFAULTPENDED_Pos       12U                                            /*!< SCB 
 587:../system/include/cmsis/stm32l4xx/core_cm4.h **** #define SCB_SHCSR_USGFAULTPENDED_Msk       (1UL << SCB_SHCSR_USGFAULTPENDED_Pos)          /*!< SCB 
 588:../system/include/cmsis/stm32l4xx/core_cm4.h **** 
 589:../system/include/cmsis/stm32l4xx/core_cm4.h **** #define SCB_SHCSR_SYSTICKACT_Pos           11U                                            /*!< SCB 
 590:../system/include/cmsis/stm32l4xx/core_cm4.h **** #define SCB_SHCSR_SYSTICKACT_Msk           (1UL << SCB_SHCSR_SYSTICKACT_Pos)              /*!< SCB 
 591:../system/include/cmsis/stm32l4xx/core_cm4.h **** 
 592:../system/include/cmsis/stm32l4xx/core_cm4.h **** #define SCB_SHCSR_PENDSVACT_Pos            10U                                            /*!< SCB 
 593:../system/include/cmsis/stm32l4xx/core_cm4.h **** #define SCB_SHCSR_PENDSVACT_Msk            (1UL << SCB_SHCSR_PENDSVACT_Pos)               /*!< SCB 
 594:../system/include/cmsis/stm32l4xx/core_cm4.h **** 
 595:../system/include/cmsis/stm32l4xx/core_cm4.h **** #define SCB_SHCSR_MONITORACT_Pos            8U                                            /*!< SCB 
 596:../system/include/cmsis/stm32l4xx/core_cm4.h **** #define SCB_SHCSR_MONITORACT_Msk           (1UL << SCB_SHCSR_MONITORACT_Pos)              /*!< SCB 
 597:../system/include/cmsis/stm32l4xx/core_cm4.h **** 
 598:../system/include/cmsis/stm32l4xx/core_cm4.h **** #define SCB_SHCSR_SVCALLACT_Pos             7U                                            /*!< SCB 
 599:../system/include/cmsis/stm32l4xx/core_cm4.h **** #define SCB_SHCSR_SVCALLACT_Msk            (1UL << SCB_SHCSR_SVCALLACT_Pos)               /*!< SCB 
 600:../system/include/cmsis/stm32l4xx/core_cm4.h **** 
 601:../system/include/cmsis/stm32l4xx/core_cm4.h **** #define SCB_SHCSR_USGFAULTACT_Pos           3U                                            /*!< SCB 
 602:../system/include/cmsis/stm32l4xx/core_cm4.h **** #define SCB_SHCSR_USGFAULTACT_Msk          (1UL << SCB_SHCSR_USGFAULTACT_Pos)             /*!< SCB 
 603:../system/include/cmsis/stm32l4xx/core_cm4.h **** 
 604:../system/include/cmsis/stm32l4xx/core_cm4.h **** #define SCB_SHCSR_BUSFAULTACT_Pos           1U                                            /*!< SCB 
 605:../system/include/cmsis/stm32l4xx/core_cm4.h **** #define SCB_SHCSR_BUSFAULTACT_Msk          (1UL << SCB_SHCSR_BUSFAULTACT_Pos)             /*!< SCB 
 606:../system/include/cmsis/stm32l4xx/core_cm4.h **** 
 607:../system/include/cmsis/stm32l4xx/core_cm4.h **** #define SCB_SHCSR_MEMFAULTACT_Pos           0U                                            /*!< SCB 
 608:../system/include/cmsis/stm32l4xx/core_cm4.h **** #define SCB_SHCSR_MEMFAULTACT_Msk          (1UL /*<< SCB_SHCSR_MEMFAULTACT_Pos*/)         /*!< SCB 
 609:../system/include/cmsis/stm32l4xx/core_cm4.h **** 
 610:../system/include/cmsis/stm32l4xx/core_cm4.h **** /* SCB Configurable Fault Status Register Definitions */
 611:../system/include/cmsis/stm32l4xx/core_cm4.h **** #define SCB_CFSR_USGFAULTSR_Pos            16U                                            /*!< SCB 
 612:../system/include/cmsis/stm32l4xx/core_cm4.h **** #define SCB_CFSR_USGFAULTSR_Msk            (0xFFFFUL << SCB_CFSR_USGFAULTSR_Pos)          /*!< SCB 
 613:../system/include/cmsis/stm32l4xx/core_cm4.h **** 
 614:../system/include/cmsis/stm32l4xx/core_cm4.h **** #define SCB_CFSR_BUSFAULTSR_Pos             8U                                            /*!< SCB 
 615:../system/include/cmsis/stm32l4xx/core_cm4.h **** #define SCB_CFSR_BUSFAULTSR_Msk            (0xFFUL << SCB_CFSR_BUSFAULTSR_Pos)            /*!< SCB 
 616:../system/include/cmsis/stm32l4xx/core_cm4.h **** 
 617:../system/include/cmsis/stm32l4xx/core_cm4.h **** #define SCB_CFSR_MEMFAULTSR_Pos             0U                                            /*!< SCB 
 618:../system/include/cmsis/stm32l4xx/core_cm4.h **** #define SCB_CFSR_MEMFAULTSR_Msk            (0xFFUL /*<< SCB_CFSR_MEMFAULTSR_Pos*/)        /*!< SCB 
 619:../system/include/cmsis/stm32l4xx/core_cm4.h **** 
 620:../system/include/cmsis/stm32l4xx/core_cm4.h **** /* MemManage Fault Status Register (part of SCB Configurable Fault Status Register) */
 621:../system/include/cmsis/stm32l4xx/core_cm4.h **** #define SCB_CFSR_MMARVALID_Pos             (SCB_SHCSR_MEMFAULTACT_Pos + 7U)               /*!< SCB 
 622:../system/include/cmsis/stm32l4xx/core_cm4.h **** #define SCB_CFSR_MMARVALID_Msk             (1UL << SCB_CFSR_MMARVALID_Pos)                /*!< SCB 
 623:../system/include/cmsis/stm32l4xx/core_cm4.h **** 
 624:../system/include/cmsis/stm32l4xx/core_cm4.h **** #define SCB_CFSR_MLSPERR_Pos               (SCB_SHCSR_MEMFAULTACT_Pos + 5U)               /*!< SCB 
 625:../system/include/cmsis/stm32l4xx/core_cm4.h **** #define SCB_CFSR_MLSPERR_Msk               (1UL << SCB_CFSR_MLSPERR_Pos)                  /*!< SCB 
 626:../system/include/cmsis/stm32l4xx/core_cm4.h **** 
 627:../system/include/cmsis/stm32l4xx/core_cm4.h **** #define SCB_CFSR_MSTKERR_Pos               (SCB_SHCSR_MEMFAULTACT_Pos + 4U)               /*!< SCB 
 628:../system/include/cmsis/stm32l4xx/core_cm4.h **** #define SCB_CFSR_MSTKERR_Msk               (1UL << SCB_CFSR_MSTKERR_Pos)                  /*!< SCB 
 629:../system/include/cmsis/stm32l4xx/core_cm4.h **** 
 630:../system/include/cmsis/stm32l4xx/core_cm4.h **** #define SCB_CFSR_MUNSTKERR_Pos             (SCB_SHCSR_MEMFAULTACT_Pos + 3U)               /*!< SCB 
 631:../system/include/cmsis/stm32l4xx/core_cm4.h **** #define SCB_CFSR_MUNSTKERR_Msk             (1UL << SCB_CFSR_MUNSTKERR_Pos)                /*!< SCB 
 632:../system/include/cmsis/stm32l4xx/core_cm4.h **** 
 633:../system/include/cmsis/stm32l4xx/core_cm4.h **** #define SCB_CFSR_DACCVIOL_Pos              (SCB_SHCSR_MEMFAULTACT_Pos + 1U)               /*!< SCB 
 634:../system/include/cmsis/stm32l4xx/core_cm4.h **** #define SCB_CFSR_DACCVIOL_Msk              (1UL << SCB_CFSR_DACCVIOL_Pos)                 /*!< SCB 
 635:../system/include/cmsis/stm32l4xx/core_cm4.h **** 
 636:../system/include/cmsis/stm32l4xx/core_cm4.h **** #define SCB_CFSR_IACCVIOL_Pos              (SCB_SHCSR_MEMFAULTACT_Pos + 0U)               /*!< SCB 
 637:../system/include/cmsis/stm32l4xx/core_cm4.h **** #define SCB_CFSR_IACCVIOL_Msk              (1UL /*<< SCB_CFSR_IACCVIOL_Pos*/)             /*!< SCB 
 638:../system/include/cmsis/stm32l4xx/core_cm4.h **** 
 639:../system/include/cmsis/stm32l4xx/core_cm4.h **** /* BusFault Status Register (part of SCB Configurable Fault Status Register) */
 640:../system/include/cmsis/stm32l4xx/core_cm4.h **** #define SCB_CFSR_BFARVALID_Pos            (SCB_CFSR_BUSFAULTSR_Pos + 7U)                  /*!< SCB 
 641:../system/include/cmsis/stm32l4xx/core_cm4.h **** #define SCB_CFSR_BFARVALID_Msk            (1UL << SCB_CFSR_BFARVALID_Pos)                 /*!< SCB 
 642:../system/include/cmsis/stm32l4xx/core_cm4.h **** 
 643:../system/include/cmsis/stm32l4xx/core_cm4.h **** #define SCB_CFSR_LSPERR_Pos               (SCB_CFSR_BUSFAULTSR_Pos + 5U)                  /*!< SCB 
 644:../system/include/cmsis/stm32l4xx/core_cm4.h **** #define SCB_CFSR_LSPERR_Msk               (1UL << SCB_CFSR_LSPERR_Pos)                    /*!< SCB 
 645:../system/include/cmsis/stm32l4xx/core_cm4.h **** 
 646:../system/include/cmsis/stm32l4xx/core_cm4.h **** #define SCB_CFSR_STKERR_Pos               (SCB_CFSR_BUSFAULTSR_Pos + 4U)                  /*!< SCB 
 647:../system/include/cmsis/stm32l4xx/core_cm4.h **** #define SCB_CFSR_STKERR_Msk               (1UL << SCB_CFSR_STKERR_Pos)                    /*!< SCB 
 648:../system/include/cmsis/stm32l4xx/core_cm4.h **** 
 649:../system/include/cmsis/stm32l4xx/core_cm4.h **** #define SCB_CFSR_UNSTKERR_Pos             (SCB_CFSR_BUSFAULTSR_Pos + 3U)                  /*!< SCB 
 650:../system/include/cmsis/stm32l4xx/core_cm4.h **** #define SCB_CFSR_UNSTKERR_Msk             (1UL << SCB_CFSR_UNSTKERR_Pos)                  /*!< SCB 
 651:../system/include/cmsis/stm32l4xx/core_cm4.h **** 
 652:../system/include/cmsis/stm32l4xx/core_cm4.h **** #define SCB_CFSR_IMPRECISERR_Pos          (SCB_CFSR_BUSFAULTSR_Pos + 2U)                  /*!< SCB 
 653:../system/include/cmsis/stm32l4xx/core_cm4.h **** #define SCB_CFSR_IMPRECISERR_Msk          (1UL << SCB_CFSR_IMPRECISERR_Pos)               /*!< SCB 
 654:../system/include/cmsis/stm32l4xx/core_cm4.h **** 
 655:../system/include/cmsis/stm32l4xx/core_cm4.h **** #define SCB_CFSR_PRECISERR_Pos            (SCB_CFSR_BUSFAULTSR_Pos + 1U)                  /*!< SCB 
