   1              		.cpu cortex-m4
   2              		.eabi_attribute 27, 1
   3              		.eabi_attribute 28, 1
   4              		.eabi_attribute 20, 1
   5              		.eabi_attribute 21, 1
   6              		.eabi_attribute 23, 3
   7              		.eabi_attribute 24, 1
   8              		.eabi_attribute 25, 1
   9              		.eabi_attribute 26, 1
  10              		.eabi_attribute 30, 1
  11              		.eabi_attribute 34, 1
  12              		.eabi_attribute 18, 4
  13              		.file	"rte_wx.c"
  14              		.text
  15              	.Ltext0:
  16              		.cfi_sections	.debug_frame
  17              		.section	.text.rte_wx_init,"ax",%progbits
  18              		.align	1
  19              		.global	rte_wx_init
  20              		.syntax unified
  21              		.thumb
  22              		.thumb_func
  23              		.fpu fpv4-sp-d16
  25              	rte_wx_init:
  26              	.LFB397:
  27              		.file 1 "../src/rte_wx.c"
   1:../src/rte_wx.c **** /*
   2:../src/rte_wx.c ****  * rte_wx.c
   3:../src/rte_wx.c ****  *
   4:../src/rte_wx.c ****  *  Created on: 26.01.2019
   5:../src/rte_wx.c ****  *      Author: mateusz
   6:../src/rte_wx.c ****  */
   7:../src/rte_wx.c **** 
   8:../src/rte_wx.c **** 
   9:../src/rte_wx.c **** #include <rte_wx.h>
  10:../src/rte_wx.c **** #include <wx_handler.h>
  11:../src/rte_wx.c **** #include "main.h"
  12:../src/rte_wx.c **** 
  13:../src/rte_wx.c **** 
  14:../src/rte_wx.c **** float rte_wx_temperature_external = 0.0f, rte_wx_temperature_external_valid = 0.0f;
  15:../src/rte_wx.c **** float rte_wx_temperature_external_slew_rate = 0.0f;
  16:../src/rte_wx.c **** float rte_wx_temperature_average_external_valid = 0.0f;
  17:../src/rte_wx.c **** float rte_wx_temperature_min_external_valid = 0.0f, rte_wx_temperature_max_external_valid = 0.0f;
  18:../src/rte_wx.c **** float rte_wx_temperature_internal = 0.0f, rte_wx_temperature_internal_valid = 0.0f;
  19:../src/rte_wx.c **** float rte_wx_pressure = 0.0f, rte_wx_pressure_valid = 0.0f;
  20:../src/rte_wx.c **** float rte_wx_pressure_history[PRESSURE_AVERAGE_LN];
  21:../src/rte_wx.c **** uint8_t rte_wx_pressure_it;
  22:../src/rte_wx.c **** 
  23:../src/rte_wx.c **** uint16_t rte_wx_windspeed_pulses = 0;
  24:../src/rte_wx.c **** uint16_t rte_wx_windspeed[WIND_AVERAGE_LEN];
  25:../src/rte_wx.c **** uint8_t rte_wx_windspeed_it = 0;
  26:../src/rte_wx.c **** uint16_t rte_wx_winddirection[WIND_AVERAGE_LEN];
  27:../src/rte_wx.c **** uint8_t rte_wx_winddirection_it = 0;
  28:../src/rte_wx.c **** uint16_t rte_wx_winddirection_last = 0;
  29:../src/rte_wx.c **** uint16_t rte_wx_average_windspeed = 0;
  30:../src/rte_wx.c **** uint16_t rte_wx_max_windspeed = 0;
  31:../src/rte_wx.c **** uint16_t rte_wx_average_winddirection = 0;
  32:../src/rte_wx.c **** 
  33:../src/rte_wx.c **** int8_t rte_wx_humidity = 0, rte_wx_humidity_valid = 0;
  34:../src/rte_wx.c **** 
  35:../src/rte_wx.c **** dallas_qf_t rte_wx_current_dallas_qf, rte_wx_error_dallas_qf = DALLAS_QF_UNKNOWN;
  36:../src/rte_wx.c **** dallas_average_t rte_wx_dallas_average;
  37:../src/rte_wx.c **** ms5611_qf_t rte_wx_ms5611_qf = MS5611_QF_UNKNOWN;
  38:../src/rte_wx.c **** bme280_qf_t rte_wx_bme280_qf = BME280_QF_UKNOWN;
  39:../src/rte_wx.c **** analog_wind_qf_t rte_wx_wind_qf = AN_WIND_QF_UNKNOWN;
  40:../src/rte_wx.c **** 
  41:../src/rte_wx.c **** 
  42:../src/rte_wx.c **** umb_frame_t rte_wx_umb;
  43:../src/rte_wx.c **** umb_context_t rte_wx_umb_context;
  44:../src/rte_wx.c **** uint8_t rte_wx_umb_last_status = 0;
  45:../src/rte_wx.c **** int16_t rte_wx_umb_channel_values[UMB_CHANNELS_STORAGE_CAPAC][2];	// first dimension stores the cha
  46:../src/rte_wx.c **** 															// stores the value in 0.1 incremenets
  47:../src/rte_wx.c **** umb_qf_t rte_wx_umb_qf = UMB_QF_UNITIALIZED;
  48:../src/rte_wx.c **** 
  49:../src/rte_wx.c **** uint8_t rte_wx_davis_station_avaliable = 0;
  50:../src/rte_wx.c **** uint8_t rte_wx_davis_loop_packet_avaliable = 0;
  51:../src/rte_wx.c **** davis_loop_t rte_wx_davis_loop_content;
  52:../src/rte_wx.c **** 
  53:../src/rte_wx.c **** void rte_wx_init(void) {
  28              		.loc 1 53 0
  29              		.cfi_startproc
  30              		@ args = 0, pretend = 0, frame = 0
  31              		@ frame_needed = 0, uses_anonymous_args = 0
  32              		@ link register save eliminated.
  33              	.LVL0:
  54:../src/rte_wx.c **** 	int i = 0;
  34              		.loc 1 54 0
  35 0000 0023     		movs	r3, #0
  55:../src/rte_wx.c **** 
  56:../src/rte_wx.c **** 	for (; i < WIND_AVERAGE_LEN; i++) {
  36              		.loc 1 56 0
  37 0002 07E0     		b	.L2
  38              	.LVL1:
  39              	.L3:
  57:../src/rte_wx.c **** 		rte_wx_windspeed[i] = 0;
  40              		.loc 1 57 0 discriminator 2
  41 0004 0022     		movs	r2, #0
  42 0006 0B49     		ldr	r1, .L6
  43 0008 21F81320 		strh	r2, [r1, r3, lsl #1]	@ movhi
  58:../src/rte_wx.c **** 		rte_wx_winddirection[i] = 0;
  44              		.loc 1 58 0 discriminator 2
  45 000c 0A49     		ldr	r1, .L6+4
  46 000e 21F81320 		strh	r2, [r1, r3, lsl #1]	@ movhi
  56:../src/rte_wx.c **** 		rte_wx_windspeed[i] = 0;
  47              		.loc 1 56 0 discriminator 2
  48 0012 0133     		adds	r3, r3, #1
  49              	.LVL2:
  50              	.L2:
  56:../src/rte_wx.c **** 		rte_wx_windspeed[i] = 0;
  51              		.loc 1 56 0 is_stmt 0 discriminator 1
  52 0014 112B     		cmp	r3, #17
  53 0016 F5DD     		ble	.L3
  59:../src/rte_wx.c **** 	}
  60:../src/rte_wx.c **** 
  61:../src/rte_wx.c **** 	rte_wx_pressure_it = 0;
  54              		.loc 1 61 0 is_stmt 1
  55 0018 0023     		movs	r3, #0
  56              	.LVL3:
  57 001a 084A     		ldr	r2, .L6+8
  58 001c 1370     		strb	r3, [r2]
  59              	.LVL4:
  62:../src/rte_wx.c **** 
  63:../src/rte_wx.c **** 	for (i = 0; i < 4; i++) {
  60              		.loc 1 63 0
  61 001e 05E0     		b	.L4
  62              	.LVL5:
  63              	.L5:
  64:../src/rte_wx.c **** 		rte_wx_pressure_history[i] = 0.0f;
  64              		.loc 1 64 0 discriminator 3
  65 0020 074A     		ldr	r2, .L6+12
  66 0022 02EB8302 		add	r2, r2, r3, lsl #2
  67 0026 0021     		movs	r1, #0
  68 0028 1160     		str	r1, [r2]	@ float
  63:../src/rte_wx.c **** 		rte_wx_pressure_history[i] = 0.0f;
  69              		.loc 1 63 0 discriminator 3
  70 002a 0133     		adds	r3, r3, #1
  71              	.LVL6:
  72              	.L4:
  63:../src/rte_wx.c **** 		rte_wx_pressure_history[i] = 0.0f;
  73              		.loc 1 63 0 is_stmt 0 discriminator 1
  74 002c 032B     		cmp	r3, #3
  75 002e F7DD     		ble	.L5
  65:../src/rte_wx.c **** 	}
  66:../src/rte_wx.c **** 
  67:../src/rte_wx.c **** }
  76              		.loc 1 67 0 is_stmt 1
  77 0030 7047     		bx	lr
  78              	.L7:
  79 0032 00BF     		.align	2
  80              	.L6:
  81 0034 00000000 		.word	rte_wx_windspeed
  82 0038 00000000 		.word	rte_wx_winddirection
  83 003c 00000000 		.word	rte_wx_pressure_it
  84 0040 00000000 		.word	rte_wx_pressure_history
  85              		.cfi_endproc
  86              	.LFE397:
  88              		.section	.text.rte_wx_update_last_measuremenet_timers,"ax",%progbits
  89              		.align	1
  90              		.global	rte_wx_update_last_measuremenet_timers
  91              		.syntax unified
  92              		.thumb
  93              		.thumb_func
  94              		.fpu fpv4-sp-d16
  96              	rte_wx_update_last_measuremenet_timers:
  97              	.LFB398:
  68:../src/rte_wx.c **** 
  69:../src/rte_wx.c **** void rte_wx_update_last_measuremenet_timers(uint16_t parameter_type) {
  98              		.loc 1 69 0
  99              		.cfi_startproc
 100              		@ args = 0, pretend = 0, frame = 0
 101              		@ frame_needed = 0, uses_anonymous_args = 0
 102              		@ link register save eliminated.
 103              	.LVL7:
  70:../src/rte_wx.c **** 	if (parameter_type == RTE_WX_MEASUREMENT_WIND)
 104              		.loc 1 70 0
 105 0000 B0F5E67F 		cmp	r0, #460
 106 0004 02D0     		beq	.L11
  71:../src/rte_wx.c **** 		wx_last_good_wind_time = master_time;
  72:../src/rte_wx.c **** 	else if (parameter_type == RTE_WX_MEASUREMENT_TEMPERATURE)
 107              		.loc 1 72 0
 108 0006 6428     		cmp	r0, #100
 109 0008 05D0     		beq	.L12
 110              	.L8:
  73:../src/rte_wx.c **** 		wx_last_good_temperature_time = master_time;
  74:../src/rte_wx.c **** 	else {
  75:../src/rte_wx.c **** 		;
  76:../src/rte_wx.c **** 	}
  77:../src/rte_wx.c **** }
 111              		.loc 1 77 0
 112 000a 7047     		bx	lr
 113              	.L11:
  71:../src/rte_wx.c **** 		wx_last_good_wind_time = master_time;
 114              		.loc 1 71 0
 115 000c 044B     		ldr	r3, .L13
 116 000e 1A68     		ldr	r2, [r3]
 117 0010 044B     		ldr	r3, .L13+4
 118 0012 1A60     		str	r2, [r3]
 119 0014 7047     		bx	lr
 120              	.L12:
  73:../src/rte_wx.c **** 		wx_last_good_temperature_time = master_time;
 121              		.loc 1 73 0
 122 0016 024B     		ldr	r3, .L13
 123 0018 1A68     		ldr	r2, [r3]
 124 001a 034B     		ldr	r3, .L13+8
 125 001c 1A60     		str	r2, [r3]
 126              		.loc 1 77 0
 127 001e F4E7     		b	.L8
 128              	.L14:
 129              		.align	2
 130              	.L13:
 131 0020 00000000 		.word	master_time
 132 0024 00000000 		.word	wx_last_good_wind_time
 133 0028 00000000 		.word	wx_last_good_temperature_time
 134              		.cfi_endproc
 135              	.LFE398:
 137              		.section	.text.rte_wx_reset_last_measuremenet_timers,"ax",%progbits
 138              		.align	1
 139              		.global	rte_wx_reset_last_measuremenet_timers
 140              		.syntax unified
 141              		.thumb
 142              		.thumb_func
 143              		.fpu fpv4-sp-d16
 145              	rte_wx_reset_last_measuremenet_timers:
 146              	.LFB399:
  78:../src/rte_wx.c **** 
  79:../src/rte_wx.c **** void rte_wx_reset_last_measuremenet_timers(uint16_t parameter_type) {
 147              		.loc 1 79 0
 148              		.cfi_startproc
 149              		@ args = 0, pretend = 0, frame = 0
 150              		@ frame_needed = 0, uses_anonymous_args = 0
 151              		@ link register save eliminated.
 152              	.LVL8:
  80:../src/rte_wx.c **** 	if (parameter_type == RTE_WX_MEASUREMENT_WIND)
 153              		.loc 1 80 0
 154 0000 B0F5E67F 		cmp	r0, #460
 155 0004 02D0     		beq	.L18
  81:../src/rte_wx.c **** 		wx_last_good_wind_time = 0xFFFFFFFF;
  82:../src/rte_wx.c **** 	else if (parameter_type == RTE_WX_MEASUREMENT_TEMPERATURE)
 156              		.loc 1 82 0
 157 0006 6428     		cmp	r0, #100
 158 0008 05D0     		beq	.L19
 159              	.L15:
  83:../src/rte_wx.c **** 		wx_last_good_temperature_time = 0xFFFFFFFF;
  84:../src/rte_wx.c **** 	else {
  85:../src/rte_wx.c **** 		;
  86:../src/rte_wx.c **** 	}
  87:../src/rte_wx.c **** }
 160              		.loc 1 87 0
 161 000a 7047     		bx	lr
 162              	.L18:
  81:../src/rte_wx.c **** 		wx_last_good_wind_time = 0xFFFFFFFF;
 163              		.loc 1 81 0
 164 000c 044B     		ldr	r3, .L20
 165 000e 4FF0FF32 		mov	r2, #-1
 166 0012 1A60     		str	r2, [r3]
 167 0014 7047     		bx	lr
 168              	.L19:
  83:../src/rte_wx.c **** 		wx_last_good_temperature_time = 0xFFFFFFFF;
 169              		.loc 1 83 0
 170 0016 034B     		ldr	r3, .L20+4
 171 0018 4FF0FF32 		mov	r2, #-1
 172 001c 1A60     		str	r2, [r3]
 173              		.loc 1 87 0
 174 001e F4E7     		b	.L15
 175              	.L21:
 176              		.align	2
 177              	.L20:
 178 0020 00000000 		.word	wx_last_good_wind_time
 179 0024 00000000 		.word	wx_last_good_temperature_time
 180              		.cfi_endproc
 181              	.LFE399:
 183              		.comm	rte_wx_davis_loop_content,20,4
 184              		.global	rte_wx_davis_loop_packet_avaliable
 185              		.global	rte_wx_davis_station_avaliable
 186              		.global	rte_wx_umb_qf
 187              		.comm	rte_wx_umb_channel_values,24,4
 188              		.global	rte_wx_umb_last_status
 189              		.comm	rte_wx_umb_context,48,4
 190              		.comm	rte_wx_umb,47,4
 191              		.global	rte_wx_wind_qf
 192              		.global	rte_wx_bme280_qf
 193              		.global	rte_wx_ms5611_qf
 194              		.comm	rte_wx_dallas_average,48,4
 195              		.global	rte_wx_error_dallas_qf
 196              		.comm	rte_wx_current_dallas_qf,1,1
 197              		.global	rte_wx_humidity_valid
 198              		.global	rte_wx_humidity
 199              		.global	rte_wx_average_winddirection
 200              		.global	rte_wx_max_windspeed
 201              		.global	rte_wx_average_windspeed
 202              		.global	rte_wx_winddirection_last
 203              		.global	rte_wx_winddirection_it
 204              		.comm	rte_wx_winddirection,36,4
 205              		.global	rte_wx_windspeed_it
 206              		.comm	rte_wx_windspeed,36,4
 207              		.global	rte_wx_windspeed_pulses
 208              		.comm	rte_wx_pressure_it,1,1
 209              		.comm	rte_wx_pressure_history,16,4
 210              		.global	rte_wx_pressure_valid
 211              		.global	rte_wx_pressure
 212              		.global	rte_wx_temperature_internal_valid
 213              		.global	rte_wx_temperature_internal
 214              		.global	rte_wx_temperature_max_external_valid
 215              		.global	rte_wx_temperature_min_external_valid
 216              		.global	rte_wx_temperature_average_external_valid
 217              		.global	rte_wx_temperature_external_slew_rate
 218              		.global	rte_wx_temperature_external_valid
 219              		.global	rte_wx_temperature_external
 220              		.section	.bss.rte_wx_average_winddirection,"aw",%nobits
 221              		.align	1
 224              	rte_wx_average_winddirection:
 225 0000 0000     		.space	2
 226              		.section	.bss.rte_wx_average_windspeed,"aw",%nobits
 227              		.align	1
 230              	rte_wx_average_windspeed:
 231 0000 0000     		.space	2
 232              		.section	.bss.rte_wx_davis_loop_packet_avaliable,"aw",%nobits
 235              	rte_wx_davis_loop_packet_avaliable:
 236 0000 00       		.space	1
 237              		.section	.bss.rte_wx_davis_station_avaliable,"aw",%nobits
 240              	rte_wx_davis_station_avaliable:
 241 0000 00       		.space	1
 242              		.section	.bss.rte_wx_error_dallas_qf,"aw",%nobits
 245              	rte_wx_error_dallas_qf:
 246 0000 00       		.space	1
 247              		.section	.bss.rte_wx_humidity,"aw",%nobits
 250              	rte_wx_humidity:
 251 0000 00       		.space	1
 252              		.section	.bss.rte_wx_humidity_valid,"aw",%nobits
 255              	rte_wx_humidity_valid:
 256 0000 00       		.space	1
 257              		.section	.bss.rte_wx_max_windspeed,"aw",%nobits
 258              		.align	1
 261              	rte_wx_max_windspeed:
 262 0000 0000     		.space	2
 263              		.section	.bss.rte_wx_ms5611_qf,"aw",%nobits
 266              	rte_wx_ms5611_qf:
 267 0000 00       		.space	1
 268              		.section	.bss.rte_wx_pressure,"aw",%nobits
 269              		.align	2
 272              	rte_wx_pressure:
 273 0000 00000000 		.space	4
 274              		.section	.bss.rte_wx_pressure_valid,"aw",%nobits
 275              		.align	2
 278              	rte_wx_pressure_valid:
 279 0000 00000000 		.space	4
 280              		.section	.bss.rte_wx_temperature_average_external_valid,"aw",%nobits
 281              		.align	2
 284              	rte_wx_temperature_average_external_valid:
 285 0000 00000000 		.space	4
 286              		.section	.bss.rte_wx_temperature_external,"aw",%nobits
 287              		.align	2
 290              	rte_wx_temperature_external:
 291 0000 00000000 		.space	4
 292              		.section	.bss.rte_wx_temperature_external_slew_rate,"aw",%nobits
 293              		.align	2
 296              	rte_wx_temperature_external_slew_rate:
 297 0000 00000000 		.space	4
 298              		.section	.bss.rte_wx_temperature_external_valid,"aw",%nobits
 299              		.align	2
 302              	rte_wx_temperature_external_valid:
 303 0000 00000000 		.space	4
 304              		.section	.bss.rte_wx_temperature_internal,"aw",%nobits
 305              		.align	2
 308              	rte_wx_temperature_internal:
 309 0000 00000000 		.space	4
 310              		.section	.bss.rte_wx_temperature_internal_valid,"aw",%nobits
 311              		.align	2
 314              	rte_wx_temperature_internal_valid:
 315 0000 00000000 		.space	4
 316              		.section	.bss.rte_wx_temperature_max_external_valid,"aw",%nobits
 317              		.align	2
 320              	rte_wx_temperature_max_external_valid:
 321 0000 00000000 		.space	4
 322              		.section	.bss.rte_wx_temperature_min_external_valid,"aw",%nobits
 323              		.align	2
 326              	rte_wx_temperature_min_external_valid:
 327 0000 00000000 		.space	4
 328              		.section	.bss.rte_wx_umb_last_status,"aw",%nobits
 331              	rte_wx_umb_last_status:
 332 0000 00       		.space	1
 333              		.section	.bss.rte_wx_winddirection_it,"aw",%nobits
 336              	rte_wx_winddirection_it:
 337 0000 00       		.space	1
 338              		.section	.bss.rte_wx_winddirection_last,"aw",%nobits
 339              		.align	1
 342              	rte_wx_winddirection_last:
 343 0000 0000     		.space	2
 344              		.section	.bss.rte_wx_windspeed_it,"aw",%nobits
 347              	rte_wx_windspeed_it:
 348 0000 00       		.space	1
 349              		.section	.bss.rte_wx_windspeed_pulses,"aw",%nobits
 350              		.align	1
 353              	rte_wx_windspeed_pulses:
 354 0000 0000     		.space	2
 355              		.section	.data.rte_wx_bme280_qf,"aw",%progbits
 358              	rte_wx_bme280_qf:
 359 0000 05       		.byte	5
 360              		.section	.data.rte_wx_umb_qf,"aw",%progbits
 363              	rte_wx_umb_qf:
 364 0000 04       		.byte	4
 365              		.section	.data.rte_wx_wind_qf,"aw",%progbits
 368              	rte_wx_wind_qf:
 369 0000 05       		.byte	5
 370              		.text
 371              	.Letext0:
 372              		.file 2 "/usr/local/bin/gcc-arm-none-eabi-7-2018-q2-update/lib/gcc/arm-none-eabi/7.3.1/include/std
 373              		.file 3 "../system/include/cmsis/stm32l4xx/core_cm4.h"
 374              		.file 4 "../system/include/cmsis/stm32l4xx/device/system_stm32l4xx.h"
 375              		.file 5 "../system/include/cmsis/stm32l4xx/device/stm32l471xx.h"
 376              		.file 6 "../system/include/drivers/dallas.h"
 377              		.file 7 "../system/include/drivers/analog_anemometer.h"
 378              		.file 8 "../system/include/davis_vantage/davis_loop_t.h"
 379              		.file 9 "../system/include/umb_master/umb_frame_t.h"
 380              		.file 10 "../system/include/umb_master/umb_state_t.h"
 381              		.file 11 "../system/include/drivers/serial.h"
 382              		.file 12 "../system/include/umb_master/umb_context_t.h"
 383              		.file 13 "../system/include/umb_master/umb_qf_t.h"
 384              		.file 14 "../include/config_data.h"
 385              		.file 15 "/usr/local/bin/gcc-arm-none-eabi-7-2018-q2-update/arm-none-eabi/include/sys/lock.h"
 386              		.file 16 "/usr/local/bin/gcc-arm-none-eabi-7-2018-q2-update/arm-none-eabi/include/sys/_types.h"
 387              		.file 17 "/usr/local/bin/gcc-arm-none-eabi-7-2018-q2-update/lib/gcc/arm-none-eabi/7.3.1/include/st
 388              		.file 18 "/usr/local/bin/gcc-arm-none-eabi-7-2018-q2-update/arm-none-eabi/include/sys/reent.h"
 389              		.file 19 "/usr/local/bin/gcc-arm-none-eabi-7-2018-q2-update/arm-none-eabi/include/math.h"
 390              		.file 20 "../system/include/drivers/ms5611.h"
 391              		.file 21 "../system/include/drivers/bme280.h"
 392              		.file 22 "../include/rte_wx.h"
 393              		.file 23 "../include/wx_handler.h"
 394              		.file 24 "../system/include/aprs/cfifo.h"
 395              		.file 25 "../system/include/aprs/afsk.h"
 396              		.file 26 "../system/include/aprs/ax25.h"
 397              		.file 27 "../include/main.h"