   1              		.cpu cortex-m4
   2              		.eabi_attribute 27, 1
   3              		.eabi_attribute 28, 1
   4              		.eabi_attribute 20, 1
   5              		.eabi_attribute 21, 1
   6              		.eabi_attribute 23, 3
   7              		.eabi_attribute 24, 1
   8              		.eabi_attribute 25, 1
   9              		.eabi_attribute 26, 1
  10              		.eabi_attribute 30, 1
  11              		.eabi_attribute 34, 1
  12              		.eabi_attribute 18, 4
  13              		.file	"wx_handler_humidity.c"
  14              		.text
  15              	.Ltext0:
  16              		.cfi_sections	.debug_frame
  17              		.section	.text.wx_get_humidity_bme280,"ax",%progbits
  18              		.align	1
  19              		.global	wx_get_humidity_bme280
  20              		.syntax unified
  21              		.thumb
  22              		.thumb_func
  23              		.fpu fpv4-sp-d16
  25              	wx_get_humidity_bme280:
  26              	.LFB391:
  27              		.file 1 "../src/wx_handler_humidity.c"
   1:../src/wx_handler_humidity.c **** /*
   2:../src/wx_handler_humidity.c ****  * wx_handler_humidity.c
   3:../src/wx_handler_humidity.c ****  *
   4:../src/wx_handler_humidity.c ****  *  Created on: Apr 15, 2021
   5:../src/wx_handler_humidity.c ****  *      Author: mateusz
   6:../src/wx_handler_humidity.c ****  */
   7:../src/wx_handler_humidity.c **** 
   8:../src/wx_handler_humidity.c **** #include "wx_handler_humidity.h"
   9:../src/wx_handler_humidity.c **** #include <wx_handler.h>
  10:../src/wx_handler_humidity.c **** 
  11:../src/wx_handler_humidity.c **** #include "rte_wx.h"
  12:../src/wx_handler_humidity.c **** 
  13:../src/wx_handler_humidity.c **** #include <modbus_rtu/rtu_getters.h>
  14:../src/wx_handler_humidity.c **** #include <modbus_rtu/rtu_return_values.h>
  15:../src/wx_handler_humidity.c **** 
  16:../src/wx_handler_humidity.c **** int32_t wx_get_humidity_measurement(const config_data_wx_sources_t * const config_sources, const co
  17:../src/wx_handler_humidity.c **** 
  18:../src/wx_handler_humidity.c **** 	int32_t out = 0;
  19:../src/wx_handler_humidity.c **** 	int32_t measurement_result = 0;
  20:../src/wx_handler_humidity.c **** 
  21:../src/wx_handler_humidity.c **** 	// choose a temperature source from the configuration
  22:../src/wx_handler_humidity.c **** 	switch(config_sources->humidity) {
  23:../src/wx_handler_humidity.c **** 		case WX_SOURCE_INTERNAL: {
  24:../src/wx_handler_humidity.c **** 
  25:../src/wx_handler_humidity.c **** 			if (config_mode->wx_ms5611_or_bme == 0) {
  26:../src/wx_handler_humidity.c **** 				// MS5611 is chosen
  27:../src/wx_handler_humidity.c **** 				//
  28:../src/wx_handler_humidity.c **** 
  29:../src/wx_handler_humidity.c **** 				// but MS5611 isn't a humidity sensor
  30:../src/wx_handler_humidity.c **** 				;
  31:../src/wx_handler_humidity.c **** 			}
  32:../src/wx_handler_humidity.c **** 			else {
  33:../src/wx_handler_humidity.c **** 				// BME280
  34:../src/wx_handler_humidity.c **** 				measurement_result = wx_get_humidity_bme280(&rte_wx_humidity);
  35:../src/wx_handler_humidity.c **** 
  36:../src/wx_handler_humidity.c **** 				// if humidity has been retrieved successfully
  37:../src/wx_handler_humidity.c **** 				if (measurement_result == BME280_OK) {
  38:../src/wx_handler_humidity.c **** 					rte_wx_humidity_valid = rte_wx_humidity;
  39:../src/wx_handler_humidity.c **** 				}
  40:../src/wx_handler_humidity.c **** 			}
  41:../src/wx_handler_humidity.c **** 
  42:../src/wx_handler_humidity.c **** 			break;
  43:../src/wx_handler_humidity.c **** 		}
  44:../src/wx_handler_humidity.c **** 		case WX_SOURCE_UMB: {
  45:../src/wx_handler_humidity.c **** 			break;
  46:../src/wx_handler_humidity.c **** 		}
  47:../src/wx_handler_humidity.c **** 		case WX_SOURCE_RTU:
  48:../src/wx_handler_humidity.c **** 		case WX_SOURCE_FULL_RTU: {
  49:../src/wx_handler_humidity.c **** 
  50:../src/wx_handler_humidity.c **** 			// get the value read from RTU registers
  51:../src/wx_handler_humidity.c **** 			measurement_result = rtu_get_humidity(&rte_wx_humidity, config_rtu);
  52:../src/wx_handler_humidity.c **** 
  53:../src/wx_handler_humidity.c **** 			// check
  54:../src/wx_handler_humidity.c **** 			if (measurement_result == MODBUS_RET_OK || measurement_result == MODBUS_RET_DEGRADED) {
  55:../src/wx_handler_humidity.c **** 
  56:../src/wx_handler_humidity.c **** 				// set the flag that external temperature is available
  57:../src/wx_handler_humidity.c **** 				out |= WX_HANDLER_PARAMETER_RESULT_HUMIDITY;
  58:../src/wx_handler_humidity.c **** 
  59:../src/wx_handler_humidity.c **** 				if (measurement_result == BME280_OK) {
  60:../src/wx_handler_humidity.c **** 					rte_wx_humidity_valid = rte_wx_humidity;
  61:../src/wx_handler_humidity.c **** 				}
  62:../src/wx_handler_humidity.c **** 			}
  63:../src/wx_handler_humidity.c **** 
  64:../src/wx_handler_humidity.c **** 			break;
  65:../src/wx_handler_humidity.c **** 		}
  66:../src/wx_handler_humidity.c **** 		case WX_SOURCE_DAVIS_SERIAL:
  67:../src/wx_handler_humidity.c **** 			break;
  68:../src/wx_handler_humidity.c **** 	}
  69:../src/wx_handler_humidity.c **** 
  70:../src/wx_handler_humidity.c **** 	return out;
  71:../src/wx_handler_humidity.c **** }
  72:../src/wx_handler_humidity.c **** 
  73:../src/wx_handler_humidity.c **** int32_t wx_get_humidity_bme280(int8_t * const humidity) {
  28              		.loc 1 73 0
  29              		.cfi_startproc
  30              		@ args = 0, pretend = 0, frame = 0
  31              		@ frame_needed = 0, uses_anonymous_args = 0
  32              	.LVL0:
  33 0000 08B5     		push	{r3, lr}
  34              		.cfi_def_cfa_offset 8
  35              		.cfi_offset 3, -8
  36              		.cfi_offset 14, -4
  37              	.LVL1:
  74:../src/wx_handler_humidity.c **** 	int32_t output = 0;
  75:../src/wx_handler_humidity.c **** 
  76:../src/wx_handler_humidity.c **** 	if (rte_wx_bme280_qf == BME280_QF_FULL) {
  38              		.loc 1 76 0
  39 0002 074B     		ldr	r3, .L6
  40 0004 1B78     		ldrb	r3, [r3]	@ zero_extendqisi2
  41 0006 0BB1     		cbz	r3, .L5
  74:../src/wx_handler_humidity.c **** 	int32_t output = 0;
  42              		.loc 1 74 0
  43 0008 0020     		movs	r0, #0
  44              	.LVL2:
  45              	.L1:
  77:../src/wx_handler_humidity.c **** 
  78:../src/wx_handler_humidity.c **** 		output = bme280_get_humidity(humidity, bme280_get_adc_h(), &rte_wx_bme280_qf);
  79:../src/wx_handler_humidity.c **** 	}
  80:../src/wx_handler_humidity.c **** 
  81:../src/wx_handler_humidity.c **** 	return output;
  82:../src/wx_handler_humidity.c **** }
  46              		.loc 1 82 0
  47 000a 08BD     		pop	{r3, pc}
  48              	.LVL3:
  49              	.L5:
  50              	.LBB4:
  51              	.LBB5:
  52              		.file 2 "../system/include/drivers/bme280.h"
   1:../system/include/drivers/bme280.h **** /*
   2:../system/include/drivers/bme280.h ****  * bma150.h
   3:../system/include/drivers/bme280.h ****  *
   4:../system/include/drivers/bme280.h ****  *  Created on: 21.06.2020
   5:../system/include/drivers/bme280.h ****  *      Author: mateusz
   6:../system/include/drivers/bme280.h ****  */
   7:../system/include/drivers/bme280.h **** 
   8:../system/include/drivers/bme280.h **** #ifndef INCLUDE_DRIVERS_BME280_H_
   9:../system/include/drivers/bme280.h **** #define INCLUDE_DRIVERS_BME280_H_
  10:../system/include/drivers/bme280.h **** 
  11:../system/include/drivers/bme280.h **** #include "stdint.h"
  12:../system/include/drivers/bme280.h **** 
  13:../system/include/drivers/bme280.h **** #define BME280_OK						0
  14:../system/include/drivers/bme280.h **** #define BME280_SENSOR_NOT_RESPONDING	-1
  15:../system/include/drivers/bme280.h **** #define BME280_SENSOR_NOT_AVALIABLE		-2
  16:../system/include/drivers/bme280.h **** #define BME280_WRONG_PRESSURE_READOUT	-3
  17:../system/include/drivers/bme280.h **** #define BME280_WRONG_HUMIDITY_READOUT	-4
  18:../system/include/drivers/bme280.h **** 
  19:../system/include/drivers/bme280.h **** #define BME280_LN_CALIBRATION 	41
  20:../system/include/drivers/bme280.h **** #define BME280_LN_RAW_DATA		8
  21:../system/include/drivers/bme280.h **** 
  22:../system/include/drivers/bme280.h **** typedef enum bme280_qf {
  23:../system/include/drivers/bme280.h **** 	BME280_QF_FULL,
  24:../system/include/drivers/bme280.h **** 	BME280_QF_NOT_AVAILABLE,
  25:../system/include/drivers/bme280.h **** 	BME280_QF_HUMIDITY_DEGRADED,
  26:../system/include/drivers/bme280.h **** 	BME280_QF_PRESSURE_DEGRADED,
  27:../system/include/drivers/bme280.h **** 	BME280_QF_GEN_DEGRADED,
  28:../system/include/drivers/bme280.h **** 	BME280_QF_UKNOWN
  29:../system/include/drivers/bme280.h **** }bme280_qf_t;
  30:../system/include/drivers/bme280.h **** 
  31:../system/include/drivers/bme280.h **** extern uint8_t bme280_data_buffer[BME280_LN_RAW_DATA + 1];
  32:../system/include/drivers/bme280.h **** extern uint8_t bme280_calibration_data[BME280_LN_CALIBRATION + 1];
  33:../system/include/drivers/bme280.h **** 
  34:../system/include/drivers/bme280.h **** int32_t bme280_reset(bme280_qf_t* qf);
  35:../system/include/drivers/bme280.h **** int32_t bme280_setup(void);
  36:../system/include/drivers/bme280.h **** int32_t bme280_read_calibration(uint8_t* calibration);
  37:../system/include/drivers/bme280.h **** int32_t bme280_read_raw_data(uint8_t* raw_data);
  38:../system/include/drivers/bme280.h **** 
  39:../system/include/drivers/bme280.h **** int32_t bme280_get_pressure(float* out, uint32_t raw_data, bme280_qf_t* qf);
  40:../system/include/drivers/bme280.h **** int32_t bme280_get_temperature(float* out, uint32_t raw_data, bme280_qf_t* qf);
  41:../system/include/drivers/bme280.h **** int32_t bme280_get_humidity(int8_t* out, uint16_t raw_data, bme280_qf_t* qf);
  42:../system/include/drivers/bme280.h **** 
  43:../system/include/drivers/bme280.h **** //#define BME280_CONCAT_BYTES(msb, lsb)            (((uint16_t)msb << 8) | (uint16_t)lsb)
  44:../system/include/drivers/bme280.h **** 
  45:../system/include/drivers/bme280.h **** inline uint32_t bme280_get_adc_t(void) {
  46:../system/include/drivers/bme280.h **** 	return (bme280_data_buffer[3] << 12) | (bme280_data_buffer[4] << 4) | (bme280_data_buffer[5] >> 4)
  47:../system/include/drivers/bme280.h **** }
  48:../system/include/drivers/bme280.h **** 
  49:../system/include/drivers/bme280.h **** inline uint32_t bme280_get_adc_p(void) {
  50:../system/include/drivers/bme280.h **** 	return (bme280_data_buffer[0] << 12) | (bme280_data_buffer[1] << 4) | (bme280_data_buffer[2] >> 4)
  51:../system/include/drivers/bme280.h **** 
  52:../system/include/drivers/bme280.h **** }
  53:../system/include/drivers/bme280.h **** 
  54:../system/include/drivers/bme280.h **** inline uint16_t bme280_get_adc_h(void) {
  55:../system/include/drivers/bme280.h **** 	return (bme280_data_buffer[6] << 8) | (bme280_data_buffer[7] );
  53              		.loc 2 55 0
  54 000c 054B     		ldr	r3, .L6+4
  55 000e 9979     		ldrb	r1, [r3, #6]	@ zero_extendqisi2
  56 0010 DB79     		ldrb	r3, [r3, #7]	@ zero_extendqisi2
  57              	.LBE5:
  58              	.LBE4:
  78:../src/wx_handler_humidity.c **** 	}
  59              		.loc 1 78 0
  60 0012 034A     		ldr	r2, .L6
  61 0014 43EA0121 		orr	r1, r3, r1, lsl #8
  62 0018 FFF7FEFF 		bl	bme280_get_humidity
  63              	.LVL4:
  64 001c F5E7     		b	.L1
  65              	.L7:
  66 001e 00BF     		.align	2
  67              	.L6:
  68 0020 00000000 		.word	rte_wx_bme280_qf
  69 0024 00000000 		.word	bme280_data_buffer
  70              		.cfi_endproc
  71              	.LFE391:
  73              		.section	.text.wx_get_humidity_measurement,"ax",%progbits
  74              		.align	1
  75              		.global	wx_get_humidity_measurement
  76              		.syntax unified
  77              		.thumb
  78              		.thumb_func
  79              		.fpu fpv4-sp-d16
  81              	wx_get_humidity_measurement:
  82              	.LFB390:
  16:../src/wx_handler_humidity.c **** 
  83              		.loc 1 16 0
  84              		.cfi_startproc
  85              		@ args = 0, pretend = 0, frame = 0
  86              		@ frame_needed = 0, uses_anonymous_args = 0
  87              	.LVL5:
  88 0000 08B5     		push	{r3, lr}
  89              		.cfi_def_cfa_offset 8
  90              		.cfi_offset 3, -8
  91              		.cfi_offset 14, -4
  92              	.LVL6:
  22:../src/wx_handler_humidity.c **** 		case WX_SOURCE_INTERNAL: {
  93              		.loc 1 22 0
  94 0002 8278     		ldrb	r2, [r0, #2]	@ zero_extendqisi2
  95              	.LVL7:
  96 0004 012A     		cmp	r2, #1
  97 0006 0DD0     		beq	.L10
  98 0008 0AB3     		cbz	r2, .L13
  99 000a 033A     		subs	r2, r2, #3
 100 000c 012A     		cmp	r2, #1
 101 000e 1ED8     		bhi	.L13
  51:../src/wx_handler_humidity.c **** 
 102              		.loc 1 51 0
 103 0010 1946     		mov	r1, r3
 104              	.LVL8:
 105 0012 1248     		ldr	r0, .L21
 106              	.LVL9:
 107 0014 FFF7FEFF 		bl	rtu_get_humidity
 108              	.LVL10:
  54:../src/wx_handler_humidity.c **** 
 109              		.loc 1 54 0
 110 0018 0346     		mov	r3, r0
 111 001a 88B1     		cbz	r0, .L12
  54:../src/wx_handler_humidity.c **** 
 112              		.loc 1 54 0 is_stmt 0 discriminator 1
 113 001c 0628     		cmp	r0, #6
 114 001e 0FD0     		beq	.L12
  18:../src/wx_handler_humidity.c **** 	int32_t measurement_result = 0;
 115              		.loc 1 18 0 is_stmt 1
 116 0020 0023     		movs	r3, #0
 117 0022 15E0     		b	.L8
 118              	.LVL11:
 119              	.L10:
  25:../src/wx_handler_humidity.c **** 				// MS5611 is chosen
 120              		.loc 1 25 0
 121 0024 4B79     		ldrb	r3, [r1, #5]	@ zero_extendqisi2
 122              	.LVL12:
 123 0026 0BB9     		cbnz	r3, .L20
  18:../src/wx_handler_humidity.c **** 	int32_t measurement_result = 0;
 124              		.loc 1 18 0
 125 0028 0023     		movs	r3, #0
 126 002a 11E0     		b	.L8
 127              	.L20:
  34:../src/wx_handler_humidity.c **** 
 128              		.loc 1 34 0
 129 002c 0B48     		ldr	r0, .L21
 130              	.LVL13:
 131 002e FFF7FEFF 		bl	wx_get_humidity_bme280
 132              	.LVL14:
  37:../src/wx_handler_humidity.c **** 					rte_wx_humidity_valid = rte_wx_humidity;
 133              		.loc 1 37 0
 134 0032 0346     		mov	r3, r0
 135 0034 70B9     		cbnz	r0, .L15
  38:../src/wx_handler_humidity.c **** 				}
 136              		.loc 1 38 0
 137 0036 094A     		ldr	r2, .L21
 138 0038 1178     		ldrb	r1, [r2]	@ zero_extendqisi2
 139 003a 094A     		ldr	r2, .L21+4
 140 003c 1170     		strb	r1, [r2]
 141 003e 07E0     		b	.L8
 142              	.L12:
 143              	.LVL15:
  59:../src/wx_handler_humidity.c **** 					rte_wx_humidity_valid = rte_wx_humidity;
 144              		.loc 1 59 0
 145 0040 53B9     		cbnz	r3, .L17
  60:../src/wx_handler_humidity.c **** 				}
 146              		.loc 1 60 0
 147 0042 064B     		ldr	r3, .L21
 148 0044 1A78     		ldrb	r2, [r3]	@ zero_extendqisi2
 149 0046 064B     		ldr	r3, .L21+4
 150 0048 1A70     		strb	r2, [r3]
  57:../src/wx_handler_humidity.c **** 
 151              		.loc 1 57 0
 152 004a 0823     		movs	r3, #8
 153 004c 00E0     		b	.L8
 154              	.LVL16:
 155              	.L13:
  18:../src/wx_handler_humidity.c **** 	int32_t measurement_result = 0;
 156              		.loc 1 18 0
 157 004e 0023     		movs	r3, #0
 158              	.LVL17:
 159              	.L8:
  71:../src/wx_handler_humidity.c **** 
 160              		.loc 1 71 0
 161 0050 1846     		mov	r0, r3
 162 0052 08BD     		pop	{r3, pc}
 163              	.LVL18:
 164              	.L15:
  18:../src/wx_handler_humidity.c **** 	int32_t measurement_result = 0;
 165              		.loc 1 18 0
 166 0054 0023     		movs	r3, #0
 167 0056 FBE7     		b	.L8
 168              	.LVL19:
 169              	.L17:
  57:../src/wx_handler_humidity.c **** 
 170              		.loc 1 57 0
 171 0058 0823     		movs	r3, #8
  70:../src/wx_handler_humidity.c **** }
 172              		.loc 1 70 0
 173 005a F9E7     		b	.L8
 174              	.L22:
 175              		.align	2
 176              	.L21:
 177 005c 00000000 		.word	rte_wx_humidity
 178 0060 00000000 		.word	rte_wx_humidity_valid
 179              		.cfi_endproc
 180              	.LFE390:
 182              		.text
 183              	.Letext0:
 184              		.file 3 "/usr/local/bin/gcc-arm-none-eabi-7-2018-q2-update/lib/gcc/arm-none-eabi/7.3.1/include/std
 185              		.file 4 "../include/config_data.h"
 186              		.file 5 "../include/wx_handler.h"
 187              		.file 6 "../system/include/cmsis/stm32l4xx/core_cm4.h"
 188              		.file 7 "../system/include/cmsis/stm32l4xx/device/system_stm32l4xx.h"
 189              		.file 8 "../system/include/cmsis/stm32l4xx/device/stm32l471xx.h"
 190              		.file 9 "../system/include/drivers/dallas.h"
 191              		.file 10 "../system/include/drivers/analog_anemometer.h"
 192              		.file 11 "../system/include/davis_vantage/davis_loop_t.h"
 193              		.file 12 "../system/include/umb_master/umb_frame_t.h"
 194              		.file 13 "../system/include/umb_master/umb_state_t.h"
 195              		.file 14 "../system/include/drivers/serial.h"
 196              		.file 15 "../system/include/umb_master/umb_context_t.h"
 197              		.file 16 "../system/include/umb_master/umb_qf_t.h"
 198              		.file 17 "/usr/local/bin/gcc-arm-none-eabi-7-2018-q2-update/arm-none-eabi/include/sys/lock.h"
 199              		.file 18 "/usr/local/bin/gcc-arm-none-eabi-7-2018-q2-update/arm-none-eabi/include/sys/_types.h"
 200              		.file 19 "/usr/local/bin/gcc-arm-none-eabi-7-2018-q2-update/lib/gcc/arm-none-eabi/7.3.1/include/st
 201              		.file 20 "/usr/local/bin/gcc-arm-none-eabi-7-2018-q2-update/arm-none-eabi/include/sys/reent.h"
 202              		.file 21 "/usr/local/bin/gcc-arm-none-eabi-7-2018-q2-update/arm-none-eabi/include/math.h"
 203              		.file 22 "../system/include/drivers/ms5611.h"
 204              		.file 23 "../include/rte_wx.h"
 205              		.file 24 "../system/include/modbus_rtu/rtu_getters.h"