   1              		.cpu cortex-m4
   2              		.eabi_attribute 27, 1
   3              		.eabi_attribute 28, 1
   4              		.eabi_attribute 20, 1
   5              		.eabi_attribute 21, 1
   6              		.eabi_attribute 23, 3
   7              		.eabi_attribute 24, 1
   8              		.eabi_attribute 25, 1
   9              		.eabi_attribute 26, 1
  10              		.eabi_attribute 30, 1
  11              		.eabi_attribute 34, 1
  12              		.eabi_attribute 18, 4
  13              		.file	"wx_handler_pressure.c"
  14              		.text
  15              	.Ltext0:
  16              		.cfi_sections	.debug_frame
  17              		.section	.text.wx_get_pressure_ms5611,"ax",%progbits
  18              		.align	1
  19              		.global	wx_get_pressure_ms5611
  20              		.syntax unified
  21              		.thumb
  22              		.thumb_func
  23              		.fpu fpv4-sp-d16
  25              	wx_get_pressure_ms5611:
  26              	.LFB398:
  27              		.file 1 "../src/wx_handler_pressure.c"
   1:../src/wx_handler_pressure.c **** /*
   2:../src/wx_handler_pressure.c ****  * wx_handler_pressure.c
   3:../src/wx_handler_pressure.c ****  *
   4:../src/wx_handler_pressure.c ****  *  Created on: Apr 15, 2021
   5:../src/wx_handler_pressure.c ****  *      Author: mateusz
   6:../src/wx_handler_pressure.c ****  */
   7:../src/wx_handler_pressure.c **** 
   8:../src/wx_handler_pressure.c **** #include "wx_handler_pressure.h"
   9:../src/wx_handler_pressure.c **** #include "wx_handler.h"
  10:../src/wx_handler_pressure.c **** 
  11:../src/wx_handler_pressure.c **** #include "rte_wx.h"
  12:../src/wx_handler_pressure.c **** #include "main.h"
  13:../src/wx_handler_pressure.c **** 
  14:../src/wx_handler_pressure.c **** #include <drivers/ms5611.h>
  15:../src/wx_handler_pressure.c **** #include <drivers/bme280.h>
  16:../src/wx_handler_pressure.c **** 
  17:../src/wx_handler_pressure.c **** #include <modbus_rtu/rtu_getters.h>
  18:../src/wx_handler_pressure.c **** #include <modbus_rtu/rtu_return_values.h>
  19:../src/wx_handler_pressure.c **** 
  20:../src/wx_handler_pressure.c **** int32_t wx_get_pressure_measurement(const config_data_wx_sources_t * const config_sources, const co
  21:../src/wx_handler_pressure.c **** 
  22:../src/wx_handler_pressure.c **** 	int32_t output = 0;
  23:../src/wx_handler_pressure.c **** 	int32_t measurement_retval = 0;
  24:../src/wx_handler_pressure.c **** 	int32_t i = 0, j = 0;
  25:../src/wx_handler_pressure.c **** 	float pressure_average_sum = 0.0f;
  26:../src/wx_handler_pressure.c **** 	umb_qf_t umb_quality_factor = UMB_QF_UNITIALIZED;	// quality factor for UMB communication
  27:../src/wx_handler_pressure.c **** 
  28:../src/wx_handler_pressure.c **** 	switch(config_sources->temperature) {
  29:../src/wx_handler_pressure.c **** 	case WX_SOURCE_INTERNAL: {
  30:../src/wx_handler_pressure.c **** 
  31:../src/wx_handler_pressure.c **** 		// switch between MS5611 and BME280 depends on user configuration
  32:../src/wx_handler_pressure.c **** 		if (config_mode->wx_ms5611_or_bme == 1) {
  33:../src/wx_handler_pressure.c **** 			measurement_retval = wx_get_pressure_bme280(&rte_wx_pressure);
  34:../src/wx_handler_pressure.c **** 		}
  35:../src/wx_handler_pressure.c **** 		else {
  36:../src/wx_handler_pressure.c **** 			measurement_retval = wx_get_pressure_ms5611(&rte_wx_pressure);
  37:../src/wx_handler_pressure.c **** 		}
  38:../src/wx_handler_pressure.c **** 
  39:../src/wx_handler_pressure.c **** 		// check if pressure has been retrieved correctly
  40:../src/wx_handler_pressure.c **** 		if (measurement_retval == BME280_OK || measurement_retval == MS5611_OK) {
  41:../src/wx_handler_pressure.c **** 			// BME280 measures all three things at one call to the driver
  42:../src/wx_handler_pressure.c **** 			output |= WX_HANDLER_PARAMETER_RESULT_PRESSURE;
  43:../src/wx_handler_pressure.c **** 
  44:../src/wx_handler_pressure.c **** 			// add the current pressure into buffer for average calculation
  45:../src/wx_handler_pressure.c **** 			rte_wx_pressure_history[rte_wx_pressure_it++] = rte_wx_pressure;
  46:../src/wx_handler_pressure.c **** 
  47:../src/wx_handler_pressure.c **** 			// reseting the average length iterator
  48:../src/wx_handler_pressure.c **** 			j = 0;
  49:../src/wx_handler_pressure.c **** 
  50:../src/wx_handler_pressure.c **** 			// check if and end of the buffer was reached
  51:../src/wx_handler_pressure.c **** 			if (rte_wx_pressure_it >= PRESSURE_AVERAGE_LN) {
  52:../src/wx_handler_pressure.c **** 				rte_wx_pressure_it = 0;
  53:../src/wx_handler_pressure.c **** 			}
  54:../src/wx_handler_pressure.c **** 
  55:../src/wx_handler_pressure.c **** 			// calculating the average of pressure measuremenets
  56:../src/wx_handler_pressure.c **** 			for (i = 0; i < PRESSURE_AVERAGE_LN; i++) {
  57:../src/wx_handler_pressure.c **** 
  58:../src/wx_handler_pressure.c **** 				// skip empty slots in the history to provide proper value even for first wx packet
  59:../src/wx_handler_pressure.c **** 				if (rte_wx_pressure_history[i] < 10.0f) {
  60:../src/wx_handler_pressure.c **** 					continue;
  61:../src/wx_handler_pressure.c **** 				}
  62:../src/wx_handler_pressure.c **** 
  63:../src/wx_handler_pressure.c **** 				// add to the average
  64:../src/wx_handler_pressure.c **** 				pressure_average_sum += rte_wx_pressure_history[i];
  65:../src/wx_handler_pressure.c **** 
  66:../src/wx_handler_pressure.c **** 				// increase the average lenght iterator
  67:../src/wx_handler_pressure.c **** 				j++;
  68:../src/wx_handler_pressure.c **** 			}
  69:../src/wx_handler_pressure.c **** 
  70:../src/wx_handler_pressure.c **** 			rte_wx_pressure_valid = pressure_average_sum / (float)j;
  71:../src/wx_handler_pressure.c **** 
  72:../src/wx_handler_pressure.c **** 		}
  73:../src/wx_handler_pressure.c **** 		break;
  74:../src/wx_handler_pressure.c **** 	}
  75:../src/wx_handler_pressure.c **** 	case WX_SOURCE_UMB: {
  76:../src/wx_handler_pressure.c **** 		// get current UMB bus quality factor
  77:../src/wx_handler_pressure.c **** 		umb_quality_factor = umb_get_current_qf(&rte_wx_umb_context, master_time);
  78:../src/wx_handler_pressure.c **** 
  79:../src/wx_handler_pressure.c **** 		// if there are any data collected from UMB sensors
  80:../src/wx_handler_pressure.c **** 		if (umb_quality_factor == UMB_QF_FULL || umb_quality_factor == UMB_QF_DEGRADED) {
  81:../src/wx_handler_pressure.c **** 
  82:../src/wx_handler_pressure.c **** 			// get the average pressure directly, there is no need for any further processing
  83:../src/wx_handler_pressure.c **** 			rte_wx_pressure = umb_get_qnh(config_umb);
  84:../src/wx_handler_pressure.c **** 
  85:../src/wx_handler_pressure.c **** 			// set the flag that external temperature is available
  86:../src/wx_handler_pressure.c **** 			output |= WX_HANDLER_PARAMETER_RESULT_PRESSURE;
  87:../src/wx_handler_pressure.c **** 		}
  88:../src/wx_handler_pressure.c **** 		else {
  89:../src/wx_handler_pressure.c **** 			// do nothing if no new data was received from UMB sensor in last 10 minutes
  90:../src/wx_handler_pressure.c **** 			;
  91:../src/wx_handler_pressure.c **** 		}
  92:../src/wx_handler_pressure.c **** 
  93:../src/wx_handler_pressure.c **** 		break;
  94:../src/wx_handler_pressure.c **** 	}
  95:../src/wx_handler_pressure.c **** 	case WX_SOURCE_RTU:
  96:../src/wx_handler_pressure.c **** 	case WX_SOURCE_FULL_RTU: {
  97:../src/wx_handler_pressure.c **** 
  98:../src/wx_handler_pressure.c **** 		// get the value read from RTU registers
  99:../src/wx_handler_pressure.c **** 		measurement_retval = rtu_get_humidity(&rte_wx_humidity, config_rtu);
 100:../src/wx_handler_pressure.c **** 
 101:../src/wx_handler_pressure.c **** 		// check
 102:../src/wx_handler_pressure.c **** 		if (measurement_retval == MODBUS_RET_OK || measurement_retval == MODBUS_RET_DEGRADED) {
 103:../src/wx_handler_pressure.c **** 
 104:../src/wx_handler_pressure.c **** 			// set the flag that external temperature is available
 105:../src/wx_handler_pressure.c **** 			output |= WX_HANDLER_PARAMETER_RESULT_HUMIDITY;
 106:../src/wx_handler_pressure.c **** 
 107:../src/wx_handler_pressure.c **** 			if (measurement_retval == BME280_OK) {
 108:../src/wx_handler_pressure.c **** 				rte_wx_humidity_valid = rte_wx_humidity;
 109:../src/wx_handler_pressure.c **** 			}
 110:../src/wx_handler_pressure.c **** 		}
 111:../src/wx_handler_pressure.c **** 
 112:../src/wx_handler_pressure.c **** 		break;
 113:../src/wx_handler_pressure.c **** 	}
 114:../src/wx_handler_pressure.c **** 	case WX_SOURCE_DAVIS_SERIAL:
 115:../src/wx_handler_pressure.c **** 		break;
 116:../src/wx_handler_pressure.c **** 	}
 117:../src/wx_handler_pressure.c **** 
 118:../src/wx_handler_pressure.c **** 	return output;
 119:../src/wx_handler_pressure.c **** 
 120:../src/wx_handler_pressure.c **** }
 121:../src/wx_handler_pressure.c **** 
 122:../src/wx_handler_pressure.c **** int32_t wx_get_pressure_ms5611(float * const pressure) {
  28              		.loc 1 122 0
  29              		.cfi_startproc
  30              		@ args = 0, pretend = 0, frame = 0
  31              		@ frame_needed = 0, uses_anonymous_args = 0
  32              	.LVL0:
  33 0000 08B5     		push	{r3, lr}
  34              		.cfi_def_cfa_offset 8
  35              		.cfi_offset 3, -8
  36              		.cfi_offset 14, -4
  37              	.LVL1:
 123:../src/wx_handler_pressure.c **** 
 124:../src/wx_handler_pressure.c **** 	int32_t return_value = 0;
 125:../src/wx_handler_pressure.c **** 
 126:../src/wx_handler_pressure.c **** 	// quering MS5611 sensor for pressure
 127:../src/wx_handler_pressure.c **** 	return_value = ms5611_get_pressure(pressure,  &rte_wx_ms5611_qf);
  38              		.loc 1 127 0
  39 0002 0249     		ldr	r1, .L3
  40 0004 FFF7FEFF 		bl	ms5611_get_pressure
  41              	.LVL2:
 128:../src/wx_handler_pressure.c **** 
 129:../src/wx_handler_pressure.c **** 	return return_value;
 130:../src/wx_handler_pressure.c **** 
 131:../src/wx_handler_pressure.c **** }
  42              		.loc 1 131 0
  43 0008 08BD     		pop	{r3, pc}
  44              	.L4:
  45 000a 00BF     		.align	2
  46              	.L3:
  47 000c 00000000 		.word	rte_wx_ms5611_qf
  48              		.cfi_endproc
  49              	.LFE398:
  51              		.section	.text.wx_get_pressure_bme280,"ax",%progbits
  52              		.align	1
  53              		.global	wx_get_pressure_bme280
  54              		.syntax unified
  55              		.thumb
  56              		.thumb_func
  57              		.fpu fpv4-sp-d16
  59              	wx_get_pressure_bme280:
  60              	.LFB399:
 132:../src/wx_handler_pressure.c **** 
 133:../src/wx_handler_pressure.c **** int32_t wx_get_pressure_bme280(float * const pressure) {
  61              		.loc 1 133 0
  62              		.cfi_startproc
  63              		@ args = 0, pretend = 0, frame = 0
  64              		@ frame_needed = 0, uses_anonymous_args = 0
  65              	.LVL3:
  66 0000 08B5     		push	{r3, lr}
  67              		.cfi_def_cfa_offset 8
  68              		.cfi_offset 3, -8
  69              		.cfi_offset 14, -4
  70              	.LVL4:
 134:../src/wx_handler_pressure.c **** 
 135:../src/wx_handler_pressure.c **** 	int32_t retval = 0;
 136:../src/wx_handler_pressure.c **** 
 137:../src/wx_handler_pressure.c **** 	// check if raw data is avaliable
 138:../src/wx_handler_pressure.c **** 	if (rte_wx_bme280_qf == BME280_QF_FULL) {
  71              		.loc 1 138 0
  72 0002 094B     		ldr	r3, .L10
  73 0004 1B78     		ldrb	r3, [r3]	@ zero_extendqisi2
  74 0006 0BB1     		cbz	r3, .L9
 135:../src/wx_handler_pressure.c **** 
  75              		.loc 1 135 0
  76 0008 0020     		movs	r0, #0
  77              	.LVL5:
  78              	.L5:
 139:../src/wx_handler_pressure.c **** 		retval = bme280_get_pressure(pressure, bme280_get_adc_p(), &rte_wx_bme280_qf);
 140:../src/wx_handler_pressure.c **** 	}
 141:../src/wx_handler_pressure.c **** 
 142:../src/wx_handler_pressure.c **** 	return retval;
 143:../src/wx_handler_pressure.c **** 
 144:../src/wx_handler_pressure.c **** }
  79              		.loc 1 144 0
  80 000a 08BD     		pop	{r3, pc}
  81              	.LVL6:
  82              	.L9:
  83              	.LBB4:
  84              	.LBB5:
  85              		.file 2 "../system/include/drivers/bme280.h"
   1:../system/include/drivers/bme280.h **** /*
   2:../system/include/drivers/bme280.h ****  * bma150.h
   3:../system/include/drivers/bme280.h ****  *
   4:../system/include/drivers/bme280.h ****  *  Created on: 21.06.2020
   5:../system/include/drivers/bme280.h ****  *      Author: mateusz
   6:../system/include/drivers/bme280.h ****  */
   7:../system/include/drivers/bme280.h **** 
   8:../system/include/drivers/bme280.h **** #ifndef INCLUDE_DRIVERS_BME280_H_
   9:../system/include/drivers/bme280.h **** #define INCLUDE_DRIVERS_BME280_H_
  10:../system/include/drivers/bme280.h **** 
  11:../system/include/drivers/bme280.h **** #include "stdint.h"
  12:../system/include/drivers/bme280.h **** 
  13:../system/include/drivers/bme280.h **** #define BME280_OK						0
  14:../system/include/drivers/bme280.h **** #define BME280_SENSOR_NOT_RESPONDING	-1
  15:../system/include/drivers/bme280.h **** #define BME280_SENSOR_NOT_AVALIABLE		-2
  16:../system/include/drivers/bme280.h **** #define BME280_WRONG_PRESSURE_READOUT	-3
  17:../system/include/drivers/bme280.h **** #define BME280_WRONG_HUMIDITY_READOUT	-4
  18:../system/include/drivers/bme280.h **** 
  19:../system/include/drivers/bme280.h **** #define BME280_LN_CALIBRATION 	41
  20:../system/include/drivers/bme280.h **** #define BME280_LN_RAW_DATA		8
  21:../system/include/drivers/bme280.h **** 
  22:../system/include/drivers/bme280.h **** typedef enum bme280_qf {
  23:../system/include/drivers/bme280.h **** 	BME280_QF_FULL,
  24:../system/include/drivers/bme280.h **** 	BME280_QF_NOT_AVAILABLE,
  25:../system/include/drivers/bme280.h **** 	BME280_QF_HUMIDITY_DEGRADED,
  26:../system/include/drivers/bme280.h **** 	BME280_QF_PRESSURE_DEGRADED,
  27:../system/include/drivers/bme280.h **** 	BME280_QF_GEN_DEGRADED,
  28:../system/include/drivers/bme280.h **** 	BME280_QF_UKNOWN
  29:../system/include/drivers/bme280.h **** }bme280_qf_t;
  30:../system/include/drivers/bme280.h **** 
  31:../system/include/drivers/bme280.h **** extern uint8_t bme280_data_buffer[BME280_LN_RAW_DATA + 1];
  32:../system/include/drivers/bme280.h **** extern uint8_t bme280_calibration_data[BME280_LN_CALIBRATION + 1];
  33:../system/include/drivers/bme280.h **** 
  34:../system/include/drivers/bme280.h **** int32_t bme280_reset(bme280_qf_t* qf);
  35:../system/include/drivers/bme280.h **** int32_t bme280_setup(void);
  36:../system/include/drivers/bme280.h **** int32_t bme280_read_calibration(uint8_t* calibration);
  37:../system/include/drivers/bme280.h **** int32_t bme280_read_raw_data(uint8_t* raw_data);
  38:../system/include/drivers/bme280.h **** 
  39:../system/include/drivers/bme280.h **** int32_t bme280_get_pressure(float* out, uint32_t raw_data, bme280_qf_t* qf);
  40:../system/include/drivers/bme280.h **** int32_t bme280_get_temperature(float* out, uint32_t raw_data, bme280_qf_t* qf);
  41:../system/include/drivers/bme280.h **** int32_t bme280_get_humidity(int8_t* out, uint16_t raw_data, bme280_qf_t* qf);
  42:../system/include/drivers/bme280.h **** 
  43:../system/include/drivers/bme280.h **** //#define BME280_CONCAT_BYTES(msb, lsb)            (((uint16_t)msb << 8) | (uint16_t)lsb)
  44:../system/include/drivers/bme280.h **** 
  45:../system/include/drivers/bme280.h **** inline uint32_t bme280_get_adc_t(void) {
  46:../system/include/drivers/bme280.h **** 	return (bme280_data_buffer[3] << 12) | (bme280_data_buffer[4] << 4) | (bme280_data_buffer[5] >> 4)
  47:../system/include/drivers/bme280.h **** }
  48:../system/include/drivers/bme280.h **** 
  49:../system/include/drivers/bme280.h **** inline uint32_t bme280_get_adc_p(void) {
  50:../system/include/drivers/bme280.h **** 	return (bme280_data_buffer[0] << 12) | (bme280_data_buffer[1] << 4) | (bme280_data_buffer[2] >> 4)
  86              		.loc 2 50 0
  87 000c 074A     		ldr	r2, .L10+4
  88 000e 1178     		ldrb	r1, [r2]	@ zero_extendqisi2
  89 0010 5378     		ldrb	r3, [r2, #1]	@ zero_extendqisi2
  90 0012 1B01     		lsls	r3, r3, #4
  91 0014 43EA0133 		orr	r3, r3, r1, lsl #12
  92 0018 9178     		ldrb	r1, [r2, #2]	@ zero_extendqisi2
  93              	.LBE5:
  94              	.LBE4:
 139:../src/wx_handler_pressure.c **** 		retval = bme280_get_pressure(pressure, bme280_get_adc_p(), &rte_wx_bme280_qf);
  95              		.loc 1 139 0
  96 001a 034A     		ldr	r2, .L10
  97 001c 43EA1111 		orr	r1, r3, r1, lsr #4
  98 0020 FFF7FEFF 		bl	bme280_get_pressure
  99              	.LVL7:
 100 0024 F1E7     		b	.L5
 101              	.L11:
 102 0026 00BF     		.align	2
 103              	.L10:
 104 0028 00000000 		.word	rte_wx_bme280_qf
 105 002c 00000000 		.word	bme280_data_buffer
 106              		.cfi_endproc
 107              	.LFE399:
 109              		.section	.text.wx_get_pressure_measurement,"ax",%progbits
 110              		.align	1
 111              		.global	wx_get_pressure_measurement
 112              		.syntax unified
 113              		.thumb
 114              		.thumb_func
 115              		.fpu fpv4-sp-d16
 117              	wx_get_pressure_measurement:
 118              	.LFB397:
  20:../src/wx_handler_pressure.c **** 
 119              		.loc 1 20 0
 120              		.cfi_startproc
 121              		@ args = 0, pretend = 0, frame = 0
 122              		@ frame_needed = 0, uses_anonymous_args = 0
 123              	.LVL8:
 124 0000 10B5     		push	{r4, lr}
 125              		.cfi_def_cfa_offset 8
 126              		.cfi_offset 4, -8
 127              		.cfi_offset 14, -4
 128 0002 1446     		mov	r4, r2
 129              	.LVL9:
  28:../src/wx_handler_pressure.c **** 	case WX_SOURCE_INTERNAL: {
 130              		.loc 1 28 0
 131 0004 0278     		ldrb	r2, [r0]	@ zero_extendqisi2
 132              	.LVL10:
 133 0006 013A     		subs	r2, r2, #1
 134 0008 032A     		cmp	r2, #3
 135 000a 64D8     		bhi	.L25
 136 000c DFE802F0 		tbb	[pc, r2]
 137              	.LVL11:
 138              	.L15:
 139 0010 02       		.byte	(.L14-.L15)/2
 140 0011 41       		.byte	(.L16-.L15)/2
 141 0012 52       		.byte	(.L17-.L15)/2
 142 0013 52       		.byte	(.L17-.L15)/2
 143              		.p2align 1
 144              	.L14:
  32:../src/wx_handler_pressure.c **** 			measurement_retval = wx_get_pressure_bme280(&rte_wx_pressure);
 145              		.loc 1 32 0
 146 0014 4B79     		ldrb	r3, [r1, #5]	@ zero_extendqisi2
 147              	.LVL12:
 148 0016 012B     		cmp	r3, #1
 149 0018 05D0     		beq	.L31
  36:../src/wx_handler_pressure.c **** 		}
 150              		.loc 1 36 0
 151 001a 3148     		ldr	r0, .L35
 152 001c FFF7FEFF 		bl	wx_get_pressure_ms5611
 153              	.LVL13:
 154              	.L19:
  40:../src/wx_handler_pressure.c **** 			// BME280 measures all three things at one call to the driver
 155              		.loc 1 40 0
 156 0020 28B1     		cbz	r0, .L32
  22:../src/wx_handler_pressure.c **** 	int32_t measurement_retval = 0;
 157              		.loc 1 22 0
 158 0022 0020     		movs	r0, #0
 159              	.LVL14:
 160 0024 3DE0     		b	.L12
 161              	.LVL15:
 162              	.L31:
  33:../src/wx_handler_pressure.c **** 		}
 163              		.loc 1 33 0
 164 0026 2E48     		ldr	r0, .L35
 165 0028 FFF7FEFF 		bl	wx_get_pressure_bme280
 166              	.LVL16:
 167 002c F8E7     		b	.L19
 168              	.L32:
 169              	.LVL17:
  45:../src/wx_handler_pressure.c **** 
 170              		.loc 1 45 0
 171 002e 2D4A     		ldr	r2, .L35+4
 172 0030 1178     		ldrb	r1, [r2]	@ zero_extendqisi2
 173 0032 4B1C     		adds	r3, r1, #1
 174 0034 DBB2     		uxtb	r3, r3
 175 0036 1370     		strb	r3, [r2]
 176 0038 2B4A     		ldr	r2, .L35+8
 177 003a 02EB8102 		add	r2, r2, r1, lsl #2
 178 003e 2849     		ldr	r1, .L35
 179 0040 0968     		ldr	r1, [r1]	@ float
 180 0042 1160     		str	r1, [r2]	@ float
  51:../src/wx_handler_pressure.c **** 				rte_wx_pressure_it = 0;
 181              		.loc 1 51 0
 182 0044 032B     		cmp	r3, #3
 183 0046 02D9     		bls	.L20
  52:../src/wx_handler_pressure.c **** 			}
 184              		.loc 1 52 0
 185 0048 264B     		ldr	r3, .L35+4
 186 004a 0022     		movs	r2, #0
 187 004c 1A70     		strb	r2, [r3]
 188              	.L20:
  48:../src/wx_handler_pressure.c **** 
 189              		.loc 1 48 0
 190 004e 0246     		mov	r2, r0
  25:../src/wx_handler_pressure.c **** 	umb_qf_t umb_quality_factor = UMB_QF_UNITIALIZED;	// quality factor for UMB communication
 191              		.loc 1 25 0
 192 0050 DFED266A 		vldr.32	s13, .L35+12
  56:../src/wx_handler_pressure.c **** 
 193              		.loc 1 56 0
 194 0054 00E0     		b	.L21
 195              	.LVL18:
 196              	.L22:
  56:../src/wx_handler_pressure.c **** 
 197              		.loc 1 56 0 is_stmt 0 discriminator 2
 198 0056 0130     		adds	r0, r0, #1
 199              	.LVL19:
 200              	.L21:
  56:../src/wx_handler_pressure.c **** 
 201              		.loc 1 56 0 discriminator 1
 202 0058 0328     		cmp	r0, #3
 203 005a 0FDC     		bgt	.L33
  59:../src/wx_handler_pressure.c **** 					continue;
 204              		.loc 1 59 0 is_stmt 1
 205 005c 224B     		ldr	r3, .L35+8
 206 005e 03EB8003 		add	r3, r3, r0, lsl #2
 207 0062 D3ED007A 		vldr.32	s15, [r3]
 208 0066 B2EE047A 		vmov.f32	s14, #1.0e+1
 209 006a F4EEC77A 		vcmpe.f32	s15, s14
 210 006e F1EE10FA 		vmrs	APSR_nzcv, FPSCR
 211 0072 F0D4     		bmi	.L22
  64:../src/wx_handler_pressure.c **** 
 212              		.loc 1 64 0
 213 0074 76EEA76A 		vadd.f32	s13, s13, s15
 214              	.LVL20:
  67:../src/wx_handler_pressure.c **** 			}
 215              		.loc 1 67 0
 216 0078 0132     		adds	r2, r2, #1
 217              	.LVL21:
 218 007a ECE7     		b	.L22
 219              	.L33:
  70:../src/wx_handler_pressure.c **** 
 220              		.loc 1 70 0
 221 007c 07EE902A 		vmov	s15, r2	@ int
 222 0080 F8EEE77A 		vcvt.f32.s32	s15, s15
 223 0084 86EEA77A 		vdiv.f32	s14, s13, s15
 224 0088 194B     		ldr	r3, .L35+16
 225 008a 83ED007A 		vstr.32	s14, [r3]
  42:../src/wx_handler_pressure.c **** 
 226              		.loc 1 42 0
 227 008e 0420     		movs	r0, #4
 228              	.LVL22:
 229 0090 07E0     		b	.L12
 230              	.LVL23:
 231              	.L16:
  77:../src/wx_handler_pressure.c **** 
 232              		.loc 1 77 0
 233 0092 184B     		ldr	r3, .L35+20
 234              	.LVL24:
 235 0094 1968     		ldr	r1, [r3]
 236              	.LVL25:
 237 0096 1848     		ldr	r0, .L35+24
 238 0098 FFF7FEFF 		bl	umb_get_current_qf
 239              	.LVL26:
  80:../src/wx_handler_pressure.c **** 
 240              		.loc 1 80 0
 241 009c 0128     		cmp	r0, #1
 242 009e 01D9     		bls	.L34
  22:../src/wx_handler_pressure.c **** 	int32_t measurement_retval = 0;
 243              		.loc 1 22 0
 244 00a0 0020     		movs	r0, #0
 245              	.LVL27:
 246              	.L12:
 120:../src/wx_handler_pressure.c **** 
 247              		.loc 1 120 0
 248 00a2 10BD     		pop	{r4, pc}
 249              	.LVL28:
 250              	.L34:
  83:../src/wx_handler_pressure.c **** 
 251              		.loc 1 83 0
 252 00a4 2046     		mov	r0, r4
 253              	.LVL29:
 254 00a6 FFF7FEFF 		bl	umb_get_qnh
 255              	.LVL30:
 256 00aa 0D4B     		ldr	r3, .L35
 257 00ac 83ED000A 		vstr.32	s0, [r3]
 258              	.LVL31:
  86:../src/wx_handler_pressure.c **** 		}
 259              		.loc 1 86 0
 260 00b0 0420     		movs	r0, #4
 261 00b2 F6E7     		b	.L12
 262              	.LVL32:
 263              	.L17:
  99:../src/wx_handler_pressure.c **** 
 264              		.loc 1 99 0
 265 00b4 1946     		mov	r1, r3
 266              	.LVL33:
 267 00b6 1148     		ldr	r0, .L35+28
 268 00b8 FFF7FEFF 		bl	rtu_get_humidity
 269              	.LVL34:
 102:../src/wx_handler_pressure.c **** 
 270              		.loc 1 102 0
 271 00bc 0346     		mov	r3, r0
 272 00be 18B1     		cbz	r0, .L24
 102:../src/wx_handler_pressure.c **** 
 273              		.loc 1 102 0 is_stmt 0 discriminator 1
 274 00c0 0628     		cmp	r0, #6
 275 00c2 01D0     		beq	.L24
  22:../src/wx_handler_pressure.c **** 	int32_t measurement_retval = 0;
 276              		.loc 1 22 0 is_stmt 1
 277 00c4 0020     		movs	r0, #0
 278              	.LVL35:
 279 00c6 ECE7     		b	.L12
 280              	.LVL36:
 281              	.L24:
 107:../src/wx_handler_pressure.c **** 				rte_wx_humidity_valid = rte_wx_humidity;
 282              		.loc 1 107 0
 283 00c8 3BB9     		cbnz	r3, .L29
 108:../src/wx_handler_pressure.c **** 			}
 284              		.loc 1 108 0
 285 00ca 0C4B     		ldr	r3, .L35+28
 286 00cc 1A78     		ldrb	r2, [r3]	@ zero_extendqisi2
 287 00ce 0C4B     		ldr	r3, .L35+32
 288 00d0 1A70     		strb	r2, [r3]
 105:../src/wx_handler_pressure.c **** 
 289              		.loc 1 105 0
 290 00d2 0820     		movs	r0, #8
 291              	.LVL37:
 292 00d4 E5E7     		b	.L12
 293              	.LVL38:
 294              	.L25:
  22:../src/wx_handler_pressure.c **** 	int32_t measurement_retval = 0;
 295              		.loc 1 22 0
 296 00d6 0020     		movs	r0, #0
 297 00d8 E3E7     		b	.L12
 298              	.LVL39:
 299              	.L29:
 105:../src/wx_handler_pressure.c **** 
 300              		.loc 1 105 0
 301 00da 0820     		movs	r0, #8
 302              	.LVL40:
 118:../src/wx_handler_pressure.c **** 
 303              		.loc 1 118 0
 304 00dc E1E7     		b	.L12
 305              	.L36:
 306 00de 00BF     		.align	2
 307              	.L35:
 308 00e0 00000000 		.word	rte_wx_pressure
 309 00e4 00000000 		.word	rte_wx_pressure_it
 310 00e8 00000000 		.word	rte_wx_pressure_history
 311 00ec 00000000 		.word	0
 312 00f0 00000000 		.word	rte_wx_pressure_valid
 313 00f4 00000000 		.word	master_time
 314 00f8 00000000 		.word	rte_wx_umb_context
 315 00fc 00000000 		.word	rte_wx_humidity
 316 0100 00000000 		.word	rte_wx_humidity_valid
 317              		.cfi_endproc
 318              	.LFE397:
 320              		.text
 321              	.Letext0:
 322              		.file 3 "/usr/local/bin/gcc-arm-none-eabi-7-2018-q2-update/lib/gcc/arm-none-eabi/7.3.1/include/std
 323              		.file 4 "../include/config_data.h"
 324              		.file 5 "../include/wx_handler.h"
 325              		.file 6 "../system/include/cmsis/stm32l4xx/core_cm4.h"
 326              		.file 7 "../system/include/cmsis/stm32l4xx/device/system_stm32l4xx.h"
 327              		.file 8 "../system/include/cmsis/stm32l4xx/device/stm32l471xx.h"
 328              		.file 9 "../system/include/drivers/dallas.h"
 329              		.file 10 "../system/include/drivers/analog_anemometer.h"
 330              		.file 11 "../system/include/davis_vantage/davis_loop_t.h"
 331              		.file 12 "../system/include/umb_master/umb_frame_t.h"
 332              		.file 13 "../system/include/umb_master/umb_state_t.h"
 333              		.file 14 "../system/include/drivers/serial.h"
 334              		.file 15 "../system/include/umb_master/umb_context_t.h"
 335              		.file 16 "../system/include/umb_master/umb_qf_t.h"
 336              		.file 17 "/usr/local/bin/gcc-arm-none-eabi-7-2018-q2-update/arm-none-eabi/include/sys/lock.h"
 337              		.file 18 "/usr/local/bin/gcc-arm-none-eabi-7-2018-q2-update/arm-none-eabi/include/sys/_types.h"
 338              		.file 19 "/usr/local/bin/gcc-arm-none-eabi-7-2018-q2-update/lib/gcc/arm-none-eabi/7.3.1/include/st
 339              		.file 20 "/usr/local/bin/gcc-arm-none-eabi-7-2018-q2-update/arm-none-eabi/include/sys/reent.h"
 340              		.file 21 "/usr/local/bin/gcc-arm-none-eabi-7-2018-q2-update/arm-none-eabi/include/math.h"
 341              		.file 22 "../system/include/drivers/ms5611.h"
 342              		.file 23 "../include/rte_wx.h"
 343              		.file 24 "../system/include/aprs/cfifo.h"
 344              		.file 25 "../system/include/aprs/afsk.h"
 345              		.file 26 "../system/include/aprs/ax25.h"
 346              		.file 27 "../include/main.h"
 347              		.file 28 "../system/include/umb_master/umb_master.h"
 348              		.file 29 "../system/include/modbus_rtu/rtu_getters.h"