   1              		.cpu cortex-m4
   2              		.eabi_attribute 27, 1
   3              		.eabi_attribute 28, 1
   4              		.eabi_attribute 20, 1
   5              		.eabi_attribute 21, 1
   6              		.eabi_attribute 23, 3
   7              		.eabi_attribute 24, 1
   8              		.eabi_attribute 25, 1
   9              		.eabi_attribute 26, 1
  10              		.eabi_attribute 30, 1
  11              		.eabi_attribute 34, 1
  12              		.eabi_attribute 18, 4
  13              		.file	"umb_channel_pool.c"
  14              		.text
  15              	.Ltext0:
  16              		.cfi_sections	.debug_frame
  17              		.section	.text.umb_channel_pool,"ax",%progbits
  18              		.align	1
  19              		.global	umb_channel_pool
  20              		.syntax unified
  21              		.thumb
  22              		.thumb_func
  23              		.fpu fpv4-sp-d16
  25              	umb_channel_pool:
  26              	.LFB344:
  27              		.file 1 "../system/src/umb_master/umb_channel_pool.c"
   1:../system/src/umb_master/umb_channel_pool.c **** /*
   2:../system/src/umb_master/umb_channel_pool.c ****  * umb_pool.c
   3:../system/src/umb_master/umb_channel_pool.c ****  *
   4:../system/src/umb_master/umb_channel_pool.c ****  *  Created on: 21.03.2020
   5:../system/src/umb_master/umb_channel_pool.c ****  *      Author: mateusz
   6:../system/src/umb_master/umb_channel_pool.c ****  */
   7:../system/src/umb_master/umb_channel_pool.c **** 
   8:../system/src/umb_master/umb_channel_pool.c **** #include <umb_master/umb_channel_pool.h>
   9:../system/src/umb_master/umb_channel_pool.c **** #include <umb_master/umb_0x23_offline_data.h>
  10:../system/src/umb_master/umb_channel_pool.c **** 
  11:../system/src/umb_master/umb_channel_pool.c **** 
  12:../system/src/umb_master/umb_channel_pool.c **** void umb_channel_pool(umb_frame_t *frame, umb_context_t *ctx, const config_data_umb_t * const confi
  28              		.loc 1 12 0
  29              		.cfi_startproc
  30              		@ args = 0, pretend = 0, frame = 0
  31              		@ frame_needed = 0, uses_anonymous_args = 0
  32              	.LVL0:
  33 0000 70B5     		push	{r4, r5, r6, lr}
  34              		.cfi_def_cfa_offset 16
  35              		.cfi_offset 4, -16
  36              		.cfi_offset 5, -12
  37              		.cfi_offset 6, -8
  38              		.cfi_offset 14, -4
  39 0002 0C46     		mov	r4, r1
  13:../system/src/umb_master/umb_channel_pool.c **** 	if (ctx->channel_number_it >=  UMB_CHANNELS_STORAGE_CAPAC)
  40              		.loc 1 13 0
  41 0004 91F82610 		ldrb	r1, [r1, #38]	@ zero_extendqisi2
  42              	.LVL1:
  43 0008 0529     		cmp	r1, #5
  44 000a 02D9     		bls	.L2
  14:../system/src/umb_master/umb_channel_pool.c **** 		ctx->channel_number_it = 0;
  45              		.loc 1 14 0
  46 000c 0023     		movs	r3, #0
  47 000e 84F82630 		strb	r3, [r4, #38]
  48              	.L2:
  15:../system/src/umb_master/umb_channel_pool.c **** 
  16:../system/src/umb_master/umb_channel_pool.c **** 	uint16_t curr_chn = ctx->channel_numbers[ctx->channel_number_it];
  49              		.loc 1 16 0
  50 0012 94F82610 		ldrb	r1, [r4, #38]	@ zero_extendqisi2
  51 0016 0C31     		adds	r1, r1, #12
  52 0018 04EB4101 		add	r1, r4, r1, lsl #1
  53 001c 4D88     		ldrh	r5, [r1, #2]
  54              	.LVL2:
  17:../system/src/umb_master/umb_channel_pool.c **** 	ctx->current_channel = curr_chn;
  55              		.loc 1 17 0
  56 001e 2585     		strh	r5, [r4, #40]	@ movhi
  18:../system/src/umb_master/umb_channel_pool.c **** 
  19:../system/src/umb_master/umb_channel_pool.c **** 	if (curr_chn != 0xFFFFu && curr_chn != 0x0u) {
  57              		.loc 1 19 0
  58 0020 691E     		subs	r1, r5, #1
  59 0022 89B2     		uxth	r1, r1
  60 0024 4FF6FD76 		movw	r6, #65533
  61 0028 B142     		cmp	r1, r6
  62 002a 05D9     		bls	.L5
  63              	.LVL3:
  64              	.L3:
  20:../system/src/umb_master/umb_channel_pool.c **** 		umb_0x23_offline_data_request(frame, ctx, curr_chn, config_umb);
  21:../system/src/umb_master/umb_channel_pool.c **** 	}
  22:../system/src/umb_master/umb_channel_pool.c **** 
  23:../system/src/umb_master/umb_channel_pool.c **** 	ctx->channel_number_it++;
  65              		.loc 1 23 0
  66 002c 94F82630 		ldrb	r3, [r4, #38]	@ zero_extendqisi2
  67 0030 0133     		adds	r3, r3, #1
  68 0032 84F82630 		strb	r3, [r4, #38]
  24:../system/src/umb_master/umb_channel_pool.c **** }
  69              		.loc 1 24 0
  70 0036 70BD     		pop	{r4, r5, r6, pc}
  71              	.LVL4:
  72              	.L5:
  20:../system/src/umb_master/umb_channel_pool.c **** 		umb_0x23_offline_data_request(frame, ctx, curr_chn, config_umb);
  73              		.loc 1 20 0
  74 0038 1346     		mov	r3, r2
  75 003a 2A46     		mov	r2, r5
  76              	.LVL5:
  77 003c 2146     		mov	r1, r4
  78 003e FFF7FEFF 		bl	umb_0x23_offline_data_request
  79              	.LVL6:
  80 0042 F3E7     		b	.L3
  81              		.cfi_endproc
  82              	.LFE344:
  84              		.text
  85              	.Letext0:
  86              		.file 2 "/usr/local/bin/gcc-arm-none-eabi-7-2018-q2-update/lib/gcc/arm-none-eabi/7.3.1/include/std
  87              		.file 3 "../system/include/umb_master/umb_state_t.h"
  88              		.file 4 "../system/include/cmsis/stm32l4xx/core_cm4.h"
  89              		.file 5 "../system/include/cmsis/stm32l4xx/device/system_stm32l4xx.h"
  90              		.file 6 "../system/include/cmsis/stm32l4xx/device/stm32l471xx.h"
  91              		.file 7 "../system/include/drivers/serial.h"
  92              		.file 8 "../system/include/umb_master/umb_context_t.h"
  93              		.file 9 "../system/include/umb_master/umb_frame_t.h"
  94              		.file 10 "../include/config_data.h"
  95              		.file 11 "../system/include/umb_master/umb_0x23_offline_data.h"