   1              		.cpu cortex-m3
   2              		.eabi_attribute 20, 1
   3              		.eabi_attribute 21, 1
   4              		.eabi_attribute 23, 3
   5              		.eabi_attribute 24, 1
   6              		.eabi_attribute 25, 1
   7              		.eabi_attribute 26, 1
   8              		.eabi_attribute 30, 1
   9              		.eabi_attribute 34, 1
  10              		.eabi_attribute 18, 4
  11              		.file	"delay.c"
  12              		.text
  13              	.Ltext0:
  14              		.cfi_sections	.debug_frame
  15              		.section	.text.delay_fixed,"ax",%progbits
  16              		.align	1
  17              		.global	delay_fixed
  18              		.syntax unified
  19              		.thumb
  20              		.thumb_func
  21              		.fpu softvfp
  23              	delay_fixed:
  24              	.LFB70:
  25              		.file 1 "../src/delay.c"
   1:../src/delay.c **** /*
   2:../src/delay.c ****  * delay.c
   3:../src/delay.c ****  *
   4:../src/delay.c ****  *  Created on: 26.01.2019
   5:../src/delay.c ****  *      Author: mateusz
   6:../src/delay.c ****  */
   7:../src/delay.c **** 
   8:../src/delay.c **** #include "main.h"
   9:../src/delay.c **** 
  10:../src/delay.c **** uint16_t preset_delay_msecs = 0;
  11:../src/delay.c **** uint8_t preset_use_random = 0;
  12:../src/delay.c **** 
  13:../src/delay.c **** // counter decrement in Systick handler
  14:../src/delay.c **** volatile uint16_t delay_cnt = 0;
  15:../src/delay.c **** 
  16:../src/delay.c **** void delay_fixed(uint16_t delay_in_msecs) {
  26              		.loc 1 16 0
  27              		.cfi_startproc
  28              		@ args = 0, pretend = 0, frame = 0
  29              		@ frame_needed = 0, uses_anonymous_args = 0
  30              		@ link register save eliminated.
  31              	.LVL0:
  17:../src/delay.c **** 
  18:../src/delay.c **** 	delay_cnt = delay_in_msecs;
  32              		.loc 1 18 0
  33 0000 034B     		ldr	r3, .L3
  34 0002 1880     		strh	r0, [r3]	@ movhi
  35              	.L2:
  19:../src/delay.c **** 
  20:../src/delay.c **** 	while(delay_cnt > 0);
  36              		.loc 1 20 0 discriminator 1
  37 0004 024B     		ldr	r3, .L3
  38 0006 1B88     		ldrh	r3, [r3]
  39 0008 9BB2     		uxth	r3, r3
  40 000a 002B     		cmp	r3, #0
  41 000c FAD1     		bne	.L2
  21:../src/delay.c **** 
  22:../src/delay.c **** 	return;
  23:../src/delay.c **** 
  24:../src/delay.c **** }
  42              		.loc 1 24 0
  43 000e 7047     		bx	lr
  44              	.L4:
  45              		.align	2
  46              	.L3:
  47 0010 00000000 		.word	.LANCHOR0
  48              		.cfi_endproc
  49              	.LFE70:
  51              		.section	.text.delay_fixed_with_count,"ax",%progbits
  52              		.align	1
  53              		.global	delay_fixed_with_count
  54              		.syntax unified
  55              		.thumb
  56              		.thumb_func
  57              		.fpu softvfp
  59              	delay_fixed_with_count:
  60              	.LFB71:
  25:../src/delay.c **** 
  26:../src/delay.c **** uint32_t delay_fixed_with_count(uint16_t delay_in_msecs) {
  61              		.loc 1 26 0
  62              		.cfi_startproc
  63              		@ args = 0, pretend = 0, frame = 0
  64              		@ frame_needed = 0, uses_anonymous_args = 0
  65              		@ link register save eliminated.
  66              	.LVL1:
  27:../src/delay.c **** 
  28:../src/delay.c **** 	uint32_t ret = 0;
  29:../src/delay.c **** 
  30:../src/delay.c **** 	delay_cnt = delay_in_msecs;
  67              		.loc 1 30 0
  68 0000 054B     		ldr	r3, .L8
  69 0002 1880     		strh	r0, [r3]	@ movhi
  28:../src/delay.c **** 
  70              		.loc 1 28 0
  71 0004 0020     		movs	r0, #0
  72              	.LVL2:
  31:../src/delay.c **** 
  32:../src/delay.c **** 	while(delay_cnt > 0) {
  73              		.loc 1 32 0
  74 0006 00E0     		b	.L6
  75              	.LVL3:
  76              	.L7:
  33:../src/delay.c **** 		ret++;
  77              		.loc 1 33 0
  78 0008 0130     		adds	r0, r0, #1
  79              	.LVL4:
  80              	.L6:
  32:../src/delay.c **** 		ret++;
  81              		.loc 1 32 0
  82 000a 034B     		ldr	r3, .L8
  83 000c 1B88     		ldrh	r3, [r3]
  84 000e 9BB2     		uxth	r3, r3
  85 0010 002B     		cmp	r3, #0
  86 0012 F9D1     		bne	.L7
  34:../src/delay.c **** 	}
  35:../src/delay.c **** 
  36:../src/delay.c **** 	return ret;
  37:../src/delay.c **** }
  87              		.loc 1 37 0
  88 0014 7047     		bx	lr
  89              	.L9:
  90 0016 00BF     		.align	2
  91              	.L8:
  92 0018 00000000 		.word	.LANCHOR0
  93              		.cfi_endproc
  94              	.LFE71:
  96              		.section	.text.delay_random,"ax",%progbits
  97              		.align	1
  98              		.global	delay_random
  99              		.syntax unified
 100              		.thumb
 101              		.thumb_func
 102              		.fpu softvfp
 104              	delay_random:
 105              	.LFB72:
  38:../src/delay.c **** 
  39:../src/delay.c **** void delay_random(void) {
 106              		.loc 1 39 0
 107              		.cfi_startproc
 108              		@ args = 0, pretend = 0, frame = 0
 109              		@ frame_needed = 0, uses_anonymous_args = 0
 110 0000 08B5     		push	{r3, lr}
 111              		.cfi_def_cfa_offset 8
 112              		.cfi_offset 3, -8
 113              		.cfi_offset 14, -4
  40:../src/delay.c **** 
  41:../src/delay.c **** 	uint16_t sample = main_get_adc_sample();
 114              		.loc 1 41 0
 115 0002 FFF7FEFF 		bl	main_get_adc_sample
 116              	.LVL5:
  42:../src/delay.c **** 
  43:../src/delay.c **** 	// random element of delay value could vary from 0 to 300msecs in 20msec steps
  44:../src/delay.c **** 	delay_cnt = (uint16_t)(preset_delay_msecs / 4) + (sample % 15) * 20;
 117              		.loc 1 44 0
 118 0006 094B     		ldr	r3, .L12
 119 0008 1A88     		ldrh	r2, [r3]
 120 000a 094B     		ldr	r3, .L12+4
 121 000c A3FB0013 		umull	r1, r3, r3, r0
 122 0010 DB08     		lsrs	r3, r3, #3
 123 0012 C3EB0313 		rsb	r3, r3, r3, lsl #4
 124 0016 C01A     		subs	r0, r0, r3
 125              	.LVL6:
 126 0018 00EB8000 		add	r0, r0, r0, lsl #2
 127 001c 8300     		lsls	r3, r0, #2
 128 001e 03EB9203 		add	r3, r3, r2, lsr #2
 129 0022 9BB2     		uxth	r3, r3
 130 0024 034A     		ldr	r2, .L12+8
 131 0026 1380     		strh	r3, [r2]	@ movhi
  45:../src/delay.c **** 
  46:../src/delay.c **** }
 132              		.loc 1 46 0
 133 0028 08BD     		pop	{r3, pc}
 134              	.L13:
 135 002a 00BF     		.align	2
 136              	.L12:
 137 002c 00000000 		.word	.LANCHOR1
 138 0030 89888888 		.word	-2004318071
 139 0034 00000000 		.word	.LANCHOR0
 140              		.cfi_endproc
 141              	.LFE72:
 143              		.section	.text.delay_set,"ax",%progbits
 144              		.align	1
 145              		.global	delay_set
 146              		.syntax unified
 147              		.thumb
 148              		.thumb_func
 149              		.fpu softvfp
 151              	delay_set:
 152              	.LFB73:
  47:../src/delay.c **** 
  48:../src/delay.c **** void delay_set(uint16_t delay_in_msecs, uint8_t randomize) {
 153              		.loc 1 48 0
 154              		.cfi_startproc
 155              		@ args = 0, pretend = 0, frame = 0
 156              		@ frame_needed = 0, uses_anonymous_args = 0
 157              		@ link register save eliminated.
 158              	.LVL7:
  49:../src/delay.c **** 	preset_delay_msecs = delay_in_msecs * 50;
 159              		.loc 1 49 0
 160 0000 00EB8000 		add	r0, r0, r0, lsl #2
 161              	.LVL8:
 162 0004 00EB8000 		add	r0, r0, r0, lsl #2
 163 0008 4300     		lsls	r3, r0, #1
 164 000a 064A     		ldr	r2, .L18
 165 000c 1380     		strh	r3, [r2]	@ movhi
  50:../src/delay.c **** 
  51:../src/delay.c **** 	if (randomize == 1) {
 166              		.loc 1 51 0
 167 000e 0129     		cmp	r1, #1
 168 0010 03D0     		beq	.L17
  52:../src/delay.c **** 		preset_use_random = 1;
  53:../src/delay.c **** 	}
  54:../src/delay.c **** 	else {
  55:../src/delay.c **** 		preset_use_random = 0;
 169              		.loc 1 55 0
 170 0012 054B     		ldr	r3, .L18+4
 171 0014 0022     		movs	r2, #0
 172 0016 1A70     		strb	r2, [r3]
  56:../src/delay.c **** 	}
  57:../src/delay.c **** }
 173              		.loc 1 57 0
 174 0018 7047     		bx	lr
 175              	.L17:
  52:../src/delay.c **** 		preset_use_random = 1;
 176              		.loc 1 52 0
 177 001a 034B     		ldr	r3, .L18+4
 178 001c 0122     		movs	r2, #1
 179 001e 1A70     		strb	r2, [r3]
 180 0020 7047     		bx	lr
 181              	.L19:
 182 0022 00BF     		.align	2
 183              	.L18:
 184 0024 00000000 		.word	.LANCHOR1
 185 0028 00000000 		.word	.LANCHOR2
 186              		.cfi_endproc
 187              	.LFE73:
 189              		.section	.text.delay_from_preset,"ax",%progbits
 190              		.align	1
 191              		.global	delay_from_preset
 192              		.syntax unified
 193              		.thumb
 194              		.thumb_func
 195              		.fpu softvfp
 197              	delay_from_preset:
 198              	.LFB74:
  58:../src/delay.c **** 
  59:../src/delay.c **** void delay_from_preset(void) {
 199              		.loc 1 59 0
 200              		.cfi_startproc
 201              		@ args = 0, pretend = 0, frame = 0
 202              		@ frame_needed = 0, uses_anonymous_args = 0
 203 0000 08B5     		push	{r3, lr}
 204              		.cfi_def_cfa_offset 8
 205              		.cfi_offset 3, -8
 206              		.cfi_offset 14, -4
  60:../src/delay.c **** 
  61:../src/delay.c **** 	delay_cnt = preset_delay_msecs;
 207              		.loc 1 61 0
 208 0002 084B     		ldr	r3, .L25
 209 0004 1A88     		ldrh	r2, [r3]
 210 0006 084B     		ldr	r3, .L25+4
 211 0008 1A80     		strh	r2, [r3]	@ movhi
 212              	.L21:
  62:../src/delay.c **** 
  63:../src/delay.c **** 	while(delay_cnt > (uint16_t)0);
 213              		.loc 1 63 0 discriminator 1
 214 000a 074B     		ldr	r3, .L25+4
 215 000c 1B88     		ldrh	r3, [r3]
 216 000e 9BB2     		uxth	r3, r3
 217 0010 002B     		cmp	r3, #0
 218 0012 FAD1     		bne	.L21
  64:../src/delay.c **** 
  65:../src/delay.c **** 	if (preset_use_random == 1) {
 219              		.loc 1 65 0
 220 0014 054B     		ldr	r3, .L25+8
 221 0016 1B78     		ldrb	r3, [r3]	@ zero_extendqisi2
 222 0018 012B     		cmp	r3, #1
 223 001a 00D0     		beq	.L24
 224              	.L20:
  66:../src/delay.c **** 		delay_random();
  67:../src/delay.c **** 	}
  68:../src/delay.c **** 
  69:../src/delay.c **** 
  70:../src/delay.c **** }
 225              		.loc 1 70 0
 226 001c 08BD     		pop	{r3, pc}
 227              	.L24:
  66:../src/delay.c **** 		delay_random();
 228              		.loc 1 66 0
 229 001e FFF7FEFF 		bl	delay_random
 230              	.LVL9:
 231              		.loc 1 70 0
 232 0022 FBE7     		b	.L20
 233              	.L26:
 234              		.align	2
 235              	.L25:
 236 0024 00000000 		.word	.LANCHOR1
 237 0028 00000000 		.word	.LANCHOR0
 238 002c 00000000 		.word	.LANCHOR2
 239              		.cfi_endproc
 240              	.LFE74:
 242              		.global	delay_cnt
 243              		.global	preset_use_random
 244              		.global	preset_delay_msecs
 245              		.section	.bss.delay_cnt,"aw",%nobits
 246              		.align	1
 247              		.set	.LANCHOR0,. + 0
 250              	delay_cnt:
 251 0000 0000     		.space	2
 252              		.section	.bss.preset_delay_msecs,"aw",%nobits
 253              		.align	1
 254              		.set	.LANCHOR1,. + 0
 257              	preset_delay_msecs:
 258 0000 0000     		.space	2
 259              		.section	.bss.preset_use_random,"aw",%nobits
 260              		.set	.LANCHOR2,. + 0
 263              	preset_use_random:
 264 0000 00       		.space	1
 265              		.text
 266              	.Letext0:
 267              		.file 2 "/usr/local/bin/gcc-arm-none-eabi-7-2018-q2-update/lib/gcc/arm-none-eabi/7.3.1/include/std
 268              		.file 3 "../system/include/cmsis/core_cm3.h"
 269              		.file 4 "../system/include/cmsis/system_stm32f10x.h"
 270              		.file 5 "../system/include/cmsis/stm32f10x.h"
 271              		.file 6 "../system/include/aprs/cfifo.h"
 272              		.file 7 "../system/include/aprs/afsk.h"
 273              		.file 8 "../system/include/aprs/ax25.h"
 274              		.file 9 "../system/include/drivers/serial.h"
 275              		.file 10 "../include/config_data.h"
 276              		.file 11 "../include/main.h"