   1              		.cpu cortex-m3
   2              		.eabi_attribute 20, 1
   3              		.eabi_attribute 21, 1
   4              		.eabi_attribute 23, 3
   5              		.eabi_attribute 24, 1
   6              		.eabi_attribute 25, 1
   7              		.eabi_attribute 26, 1
   8              		.eabi_attribute 30, 1
   9              		.eabi_attribute 34, 1
  10              		.eabi_attribute 18, 4
  11              		.file	"io.c"
  12              		.text
  13              	.Ltext0:
  14              		.cfi_sections	.debug_frame
  15              		.section	.text.io_oc_init,"ax",%progbits
  16              		.align	1
  17              		.global	io_oc_init
  18              		.syntax unified
  19              		.thumb
  20              		.thumb_func
  21              		.fpu softvfp
  23              	io_oc_init:
  24              	.LFB63:
  25              		.file 1 "../src/io.c"
   1:../src/io.c   **** /*
   2:../src/io.c   ****  * io.c
   3:../src/io.c   ****  *
   4:../src/io.c   ****  *  Created on: 11.06.2020
   5:../src/io.c   ****  *      Author: mateusz
   6:../src/io.c   ****  */
   7:../src/io.c   **** 
   8:../src/io.c   **** #include "io.h"
   9:../src/io.c   **** #include <stm32f10x.h>
  10:../src/io.c   **** 
  11:../src/io.c   **** #include "station_config.h"
  12:../src/io.c   **** 
  13:../src/io.c   **** void io_oc_init(void) {
  26              		.loc 1 13 0
  27              		.cfi_startproc
  28              		@ args = 0, pretend = 0, frame = 8
  29              		@ frame_needed = 0, uses_anonymous_args = 0
  30 0000 00B5     		push	{lr}
  31              		.cfi_def_cfa_offset 4
  32              		.cfi_offset 14, -4
  33 0002 83B0     		sub	sp, sp, #12
  34              		.cfi_def_cfa_offset 16
  14:../src/io.c   **** 
  15:../src/io.c   **** 	GPIO_InitTypeDef GPIO_InitStructure;
  16:../src/io.c   **** 	GPIO_InitStructure.GPIO_Pin = GPIO_Pin_11;
  35              		.loc 1 16 0
  36 0004 4FF40063 		mov	r3, #2048
  37 0008 ADF80430 		strh	r3, [sp, #4]	@ movhi
  17:../src/io.c   **** 	GPIO_InitStructure.GPIO_Speed = GPIO_Speed_50MHz;
  38              		.loc 1 17 0
  39 000c 0323     		movs	r3, #3
  40 000e 8DF80630 		strb	r3, [sp, #6]
  18:../src/io.c   **** 	GPIO_InitStructure.GPIO_Mode = GPIO_Mode_Out_PP;
  41              		.loc 1 18 0
  42 0012 1023     		movs	r3, #16
  43 0014 8DF80730 		strb	r3, [sp, #7]
  19:../src/io.c   **** 	GPIO_Init(GPIOA, &GPIO_InitStructure);
  44              		.loc 1 19 0
  45 0018 01A9     		add	r1, sp, #4
  46 001a 0348     		ldr	r0, .L3
  47 001c FFF7FEFF 		bl	GPIO_Init
  48              	.LVL0:
  20:../src/io.c   **** }
  49              		.loc 1 20 0
  50 0020 03B0     		add	sp, sp, #12
  51              		.cfi_def_cfa_offset 4
  52              		@ sp needed
  53 0022 5DF804FB 		ldr	pc, [sp], #4
  54              	.L4:
  55 0026 00BF     		.align	2
  56              	.L3:
  57 0028 00080140 		.word	1073809408
  58              		.cfi_endproc
  59              	.LFE63:
  61              		.section	.text.io_oc_output_low,"ax",%progbits
  62              		.align	1
  63              		.global	io_oc_output_low
  64              		.syntax unified
  65              		.thumb
  66              		.thumb_func
  67              		.fpu softvfp
  69              	io_oc_output_low:
  70              	.LFB64:
  21:../src/io.c   **** 
  22:../src/io.c   **** void io_oc_output_low(void) {
  71              		.loc 1 22 0
  72              		.cfi_startproc
  73              		@ args = 0, pretend = 0, frame = 0
  74              		@ frame_needed = 0, uses_anonymous_args = 0
  75 0000 08B5     		push	{r3, lr}
  76              		.cfi_def_cfa_offset 8
  77              		.cfi_offset 3, -8
  78              		.cfi_offset 14, -4
  23:../src/io.c   **** 
  24:../src/io.c   **** 	GPIO_SetBits(GPIOA, GPIO_Pin_11);
  79              		.loc 1 24 0
  80 0002 4FF40061 		mov	r1, #2048
  81 0006 0248     		ldr	r0, .L7
  82 0008 FFF7FEFF 		bl	GPIO_SetBits
  83              	.LVL1:
  25:../src/io.c   **** }
  84              		.loc 1 25 0
  85 000c 08BD     		pop	{r3, pc}
  86              	.L8:
  87 000e 00BF     		.align	2
  88              	.L7:
  89 0010 00080140 		.word	1073809408
  90              		.cfi_endproc
  91              	.LFE64:
  93              		.section	.text.io_oc_output_hiz,"ax",%progbits
  94              		.align	1
  95              		.global	io_oc_output_hiz
  96              		.syntax unified
  97              		.thumb
  98              		.thumb_func
  99              		.fpu softvfp
 101              	io_oc_output_hiz:
 102              	.LFB65:
  26:../src/io.c   **** 
  27:../src/io.c   **** void io_oc_output_hiz(void) {
 103              		.loc 1 27 0
 104              		.cfi_startproc
 105              		@ args = 0, pretend = 0, frame = 0
 106              		@ frame_needed = 0, uses_anonymous_args = 0
 107 0000 08B5     		push	{r3, lr}
 108              		.cfi_def_cfa_offset 8
 109              		.cfi_offset 3, -8
 110              		.cfi_offset 14, -4
  28:../src/io.c   **** 
  29:../src/io.c   **** 	GPIO_ResetBits(GPIOA, GPIO_Pin_11);
 111              		.loc 1 29 0
 112 0002 4FF40061 		mov	r1, #2048
 113 0006 0248     		ldr	r0, .L11
 114 0008 FFF7FEFF 		bl	GPIO_ResetBits
 115              	.LVL2:
  30:../src/io.c   **** 
  31:../src/io.c   **** }
 116              		.loc 1 31 0
 117 000c 08BD     		pop	{r3, pc}
 118              	.L12:
 119 000e 00BF     		.align	2
 120              	.L11:
 121 0010 00080140 		.word	1073809408
 122              		.cfi_endproc
 123              	.LFE65:
 125              		.text
 126              	.Letext0:
 127              		.file 2 "/usr/local/bin/gcc-arm-none-eabi-7-2018-q2-update/lib/gcc/arm-none-eabi/7.3.1/include/std
 128              		.file 3 "../system/include/cmsis/core_cm3.h"
 129              		.file 4 "../system/include/cmsis/system_stm32f10x.h"
 130              		.file 5 "../system/include/cmsis/stm32f10x.h"
 131              		.file 6 "../system/include/stm32f1-stdperiph/stm32f10x_gpio.h"