   1              		.cpu cortex-m3
   2              		.eabi_attribute 20, 1
   3              		.eabi_attribute 21, 1
   4              		.eabi_attribute 23, 3
   5              		.eabi_attribute 24, 1
   6              		.eabi_attribute 25, 1
   7              		.eabi_attribute 26, 1
   8              		.eabi_attribute 30, 1
   9              		.eabi_attribute 34, 1
  10              		.eabi_attribute 18, 4
  11              		.file	"LedConfig.c"
  12              		.text
  13              	.Ltext0:
  14              		.cfi_sections	.debug_frame
  15              		.section	.text.led_init,"ax",%progbits
  16              		.align	1
  17              		.global	led_init
  18              		.syntax unified
  19              		.thumb
  20              		.thumb_func
  21              		.fpu softvfp
  23              	led_init:
  24              	.LFB69:
  25              		.file 1 "../src/LedConfig.c"
   1:../src/LedConfig.c **** /*
   2:../src/LedConfig.c ****  * LedConfig.c
   3:../src/LedConfig.c ****  *
   4:../src/LedConfig.c ****  *  Created on: 05.07.2017
   5:../src/LedConfig.c ****  *      Author: mateusz
   6:../src/LedConfig.c ****  */
   7:../src/LedConfig.c **** 
   8:../src/LedConfig.c **** #include "LedConfig.h"
   9:../src/LedConfig.c **** #include <stm32f10x.h>
  10:../src/LedConfig.c **** 
  11:../src/LedConfig.c **** // PC8 - LED1 - upper
  12:../src/LedConfig.c **** // PC9 - LED2 - lower
  13:../src/LedConfig.c **** 
  14:../src/LedConfig.c **** uint8_t led_blinking_led2;
  15:../src/LedConfig.c **** uint8_t led_blinking_led1;
  16:../src/LedConfig.c **** 
  17:../src/LedConfig.c **** void led_init(void) {
  26              		.loc 1 17 0
  27              		.cfi_startproc
  28              		@ args = 0, pretend = 0, frame = 8
  29              		@ frame_needed = 0, uses_anonymous_args = 0
  30 0000 30B5     		push	{r4, r5, lr}
  31              		.cfi_def_cfa_offset 12
  32              		.cfi_offset 4, -12
  33              		.cfi_offset 5, -8
  34              		.cfi_offset 14, -4
  35 0002 83B0     		sub	sp, sp, #12
  36              		.cfi_def_cfa_offset 24
  18:../src/LedConfig.c **** 	GPIO_InitTypeDef GPIO_InitStructure;
  19:../src/LedConfig.c **** 	GPIO_InitStructure.GPIO_Pin = GPIO_Pin_9;
  37              		.loc 1 19 0
  38 0004 4FF40073 		mov	r3, #512
  39 0008 ADF80430 		strh	r3, [sp, #4]	@ movhi
  20:../src/LedConfig.c **** 	GPIO_InitStructure.GPIO_Speed = GPIO_Speed_50MHz;
  40              		.loc 1 20 0
  41 000c 0325     		movs	r5, #3
  42 000e 8DF80650 		strb	r5, [sp, #6]
  21:../src/LedConfig.c **** 	GPIO_InitStructure.GPIO_Mode = GPIO_Mode_Out_PP;
  43              		.loc 1 21 0
  44 0012 1023     		movs	r3, #16
  45 0014 8DF80730 		strb	r3, [sp, #7]
  22:../src/LedConfig.c **** 	GPIO_Init(GPIOC, &GPIO_InitStructure);
  46              		.loc 1 22 0
  47 0018 104C     		ldr	r4, .L3
  48 001a 01A9     		add	r1, sp, #4
  49 001c 2046     		mov	r0, r4
  50 001e FFF7FEFF 		bl	GPIO_Init
  51              	.LVL0:
  23:../src/LedConfig.c **** 
  24:../src/LedConfig.c **** 	GPIO_InitStructure.GPIO_Pin = GPIO_Pin_8;
  52              		.loc 1 24 0
  53 0022 4FF48073 		mov	r3, #256
  54 0026 ADF80430 		strh	r3, [sp, #4]	@ movhi
  25:../src/LedConfig.c **** 	GPIO_Init(GPIOC, &GPIO_InitStructure);
  55              		.loc 1 25 0
  56 002a 01A9     		add	r1, sp, #4
  57 002c 2046     		mov	r0, r4
  58 002e FFF7FEFF 		bl	GPIO_Init
  59              	.LVL1:
  26:../src/LedConfig.c **** 
  27:../src/LedConfig.c **** 	GPIO_SetBits(GPIOC, GPIO_Pin_9 | GPIO_Pin_8);
  60              		.loc 1 27 0
  61 0032 4FF44071 		mov	r1, #768
  62 0036 2046     		mov	r0, r4
  63 0038 FFF7FEFF 		bl	GPIO_SetBits
  64              	.LVL2:
  28:../src/LedConfig.c **** 
  29:../src/LedConfig.c **** 	GPIO_InitStructure.GPIO_Pin = GPIO_Pin_0;
  65              		.loc 1 29 0
  66 003c 0123     		movs	r3, #1
  67 003e ADF80430 		strh	r3, [sp, #4]	@ movhi
  30:../src/LedConfig.c **** 	GPIO_InitStructure.GPIO_Speed = GPIO_Speed_50MHz;
  68              		.loc 1 30 0
  69 0042 8DF80650 		strb	r5, [sp, #6]
  31:../src/LedConfig.c **** 	GPIO_InitStructure.GPIO_Mode = GPIO_Mode_IN_FLOATING;
  70              		.loc 1 31 0
  71 0046 0423     		movs	r3, #4
  72 0048 8DF80730 		strb	r3, [sp, #7]
  32:../src/LedConfig.c **** 	GPIO_Init(GPIOA, &GPIO_InitStructure);
  73              		.loc 1 32 0
  74 004c 0DEB0301 		add	r1, sp, r3
  75 0050 0348     		ldr	r0, .L3+4
  76 0052 FFF7FEFF 		bl	GPIO_Init
  77              	.LVL3:
  33:../src/LedConfig.c **** 
  34:../src/LedConfig.c **** }
  78              		.loc 1 34 0
  79 0056 03B0     		add	sp, sp, #12
  80              		.cfi_def_cfa_offset 12
  81              		@ sp needed
  82 0058 30BD     		pop	{r4, r5, pc}
  83              	.L4:
  84 005a 00BF     		.align	2
  85              	.L3:
  86 005c 00100140 		.word	1073811456
  87 0060 00080140 		.word	1073809408
  88              		.cfi_endproc
  89              	.LFE69:
  91              		.section	.text.led_service_blink,"ax",%progbits
  92              		.align	1
  93              		.global	led_service_blink
  94              		.syntax unified
  95              		.thumb
  96              		.thumb_func
  97              		.fpu softvfp
  99              	led_service_blink:
 100              	.LFB70:
  35:../src/LedConfig.c **** 
  36:../src/LedConfig.c **** void led_service_blink(void) {
 101              		.loc 1 36 0
 102              		.cfi_startproc
 103              		@ args = 0, pretend = 0, frame = 0
 104              		@ frame_needed = 0, uses_anonymous_args = 0
 105              		@ link register save eliminated.
  37:../src/LedConfig.c **** 
  38:../src/LedConfig.c **** 	if (led_blinking_led1 > 0) {
 106              		.loc 1 38 0
 107 0000 1B4B     		ldr	r3, .L15
 108 0002 1B78     		ldrb	r3, [r3]	@ zero_extendqisi2
 109 0004 13B1     		cbz	r3, .L6
  39:../src/LedConfig.c **** 		led_blinking_led1 -= BLINK_MSEC_PER_SVC_CALL;
 110              		.loc 1 39 0
 111 0006 0A3B     		subs	r3, r3, #10
 112 0008 194A     		ldr	r2, .L15
 113 000a 1370     		strb	r3, [r2]
 114              	.L6:
  40:../src/LedConfig.c **** 
  41:../src/LedConfig.c **** 	}
  42:../src/LedConfig.c **** 
  43:../src/LedConfig.c **** 	if (led_blinking_led2 > 0) {
 115              		.loc 1 43 0
 116 000c 194B     		ldr	r3, .L15+4
 117 000e 1B78     		ldrb	r3, [r3]	@ zero_extendqisi2
 118 0010 13B1     		cbz	r3, .L7
  44:../src/LedConfig.c **** 		led_blinking_led2 -= BLINK_MSEC_PER_SVC_CALL;
 119              		.loc 1 44 0
 120 0012 0A3B     		subs	r3, r3, #10
 121 0014 174A     		ldr	r2, .L15+4
 122 0016 1370     		strb	r3, [r2]
 123              	.L7:
  45:../src/LedConfig.c **** 	}
  46:../src/LedConfig.c **** 
  47:../src/LedConfig.c **** 
  48:../src/LedConfig.c **** 
  49:../src/LedConfig.c **** 	if (led_blinking_led1 == BLINK_MSEC_PER_SVC_CALL) {
 124              		.loc 1 49 0
 125 0018 154B     		ldr	r3, .L15
 126 001a 1B78     		ldrb	r3, [r3]	@ zero_extendqisi2
 127 001c 0A2B     		cmp	r3, #10
 128 001e 04D0     		beq	.L12
 129              	.L8:
  50:../src/LedConfig.c **** 		led_flip_led1_upper();
  51:../src/LedConfig.c **** 	}
  52:../src/LedConfig.c **** 
  53:../src/LedConfig.c **** 	if (led_blinking_led2 == BLINK_MSEC_PER_SVC_CALL) {
 130              		.loc 1 53 0
 131 0020 144B     		ldr	r3, .L15+4
 132 0022 1B78     		ldrb	r3, [r3]	@ zero_extendqisi2
 133 0024 0A2B     		cmp	r3, #10
 134 0026 11D0     		beq	.L13
 135              	.L5:
  54:../src/LedConfig.c **** 		led_flip_led2_bottom();
  55:../src/LedConfig.c **** 	}
  56:../src/LedConfig.c **** 
  57:../src/LedConfig.c **** 
  58:../src/LedConfig.c **** 
  59:../src/LedConfig.c **** }
 136              		.loc 1 59 0
 137 0028 7047     		bx	lr
 138              	.L12:
 139              	.LBB6:
 140              	.LBB7:
 141              		.file 2 "../include/LedConfig.h"
   1:../include/LedConfig.h **** /*
   2:../include/LedConfig.h ****  * LedConfig.h
   3:../include/LedConfig.h ****  *
   4:../include/LedConfig.h ****  *  Created on: 05.07.2017
   5:../include/LedConfig.h ****  *      Author: mateusz
   6:../include/LedConfig.h ****  */
   7:../include/LedConfig.h **** 
   8:../include/LedConfig.h **** #ifndef LEDCONFIG_H_
   9:../include/LedConfig.h **** #define LEDCONFIG_H_
  10:../include/LedConfig.h **** 
  11:../include/LedConfig.h **** // PC8 - LED1 - upper
  12:../include/LedConfig.h **** // PC9 - LED2 - lower
  13:../include/LedConfig.h **** 
  14:../include/LedConfig.h **** #include <stm32f10x.h>
  15:../include/LedConfig.h **** #include <stdint.h>
  16:../include/LedConfig.h **** #include <stdbool.h>
  17:../include/LedConfig.h **** 
  18:../include/LedConfig.h **** #define BLINK_DURATION_MSEC 		20 * BLINK_MSEC_PER_SVC_CALL
  19:../include/LedConfig.h **** #define BLINK_MSEC_PER_SVC_CALL 	10
  20:../include/LedConfig.h **** 
  21:../include/LedConfig.h **** /* C++ detection */
  22:../include/LedConfig.h **** #ifdef __cplusplus
  23:../include/LedConfig.h **** extern "C" {
  24:../include/LedConfig.h **** #endif
  25:../include/LedConfig.h **** 
  26:../include/LedConfig.h **** extern uint8_t led_blinking_led2;
  27:../include/LedConfig.h **** extern uint8_t led_blinking_led1;
  28:../include/LedConfig.h **** 
  29:../include/LedConfig.h **** void led_config(void);
  30:../include/LedConfig.h **** void led_init(void);
  31:../include/LedConfig.h **** void led_service_blink(void);
  32:../include/LedConfig.h **** 
  33:../include/LedConfig.h **** inline void led_control_led1_upper(bool _in) {
  34:../include/LedConfig.h **** 	if (_in == true) {
  35:../include/LedConfig.h **** 		GPIOC->BSRR |= GPIO_BSRR_BS8;
  36:../include/LedConfig.h **** 	}
  37:../include/LedConfig.h **** 	else {
  38:../include/LedConfig.h **** 		GPIOC->BSRR |= GPIO_BSRR_BR8;
  39:../include/LedConfig.h **** 	}
  40:../include/LedConfig.h **** }
  41:../include/LedConfig.h **** 
  42:../include/LedConfig.h **** inline void led_control_led2_bottom(bool _in) {
  43:../include/LedConfig.h **** 	if (_in == true) {
  44:../include/LedConfig.h **** 		GPIOC->BSRR |= GPIO_BSRR_BS9;
  45:../include/LedConfig.h **** 	}
  46:../include/LedConfig.h **** 	else {
  47:../include/LedConfig.h **** 		GPIOC->BSRR |= GPIO_BSRR_BR9;
  48:../include/LedConfig.h **** 	}
  49:../include/LedConfig.h **** }
  50:../include/LedConfig.h **** 
  51:../include/LedConfig.h **** inline void led_flip_led1_upper(void) {
  52:../include/LedConfig.h **** 	if ((GPIOC->ODR & GPIO_ODR_ODR8)  == GPIO_ODR_ODR8) {
 142              		.loc 2 52 0
 143 002a 134B     		ldr	r3, .L15+8
 144 002c DB68     		ldr	r3, [r3, #12]
 145 002e 13F4807F 		tst	r3, #256
 146 0032 05D0     		beq	.L9
  53:../include/LedConfig.h **** 		GPIOC->BSRR |= GPIO_BSRR_BR8;
 147              		.loc 2 53 0
 148 0034 104A     		ldr	r2, .L15+8
 149 0036 1369     		ldr	r3, [r2, #16]
 150 0038 43F08073 		orr	r3, r3, #16777216
 151 003c 1361     		str	r3, [r2, #16]
 152 003e EFE7     		b	.L8
 153              	.L9:
  54:../include/LedConfig.h **** 	}
  55:../include/LedConfig.h **** 	else {
  56:../include/LedConfig.h **** 		GPIOC->BSRR |= GPIO_BSRR_BS8;
 154              		.loc 2 56 0
 155 0040 0D4A     		ldr	r2, .L15+8
 156 0042 1369     		ldr	r3, [r2, #16]
 157 0044 43F48073 		orr	r3, r3, #256
 158 0048 1361     		str	r3, [r2, #16]
 159 004a E9E7     		b	.L8
 160              	.L13:
 161              	.LBE7:
 162              	.LBE6:
 163              	.LBB8:
 164              	.LBB9:
  57:../include/LedConfig.h **** 	}
  58:../include/LedConfig.h **** }
  59:../include/LedConfig.h **** 
  60:../include/LedConfig.h **** inline void led_flip_led2_bottom(void) {
  61:../include/LedConfig.h **** 	if ((GPIOC->ODR & GPIO_ODR_ODR9)  == GPIO_ODR_ODR9) {
 165              		.loc 2 61 0
 166 004c 0A4B     		ldr	r3, .L15+8
 167 004e DB68     		ldr	r3, [r3, #12]
 168 0050 13F4007F 		tst	r3, #512
 169 0054 05D1     		bne	.L14
  62:../include/LedConfig.h **** 		GPIOC->BSRR |= GPIO_BSRR_BR9;
  63:../include/LedConfig.h **** 	}
  64:../include/LedConfig.h **** 	else {
  65:../include/LedConfig.h **** 		GPIOC->BSRR |= GPIO_BSRR_BS9;
 170              		.loc 2 65 0
 171 0056 084A     		ldr	r2, .L15+8
 172 0058 1369     		ldr	r3, [r2, #16]
 173 005a 43F40073 		orr	r3, r3, #512
 174 005e 1361     		str	r3, [r2, #16]
 175              	.LBE9:
 176              	.LBE8:
 177              		.loc 1 59 0
 178 0060 E2E7     		b	.L5
 179              	.L14:
 180              	.LBB11:
 181              	.LBB10:
  62:../include/LedConfig.h **** 		GPIOC->BSRR |= GPIO_BSRR_BR9;
 182              		.loc 2 62 0
 183 0062 054A     		ldr	r2, .L15+8
 184 0064 1369     		ldr	r3, [r2, #16]
 185 0066 43F00073 		orr	r3, r3, #33554432
 186 006a 1361     		str	r3, [r2, #16]
 187 006c 7047     		bx	lr
 188              	.L16:
 189 006e 00BF     		.align	2
 190              	.L15:
 191 0070 00000000 		.word	led_blinking_led1
 192 0074 00000000 		.word	led_blinking_led2
 193 0078 00100140 		.word	1073811456
 194              	.LBE10:
 195              	.LBE11:
 196              		.cfi_endproc
 197              	.LFE70:
 199              		.comm	led_blinking_led1,1,1
 200              		.comm	led_blinking_led2,1,1
 201              		.text
 202              	.Letext0:
 203              		.file 3 "/usr/local/bin/gcc-arm-none-eabi-7-2018-q2-update/lib/gcc/arm-none-eabi/7.3.1/include/std
 204              		.file 4 "../system/include/cmsis/core_cm3.h"
 205              		.file 5 "../system/include/cmsis/system_stm32f10x.h"
 206              		.file 6 "../system/include/cmsis/stm32f10x.h"
 207              		.file 7 "../system/include/stm32f1-stdperiph/stm32f10x_gpio.h"