   1              		.cpu cortex-m3
   2              		.eabi_attribute 20, 1
   3              		.eabi_attribute 21, 1
   4              		.eabi_attribute 23, 3
   5              		.eabi_attribute 24, 1
   6              		.eabi_attribute 25, 1
   7              		.eabi_attribute 26, 1
   8              		.eabi_attribute 30, 1
   9              		.eabi_attribute 34, 1
  10              		.eabi_attribute 18, 4
  11              		.file	"packet_tx_handler.c"
  12              		.text
  13              	.Ltext0:
  14              		.cfi_sections	.debug_frame
  15              		.section	.text.packet_tx_handler,"ax",%progbits
  16              		.align	1
  17              		.global	packet_tx_handler
  18              		.syntax unified
  19              		.thumb
  20              		.thumb_func
  21              		.fpu softvfp
  23              	packet_tx_handler:
  24              	.LFB93:
  25              		.file 1 "../src/packet_tx_handler.c"
   1:../src/packet_tx_handler.c **** #include "rte_wx.h"
   2:../src/packet_tx_handler.c **** #include "rte_pv.h"
   3:../src/packet_tx_handler.c **** #include "rte_main.h"
   4:../src/packet_tx_handler.c **** 
   5:../src/packet_tx_handler.c **** #include "station_config.h"
   6:../src/packet_tx_handler.c **** 
   7:../src/packet_tx_handler.c **** #include "./aprs/beacon.h"
   8:../src/packet_tx_handler.c **** #include "./aprs/wx.h"
   9:../src/packet_tx_handler.c **** #include "./aprs/telemetry.h"
  10:../src/packet_tx_handler.c **** 
  11:../src/packet_tx_handler.c **** #include "./drivers/serial.h"
  12:../src/packet_tx_handler.c **** 
  13:../src/packet_tx_handler.c **** #include "./umb_master/umb_master.h"
  14:../src/packet_tx_handler.c **** 
  15:../src/packet_tx_handler.c **** #include "./modbus_rtu/rtu_configuration.h"
  16:../src/packet_tx_handler.c **** 
  17:../src/packet_tx_handler.c **** #include "main.h"
  18:../src/packet_tx_handler.c **** #include "delay.h"
  19:../src/packet_tx_handler.c **** 
  20:../src/packet_tx_handler.c **** #define _TELEM_DESCR_INTERVAL	150
  21:../src/packet_tx_handler.c **** 
  22:../src/packet_tx_handler.c **** uint8_t packet_tx_beacon_interval = _BCN_INTERVAL;
  23:../src/packet_tx_handler.c **** uint8_t packet_tx_beacon_counter = 0;
  24:../src/packet_tx_handler.c **** 
  25:../src/packet_tx_handler.c **** uint8_t packet_tx_error_status_interval = 2;
  26:../src/packet_tx_handler.c **** uint8_t packet_tx_error_status_counter = 0;
  27:../src/packet_tx_handler.c **** 
  28:../src/packet_tx_handler.c **** uint8_t packet_tx_meteo_interval = _WX_INTERVAL;
  29:../src/packet_tx_handler.c **** uint8_t packet_tx_meteo_counter = 2;
  30:../src/packet_tx_handler.c **** 
  31:../src/packet_tx_handler.c **** uint8_t packet_tx_meteo_kiss_interval = 2;
  32:../src/packet_tx_handler.c **** uint8_t packet_tx_meteo_kiss_counter = 0;
  33:../src/packet_tx_handler.c **** 
  34:../src/packet_tx_handler.c **** uint8_t packet_tx_telemetry_interval = 10;
  35:../src/packet_tx_handler.c **** uint8_t packet_tx_telemetry_counter = 0;
  36:../src/packet_tx_handler.c **** 
  37:../src/packet_tx_handler.c **** uint8_t packet_tx_telemetry_descr_interval = _TELEM_DESCR_INTERVAL;
  38:../src/packet_tx_handler.c **** uint8_t packet_tx_telemetry_descr_counter = 10;
  39:../src/packet_tx_handler.c **** 
  40:../src/packet_tx_handler.c **** const uint8_t packet_tx_modbus_raw_values = (uint8_t)(_TELEM_DESCR_INTERVAL - _WX_INTERVAL * (uint8
  41:../src/packet_tx_handler.c **** const uint8_t packet_tx_modbus_status = (uint8_t)(_TELEM_DESCR_INTERVAL - _WX_INTERVAL * (uint8_t)(
  42:../src/packet_tx_handler.c **** 
  43:../src/packet_tx_handler.c **** uint8_t packet_tx_more_than_one = 0;
  44:../src/packet_tx_handler.c **** 
  45:../src/packet_tx_handler.c **** /**
  46:../src/packet_tx_handler.c ****  * This function is called from the inside of 'packet_rx_handler' to put an extra wait
  47:../src/packet_tx_handler.c ****  * if more than one packet is sent from the single call to that function. This is required
  48:../src/packet_tx_handler.c ****  * to protect against jamming own frames when any path is configured.
  49:../src/packet_tx_handler.c ****  *
  50:../src/packet_tx_handler.c ****  */
  51:../src/packet_tx_handler.c **** inline void packet_tx_multi_per_call_handler(void) {
  52:../src/packet_tx_handler.c **** 	// if this consecutive frame sent from one call to this function
  53:../src/packet_tx_handler.c **** 	if (packet_tx_more_than_one > 0) {
  54:../src/packet_tx_handler.c **** 		// wait for previous transmission to complete
  55:../src/packet_tx_handler.c **** 		main_wait_for_tx_complete();
  56:../src/packet_tx_handler.c **** 
  57:../src/packet_tx_handler.c **** 		// wait for any possible retransmission to kick in
  58:../src/packet_tx_handler.c **** 		delay_fixed(1000);
  59:../src/packet_tx_handler.c **** 
  60:../src/packet_tx_handler.c **** 	}
  61:../src/packet_tx_handler.c **** 	else {
  62:../src/packet_tx_handler.c **** 		packet_tx_more_than_one = 1;
  63:../src/packet_tx_handler.c **** 	}
  64:../src/packet_tx_handler.c **** }
  65:../src/packet_tx_handler.c **** 
  66:../src/packet_tx_handler.c **** // this shall be called in 60 seconds periods
  67:../src/packet_tx_handler.c **** void packet_tx_handler(const config_data_basic_t * const config_basic, const config_data_mode_t * c
  26              		.loc 1 67 0
  27              		.cfi_startproc
  28              		@ args = 0, pretend = 0, frame = 16
  29              		@ frame_needed = 0, uses_anonymous_args = 0
  30              	.LVL0:
  31 0000 F0B5     		push	{r4, r5, r6, r7, lr}
  32              		.cfi_def_cfa_offset 20
  33              		.cfi_offset 4, -20
  34              		.cfi_offset 5, -16
  35              		.cfi_offset 6, -12
  36              		.cfi_offset 7, -8
  37              		.cfi_offset 14, -4
  38 0002 8BB0     		sub	sp, sp, #44
  39              		.cfi_def_cfa_offset 64
  40 0004 0790     		str	r0, [sp, #28]
  41 0006 0C46     		mov	r4, r1
  42              	.LVL1:
  68:../src/packet_tx_handler.c **** 	dallas_qf_t dallas_qf = DALLAS_QF_UNKNOWN;
  69:../src/packet_tx_handler.c **** 
  70:../src/packet_tx_handler.c **** 	pressure_qf_t pressure_qf = PRESSURE_QF_UNKNOWN;
  71:../src/packet_tx_handler.c **** 	humidity_qf_t humidity_qf = HUMIDITY_QF_UNKNOWN;
  72:../src/packet_tx_handler.c **** 	wind_qf_t wind_qf = WIND_QF_UNKNOWN;
  73:../src/packet_tx_handler.c **** 
  74:../src/packet_tx_handler.c **** 	uint16_t ln = 0;
  43              		.loc 1 74 0
  44 0008 0023     		movs	r3, #0
  45 000a ADF82630 		strh	r3, [sp, #38]	@ movhi
  75:../src/packet_tx_handler.c **** 
  76:../src/packet_tx_handler.c **** 	// set to one if more than one packet will be send from this function at once (like beacon + telem
  77:../src/packet_tx_handler.c **** 	packet_tx_more_than_one = 0;
  46              		.loc 1 77 0
  47 000e 964A     		ldr	r2, .L91
  48 0010 1370     		strb	r3, [r2]
  78:../src/packet_tx_handler.c **** 
  79:../src/packet_tx_handler.c **** 	packet_tx_beacon_counter++;
  49              		.loc 1 79 0
  50 0012 964A     		ldr	r2, .L91+4
  51 0014 1378     		ldrb	r3, [r2]	@ zero_extendqisi2
  52 0016 0133     		adds	r3, r3, #1
  53 0018 1370     		strb	r3, [r2]
  80:../src/packet_tx_handler.c **** 	packet_tx_error_status_counter++;
  54              		.loc 1 80 0
  55 001a 954A     		ldr	r2, .L91+8
  56 001c 1378     		ldrb	r3, [r2]	@ zero_extendqisi2
  57 001e 0133     		adds	r3, r3, #1
  58 0020 DBB2     		uxtb	r3, r3
  59 0022 1370     		strb	r3, [r2]
  81:../src/packet_tx_handler.c **** 	packet_tx_telemetry_counter++;
  60              		.loc 1 81 0
  61 0024 9349     		ldr	r1, .L91+12
  62              	.LVL2:
  63 0026 0A78     		ldrb	r2, [r1]	@ zero_extendqisi2
  64 0028 0132     		adds	r2, r2, #1
  65 002a 0A70     		strb	r2, [r1]
  82:../src/packet_tx_handler.c **** 	packet_tx_telemetry_descr_counter++;
  66              		.loc 1 82 0
  67 002c 9249     		ldr	r1, .L91+16
  68 002e 0A78     		ldrb	r2, [r1]	@ zero_extendqisi2
  69 0030 0132     		adds	r2, r2, #1
  70 0032 0A70     		strb	r2, [r1]
  83:../src/packet_tx_handler.c **** 	if ((main_config_data_mode->wx & WX_ENABLED) == WX_ENABLED) {
  71              		.loc 1 83 0
  72 0034 914A     		ldr	r2, .L91+20
  73 0036 1268     		ldr	r2, [r2]
  74 0038 5278     		ldrb	r2, [r2, #1]	@ zero_extendqisi2
  75 003a 12F0010F 		tst	r2, #1
  76 003e 07D0     		beq	.L2
  84:../src/packet_tx_handler.c **** 		packet_tx_meteo_counter++;
  77              		.loc 1 84 0
  78 0040 8F49     		ldr	r1, .L91+24
  79 0042 0A78     		ldrb	r2, [r1]	@ zero_extendqisi2
  80 0044 0132     		adds	r2, r2, #1
  81 0046 0A70     		strb	r2, [r1]
  85:../src/packet_tx_handler.c **** 		packet_tx_meteo_kiss_counter++;
  82              		.loc 1 85 0
  83 0048 8E49     		ldr	r1, .L91+28
  84 004a 0A78     		ldrb	r2, [r1]	@ zero_extendqisi2
  85 004c 0132     		adds	r2, r2, #1
  86 004e 0A70     		strb	r2, [r1]
  87              	.L2:
  86:../src/packet_tx_handler.c **** 	}
  87:../src/packet_tx_handler.c **** 
  88:../src/packet_tx_handler.c **** 	if (packet_tx_error_status_counter >= packet_tx_error_status_interval) {
  88              		.loc 1 88 0
  89 0050 8D4A     		ldr	r2, .L91+32
  90 0052 1278     		ldrb	r2, [r2]	@ zero_extendqisi2
  91 0054 9342     		cmp	r3, r2
  92 0056 05D3     		bcc	.L3
  89:../src/packet_tx_handler.c **** 		if (config_mode->wx_umb) {
  93              		.loc 1 89 0
  94 0058 A378     		ldrb	r3, [r4, #2]	@ zero_extendqisi2
  95 005a 002B     		cmp	r3, #0
  96 005c 49D1     		bne	.L76
  97              	.LVL3:
  98              	.L4:
  90:../src/packet_tx_handler.c **** 			umb_construct_status_str(&rte_wx_umb_context, main_own_aprs_msg, sizeof(main_own_aprs_msg), &ln,
  91:../src/packet_tx_handler.c **** 
  92:../src/packet_tx_handler.c **** 			packet_tx_multi_per_call_handler();
  93:../src/packet_tx_handler.c **** 		}
  94:../src/packet_tx_handler.c **** 
  95:../src/packet_tx_handler.c **** 		packet_tx_error_status_counter = 0;
  99              		.loc 1 95 0
 100 005e 844B     		ldr	r3, .L91+8
 101 0060 0022     		movs	r2, #0
 102 0062 1A70     		strb	r2, [r3]
 103              	.L3:
  96:../src/packet_tx_handler.c **** 	}
  97:../src/packet_tx_handler.c **** 
  98:../src/packet_tx_handler.c **** 	if (packet_tx_beacon_counter >= packet_tx_beacon_interval) {
 104              		.loc 1 98 0
 105 0064 814B     		ldr	r3, .L91+4
 106 0066 1A78     		ldrb	r2, [r3]	@ zero_extendqisi2
 107 0068 884B     		ldr	r3, .L91+36
 108 006a 1B78     		ldrb	r3, [r3]	@ zero_extendqisi2
 109 006c 9A42     		cmp	r2, r3
 110 006e 5BD2     		bcs	.L77
 111              	.L7:
  99:../src/packet_tx_handler.c **** 
 100:../src/packet_tx_handler.c **** 		packet_tx_multi_per_call_handler();
 101:../src/packet_tx_handler.c **** 
 102:../src/packet_tx_handler.c **** 		beacon_send_own();
 103:../src/packet_tx_handler.c **** 
 104:../src/packet_tx_handler.c **** 		packet_tx_beacon_counter = 0;
 105:../src/packet_tx_handler.c **** 
 106:../src/packet_tx_handler.c **** 
 107:../src/packet_tx_handler.c **** 	}
 108:../src/packet_tx_handler.c **** 
 109:../src/packet_tx_handler.c **** 	if ((main_config_data_mode->wx & WX_ENABLED) == WX_ENABLED) {
 112              		.loc 1 109 0
 113 0070 824B     		ldr	r3, .L91+20
 114 0072 1B68     		ldr	r3, [r3]
 115 0074 5B78     		ldrb	r3, [r3, #1]	@ zero_extendqisi2
 116 0076 13F0010F 		tst	r3, #1
 117 007a 2AD0     		beq	.L11
 110:../src/packet_tx_handler.c **** 		if (packet_tx_meteo_counter >= packet_tx_meteo_interval) {
 118              		.loc 1 110 0
 119 007c 804B     		ldr	r3, .L91+24
 120 007e 1A78     		ldrb	r2, [r3]	@ zero_extendqisi2
 121 0080 834B     		ldr	r3, .L91+40
 122 0082 1B78     		ldrb	r3, [r3]	@ zero_extendqisi2
 123 0084 9A42     		cmp	r2, r3
 124 0086 65D2     		bcs	.L78
 125              	.L12:
 111:../src/packet_tx_handler.c **** 
 112:../src/packet_tx_handler.c **** 			packet_tx_multi_per_call_handler();
 113:../src/packet_tx_handler.c **** 
 114:../src/packet_tx_handler.c **** 			SendWXFrame(rte_wx_average_windspeed, rte_wx_max_windspeed, rte_wx_average_winddirection, rte_wx
 115:../src/packet_tx_handler.c **** 
 116:../src/packet_tx_handler.c **** 			#ifdef EXTERNAL_WATCHDOG
 117:../src/packet_tx_handler.c **** 			GPIOA->ODR ^= GPIO_Pin_12;
 118:../src/packet_tx_handler.c **** 			#endif
 119:../src/packet_tx_handler.c **** 
 120:../src/packet_tx_handler.c **** 			packet_tx_meteo_counter = 0;
 121:../src/packet_tx_handler.c **** 		}
 122:../src/packet_tx_handler.c **** 
 123:../src/packet_tx_handler.c **** 		if ((main_config_data_mode->wx_modbus & WX_MODBUS_DEBUG) == WX_MODBUS_DEBUG) {
 126              		.loc 1 123 0
 127 0088 7C4B     		ldr	r3, .L91+20
 128 008a 1B68     		ldr	r3, [r3]
 129 008c DB78     		ldrb	r3, [r3, #3]	@ zero_extendqisi2
 130 008e 13F0020F 		tst	r3, #2
 131 0092 0FD0     		beq	.L16
 124:../src/packet_tx_handler.c **** 			// send the status packet with raw values of all requested modbus-RTU registers
 125:../src/packet_tx_handler.c **** 			if (packet_tx_meteo_counter == (packet_tx_meteo_interval - 1) &&
 132              		.loc 1 125 0
 133 0094 7A4B     		ldr	r3, .L91+24
 134 0096 1A78     		ldrb	r2, [r3]	@ zero_extendqisi2
 135 0098 7D4B     		ldr	r3, .L91+40
 136 009a 1B78     		ldrb	r3, [r3]	@ zero_extendqisi2
 137 009c 013B     		subs	r3, r3, #1
 138 009e 9A42     		cmp	r2, r3
 139 00a0 00F08180 		beq	.L79
 140              	.L17:
 126:../src/packet_tx_handler.c **** 					packet_tx_telemetry_descr_counter >= packet_tx_modbus_raw_values)
 127:../src/packet_tx_handler.c **** 			{
 128:../src/packet_tx_handler.c **** 
 129:../src/packet_tx_handler.c **** 
 130:../src/packet_tx_handler.c **** 				packet_tx_multi_per_call_handler();
 131:../src/packet_tx_handler.c **** 
 132:../src/packet_tx_handler.c **** 				telemetry_send_status_raw_values_modbus();
 133:../src/packet_tx_handler.c **** 			}
 134:../src/packet_tx_handler.c **** 
 135:../src/packet_tx_handler.c **** 			// trigger the status packet with modbus-rtu state like error counters, timestamps etc.
 136:../src/packet_tx_handler.c **** 			if (packet_tx_meteo_counter == (packet_tx_meteo_interval - 1) &&
 141              		.loc 1 136 0
 142 00a4 764B     		ldr	r3, .L91+24
 143 00a6 1A78     		ldrb	r2, [r3]	@ zero_extendqisi2
 144 00a8 794B     		ldr	r3, .L91+40
 145 00aa 1B78     		ldrb	r3, [r3]	@ zero_extendqisi2
 146 00ac 013B     		subs	r3, r3, #1
 147 00ae 9A42     		cmp	r2, r3
 148 00b0 00F09180 		beq	.L80
 149              	.L16:
 137:../src/packet_tx_handler.c **** 					packet_tx_telemetry_descr_counter > packet_tx_modbus_status &&
 138:../src/packet_tx_handler.c **** 					packet_tx_telemetry_descr_counter <= packet_tx_modbus_status * 2)
 139:../src/packet_tx_handler.c **** 			{
 140:../src/packet_tx_handler.c **** 
 141:../src/packet_tx_handler.c **** 				packet_tx_multi_per_call_handler();
 142:../src/packet_tx_handler.c **** 
 143:../src/packet_tx_handler.c **** 				rte_main_trigger_modbus_status = 1;
 144:../src/packet_tx_handler.c **** 			}
 145:../src/packet_tx_handler.c **** 		}
 146:../src/packet_tx_handler.c **** 
 147:../src/packet_tx_handler.c **** 
 148:../src/packet_tx_handler.c **** 		// check if Victron VE.Direct serial protocol client is enabled and it is
 149:../src/packet_tx_handler.c **** 		// a time to send the status message
 150:../src/packet_tx_handler.c **** 		if (config_mode->victron == 1 &&
 150              		.loc 1 150 0
 151 00b4 A379     		ldrb	r3, [r4, #6]	@ zero_extendqisi2
 152 00b6 012B     		cmp	r3, #1
 153 00b8 00F0A980 		beq	.L81
 154              	.L24:
 151:../src/packet_tx_handler.c **** 			packet_tx_meteo_counter == (packet_tx_meteo_interval - 1) &&
 152:../src/packet_tx_handler.c **** 			packet_tx_telemetry_descr_counter >= packet_tx_modbus_raw_values)
 153:../src/packet_tx_handler.c **** 		{
 154:../src/packet_tx_handler.c **** 			packet_tx_multi_per_call_handler();
 155:../src/packet_tx_handler.c **** 
 156:../src/packet_tx_handler.c **** 			telemetry_send_status_pv(&rte_pv_average, &rte_pv_last_error, rte_pv_struct.system_state, master
 157:../src/packet_tx_handler.c **** 
 158:../src/packet_tx_handler.c **** 		}
 159:../src/packet_tx_handler.c **** 
 160:../src/packet_tx_handler.c **** 		// send wx frame to KISS host once every two minutes
 161:../src/packet_tx_handler.c **** 		if (packet_tx_meteo_kiss_counter >= packet_tx_meteo_kiss_interval && main_kiss_enabled == 1) {
 155              		.loc 1 161 0
 156 00bc 714B     		ldr	r3, .L91+28
 157 00be 1A78     		ldrb	r2, [r3]	@ zero_extendqisi2
 158 00c0 744B     		ldr	r3, .L91+44
 159 00c2 1B78     		ldrb	r3, [r3]	@ zero_extendqisi2
 160 00c4 9A42     		cmp	r2, r3
 161 00c6 04D3     		bcc	.L11
 162              		.loc 1 161 0 is_stmt 0 discriminator 1
 163 00c8 734B     		ldr	r3, .L91+48
 164 00ca 1B78     		ldrb	r3, [r3]	@ zero_extendqisi2
 165 00cc 012B     		cmp	r3, #1
 166 00ce 00F00B81 		beq	.L82
 167              	.L11:
 162:../src/packet_tx_handler.c **** 
 163:../src/packet_tx_handler.c **** 			srl_wait_for_tx_completion(main_kiss_srl_ctx_ptr);
 164:../src/packet_tx_handler.c **** 
 165:../src/packet_tx_handler.c **** 			SendWXFrameToBuffer(rte_wx_average_windspeed, rte_wx_max_windspeed, rte_wx_average_winddirection
 166:../src/packet_tx_handler.c **** 
 167:../src/packet_tx_handler.c **** 			srl_start_tx(main_kiss_srl_ctx_ptr, ln);
 168:../src/packet_tx_handler.c **** 
 169:../src/packet_tx_handler.c **** 			packet_tx_meteo_kiss_counter = 0;
 170:../src/packet_tx_handler.c **** 		}
 171:../src/packet_tx_handler.c **** 	}
 172:../src/packet_tx_handler.c **** 
 173:../src/packet_tx_handler.c **** 	if (packet_tx_telemetry_counter >= packet_tx_telemetry_interval) {
 168              		.loc 1 173 0 is_stmt 1
 169 00d2 684B     		ldr	r3, .L91+12
 170 00d4 1A78     		ldrb	r2, [r3]	@ zero_extendqisi2
 171 00d6 714B     		ldr	r3, .L91+52
 172 00d8 1B78     		ldrb	r3, [r3]	@ zero_extendqisi2
 173 00da 9A42     		cmp	r2, r3
 174 00dc 80F02981 		bcs	.L83
 175              	.LVL4:
 176              	.L28:
 174:../src/packet_tx_handler.c **** 
 175:../src/packet_tx_handler.c **** 		packet_tx_multi_per_call_handler();
 176:../src/packet_tx_handler.c **** 
 177:../src/packet_tx_handler.c **** 		// if there weren't any erros related to communication with DS12B20 from previous function call
 178:../src/packet_tx_handler.c **** 		if (rte_wx_error_dallas_qf == DALLAS_QF_UNKNOWN) {
 179:../src/packet_tx_handler.c **** 			dallas_qf = rte_wx_current_dallas_qf;	// it might be DEGRADATED so we need to copy a value direc
 180:../src/packet_tx_handler.c **** 
 181:../src/packet_tx_handler.c **** 			// reset current QF to check if there will be at least one successfull readout of temperature
 182:../src/packet_tx_handler.c **** 			rte_wx_current_dallas_qf = DALLAS_QF_UNKNOWN;
 183:../src/packet_tx_handler.c **** 		}
 184:../src/packet_tx_handler.c **** 
 185:../src/packet_tx_handler.c **** 		// if there were any errors
 186:../src/packet_tx_handler.c **** 		else {
 187:../src/packet_tx_handler.c **** 
 188:../src/packet_tx_handler.c **** 			// if we had at least one successfull communication with the sensor
 189:../src/packet_tx_handler.c **** 			if (rte_wx_current_dallas_qf == DALLAS_QF_FULL || rte_wx_current_dallas_qf == DALLAS_QF_DEGRADAT
 190:../src/packet_tx_handler.c **** 				// set the error reason
 191:../src/packet_tx_handler.c **** 				dallas_qf = DALLAS_QF_DEGRADATED;
 192:../src/packet_tx_handler.c **** 			}
 193:../src/packet_tx_handler.c **** 			// if they wasn't any successfull comm
 194:../src/packet_tx_handler.c **** 			else {
 195:../src/packet_tx_handler.c **** 				// set that it is totally dead and not avaliable
 196:../src/packet_tx_handler.c **** 				dallas_qf = DALLAS_QF_NOT_AVALIABLE;
 197:../src/packet_tx_handler.c **** 			}
 198:../src/packet_tx_handler.c **** 
 199:../src/packet_tx_handler.c **** 			// and reset the error
 200:../src/packet_tx_handler.c **** 			rte_wx_error_dallas_qf = DALLAS_QF_UNKNOWN;
 201:../src/packet_tx_handler.c **** 
 202:../src/packet_tx_handler.c **** 			rte_wx_current_dallas_qf = DALLAS_QF_UNKNOWN;
 203:../src/packet_tx_handler.c **** 		}
 204:../src/packet_tx_handler.c **** 
 205:../src/packet_tx_handler.c **** 		// get quality factors for internal pressure and humidity sensors
 206:../src/packet_tx_handler.c **** 		if (config_mode->wx_ms5611_or_bme == 0) {
 207:../src/packet_tx_handler.c **** 			// pressure sensors quality factors
 208:../src/packet_tx_handler.c **** 
 209:../src/packet_tx_handler.c **** 			switch (rte_wx_ms5611_qf) {
 210:../src/packet_tx_handler.c **** 				case MS5611_QF_FULL: pressure_qf = PRESSURE_QF_FULL; break;
 211:../src/packet_tx_handler.c **** 				case MS5611_QF_NOT_AVALIABLE: pressure_qf = PRESSURE_QF_NOT_AVALIABLE; break;
 212:../src/packet_tx_handler.c **** 				case MS5611_QF_DEGRADATED: pressure_qf = PRESSURE_QF_DEGRADATED; break;
 213:../src/packet_tx_handler.c **** 				case MS5611_QF_UNKNOWN: pressure_qf = PRESSURE_QF_UNKNOWN; break;
 214:../src/packet_tx_handler.c **** 			}
 215:../src/packet_tx_handler.c **** 
 216:../src/packet_tx_handler.c **** 		}
 217:../src/packet_tx_handler.c **** 		else if (config_mode->wx_ms5611_or_bme == 1) {
 218:../src/packet_tx_handler.c **** 			//#elif defined(_SENSOR_BME280)
 219:../src/packet_tx_handler.c **** 			// humidity sensors quality factors
 220:../src/packet_tx_handler.c **** 			if (rte_wx_bme280_qf == BME280_QF_UKNOWN) {
 221:../src/packet_tx_handler.c **** 				;
 222:../src/packet_tx_handler.c **** 			}
 223:../src/packet_tx_handler.c **** 			else {
 224:../src/packet_tx_handler.c **** 				// use BME280
 225:../src/packet_tx_handler.c **** 				switch (rte_wx_bme280_qf) {
 226:../src/packet_tx_handler.c **** 					case BME280_QF_FULL:
 227:../src/packet_tx_handler.c **** 					case BME280_QF_PRESSURE_DEGRADED: humidity_qf = HUMIDITY_QF_FULL; break;
 228:../src/packet_tx_handler.c **** 					case BME280_QF_UKNOWN:
 229:../src/packet_tx_handler.c **** 					case BME280_QF_NOT_AVAILABLE: humidity_qf = HUMIDITY_QF_NOT_AVALIABLE; break;
 230:../src/packet_tx_handler.c **** 					case BME280_QF_HUMIDITY_DEGRADED:
 231:../src/packet_tx_handler.c **** 					case BME280_QF_GEN_DEGRADED: humidity_qf = HUMIDITY_QF_DEGRADATED; break;
 232:../src/packet_tx_handler.c **** 				}
 233:../src/packet_tx_handler.c **** 
 234:../src/packet_tx_handler.c **** 				switch (rte_wx_bme280_qf) {
 235:../src/packet_tx_handler.c **** 					case BME280_QF_FULL:
 236:../src/packet_tx_handler.c **** 					case BME280_QF_HUMIDITY_DEGRADED: pressure_qf = PRESSURE_QF_FULL; break;
 237:../src/packet_tx_handler.c **** 					case BME280_QF_UKNOWN:
 238:../src/packet_tx_handler.c **** 					case BME280_QF_NOT_AVAILABLE: pressure_qf = PRESSURE_QF_NOT_AVALIABLE; break;
 239:../src/packet_tx_handler.c **** 					case BME280_QF_PRESSURE_DEGRADED:
 240:../src/packet_tx_handler.c **** 					case BME280_QF_GEN_DEGRADED: pressure_qf = PRESSURE_QF_DEGRADATED; break;
 241:../src/packet_tx_handler.c **** 				}
 242:../src/packet_tx_handler.c **** 
 243:../src/packet_tx_handler.c **** 			}
 244:../src/packet_tx_handler.c **** 		}
 245:../src/packet_tx_handler.c **** 		else {
 246:../src/packet_tx_handler.c **** 			pressure_qf = PRESSURE_QF_NOT_AVALIABLE;
 247:../src/packet_tx_handler.c **** 			humidity_qf = HUMIDITY_QF_NOT_AVALIABLE;
 248:../src/packet_tx_handler.c **** 		}
 249:../src/packet_tx_handler.c **** 
 250:../src/packet_tx_handler.c **** 		// wind quality factor
 251:../src/packet_tx_handler.c **** 		if (rte_wx_wind_qf == AN_WIND_QF_UNKNOWN) {
 252:../src/packet_tx_handler.c **** 			;
 253:../src/packet_tx_handler.c **** 		}
 254:../src/packet_tx_handler.c **** 		else {
 255:../src/packet_tx_handler.c **** 			switch (rte_wx_wind_qf) {
 256:../src/packet_tx_handler.c **** 				case AN_WIND_QF_FULL: wind_qf = WIND_QF_FULL; break;
 257:../src/packet_tx_handler.c **** 				case AN_WIND_QF_DEGRADED_DEBOUNCE:
 258:../src/packet_tx_handler.c **** 				case AN_WIND_QF_DEGRADED_SLEW:
 259:../src/packet_tx_handler.c **** 				case AN_WIND_QF_DEGRADED: wind_qf = WIND_QF_DEGRADATED; break;
 260:../src/packet_tx_handler.c **** 				case AN_WIND_QF_NOT_AVALIABLE:
 261:../src/packet_tx_handler.c **** 				case AN_WIND_QF_UNKNOWN: wind_qf = WIND_QF_NOT_AVALIABLE; break;
 262:../src/packet_tx_handler.c **** 			}
 263:../src/packet_tx_handler.c **** 
 264:../src/packet_tx_handler.c **** 			rte_wx_wind_qf = AN_WIND_QF_UNKNOWN;
 265:../src/packet_tx_handler.c **** 		}
 266:../src/packet_tx_handler.c **** 
 267:../src/packet_tx_handler.c **** 
 268:../src/packet_tx_handler.c **** 		if (config_mode->victron == 1) {
 269:../src/packet_tx_handler.c **** 			telemetry_send_values_pv(rx10m, digi10m, rte_pv_battery_current, rte_pv_battery_voltage, rte_pv_
 270:../src/packet_tx_handler.c **** 		}
 271:../src/packet_tx_handler.c **** 		else {
 272:../src/packet_tx_handler.c **** 
 273:../src/packet_tx_handler.c **** 				// if _DALLAS_AS_TELEM will be enabled the fifth channel will be set to temperature measured by
 274:../src/packet_tx_handler.c **** 				//telemetry_send_values(rx10m, tx10m, digi10m, kiss10m, rte_wx_temperature_dallas_valid, dallas
 275:../src/packet_tx_handler.c **** 			if (config_mode->wx == 1) {
 276:../src/packet_tx_handler.c **** 
 277:../src/packet_tx_handler.c **** 				// if _METEO will be enabled, but without _DALLAS_AS_TELEM the fifth channel will be used to tr
 278:../src/packet_tx_handler.c **** 				// which may be treated then as 'rack/cabinet internal temperature'. Dallas DS12B10 will be use
 279:../src/packet_tx_handler.c **** 				telemetry_send_values(rx10m, tx10m, digi10m, kiss10m, rte_wx_temperature_internal_valid, dallas
 280:../src/packet_tx_handler.c **** 			}
 281:../src/packet_tx_handler.c **** 			else {
 282:../src/packet_tx_handler.c **** 				// if user will disable both _METEO and _DALLAS_AS_TELEM value will be zeroed internally anyway
 283:../src/packet_tx_handler.c **** 				telemetry_send_values(rx10m, tx10m, digi10m, kiss10m, 0.0f, dallas_qf, pressure_qf, humidity_qf
 284:../src/packet_tx_handler.c **** 			}
 285:../src/packet_tx_handler.c **** 
 286:../src/packet_tx_handler.c **** 		}
 287:../src/packet_tx_handler.c **** 		packet_tx_telemetry_counter = 0;
 288:../src/packet_tx_handler.c **** 
 289:../src/packet_tx_handler.c **** 		rx10m = 0, tx10m = 0, digi10m = 0, kiss10m = 0;
 290:../src/packet_tx_handler.c **** 
 291:../src/packet_tx_handler.c **** 	}
 292:../src/packet_tx_handler.c **** 
 293:../src/packet_tx_handler.c **** 	if (packet_tx_telemetry_descr_counter >= packet_tx_telemetry_descr_interval) {
 177              		.loc 1 293 0
 178 00e0 654B     		ldr	r3, .L91+16
 179 00e2 1A78     		ldrb	r2, [r3]	@ zero_extendqisi2
 180 00e4 6E4B     		ldr	r3, .L91+56
 181 00e6 1B78     		ldrb	r3, [r3]	@ zero_extendqisi2
 182 00e8 9A42     		cmp	r2, r3
 183 00ea 80F0EA81 		bcs	.L84
 184              	.L1:
 294:../src/packet_tx_handler.c **** 		packet_tx_multi_per_call_handler();
 295:../src/packet_tx_handler.c **** 
 296:../src/packet_tx_handler.c **** 		if (config_mode->victron == 1) {
 297:../src/packet_tx_handler.c **** 			telemetry_send_chns_description_pv(&config_basic);
 298:../src/packet_tx_handler.c **** 
 299:../src/packet_tx_handler.c **** 
 300:../src/packet_tx_handler.c **** 			if (rte_pv_battery_voltage == 0) {
 301:../src/packet_tx_handler.c **** 				rte_main_reboot_req = 1;
 302:../src/packet_tx_handler.c **** 			}
 303:../src/packet_tx_handler.c **** 
 304:../src/packet_tx_handler.c **** 			//telemetry_send_status_pv(&rte_pv_average, &rte_pv_last_error, rte_pv_struct.system_state);
 305:../src/packet_tx_handler.c **** 		}
 306:../src/packet_tx_handler.c **** 		else {
 307:../src/packet_tx_handler.c **** 			telemetry_send_chns_description(&config_basic);
 308:../src/packet_tx_handler.c **** 
 309:../src/packet_tx_handler.c **** 			packet_tx_multi_per_call_handler();
 310:../src/packet_tx_handler.c **** 
 311:../src/packet_tx_handler.c **** 			//telemetry_send_status();
 312:../src/packet_tx_handler.c **** 		}
 313:../src/packet_tx_handler.c **** 
 314:../src/packet_tx_handler.c **** 		telemetry_send_status();
 315:../src/packet_tx_handler.c **** 
 316:../src/packet_tx_handler.c **** 
 317:../src/packet_tx_handler.c **** 		if (config_mode->wx_umb == 1) {
 318:../src/packet_tx_handler.c **** 
 319:../src/packet_tx_handler.c **** 			umb_clear_error_history(&rte_wx_umb_context);
 320:../src/packet_tx_handler.c **** 		}
 321:../src/packet_tx_handler.c **** 
 322:../src/packet_tx_handler.c **** 		packet_tx_telemetry_descr_counter = 0;
 323:../src/packet_tx_handler.c **** 	}
 324:../src/packet_tx_handler.c **** 
 325:../src/packet_tx_handler.c **** }
 185              		.loc 1 325 0
 186 00ee 0BB0     		add	sp, sp, #44
 187              		.cfi_remember_state
 188              		.cfi_def_cfa_offset 20
 189              		@ sp needed
 190 00f0 F0BD     		pop	{r4, r5, r6, r7, pc}
 191              	.LVL5:
 192              	.L76:
 193              		.cfi_restore_state
  90:../src/packet_tx_handler.c **** 
 194              		.loc 1 90 0
 195 00f2 6C4B     		ldr	r3, .L91+60
 196 00f4 1B68     		ldr	r3, [r3]
 197 00f6 0093     		str	r3, [sp]
 198 00f8 0DF12603 		add	r3, sp, #38
 199 00fc A022     		movs	r2, #160
 200 00fe 6A49     		ldr	r1, .L91+64
 201 0100 6A48     		ldr	r0, .L91+68
 202              	.LVL6:
 203 0102 FFF7FEFF 		bl	umb_construct_status_str
 204              	.LVL7:
 205              	.LBB40:
 206              	.LBB41:
  53:../src/packet_tx_handler.c **** 		// wait for previous transmission to complete
 207              		.loc 1 53 0
 208 0106 584B     		ldr	r3, .L91
 209 0108 1B78     		ldrb	r3, [r3]	@ zero_extendqisi2
 210 010a 4BB1     		cbz	r3, .L5
 211              	.L6:
 212              	.LBB42:
 213              	.LBB43:
 214              		.file 2 "../include/main.h"
   1:../include/main.h **** #ifndef MAIN_H_
   2:../include/main.h **** #define MAIN_H_
   3:../include/main.h **** 
   4:../include/main.h **** #include "aprs/ax25.h"
   5:../include/main.h **** #include "drivers/serial.h"
   6:../include/main.h **** #include "config_data.h"
   7:../include/main.h **** 
   8:../include/main.h **** #define SW_VER "EA00"
   9:../include/main.h **** #define SW_DATE "23052021"
  10:../include/main.h **** 
  11:../include/main.h **** #define SYSTICK_TICKS_PER_SECONDS 100
  12:../include/main.h **** #define SYSTICK_TICKS_PERIOD 10
  13:../include/main.h **** 
  14:../include/main.h **** #define INTERNAL_WATCHDOG
  15:../include/main.h **** #define EXTERNAL_WATCHDOG
  16:../include/main.h **** 
  17:../include/main.h **** #define PWR_SWITCH_BOTH
  18:../include/main.h **** 
  19:../include/main.h **** #define OWN_APRS_MSG_LN 	160
  20:../include/main.h **** 
  21:../include/main.h **** extern uint32_t master_time;
  22:../include/main.h **** 
  23:../include/main.h **** extern const config_data_mode_t * main_config_data_mode;
  24:../include/main.h **** extern const config_data_basic_t * main_config_data_basic;
  25:../include/main.h **** extern const config_data_wx_sources_t * main_config_data_wx_sources;
  26:../include/main.h **** extern const config_data_umb_t * main_config_data_umb;
  27:../include/main.h **** extern const config_data_rtu_t * main_config_data_rtu;
  28:../include/main.h **** 
  29:../include/main.h **** extern int32_t main_wx_sensors_pool_timer;
  30:../include/main.h **** extern int32_t main_one_minute_pool_timer;
  31:../include/main.h **** extern int32_t main_one_second_pool_timer;
  32:../include/main.h **** extern int32_t main_two_second_pool_timer;
  33:../include/main.h **** extern int32_t main_ten_second_pool_timer;
  34:../include/main.h **** 
  35:../include/main.h **** extern AX25Ctx main_ax25;
  36:../include/main.h **** extern Afsk main_afsk;
  37:../include/main.h **** 
  38:../include/main.h **** extern AX25Call main_own_path[3];
  39:../include/main.h **** extern uint8_t main_own_path_ln;
  40:../include/main.h **** extern uint8_t main_own_aprs_msg_len;
  41:../include/main.h **** extern char main_own_aprs_msg[OWN_APRS_MSG_LN];
  42:../include/main.h **** 
  43:../include/main.h **** extern char main_string_latitude[9];
  44:../include/main.h **** extern char main_string_longitude[9];
  45:../include/main.h **** 
  46:../include/main.h **** extern char main_symbol_f;
  47:../include/main.h **** extern char main_symbol_s;
  48:../include/main.h **** 
  49:../include/main.h **** extern srl_context_t* main_kiss_srl_ctx_ptr;
  50:../include/main.h **** extern srl_context_t* main_wx_srl_ctx_ptr;
  51:../include/main.h **** 
  52:../include/main.h **** extern  uint8_t main_kiss_enabled;
  53:../include/main.h **** 
  54:../include/main.h **** extern char after_tx_lock;
  55:../include/main.h **** 
  56:../include/main.h **** extern unsigned short rx10m, tx10m, digi10m, digidrop10m, kiss10m;
  57:../include/main.h **** 
  58:../include/main.h **** uint16_t main_get_adc_sample(void);
  59:../include/main.h **** 
  60:../include/main.h **** void main_service_cpu_load_ticks(void);
  61:../include/main.h **** 
  62:../include/main.h **** inline uint32_t main_get_master_time(void) {
  63:../include/main.h **** 	return master_time;
  64:../include/main.h **** }
  65:../include/main.h **** 
  66:../include/main.h **** inline void main_wait_for_tx_complete(void) {
  67:../include/main.h **** 	while(main_afsk.sending == 1);
 215              		.loc 2 67 0
 216 010c 684B     		ldr	r3, .L91+72
 217 010e 93F83034 		ldrb	r3, [r3, #1072]	@ zero_extendqisi2
 218 0112 002B     		cmp	r3, #0
 219 0114 FAD1     		bne	.L6
 220              	.LBE43:
 221              	.LBE42:
  58:../src/packet_tx_handler.c **** 
 222              		.loc 1 58 0
 223 0116 4FF47A70 		mov	r0, #1000
 224 011a FFF7FEFF 		bl	delay_fixed
 225              	.LVL8:
 226 011e 9EE7     		b	.L4
 227              	.L5:
  62:../src/packet_tx_handler.c **** 	}
 228              		.loc 1 62 0
 229 0120 514B     		ldr	r3, .L91
 230 0122 0122     		movs	r2, #1
 231 0124 1A70     		strb	r2, [r3]
 232 0126 9AE7     		b	.L4
 233              	.L77:
 234              	.LBE41:
 235              	.LBE40:
 236              	.LBB44:
 237              	.LBB45:
  53:../src/packet_tx_handler.c **** 		// wait for previous transmission to complete
 238              		.loc 1 53 0
 239 0128 4F4B     		ldr	r3, .L91
 240 012a 1B78     		ldrb	r3, [r3]	@ zero_extendqisi2
 241 012c 73B1     		cbz	r3, .L8
 242              	.L9:
 243              	.LBB46:
 244              	.LBB47:
 245              		.loc 2 67 0
 246 012e 604B     		ldr	r3, .L91+72
 247 0130 93F83034 		ldrb	r3, [r3, #1072]	@ zero_extendqisi2
 248 0134 002B     		cmp	r3, #0
 249 0136 FAD1     		bne	.L9
 250              	.LBE47:
 251              	.LBE46:
  58:../src/packet_tx_handler.c **** 
 252              		.loc 1 58 0
 253 0138 4FF47A70 		mov	r0, #1000
 254 013c FFF7FEFF 		bl	delay_fixed
 255              	.LVL9:
 256              	.L10:
 257              	.LBE45:
 258              	.LBE44:
 102:../src/packet_tx_handler.c **** 
 259              		.loc 1 102 0
 260 0140 FFF7FEFF 		bl	beacon_send_own
 261              	.LVL10:
 104:../src/packet_tx_handler.c **** 
 262              		.loc 1 104 0
 263 0144 494B     		ldr	r3, .L91+4
 264 0146 0022     		movs	r2, #0
 265 0148 1A70     		strb	r2, [r3]
 266 014a 91E7     		b	.L7
 267              	.L8:
 268              	.LBB49:
 269              	.LBB48:
  62:../src/packet_tx_handler.c **** 	}
 270              		.loc 1 62 0
 271 014c 464B     		ldr	r3, .L91
 272 014e 0122     		movs	r2, #1
 273 0150 1A70     		strb	r2, [r3]
 274 0152 F5E7     		b	.L10
 275              	.L78:
 276              	.LBE48:
 277              	.LBE49:
 278              	.LBB50:
 279              	.LBB51:
  53:../src/packet_tx_handler.c **** 		// wait for previous transmission to complete
 280              		.loc 1 53 0
 281 0154 444B     		ldr	r3, .L91
 282 0156 1B78     		ldrb	r3, [r3]	@ zero_extendqisi2
 283 0158 0BB3     		cbz	r3, .L13
 284              	.L14:
 285              	.LBB52:
 286              	.LBB53:
 287              		.loc 2 67 0
 288 015a 554B     		ldr	r3, .L91+72
 289 015c 93F83034 		ldrb	r3, [r3, #1072]	@ zero_extendqisi2
 290 0160 002B     		cmp	r3, #0
 291 0162 FAD1     		bne	.L14
 292              	.LBE53:
 293              	.LBE52:
  58:../src/packet_tx_handler.c **** 
 294              		.loc 1 58 0
 295 0164 4FF47A70 		mov	r0, #1000
 296 0168 FFF7FEFF 		bl	delay_fixed
 297              	.LVL11:
 298              	.L15:
 299              	.LBE51:
 300              	.LBE50:
 114:../src/packet_tx_handler.c **** 
 301              		.loc 1 114 0
 302 016c 514B     		ldr	r3, .L91+76
 303 016e 1B68     		ldr	r3, [r3]	@ float
 304 0170 514A     		ldr	r2, .L91+80
 305 0172 1288     		ldrh	r2, [r2]
 306 0174 5149     		ldr	r1, .L91+84
 307 0176 0988     		ldrh	r1, [r1]
 308 0178 5148     		ldr	r0, .L91+88
 309 017a 0088     		ldrh	r0, [r0]
 310 017c 514D     		ldr	r5, .L91+92
 311 017e 2D78     		ldrb	r5, [r5]	@ zero_extendqisi2
 312 0180 0195     		str	r5, [sp, #4]
 313 0182 514D     		ldr	r5, .L91+96
 314 0184 2D68     		ldr	r5, [r5]	@ float
 315 0186 0095     		str	r5, [sp]	@ float
 316 0188 FFF7FEFF 		bl	SendWXFrame
 317              	.LVL12:
 117:../src/packet_tx_handler.c **** 			#endif
 318              		.loc 1 117 0
 319 018c 4F4A     		ldr	r2, .L91+100
 320 018e D368     		ldr	r3, [r2, #12]
 321 0190 83F48053 		eor	r3, r3, #4096
 322 0194 D360     		str	r3, [r2, #12]
 120:../src/packet_tx_handler.c **** 		}
 323              		.loc 1 120 0
 324 0196 3A4B     		ldr	r3, .L91+24
 325 0198 0022     		movs	r2, #0
 326 019a 1A70     		strb	r2, [r3]
 327 019c 74E7     		b	.L12
 328              	.L13:
 329              	.LBB55:
 330              	.LBB54:
  62:../src/packet_tx_handler.c **** 	}
 331              		.loc 1 62 0
 332 019e 324B     		ldr	r3, .L91
 333 01a0 0122     		movs	r2, #1
 334 01a2 1A70     		strb	r2, [r3]
 335 01a4 E2E7     		b	.L15
 336              	.L79:
 337              	.LBE54:
 338              	.LBE55:
 126:../src/packet_tx_handler.c **** 			{
 339              		.loc 1 126 0 discriminator 1
 340 01a6 344B     		ldr	r3, .L91+16
 341 01a8 1B78     		ldrb	r3, [r3]	@ zero_extendqisi2
 125:../src/packet_tx_handler.c **** 					packet_tx_telemetry_descr_counter >= packet_tx_modbus_raw_values)
 342              		.loc 1 125 0 discriminator 1
 343 01aa 892B     		cmp	r3, #137
 344 01ac 7FF67AAF 		bls	.L17
 345              	.LBB56:
 346              	.LBB57:
  53:../src/packet_tx_handler.c **** 		// wait for previous transmission to complete
 347              		.loc 1 53 0
 348 01b0 2D4B     		ldr	r3, .L91
 349 01b2 1B78     		ldrb	r3, [r3]	@ zero_extendqisi2
 350 01b4 5BB1     		cbz	r3, .L18
 351              	.L19:
 352              	.LBB58:
 353              	.LBB59:
 354              		.loc 2 67 0
 355 01b6 3E4B     		ldr	r3, .L91+72
 356 01b8 93F83034 		ldrb	r3, [r3, #1072]	@ zero_extendqisi2
 357 01bc 002B     		cmp	r3, #0
 358 01be FAD1     		bne	.L19
 359              	.LBE59:
 360              	.LBE58:
  58:../src/packet_tx_handler.c **** 
 361              		.loc 1 58 0
 362 01c0 4FF47A70 		mov	r0, #1000
 363 01c4 FFF7FEFF 		bl	delay_fixed
 364              	.LVL13:
 365              	.L20:
 366              	.LBE57:
 367              	.LBE56:
 132:../src/packet_tx_handler.c **** 			}
 368              		.loc 1 132 0
 369 01c8 FFF7FEFF 		bl	telemetry_send_status_raw_values_modbus
 370              	.LVL14:
 371 01cc 6AE7     		b	.L17
 372              	.L18:
 373              	.LBB61:
 374              	.LBB60:
  62:../src/packet_tx_handler.c **** 	}
 375              		.loc 1 62 0
 376 01ce 264B     		ldr	r3, .L91
 377 01d0 0122     		movs	r2, #1
 378 01d2 1A70     		strb	r2, [r3]
 379 01d4 F8E7     		b	.L20
 380              	.L80:
 381              	.LBE60:
 382              	.LBE61:
 137:../src/packet_tx_handler.c **** 					packet_tx_telemetry_descr_counter <= packet_tx_modbus_status * 2)
 383              		.loc 1 137 0 discriminator 1
 384 01d6 284B     		ldr	r3, .L91+16
 385 01d8 1B78     		ldrb	r3, [r3]	@ zero_extendqisi2
 136:../src/packet_tx_handler.c **** 					packet_tx_telemetry_descr_counter > packet_tx_modbus_status &&
 386              		.loc 1 136 0 discriminator 1
 387 01da 1E2B     		cmp	r3, #30
 388 01dc 7FF66AAF 		bls	.L16
 137:../src/packet_tx_handler.c **** 					packet_tx_telemetry_descr_counter <= packet_tx_modbus_status * 2)
 389              		.loc 1 137 0
 390 01e0 3C2B     		cmp	r3, #60
 391 01e2 3FF667AF 		bhi	.L16
 392              	.LBB62:
 393              	.LBB63:
  53:../src/packet_tx_handler.c **** 		// wait for previous transmission to complete
 394              		.loc 1 53 0
 395 01e6 204B     		ldr	r3, .L91
 396 01e8 1B78     		ldrb	r3, [r3]	@ zero_extendqisi2
 397 01ea 63B1     		cbz	r3, .L21
 398              	.L22:
 399              	.LBB64:
 400              	.LBB65:
 401              		.loc 2 67 0
 402 01ec 304B     		ldr	r3, .L91+72
 403 01ee 93F83034 		ldrb	r3, [r3, #1072]	@ zero_extendqisi2
 404 01f2 002B     		cmp	r3, #0
 405 01f4 FAD1     		bne	.L22
 406              	.LBE65:
 407              	.LBE64:
  58:../src/packet_tx_handler.c **** 
 408              		.loc 1 58 0
 409 01f6 4FF47A70 		mov	r0, #1000
 410 01fa FFF7FEFF 		bl	delay_fixed
 411              	.LVL15:
 412              	.L23:
 413              	.LBE63:
 414              	.LBE62:
 143:../src/packet_tx_handler.c **** 			}
 415              		.loc 1 143 0
 416 01fe 344B     		ldr	r3, .L91+104
 417 0200 0122     		movs	r2, #1
 418 0202 1A70     		strb	r2, [r3]
 419 0204 56E7     		b	.L16
 420              	.L21:
 421              	.LBB67:
 422              	.LBB66:
  62:../src/packet_tx_handler.c **** 	}
 423              		.loc 1 62 0
 424 0206 184B     		ldr	r3, .L91
 425 0208 0122     		movs	r2, #1
 426 020a 1A70     		strb	r2, [r3]
 427 020c F7E7     		b	.L23
 428              	.L81:
 429              	.LBE66:
 430              	.LBE67:
 151:../src/packet_tx_handler.c **** 			packet_tx_telemetry_descr_counter >= packet_tx_modbus_raw_values)
 431              		.loc 1 151 0 discriminator 1
 432 020e 1C4B     		ldr	r3, .L91+24
 433 0210 1A78     		ldrb	r2, [r3]	@ zero_extendqisi2
 434 0212 1F4B     		ldr	r3, .L91+40
 435 0214 1B78     		ldrb	r3, [r3]	@ zero_extendqisi2
 436 0216 013B     		subs	r3, r3, #1
 150:../src/packet_tx_handler.c **** 			packet_tx_meteo_counter == (packet_tx_meteo_interval - 1) &&
 437              		.loc 1 150 0 discriminator 1
 438 0218 9A42     		cmp	r2, r3
 439 021a 7FF44FAF 		bne	.L24
 152:../src/packet_tx_handler.c **** 		{
 440              		.loc 1 152 0
 441 021e 164B     		ldr	r3, .L91+16
 442 0220 1B78     		ldrb	r3, [r3]	@ zero_extendqisi2
 151:../src/packet_tx_handler.c **** 			packet_tx_telemetry_descr_counter >= packet_tx_modbus_raw_values)
 443              		.loc 1 151 0
 444 0222 892B     		cmp	r3, #137
 445 0224 7FF64AAF 		bls	.L24
 446              	.LBB68:
 447              	.LBB69:
  53:../src/packet_tx_handler.c **** 		// wait for previous transmission to complete
 448              		.loc 1 53 0
 449 0228 0F4B     		ldr	r3, .L91
 450 022a 1B78     		ldrb	r3, [r3]	@ zero_extendqisi2
 451 022c C3B1     		cbz	r3, .L25
 452              	.L26:
 453              	.LBB70:
 454              	.LBB71:
 455              		.loc 2 67 0
 456 022e 204B     		ldr	r3, .L91+72
 457 0230 93F83034 		ldrb	r3, [r3, #1072]	@ zero_extendqisi2
 458 0234 002B     		cmp	r3, #0
 459 0236 FAD1     		bne	.L26
 460              	.LBE71:
 461              	.LBE70:
  58:../src/packet_tx_handler.c **** 
 462              		.loc 1 58 0
 463 0238 4FF47A70 		mov	r0, #1000
 464 023c FFF7FEFF 		bl	delay_fixed
 465              	.LVL16:
 466              	.L27:
 467              	.LBE69:
 468              	.LBE68:
 156:../src/packet_tx_handler.c **** 
 469              		.loc 1 156 0
 470 0240 184B     		ldr	r3, .L91+60
 471 0242 1B68     		ldr	r3, [r3]
 472 0244 234A     		ldr	r2, .L91+108
 473 0246 92F91120 		ldrsb	r2, [r2, #17]
 474 024a 2349     		ldr	r1, .L91+112
 475 024c 0988     		ldrh	r1, [r1]
 476 024e 0191     		str	r1, [sp, #4]
 477 0250 2249     		ldr	r1, .L91+116
 478 0252 0988     		ldrh	r1, [r1]
 479 0254 0091     		str	r1, [sp]
 480 0256 2249     		ldr	r1, .L91+120
 481 0258 2248     		ldr	r0, .L91+124
 482 025a FFF7FEFF 		bl	telemetry_send_status_pv
 483              	.LVL17:
 484 025e 2DE7     		b	.L24
 485              	.L25:
 486              	.LBB73:
 487              	.LBB72:
  62:../src/packet_tx_handler.c **** 	}
 488              		.loc 1 62 0
 489 0260 014B     		ldr	r3, .L91
 490 0262 0122     		movs	r2, #1
 491 0264 1A70     		strb	r2, [r3]
 492 0266 EBE7     		b	.L27
 493              	.L92:
 494              		.align	2
 495              	.L91:
 496 0268 00000000 		.word	.LANCHOR0
 497 026c 00000000 		.word	.LANCHOR1
 498 0270 00000000 		.word	.LANCHOR2
 499 0274 00000000 		.word	.LANCHOR3
 500 0278 00000000 		.word	.LANCHOR4
 501 027c 00000000 		.word	main_config_data_mode
 502 0280 00000000 		.word	.LANCHOR5
 503 0284 00000000 		.word	.LANCHOR6
 504 0288 00000000 		.word	.LANCHOR7
 505 028c 00000000 		.word	.LANCHOR8
 506 0290 00000000 		.word	.LANCHOR9
 507 0294 00000000 		.word	.LANCHOR10
 508 0298 00000000 		.word	main_kiss_enabled
 509 029c 00000000 		.word	.LANCHOR11
 510 02a0 00000000 		.word	.LANCHOR12
 511 02a4 00000000 		.word	master_time
 512 02a8 00000000 		.word	main_own_aprs_msg
 513 02ac 00000000 		.word	rte_wx_umb_context
 514 02b0 00000000 		.word	main_afsk
 515 02b4 00000000 		.word	rte_wx_temperature_average_external_valid
 516 02b8 00000000 		.word	rte_wx_average_winddirection
 517 02bc 00000000 		.word	rte_wx_max_windspeed
 518 02c0 00000000 		.word	rte_wx_average_windspeed
 519 02c4 00000000 		.word	rte_wx_humidity_valid
 520 02c8 00000000 		.word	rte_wx_pressure_valid
 521 02cc 00080140 		.word	1073809408
 522 02d0 00000000 		.word	rte_main_trigger_modbus_status
 523 02d4 00000000 		.word	rte_pv_struct
 524 02d8 00000000 		.word	rte_pv_corrupted_messages_count
 525 02dc 00000000 		.word	rte_pv_messages_count
 526 02e0 00000000 		.word	rte_pv_last_error
 527 02e4 00000000 		.word	rte_pv_average
 528              	.L82:
 529              	.LBE72:
 530              	.LBE73:
 163:../src/packet_tx_handler.c **** 
 531              		.loc 1 163 0
 532 02e8 934D     		ldr	r5, .L93
 533 02ea 2868     		ldr	r0, [r5]
 534 02ec FFF7FEFF 		bl	srl_wait_for_tx_completion
 535              	.LVL18:
 165:../src/packet_tx_handler.c **** 
 536              		.loc 1 165 0
 537 02f0 2E68     		ldr	r6, [r5]
 538 02f2 924B     		ldr	r3, .L93+4
 539 02f4 1B68     		ldr	r3, [r3]	@ float
 540 02f6 924A     		ldr	r2, .L93+8
 541 02f8 1288     		ldrh	r2, [r2]
 542 02fa 9249     		ldr	r1, .L93+12
 543 02fc 0988     		ldrh	r1, [r1]
 544 02fe 9248     		ldr	r0, .L93+16
 545 0300 0088     		ldrh	r0, [r0]
 546 0302 0DF12607 		add	r7, sp, #38
 547 0306 0497     		str	r7, [sp, #16]
 548 0308 F78B     		ldrh	r7, [r6, #30]
 549 030a 0397     		str	r7, [sp, #12]
 550 030c 7669     		ldr	r6, [r6, #20]
 551 030e 0296     		str	r6, [sp, #8]
 552 0310 8E4E     		ldr	r6, .L93+20
 553 0312 3678     		ldrb	r6, [r6]	@ zero_extendqisi2
 554 0314 0196     		str	r6, [sp, #4]
 555 0316 8E4E     		ldr	r6, .L93+24
 556 0318 3668     		ldr	r6, [r6]	@ float
 557 031a 0096     		str	r6, [sp]	@ float
 558 031c FFF7FEFF 		bl	SendWXFrameToBuffer
 559              	.LVL19:
 167:../src/packet_tx_handler.c **** 
 560              		.loc 1 167 0
 561 0320 BDF92610 		ldrsh	r1, [sp, #38]
 562 0324 2868     		ldr	r0, [r5]
 563 0326 FFF7FEFF 		bl	srl_start_tx
 564              	.LVL20:
 169:../src/packet_tx_handler.c **** 		}
 565              		.loc 1 169 0
 566 032a 8A4B     		ldr	r3, .L93+28
 567 032c 0022     		movs	r2, #0
 568 032e 1A70     		strb	r2, [r3]
 569 0330 CFE6     		b	.L11
 570              	.L83:
 571              	.LBB74:
 572              	.LBB75:
  53:../src/packet_tx_handler.c **** 		// wait for previous transmission to complete
 573              		.loc 1 53 0
 574 0332 894B     		ldr	r3, .L93+32
 575 0334 1B78     		ldrb	r3, [r3]	@ zero_extendqisi2
 576 0336 EBB1     		cbz	r3, .L29
 577              	.L30:
 578              	.LBB76:
 579              	.LBB77:
 580              		.loc 2 67 0
 581 0338 884B     		ldr	r3, .L93+36
 582 033a 93F83034 		ldrb	r3, [r3, #1072]	@ zero_extendqisi2
 583 033e 002B     		cmp	r3, #0
 584 0340 FAD1     		bne	.L30
 585              	.LBE77:
 586              	.LBE76:
  58:../src/packet_tx_handler.c **** 
 587              		.loc 1 58 0
 588 0342 4FF47A70 		mov	r0, #1000
 589 0346 FFF7FEFF 		bl	delay_fixed
 590              	.LVL21:
 591              	.L31:
 592              	.LBE75:
 593              	.LBE74:
 178:../src/packet_tx_handler.c **** 			dallas_qf = rte_wx_current_dallas_qf;	// it might be DEGRADATED so we need to copy a value direc
 594              		.loc 1 178 0
 595 034a 854B     		ldr	r3, .L93+40
 596 034c 1B78     		ldrb	r3, [r3]	@ zero_extendqisi2
 597 034e ABB9     		cbnz	r3, .L32
 179:../src/packet_tx_handler.c **** 
 598              		.loc 1 179 0
 599 0350 844B     		ldr	r3, .L93+44
 600 0352 93F800C0 		ldrb	ip, [r3]	@ zero_extendqisi2
 601              	.LVL22:
 182:../src/packet_tx_handler.c **** 		}
 602              		.loc 1 182 0
 603 0356 0022     		movs	r2, #0
 604 0358 1A70     		strb	r2, [r3]
 605              	.L33:
 206:../src/packet_tx_handler.c **** 			// pressure sensors quality factors
 606              		.loc 1 206 0
 607 035a 6379     		ldrb	r3, [r4, #5]	@ zero_extendqisi2
 608 035c 2BBB     		cbnz	r3, .L35
 209:../src/packet_tx_handler.c **** 				case MS5611_QF_FULL: pressure_qf = PRESSURE_QF_FULL; break;
 609              		.loc 1 209 0
 610 035e 824B     		ldr	r3, .L93+48
 611 0360 1B78     		ldrb	r3, [r3]	@ zero_extendqisi2
 612 0362 022B     		cmp	r3, #2
 613 0364 1BD0     		beq	.L37
 614 0366 032B     		cmp	r3, #3
 615 0368 1CD0     		beq	.L38
 616 036a 012B     		cmp	r3, #1
 617 036c 4BD0     		beq	.L68
  71:../src/packet_tx_handler.c **** 	wind_qf_t wind_qf = WIND_QF_UNKNOWN;
 618              		.loc 1 71 0
 619 036e 0025     		movs	r5, #0
  70:../src/packet_tx_handler.c **** 	humidity_qf_t humidity_qf = HUMIDITY_QF_UNKNOWN;
 620              		.loc 1 70 0
 621 0370 2F46     		mov	r7, r5
 622 0372 1EE0     		b	.L39
 623              	.LVL23:
 624              	.L29:
 625              	.LBB79:
 626              	.LBB78:
  62:../src/packet_tx_handler.c **** 	}
 627              		.loc 1 62 0
 628 0374 784B     		ldr	r3, .L93+32
 629 0376 0122     		movs	r2, #1
 630 0378 1A70     		strb	r2, [r3]
 631 037a E6E7     		b	.L31
 632              	.L32:
 633              	.LBE78:
 634              	.LBE79:
 189:../src/packet_tx_handler.c **** 				// set the error reason
 635              		.loc 1 189 0
 636 037c 794B     		ldr	r3, .L93+44
 637 037e 1B78     		ldrb	r3, [r3]	@ zero_extendqisi2
 638 0380 013B     		subs	r3, r3, #1
 639 0382 DBB2     		uxtb	r3, r3
 640 0384 012B     		cmp	r3, #1
 641 0386 07D9     		bls	.L85
 196:../src/packet_tx_handler.c **** 			}
 642              		.loc 1 196 0
 643 0388 4FF0030C 		mov	ip, #3
 644              	.L34:
 645              	.LVL24:
 200:../src/packet_tx_handler.c **** 
 646              		.loc 1 200 0
 647 038c 0023     		movs	r3, #0
 648 038e 744A     		ldr	r2, .L93+40
 649 0390 1370     		strb	r3, [r2]
 202:../src/packet_tx_handler.c **** 		}
 650              		.loc 1 202 0
 651 0392 744A     		ldr	r2, .L93+44
 652 0394 1370     		strb	r3, [r2]
 653 0396 E0E7     		b	.L33
 654              	.LVL25:
 655              	.L85:
 191:../src/packet_tx_handler.c **** 			}
 656              		.loc 1 191 0
 657 0398 4FF0020C 		mov	ip, #2
 658 039c F6E7     		b	.L34
 659              	.LVL26:
 660              	.L37:
  71:../src/packet_tx_handler.c **** 	wind_qf_t wind_qf = WIND_QF_UNKNOWN;
 661              		.loc 1 71 0
 662 039e 0025     		movs	r5, #0
 211:../src/packet_tx_handler.c **** 				case MS5611_QF_DEGRADATED: pressure_qf = PRESSURE_QF_DEGRADATED; break;
 663              		.loc 1 211 0
 664 03a0 0227     		movs	r7, #2
 665 03a2 06E0     		b	.L39
 666              	.LVL27:
 667              	.L38:
  71:../src/packet_tx_handler.c **** 	wind_qf_t wind_qf = WIND_QF_UNKNOWN;
 668              		.loc 1 71 0
 669 03a4 0025     		movs	r5, #0
 212:../src/packet_tx_handler.c **** 				case MS5611_QF_UNKNOWN: pressure_qf = PRESSURE_QF_UNKNOWN; break;
 670              		.loc 1 212 0
 671 03a6 0327     		movs	r7, #3
 672 03a8 03E0     		b	.L39
 673              	.LVL28:
 674              	.L35:
 217:../src/packet_tx_handler.c **** 			//#elif defined(_SENSOR_BME280)
 675              		.loc 1 217 0
 676 03aa 012B     		cmp	r3, #1
 677 03ac 0CD0     		beq	.L86
 247:../src/packet_tx_handler.c **** 		}
 678              		.loc 1 247 0
 679 03ae 0225     		movs	r5, #2
 246:../src/packet_tx_handler.c **** 			humidity_qf = HUMIDITY_QF_NOT_AVALIABLE;
 680              		.loc 1 246 0
 681 03b0 2F46     		mov	r7, r5
 682              	.LVL29:
 683              	.L39:
 251:../src/packet_tx_handler.c **** 			;
 684              		.loc 1 251 0
 685 03b2 6E4B     		ldr	r3, .L93+52
 686 03b4 1B78     		ldrb	r3, [r3]	@ zero_extendqisi2
 687 03b6 052B     		cmp	r3, #5
 688 03b8 5AD0     		beq	.L73
 255:../src/packet_tx_handler.c **** 				case AN_WIND_QF_FULL: wind_qf = WIND_QF_FULL; break;
 689              		.loc 1 255 0
 690 03ba 052B     		cmp	r3, #5
 691 03bc 2BD8     		bhi	.L50
 692 03be DFE803F0 		tbb	[pc, r3]
 693              	.L52:
 694 03c2 30       		.byte	(.L74-.L52)/2
 695 03c3 2C       		.byte	(.L53-.L52)/2
 696 03c4 2C       		.byte	(.L53-.L52)/2
 697 03c5 2C       		.byte	(.L53-.L52)/2
 698 03c6 2E       		.byte	(.L54-.L52)/2
 699 03c7 2E       		.byte	(.L54-.L52)/2
 700              	.LVL30:
 701              		.p2align 1
 702              	.L86:
 220:../src/packet_tx_handler.c **** 				;
 703              		.loc 1 220 0
 704 03c8 694B     		ldr	r3, .L93+56
 705 03ca 1B78     		ldrb	r3, [r3]	@ zero_extendqisi2
 706 03cc 052B     		cmp	r3, #5
 707 03ce 1DD0     		beq	.L70
 225:../src/packet_tx_handler.c **** 					case BME280_QF_FULL:
 708              		.loc 1 225 0
 709 03d0 052B     		cmp	r3, #5
 710 03d2 04D8     		bhi	.L40
 711 03d4 DFE803F0 		tbb	[pc, r3]
 712              	.L42:
 713 03d8 09       		.byte	(.L71-.L42)/2
 714 03d9 05       		.byte	(.L43-.L42)/2
 715 03da 07       		.byte	(.L44-.L42)/2
 716 03db 09       		.byte	(.L71-.L42)/2
 717 03dc 07       		.byte	(.L44-.L42)/2
 718 03dd 05       		.byte	(.L43-.L42)/2
 719              		.p2align 1
 720              	.L40:
  71:../src/packet_tx_handler.c **** 	wind_qf_t wind_qf = WIND_QF_UNKNOWN;
 721              		.loc 1 71 0
 722 03de 0025     		movs	r5, #0
 723 03e0 04E0     		b	.L41
 724              	.L43:
 725              	.LVL31:
 229:../src/packet_tx_handler.c **** 					case BME280_QF_HUMIDITY_DEGRADED:
 726              		.loc 1 229 0
 727 03e2 0225     		movs	r5, #2
 728 03e4 02E0     		b	.L41
 729              	.LVL32:
 730              	.L44:
 231:../src/packet_tx_handler.c **** 				}
 731              		.loc 1 231 0
 732 03e6 0325     		movs	r5, #3
 733 03e8 00E0     		b	.L41
 734              	.LVL33:
 735              	.L71:
 227:../src/packet_tx_handler.c **** 					case BME280_QF_UKNOWN:
 736              		.loc 1 227 0
 737 03ea 0125     		movs	r5, #1
 738              	.LVL34:
 739              	.L41:
 234:../src/packet_tx_handler.c **** 					case BME280_QF_FULL:
 740              		.loc 1 234 0
 741 03ec 052B     		cmp	r3, #5
 742 03ee 04D8     		bhi	.L45
 743 03f0 DFE803F0 		tbb	[pc, r3]
 744              	.L46:
 745 03f4 0F       		.byte	(.L72-.L46)/2
 746 03f5 05       		.byte	(.L47-.L46)/2
 747 03f6 0F       		.byte	(.L72-.L46)/2
 748 03f7 07       		.byte	(.L48-.L46)/2
 749 03f8 07       		.byte	(.L48-.L46)/2
 750 03f9 05       		.byte	(.L47-.L46)/2
 751              		.p2align 1
 752              	.L45:
  70:../src/packet_tx_handler.c **** 	humidity_qf_t humidity_qf = HUMIDITY_QF_UNKNOWN;
 753              		.loc 1 70 0
 754 03fa 0027     		movs	r7, #0
 755 03fc D9E7     		b	.L39
 756              	.L47:
 757              	.LVL35:
 238:../src/packet_tx_handler.c **** 					case BME280_QF_PRESSURE_DEGRADED:
 758              		.loc 1 238 0
 759 03fe 0227     		movs	r7, #2
 760 0400 D7E7     		b	.L39
 761              	.LVL36:
 762              	.L48:
 240:../src/packet_tx_handler.c **** 				}
 763              		.loc 1 240 0
 764 0402 0327     		movs	r7, #3
 765 0404 D5E7     		b	.L39
 766              	.LVL37:
 767              	.L68:
  71:../src/packet_tx_handler.c **** 	wind_qf_t wind_qf = WIND_QF_UNKNOWN;
 768              		.loc 1 71 0
 769 0406 0025     		movs	r5, #0
 210:../src/packet_tx_handler.c **** 				case MS5611_QF_NOT_AVALIABLE: pressure_qf = PRESSURE_QF_NOT_AVALIABLE; break;
 770              		.loc 1 210 0
 771 0408 0127     		movs	r7, #1
 772 040a D2E7     		b	.L39
 773              	.L70:
  71:../src/packet_tx_handler.c **** 	wind_qf_t wind_qf = WIND_QF_UNKNOWN;
 774              		.loc 1 71 0
 775 040c 0025     		movs	r5, #0
  70:../src/packet_tx_handler.c **** 	humidity_qf_t humidity_qf = HUMIDITY_QF_UNKNOWN;
 776              		.loc 1 70 0
 777 040e 2F46     		mov	r7, r5
 778 0410 CFE7     		b	.L39
 779              	.LVL38:
 780              	.L72:
 236:../src/packet_tx_handler.c **** 					case BME280_QF_UKNOWN:
 781              		.loc 1 236 0
 782 0412 0127     		movs	r7, #1
 783 0414 CDE7     		b	.L39
 784              	.LVL39:
 785              	.L50:
  72:../src/packet_tx_handler.c **** 
 786              		.loc 1 72 0
 787 0416 0026     		movs	r6, #0
 788 0418 04E0     		b	.L51
 789              	.L53:
 790              	.LVL40:
 259:../src/packet_tx_handler.c **** 				case AN_WIND_QF_NOT_AVALIABLE:
 791              		.loc 1 259 0
 792 041a 0326     		movs	r6, #3
 793 041c 02E0     		b	.L51
 794              	.LVL41:
 795              	.L54:
 261:../src/packet_tx_handler.c **** 			}
 796              		.loc 1 261 0
 797 041e 0226     		movs	r6, #2
 798 0420 00E0     		b	.L51
 799              	.LVL42:
 800              	.L74:
 256:../src/packet_tx_handler.c **** 				case AN_WIND_QF_DEGRADED_DEBOUNCE:
 801              		.loc 1 256 0
 802 0422 0126     		movs	r6, #1
 803              	.LVL43:
 804              	.L51:
 264:../src/packet_tx_handler.c **** 		}
 805              		.loc 1 264 0
 806 0424 514B     		ldr	r3, .L93+52
 807 0426 0522     		movs	r2, #5
 808 0428 1A70     		strb	r2, [r3]
 809              	.LVL44:
 810              	.L49:
 268:../src/packet_tx_handler.c **** 			telemetry_send_values_pv(rx10m, digi10m, rte_pv_battery_current, rte_pv_battery_voltage, rte_pv_
 811              		.loc 1 268 0
 812 042a A379     		ldrb	r3, [r4, #6]	@ zero_extendqisi2
 813 042c 012B     		cmp	r3, #1
 814 042e 21D0     		beq	.L87
 275:../src/packet_tx_handler.c **** 
 815              		.loc 1 275 0
 816 0430 6378     		ldrb	r3, [r4, #1]	@ zero_extendqisi2
 817 0432 012B     		cmp	r3, #1
 818 0434 32D0     		beq	.L88
 283:../src/packet_tx_handler.c **** 			}
 819              		.loc 1 283 0
 820 0436 4F4B     		ldr	r3, .L93+60
 821 0438 1B78     		ldrb	r3, [r3]	@ zero_extendqisi2
 822 043a 4F4A     		ldr	r2, .L93+64
 823 043c 1278     		ldrb	r2, [r2]	@ zero_extendqisi2
 824 043e 4F49     		ldr	r1, .L93+68
 825 0440 0978     		ldrb	r1, [r1]	@ zero_extendqisi2
 826 0442 4F48     		ldr	r0, .L93+72
 827 0444 0078     		ldrb	r0, [r0]	@ zero_extendqisi2
 828 0446 0496     		str	r6, [sp, #16]
 829 0448 0395     		str	r5, [sp, #12]
 830 044a 0297     		str	r7, [sp, #8]
 831 044c CDF804C0 		str	ip, [sp, #4]
 832 0450 0025     		movs	r5, #0
 833              	.LVL45:
 834 0452 0095     		str	r5, [sp]	@ float
 835 0454 FFF7FEFF 		bl	telemetry_send_values
 836              	.LVL46:
 837              	.L56:
 287:../src/packet_tx_handler.c **** 
 838              		.loc 1 287 0
 839 0458 0023     		movs	r3, #0
 840 045a 4A4A     		ldr	r2, .L93+76
 841 045c 1370     		strb	r3, [r2]
 289:../src/packet_tx_handler.c **** 
 842              		.loc 1 289 0
 843 045e 484A     		ldr	r2, .L93+72
 844 0460 1380     		strh	r3, [r2]	@ movhi
 845 0462 464A     		ldr	r2, .L93+68
 846 0464 1380     		strh	r3, [r2]	@ movhi
 847 0466 444A     		ldr	r2, .L93+64
 848 0468 1380     		strh	r3, [r2]	@ movhi
 849 046a 424A     		ldr	r2, .L93+60
 850 046c 1380     		strh	r3, [r2]	@ movhi
 851 046e 37E6     		b	.L28
 852              	.LVL47:
 853              	.L73:
  72:../src/packet_tx_handler.c **** 
 854              		.loc 1 72 0
 855 0470 0026     		movs	r6, #0
 856 0472 DAE7     		b	.L49
 857              	.LVL48:
 858              	.L87:
 269:../src/packet_tx_handler.c **** 		}
 859              		.loc 1 269 0
 860 0474 444B     		ldr	r3, .L93+80
 861 0476 1B88     		ldrh	r3, [r3]
 862 0478 444A     		ldr	r2, .L93+84
 863 047a B2F90020 		ldrsh	r2, [r2]
 864 047e 3E49     		ldr	r1, .L93+64
 865 0480 0978     		ldrb	r1, [r1]	@ zero_extendqisi2
 866 0482 3F48     		ldr	r0, .L93+72
 867 0484 0078     		ldrb	r0, [r0]	@ zero_extendqisi2
 868 0486 0496     		str	r6, [sp, #16]
 869 0488 0395     		str	r5, [sp, #12]
 870 048a 0297     		str	r7, [sp, #8]
 871 048c CDF804C0 		str	ip, [sp, #4]
 872 0490 3F4D     		ldr	r5, .L93+88
 873              	.LVL49:
 874 0492 2D88     		ldrh	r5, [r5]
 875 0494 0095     		str	r5, [sp]
 876 0496 FFF7FEFF 		bl	telemetry_send_values_pv
 877              	.LVL50:
 878 049a DDE7     		b	.L56
 879              	.LVL51:
 880              	.L88:
 279:../src/packet_tx_handler.c **** 			}
 881              		.loc 1 279 0
 882 049c 354B     		ldr	r3, .L93+60
 883 049e 1B78     		ldrb	r3, [r3]	@ zero_extendqisi2
 884 04a0 354A     		ldr	r2, .L93+64
 885 04a2 1278     		ldrb	r2, [r2]	@ zero_extendqisi2
 886 04a4 3549     		ldr	r1, .L93+68
 887 04a6 0978     		ldrb	r1, [r1]	@ zero_extendqisi2
 888 04a8 3548     		ldr	r0, .L93+72
 889 04aa 0078     		ldrb	r0, [r0]	@ zero_extendqisi2
 890 04ac 0496     		str	r6, [sp, #16]
 891 04ae 0395     		str	r5, [sp, #12]
 892 04b0 0297     		str	r7, [sp, #8]
 893 04b2 CDF804C0 		str	ip, [sp, #4]
 894 04b6 374D     		ldr	r5, .L93+92
 895              	.LVL52:
 896 04b8 2D68     		ldr	r5, [r5]	@ float
 897 04ba 0095     		str	r5, [sp]	@ float
 898 04bc FFF7FEFF 		bl	telemetry_send_values
 899              	.LVL53:
 900 04c0 CAE7     		b	.L56
 901              	.LVL54:
 902              	.L84:
 903              	.LBB80:
 904              	.LBB81:
  53:../src/packet_tx_handler.c **** 		// wait for previous transmission to complete
 905              		.loc 1 53 0
 906 04c2 254B     		ldr	r3, .L93+32
 907 04c4 1B78     		ldrb	r3, [r3]	@ zero_extendqisi2
 908 04c6 1BB3     		cbz	r3, .L59
 909              	.L60:
 910              	.LBB82:
 911              	.LBB83:
 912              		.loc 2 67 0
 913 04c8 244B     		ldr	r3, .L93+36
 914 04ca 93F83034 		ldrb	r3, [r3, #1072]	@ zero_extendqisi2
 915 04ce 002B     		cmp	r3, #0
 916 04d0 FAD1     		bne	.L60
 917              	.LBE83:
 918              	.LBE82:
  58:../src/packet_tx_handler.c **** 
 919              		.loc 1 58 0
 920 04d2 4FF47A70 		mov	r0, #1000
 921 04d6 FFF7FEFF 		bl	delay_fixed
 922              	.LVL55:
 923              	.L61:
 924              	.LBE81:
 925              	.LBE80:
 296:../src/packet_tx_handler.c **** 			telemetry_send_chns_description_pv(&config_basic);
 926              		.loc 1 296 0
 927 04da A379     		ldrb	r3, [r4, #6]	@ zero_extendqisi2
 928 04dc 012B     		cmp	r3, #1
 929 04de 1BD0     		beq	.L89
 307:../src/packet_tx_handler.c **** 
 930              		.loc 1 307 0
 931 04e0 07A8     		add	r0, sp, #28
 932 04e2 FFF7FEFF 		bl	telemetry_send_chns_description
 933              	.LVL56:
 934              	.LBB85:
 935              	.LBB86:
  53:../src/packet_tx_handler.c **** 		// wait for previous transmission to complete
 936              		.loc 1 53 0
 937 04e6 1C4B     		ldr	r3, .L93+32
 938 04e8 1B78     		ldrb	r3, [r3]	@ zero_extendqisi2
 939 04ea 03B3     		cbz	r3, .L64
 940              	.L65:
 941              	.LBB87:
 942              	.LBB88:
 943              		.loc 2 67 0
 944 04ec 1B4B     		ldr	r3, .L93+36
 945 04ee 93F83034 		ldrb	r3, [r3, #1072]	@ zero_extendqisi2
 946 04f2 002B     		cmp	r3, #0
 947 04f4 FAD1     		bne	.L65
 948              	.LBE88:
 949              	.LBE87:
  58:../src/packet_tx_handler.c **** 
 950              		.loc 1 58 0
 951 04f6 4FF47A70 		mov	r0, #1000
 952 04fa FFF7FEFF 		bl	delay_fixed
 953              	.LVL57:
 954              	.L63:
 955              	.LBE86:
 956              	.LBE85:
 314:../src/packet_tx_handler.c **** 
 957              		.loc 1 314 0
 958 04fe FFF7FEFF 		bl	telemetry_send_status
 959              	.LVL58:
 317:../src/packet_tx_handler.c **** 
 960              		.loc 1 317 0
 961 0502 A378     		ldrb	r3, [r4, #2]	@ zero_extendqisi2
 962 0504 012B     		cmp	r3, #1
 963 0506 4BD0     		beq	.L90
 964              	.L66:
 322:../src/packet_tx_handler.c **** 	}
 965              		.loc 1 322 0
 966 0508 234B     		ldr	r3, .L93+96
 967 050a 0022     		movs	r2, #0
 968 050c 1A70     		strb	r2, [r3]
 969              		.loc 1 325 0
 970 050e EEE5     		b	.L1
 971              	.L59:
 972              	.LBB90:
 973              	.LBB84:
  62:../src/packet_tx_handler.c **** 	}
 974              		.loc 1 62 0
 975 0510 114B     		ldr	r3, .L93+32
 976 0512 0122     		movs	r2, #1
 977 0514 1A70     		strb	r2, [r3]
 978 0516 E0E7     		b	.L61
 979              	.L89:
 980              	.LBE84:
 981              	.LBE90:
 297:../src/packet_tx_handler.c **** 
 982              		.loc 1 297 0
 983 0518 07A8     		add	r0, sp, #28
 984 051a FFF7FEFF 		bl	telemetry_send_chns_description_pv
 985              	.LVL59:
 300:../src/packet_tx_handler.c **** 				rte_main_reboot_req = 1;
 986              		.loc 1 300 0
 987 051e 1A4B     		ldr	r3, .L93+80
 988 0520 1B88     		ldrh	r3, [r3]
 989 0522 002B     		cmp	r3, #0
 990 0524 EBD1     		bne	.L63
 301:../src/packet_tx_handler.c **** 			}
 991              		.loc 1 301 0
 992 0526 1D4B     		ldr	r3, .L93+100
 993 0528 0122     		movs	r2, #1
 994 052a 1A70     		strb	r2, [r3]
 995 052c E7E7     		b	.L63
 996              	.L64:
 997              	.LBB91:
 998              	.LBB89:
  62:../src/packet_tx_handler.c **** 	}
 999              		.loc 1 62 0
 1000 052e 0A4B     		ldr	r3, .L93+32
 1001 0530 0122     		movs	r2, #1
 1002 0532 1A70     		strb	r2, [r3]
 1003 0534 E3E7     		b	.L63
 1004              	.L94:
 1005 0536 00BF     		.align	2
 1006              	.L93:
 1007 0538 00000000 		.word	main_kiss_srl_ctx_ptr
 1008 053c 00000000 		.word	rte_wx_temperature_average_external_valid
 1009 0540 00000000 		.word	rte_wx_average_winddirection
 1010 0544 00000000 		.word	rte_wx_max_windspeed
 1011 0548 00000000 		.word	rte_wx_average_windspeed
 1012 054c 00000000 		.word	rte_wx_humidity_valid
 1013 0550 00000000 		.word	rte_wx_pressure_valid
 1014 0554 00000000 		.word	.LANCHOR6
 1015 0558 00000000 		.word	.LANCHOR0
 1016 055c 00000000 		.word	main_afsk
 1017 0560 00000000 		.word	rte_wx_error_dallas_qf
 1018 0564 00000000 		.word	rte_wx_current_dallas_qf
 1019 0568 00000000 		.word	rte_wx_ms5611_qf
 1020 056c 00000000 		.word	rte_wx_wind_qf
 1021 0570 00000000 		.word	rte_wx_bme280_qf
 1022 0574 00000000 		.word	kiss10m
 1023 0578 00000000 		.word	digi10m
 1024 057c 00000000 		.word	tx10m
 1025 0580 00000000 		.word	rx10m
 1026 0584 00000000 		.word	.LANCHOR3
 1027 0588 00000000 		.word	rte_pv_battery_voltage
 1028 058c 00000000 		.word	rte_pv_battery_current
 1029 0590 00000000 		.word	rte_pv_cell_voltage
 1030 0594 00000000 		.word	rte_wx_temperature_internal_valid
 1031 0598 00000000 		.word	.LANCHOR4
 1032 059c 00000000 		.word	rte_main_reboot_req
 1033              	.L90:
 1034              	.LBE89:
 1035              	.LBE91:
 319:../src/packet_tx_handler.c **** 		}
 1036              		.loc 1 319 0
 1037 05a0 0148     		ldr	r0, .L95
 1038 05a2 FFF7FEFF 		bl	umb_clear_error_history
 1039              	.LVL60:
 1040 05a6 AFE7     		b	.L66
 1041              	.L96:
 1042              		.align	2
 1043              	.L95:
 1044 05a8 00000000 		.word	rte_wx_umb_context
 1045              		.cfi_endproc
 1046              	.LFE93:
 1048              		.global	packet_tx_more_than_one
 1049              		.global	packet_tx_modbus_status
 1050              		.global	packet_tx_modbus_raw_values
 1051              		.global	packet_tx_telemetry_descr_counter
 1052              		.global	packet_tx_telemetry_descr_interval
 1053              		.global	packet_tx_telemetry_counter
 1054              		.global	packet_tx_telemetry_interval
 1055              		.global	packet_tx_meteo_kiss_counter
 1056              		.global	packet_tx_meteo_kiss_interval
 1057              		.global	packet_tx_meteo_counter
 1058              		.global	packet_tx_meteo_interval
 1059              		.global	packet_tx_error_status_counter
 1060              		.global	packet_tx_error_status_interval
 1061              		.global	packet_tx_beacon_counter
 1062              		.global	packet_tx_beacon_interval
 1063              		.section	.bss.packet_tx_beacon_counter,"aw",%nobits
 1064              		.set	.LANCHOR1,. + 0
 1067              	packet_tx_beacon_counter:
 1068 0000 00       		.space	1
 1069              		.section	.bss.packet_tx_error_status_counter,"aw",%nobits
 1070              		.set	.LANCHOR2,. + 0
 1073              	packet_tx_error_status_counter:
 1074 0000 00       		.space	1
 1075              		.section	.bss.packet_tx_meteo_kiss_counter,"aw",%nobits
 1076              		.set	.LANCHOR6,. + 0
 1079              	packet_tx_meteo_kiss_counter:
 1080 0000 00       		.space	1
 1081              		.section	.bss.packet_tx_more_than_one,"aw",%nobits
 1082              		.set	.LANCHOR0,. + 0
 1085              	packet_tx_more_than_one:
 1086 0000 00       		.space	1
 1087              		.section	.bss.packet_tx_telemetry_counter,"aw",%nobits
 1088              		.set	.LANCHOR3,. + 0
 1091              	packet_tx_telemetry_counter:
 1092 0000 00       		.space	1
 1093              		.section	.data.packet_tx_beacon_interval,"aw",%progbits
 1094              		.set	.LANCHOR8,. + 0
 1097              	packet_tx_beacon_interval:
 1098 0000 2D       		.byte	45
 1099              		.section	.data.packet_tx_error_status_interval,"aw",%progbits
 1100              		.set	.LANCHOR7,. + 0
 1103              	packet_tx_error_status_interval:
 1104 0000 02       		.byte	2
 1105              		.section	.data.packet_tx_meteo_counter,"aw",%progbits
 1106              		.set	.LANCHOR5,. + 0
 1109              	packet_tx_meteo_counter:
 1110 0000 02       		.byte	2
 1111              		.section	.data.packet_tx_meteo_interval,"aw",%progbits
 1112              		.set	.LANCHOR9,. + 0
 1115              	packet_tx_meteo_interval:
 1116 0000 04       		.byte	4
 1117              		.section	.data.packet_tx_meteo_kiss_interval,"aw",%progbits
 1118              		.set	.LANCHOR10,. + 0
 1121              	packet_tx_meteo_kiss_interval:
 1122 0000 02       		.byte	2
 1123              		.section	.data.packet_tx_telemetry_descr_counter,"aw",%progbits
 1124              		.set	.LANCHOR4,. + 0
 1127              	packet_tx_telemetry_descr_counter:
 1128 0000 0A       		.byte	10
 1129              		.section	.data.packet_tx_telemetry_descr_interval,"aw",%progbits
 1130              		.set	.LANCHOR12,. + 0
 1133              	packet_tx_telemetry_descr_interval:
 1134 0000 96       		.byte	-106
 1135              		.section	.data.packet_tx_telemetry_interval,"aw",%progbits
 1136              		.set	.LANCHOR11,. + 0
 1139              	packet_tx_telemetry_interval:
 1140 0000 0A       		.byte	10
 1141              		.section	.rodata.packet_tx_modbus_raw_values,"a",%progbits
 1144              	packet_tx_modbus_raw_values:
 1145 0000 8A       		.byte	-118
 1146              		.section	.rodata.packet_tx_modbus_status,"a",%progbits
 1149              	packet_tx_modbus_status:
 1150 0000 1E       		.byte	30
 1151              		.text
 1152              	.Letext0:
 1153              		.file 3 "/usr/local/bin/gcc-arm-none-eabi-7-2018-q2-update/lib/gcc/arm-none-eabi/7.3.1/include/std
 1154              		.file 4 "../system/include/cmsis/core_cm3.h"
 1155              		.file 5 "../system/include/cmsis/system_stm32f10x.h"
 1156              		.file 6 "../system/include/cmsis/stm32f10x.h"
 1157              		.file 7 "../system/include/drivers/dallas.h"
 1158              		.file 8 "../system/include/drivers/analog_anemometer.h"
 1159              		.file 9 "../system/include/davis_vantage/davis_loop_t.h"
 1160              		.file 10 "../system/include/umb_master/umb_frame_t.h"
 1161              		.file 11 "../system/include/umb_master/umb_state_t.h"
 1162              		.file 12 "../system/include/drivers/serial.h"
 1163              		.file 13 "../system/include/umb_master/umb_context_t.h"
 1164              		.file 14 "../system/include/umb_master/umb_qf_t.h"
 1165              		.file 15 "../include/config_data.h"
 1166              		.file 16 "/usr/local/bin/gcc-arm-none-eabi-7-2018-q2-update/arm-none-eabi/include/sys/lock.h"
 1167              		.file 17 "/usr/local/bin/gcc-arm-none-eabi-7-2018-q2-update/arm-none-eabi/include/sys/_types.h"
 1168              		.file 18 "/usr/local/bin/gcc-arm-none-eabi-7-2018-q2-update/lib/gcc/arm-none-eabi/7.3.1/include/st
 1169              		.file 19 "/usr/local/bin/gcc-arm-none-eabi-7-2018-q2-update/arm-none-eabi/include/sys/reent.h"
 1170              		.file 20 "/usr/local/bin/gcc-arm-none-eabi-7-2018-q2-update/arm-none-eabi/include/math.h"
 1171              		.file 21 "../system/include/drivers/ms5611.h"
 1172              		.file 22 "../system/include/drivers/bme280.h"
 1173              		.file 23 "../include/rte_wx.h"
 1174              		.file 24 "../system/include/./ve_direct_protocol/average_struct.h"
 1175              		.file 25 "../system/include/./ve_direct_protocol/raw_struct.h"
 1176              		.file 26 "../include/rte_pv.h"
 1177              		.file 27 "../include/rte_main.h"
 1178              		.file 28 "../system/include/./aprs/telemetry.h"
 1179              		.file 29 "../system/include/aprs/cfifo.h"
 1180              		.file 30 "../system/include/aprs/afsk.h"
 1181              		.file 31 "../system/include/aprs/ax25.h"
 1182              		.file 32 "../include/delay.h"
 1183              		.file 33 "../system/include/umb_master/umb_master.h"
 1184              		.file 34 "../system/include/./aprs/beacon.h"
 1185              		.file 35 "../system/include/./aprs/wx.h"