   1              		.cpu cortex-m4
   2              		.eabi_attribute 27, 1
   3              		.eabi_attribute 28, 1
   4              		.eabi_attribute 20, 1
   5              		.eabi_attribute 21, 1
   6              		.eabi_attribute 23, 3
   7              		.eabi_attribute 24, 1
   8              		.eabi_attribute 25, 1
   9              		.eabi_attribute 26, 1
  10              		.eabi_attribute 30, 1
  11              		.eabi_attribute 34, 1
  12              		.eabi_attribute 18, 4
  13              		.file	"_startup.c"
  14              		.text
  15              	.Ltext0:
  16              		.cfi_sections	.debug_frame
  17              		.section	.text.__initialize_data,"ax",%progbits
  18              		.align	1
  19              		.global	__initialize_data
  20              		.syntax unified
  21              		.thumb
  22              		.thumb_func
  23              		.fpu fpv4-sp-d16
  25              	__initialize_data:
  26              	.LFB0:
  27              		.file 1 "../system/src/newlib/_startup.c"
   1:../system/src/newlib/_startup.c **** //
   2:../system/src/newlib/_startup.c **** // This file is part of the µOS++ III distribution.
   3:../system/src/newlib/_startup.c **** // Copyright (c) 2014 Liviu Ionescu.
   4:../system/src/newlib/_startup.c **** //
   5:../system/src/newlib/_startup.c **** 
   6:../system/src/newlib/_startup.c **** // ----------------------------------------------------------------------------
   7:../system/src/newlib/_startup.c **** 
   8:../system/src/newlib/_startup.c **** // This module contains the startup code for a portable embedded
   9:../system/src/newlib/_startup.c **** // C/C++ application, built with newlib.
  10:../system/src/newlib/_startup.c **** //
  11:../system/src/newlib/_startup.c **** // Control reaches here from the reset handler via jump or call.
  12:../system/src/newlib/_startup.c **** //
  13:../system/src/newlib/_startup.c **** // The actual steps performed by _start are:
  14:../system/src/newlib/_startup.c **** // - copy the initialised data region(s)
  15:../system/src/newlib/_startup.c **** // - clear the BSS region(s)
  16:../system/src/newlib/_startup.c **** // - initialise the system
  17:../system/src/newlib/_startup.c **** // - run the preinit/init array (for the C++ static constructors)
  18:../system/src/newlib/_startup.c **** // - initialise the arc/argv
  19:../system/src/newlib/_startup.c **** // - branch to main()
  20:../system/src/newlib/_startup.c **** // - run the fini array (for the C++ static destructors)
  21:../system/src/newlib/_startup.c **** // - call _exit(), directly or via exit()
  22:../system/src/newlib/_startup.c **** //
  23:../system/src/newlib/_startup.c **** // If OS_INCLUDE_STARTUP_INIT_MULTIPLE_RAM_SECTIONS is defined, the
  24:../system/src/newlib/_startup.c **** // code is capable of initialising multiple regions.
  25:../system/src/newlib/_startup.c **** //
  26:../system/src/newlib/_startup.c **** // The normal configuration is standalone, with all support
  27:../system/src/newlib/_startup.c **** // functions implemented locally.
  28:../system/src/newlib/_startup.c **** //
  29:../system/src/newlib/_startup.c **** // For this to be called, the project linker must be configured without
  30:../system/src/newlib/_startup.c **** // the startup sequence (-nostartfiles).
  31:../system/src/newlib/_startup.c **** 
  32:../system/src/newlib/_startup.c **** // ----------------------------------------------------------------------------
  33:../system/src/newlib/_startup.c **** 
  34:../system/src/newlib/_startup.c **** #include <stdint.h>
  35:../system/src/newlib/_startup.c **** #include <sys/types.h>
  36:../system/src/newlib/_startup.c **** 
  37:../system/src/newlib/_startup.c **** // ----------------------------------------------------------------------------
  38:../system/src/newlib/_startup.c **** 
  39:../system/src/newlib/_startup.c **** #if !defined(OS_INCLUDE_STARTUP_GUARD_CHECKS)
  40:../system/src/newlib/_startup.c **** #define OS_INCLUDE_STARTUP_GUARD_CHECKS (1)
  41:../system/src/newlib/_startup.c **** #endif
  42:../system/src/newlib/_startup.c **** 
  43:../system/src/newlib/_startup.c **** // ----------------------------------------------------------------------------
  44:../system/src/newlib/_startup.c **** 
  45:../system/src/newlib/_startup.c **** #if !defined(OS_INCLUDE_STARTUP_INIT_MULTIPLE_RAM_SECTIONS)
  46:../system/src/newlib/_startup.c **** // Begin address for the initialisation values of the .data section.
  47:../system/src/newlib/_startup.c **** // defined in linker script
  48:../system/src/newlib/_startup.c **** extern unsigned int _sidata;
  49:../system/src/newlib/_startup.c **** // Begin address for the .data section; defined in linker script
  50:../system/src/newlib/_startup.c **** extern unsigned int _sdata;
  51:../system/src/newlib/_startup.c **** // End address for the .data section; defined in linker script
  52:../system/src/newlib/_startup.c **** extern unsigned int _edata;
  53:../system/src/newlib/_startup.c **** 
  54:../system/src/newlib/_startup.c **** // Begin address for the .bss section; defined in linker script
  55:../system/src/newlib/_startup.c **** extern unsigned int __bss_start__;
  56:../system/src/newlib/_startup.c **** // End address for the .bss section; defined in linker script
  57:../system/src/newlib/_startup.c **** extern unsigned int __bss_end__;
  58:../system/src/newlib/_startup.c **** #else
  59:../system/src/newlib/_startup.c **** // The following symbols are constructs generated by the linker, indicating
  60:../system/src/newlib/_startup.c **** // the location of various points in the "Memory regions initialisation arrays".
  61:../system/src/newlib/_startup.c **** // These arrays are created by the linker via the managed linker script
  62:../system/src/newlib/_startup.c **** // of each RW data mechanism. It contains the load address, execution address
  63:../system/src/newlib/_startup.c **** // and length section and the execution and length of each BSS (zero
  64:../system/src/newlib/_startup.c **** // initialised) section.
  65:../system/src/newlib/_startup.c **** extern unsigned int __data_regions_array_start;
  66:../system/src/newlib/_startup.c **** extern unsigned int __data_regions_array_end;
  67:../system/src/newlib/_startup.c **** extern unsigned int __bss_regions_array_start;
  68:../system/src/newlib/_startup.c **** extern unsigned int __bss_regions_array_end;
  69:../system/src/newlib/_startup.c **** #endif
  70:../system/src/newlib/_startup.c **** 
  71:../system/src/newlib/_startup.c **** extern void
  72:../system/src/newlib/_startup.c **** __initialize_args (int*, char***);
  73:../system/src/newlib/_startup.c **** 
  74:../system/src/newlib/_startup.c **** // main() is the entry point for newlib based applications.
  75:../system/src/newlib/_startup.c **** // By default, there are no arguments, but this can be customised
  76:../system/src/newlib/_startup.c **** // by redefining __initialize_args(), which is done when the
  77:../system/src/newlib/_startup.c **** // semihosting configurations are used.
  78:../system/src/newlib/_startup.c **** extern int
  79:../system/src/newlib/_startup.c **** main (int argc, char* argv[]);
  80:../system/src/newlib/_startup.c **** 
  81:../system/src/newlib/_startup.c **** // The implementation for the exit routine; for embedded
  82:../system/src/newlib/_startup.c **** // applications, a system reset will be performed.
  83:../system/src/newlib/_startup.c **** extern void
  84:../system/src/newlib/_startup.c **** __attribute__((noreturn))
  85:../system/src/newlib/_startup.c **** _exit (int);
  86:../system/src/newlib/_startup.c **** 
  87:../system/src/newlib/_startup.c **** // ----------------------------------------------------------------------------
  88:../system/src/newlib/_startup.c **** 
  89:../system/src/newlib/_startup.c **** // Forward declarations
  90:../system/src/newlib/_startup.c **** 
  91:../system/src/newlib/_startup.c **** void
  92:../system/src/newlib/_startup.c **** _start (void);
  93:../system/src/newlib/_startup.c **** 
  94:../system/src/newlib/_startup.c **** void
  95:../system/src/newlib/_startup.c **** __initialize_data (unsigned int* from, unsigned int* region_begin,
  96:../system/src/newlib/_startup.c **** 		   unsigned int* region_end);
  97:../system/src/newlib/_startup.c **** 
  98:../system/src/newlib/_startup.c **** void
  99:../system/src/newlib/_startup.c **** __initialize_bss (unsigned int* region_begin, unsigned int* region_end);
 100:../system/src/newlib/_startup.c **** 
 101:../system/src/newlib/_startup.c **** void
 102:../system/src/newlib/_startup.c **** __run_init_array (void);
 103:../system/src/newlib/_startup.c **** 
 104:../system/src/newlib/_startup.c **** void
 105:../system/src/newlib/_startup.c **** __run_fini_array (void);
 106:../system/src/newlib/_startup.c **** 
 107:../system/src/newlib/_startup.c **** void
 108:../system/src/newlib/_startup.c **** __initialize_hardware_early (void);
 109:../system/src/newlib/_startup.c **** 
 110:../system/src/newlib/_startup.c **** void
 111:../system/src/newlib/_startup.c **** __initialize_hardware (void);
 112:../system/src/newlib/_startup.c **** 
 113:../system/src/newlib/_startup.c **** // ----------------------------------------------------------------------------
 114:../system/src/newlib/_startup.c **** 
 115:../system/src/newlib/_startup.c **** inline void
 116:../system/src/newlib/_startup.c **** __attribute__((always_inline))
 117:../system/src/newlib/_startup.c **** __initialize_data (unsigned int* from, unsigned int* region_begin,
 118:../system/src/newlib/_startup.c **** 		   unsigned int* region_end)
 119:../system/src/newlib/_startup.c **** {
  28              		.loc 1 119 0
  29              		.cfi_startproc
  30              		@ args = 0, pretend = 0, frame = 0
  31              		@ frame_needed = 0, uses_anonymous_args = 0
  32              		@ link register save eliminated.
  33              	.LVL0:
 120:../system/src/newlib/_startup.c ****   // Iterate and copy word by word.
 121:../system/src/newlib/_startup.c ****   // It is assumed that the pointers are word aligned.
 122:../system/src/newlib/_startup.c ****   unsigned int *p = region_begin;
 123:../system/src/newlib/_startup.c ****   while (p < region_end)
  34              		.loc 1 123 0
  35 0000 03E0     		b	.L2
  36              	.LVL1:
  37              	.L3:
 124:../system/src/newlib/_startup.c ****     *p++ = *from++;
  38              		.loc 1 124 0
  39 0002 0368     		ldr	r3, [r0]
  40 0004 0B60     		str	r3, [r1]
  41 0006 0431     		adds	r1, r1, #4
  42              	.LVL2:
  43 0008 0430     		adds	r0, r0, #4
  44              	.LVL3:
  45              	.L2:
 123:../system/src/newlib/_startup.c ****     *p++ = *from++;
  46              		.loc 1 123 0
  47 000a 9142     		cmp	r1, r2
  48 000c F9D3     		bcc	.L3
 125:../system/src/newlib/_startup.c **** }
  49              		.loc 1 125 0
  50 000e 7047     		bx	lr
  51              		.cfi_endproc
  52              	.LFE0:
  54              		.section	.text.__initialize_bss,"ax",%progbits
  55              		.align	1
  56              		.global	__initialize_bss
  57              		.syntax unified
  58              		.thumb
  59              		.thumb_func
  60              		.fpu fpv4-sp-d16
  62              	__initialize_bss:
  63              	.LFB1:
 126:../system/src/newlib/_startup.c **** 
 127:../system/src/newlib/_startup.c **** inline void
 128:../system/src/newlib/_startup.c **** __attribute__((always_inline))
 129:../system/src/newlib/_startup.c **** __initialize_bss (unsigned int* region_begin, unsigned int* region_end)
 130:../system/src/newlib/_startup.c **** {
  64              		.loc 1 130 0
  65              		.cfi_startproc
  66              		@ args = 0, pretend = 0, frame = 0
  67              		@ frame_needed = 0, uses_anonymous_args = 0
  68              		@ link register save eliminated.
  69              	.LVL4:
 131:../system/src/newlib/_startup.c ****   // Iterate and clear word by word.
 132:../system/src/newlib/_startup.c ****   // It is assumed that the pointers are word aligned.
 133:../system/src/newlib/_startup.c ****   unsigned int *p = region_begin;
 134:../system/src/newlib/_startup.c ****   while (p < region_end)
  70              		.loc 1 134 0
  71 0000 02E0     		b	.L5
  72              	.LVL5:
  73              	.L6:
 135:../system/src/newlib/_startup.c ****     *p++ = 0;
  74              		.loc 1 135 0
  75 0002 0023     		movs	r3, #0
  76 0004 0360     		str	r3, [r0]
  77 0006 0430     		adds	r0, r0, #4
  78              	.LVL6:
  79              	.L5:
 134:../system/src/newlib/_startup.c ****     *p++ = 0;
  80              		.loc 1 134 0
  81 0008 8842     		cmp	r0, r1
  82 000a FAD3     		bcc	.L6
 136:../system/src/newlib/_startup.c **** }
  83              		.loc 1 136 0
  84 000c 7047     		bx	lr
  85              		.cfi_endproc
  86              	.LFE1:
  88              		.section	.text.__run_init_array,"ax",%progbits
  89              		.align	1
  90              		.global	__run_init_array
  91              		.syntax unified
  92              		.thumb
  93              		.thumb_func
  94              		.fpu fpv4-sp-d16
  96              	__run_init_array:
  97              	.LFB2:
 137:../system/src/newlib/_startup.c **** 
 138:../system/src/newlib/_startup.c **** // These magic symbols are provided by the linker.
 139:../system/src/newlib/_startup.c **** extern void
 140:../system/src/newlib/_startup.c **** (*__preinit_array_start[]) (void) __attribute__((weak));
 141:../system/src/newlib/_startup.c **** extern void
 142:../system/src/newlib/_startup.c **** (*__preinit_array_end[]) (void) __attribute__((weak));
 143:../system/src/newlib/_startup.c **** extern void
 144:../system/src/newlib/_startup.c **** (*__init_array_start[]) (void) __attribute__((weak));
 145:../system/src/newlib/_startup.c **** extern void
 146:../system/src/newlib/_startup.c **** (*__init_array_end[]) (void) __attribute__((weak));
 147:../system/src/newlib/_startup.c **** extern void
 148:../system/src/newlib/_startup.c **** (*__fini_array_start[]) (void) __attribute__((weak));
 149:../system/src/newlib/_startup.c **** extern void
 150:../system/src/newlib/_startup.c **** (*__fini_array_end[]) (void) __attribute__((weak));
 151:../system/src/newlib/_startup.c **** 
 152:../system/src/newlib/_startup.c **** // Iterate over all the preinit/init routines (mainly static constructors).
 153:../system/src/newlib/_startup.c **** inline void
 154:../system/src/newlib/_startup.c **** __attribute__((always_inline))
 155:../system/src/newlib/_startup.c **** __run_init_array (void)
 156:../system/src/newlib/_startup.c **** {
  98              		.loc 1 156 0
  99              		.cfi_startproc
 100              		@ args = 0, pretend = 0, frame = 0
 101              		@ frame_needed = 0, uses_anonymous_args = 0
 102 0000 38B5     		push	{r3, r4, r5, lr}
 103              		.cfi_def_cfa_offset 16
 104              		.cfi_offset 3, -16
 105              		.cfi_offset 4, -12
 106              		.cfi_offset 5, -8
 107              		.cfi_offset 14, -4
 157:../system/src/newlib/_startup.c ****   int count;
 158:../system/src/newlib/_startup.c ****   int i;
 159:../system/src/newlib/_startup.c **** 
 160:../system/src/newlib/_startup.c ****   count = __preinit_array_end - __preinit_array_start;
 108              		.loc 1 160 0
 109 0002 0D4D     		ldr	r5, .L13
 110 0004 0D4B     		ldr	r3, .L13+4
 111 0006 ED1A     		subs	r5, r5, r3
 112 0008 AD10     		asrs	r5, r5, #2
 113              	.LVL7:
 161:../system/src/newlib/_startup.c ****   for (i = 0; i < count; i++)
 114              		.loc 1 161 0
 115 000a 0024     		movs	r4, #0
 116 000c 04E0     		b	.L8
 117              	.LVL8:
 118              	.L9:
 162:../system/src/newlib/_startup.c ****     __preinit_array_start[i] ();
 119              		.loc 1 162 0 discriminator 3
 120 000e 0B4B     		ldr	r3, .L13+4
 121 0010 53F82430 		ldr	r3, [r3, r4, lsl #2]
 122 0014 9847     		blx	r3
 123              	.LVL9:
 161:../system/src/newlib/_startup.c ****   for (i = 0; i < count; i++)
 124              		.loc 1 161 0 discriminator 3
 125 0016 0134     		adds	r4, r4, #1
 126              	.LVL10:
 127              	.L8:
 161:../system/src/newlib/_startup.c ****   for (i = 0; i < count; i++)
 128              		.loc 1 161 0 is_stmt 0 discriminator 1
 129 0018 AC42     		cmp	r4, r5
 130 001a F8DB     		blt	.L9
 163:../system/src/newlib/_startup.c **** 
 164:../system/src/newlib/_startup.c ****   // If you need to run the code in the .init section, please use
 165:../system/src/newlib/_startup.c ****   // the startup files, since this requires the code in crti.o and crtn.o
 166:../system/src/newlib/_startup.c ****   // to add the function prologue/epilogue.
 167:../system/src/newlib/_startup.c ****   //_init(); // DO NOT ENABE THIS!
 168:../system/src/newlib/_startup.c **** 
 169:../system/src/newlib/_startup.c ****   count = __init_array_end - __init_array_start;
 131              		.loc 1 169 0 is_stmt 1
 132 001c 084D     		ldr	r5, .L13+8
 133              	.LVL11:
 134 001e 094B     		ldr	r3, .L13+12
 135 0020 ED1A     		subs	r5, r5, r3
 136 0022 AD10     		asrs	r5, r5, #2
 137              	.LVL12:
 170:../system/src/newlib/_startup.c ****   for (i = 0; i < count; i++)
 138              		.loc 1 170 0
 139 0024 0024     		movs	r4, #0
 140 0026 04E0     		b	.L10
 141              	.LVL13:
 142              	.L11:
 171:../system/src/newlib/_startup.c ****     __init_array_start[i] ();
 143              		.loc 1 171 0 discriminator 3
 144 0028 064B     		ldr	r3, .L13+12
 145 002a 53F82430 		ldr	r3, [r3, r4, lsl #2]
 146 002e 9847     		blx	r3
 147              	.LVL14:
 170:../system/src/newlib/_startup.c ****   for (i = 0; i < count; i++)
 148              		.loc 1 170 0 discriminator 3
 149 0030 0134     		adds	r4, r4, #1
 150              	.LVL15:
 151              	.L10:
 170:../system/src/newlib/_startup.c ****   for (i = 0; i < count; i++)
 152              		.loc 1 170 0 is_stmt 0 discriminator 1
 153 0032 AC42     		cmp	r4, r5
 154 0034 F8DB     		blt	.L11
 172:../system/src/newlib/_startup.c **** }
 155              		.loc 1 172 0 is_stmt 1
 156 0036 38BD     		pop	{r3, r4, r5, pc}
 157              	.LVL16:
 158              	.L14:
 159              		.align	2
 160              	.L13:
 161 0038 00000000 		.word	__preinit_array_end
 162 003c 00000000 		.word	__preinit_array_start
 163 0040 00000000 		.word	__init_array_end
 164 0044 00000000 		.word	__init_array_start
 165              		.cfi_endproc
 166              	.LFE2:
 168              		.section	.text.__run_fini_array,"ax",%progbits
 169              		.align	1
 170              		.global	__run_fini_array
 171              		.syntax unified
 172              		.thumb
 173              		.thumb_func
 174              		.fpu fpv4-sp-d16
 176              	__run_fini_array:
 177              	.LFB3:
 173:../system/src/newlib/_startup.c **** 
 174:../system/src/newlib/_startup.c **** // Run all the cleanup routines (mainly static destructors).
 175:../system/src/newlib/_startup.c **** inline void
 176:../system/src/newlib/_startup.c **** __attribute__((always_inline))
 177:../system/src/newlib/_startup.c **** __run_fini_array (void)
 178:../system/src/newlib/_startup.c **** {
 178              		.loc 1 178 0
 179              		.cfi_startproc
 180              		@ args = 0, pretend = 0, frame = 0
 181              		@ frame_needed = 0, uses_anonymous_args = 0
 182 0000 10B5     		push	{r4, lr}
 183              		.cfi_def_cfa_offset 8
 184              		.cfi_offset 4, -8
 185              		.cfi_offset 14, -4
 179:../system/src/newlib/_startup.c ****   int count;
 180:../system/src/newlib/_startup.c ****   int i;
 181:../system/src/newlib/_startup.c **** 
 182:../system/src/newlib/_startup.c ****   count = __fini_array_end - __fini_array_start;
 186              		.loc 1 182 0
 187 0002 064C     		ldr	r4, .L19
 188 0004 064B     		ldr	r3, .L19+4
 189 0006 E41A     		subs	r4, r4, r3
 190 0008 A410     		asrs	r4, r4, #2
 191              	.LVL17:
 183:../system/src/newlib/_startup.c ****   for (i = count; i > 0; i--)
 192              		.loc 1 183 0
 193 000a 04E0     		b	.L16
 194              	.LVL18:
 195              	.L17:
 184:../system/src/newlib/_startup.c ****     __fini_array_start[i - 1] ();
 196              		.loc 1 184 0 discriminator 3
 197 000c 013C     		subs	r4, r4, #1
 198              	.LVL19:
 199 000e 044B     		ldr	r3, .L19+4
 200              	.LVL20:
 201 0010 53F82430 		ldr	r3, [r3, r4, lsl #2]
 202              	.LVL21:
 203 0014 9847     		blx	r3
 204              	.LVL22:
 205              	.L16:
 183:../system/src/newlib/_startup.c ****   for (i = count; i > 0; i--)
 206              		.loc 1 183 0 discriminator 1
 207 0016 002C     		cmp	r4, #0
 208 0018 F8DC     		bgt	.L17
 185:../system/src/newlib/_startup.c **** 
 186:../system/src/newlib/_startup.c ****   // If you need to run the code in the .fini section, please use
 187:../system/src/newlib/_startup.c ****   // the startup files, since this requires the code in crti.o and crtn.o
 188:../system/src/newlib/_startup.c ****   // to add the function prologue/epilogue.
 189:../system/src/newlib/_startup.c ****   //_fini(); // DO NOT ENABE THIS!
 190:../system/src/newlib/_startup.c **** }
 209              		.loc 1 190 0
 210 001a 10BD     		pop	{r4, pc}
 211              	.LVL23:
 212              	.L20:
 213              		.align	2
 214              	.L19:
 215 001c 00000000 		.word	__fini_array_end
 216 0020 00000000 		.word	__fini_array_start
 217              		.cfi_endproc
 218              	.LFE3:
 220              		.section	.after_vectors,"ax",%progbits
 221              		.align	1
 222              		.weak	_start
 223              		.syntax unified
 224              		.thumb
 225              		.thumb_func
 226              		.fpu fpv4-sp-d16
 228              	_start:
 229              	.LFB4:
 191:../system/src/newlib/_startup.c **** 
 192:../system/src/newlib/_startup.c **** #if defined(DEBUG) && (OS_INCLUDE_STARTUP_GUARD_CHECKS)
 193:../system/src/newlib/_startup.c **** 
 194:../system/src/newlib/_startup.c **** // These definitions are used to check if the routines used to
 195:../system/src/newlib/_startup.c **** // clear the BSS and to copy the initialised DATA perform correctly.
 196:../system/src/newlib/_startup.c **** 
 197:../system/src/newlib/_startup.c **** #define BSS_GUARD_BAD_VALUE (0xCADEBABA)
 198:../system/src/newlib/_startup.c **** 
 199:../system/src/newlib/_startup.c **** static uint32_t volatile __attribute__ ((section(".bss_begin")))
 200:../system/src/newlib/_startup.c **** __bss_begin_guard;
 201:../system/src/newlib/_startup.c **** static uint32_t volatile __attribute__ ((section(".bss_end")))
 202:../system/src/newlib/_startup.c **** __bss_end_guard;
 203:../system/src/newlib/_startup.c **** 
 204:../system/src/newlib/_startup.c **** #define DATA_GUARD_BAD_VALUE (0xCADEBABA)
 205:../system/src/newlib/_startup.c **** #define DATA_BEGIN_GUARD_VALUE (0x12345678)
 206:../system/src/newlib/_startup.c **** #define DATA_END_GUARD_VALUE (0x98765432)
 207:../system/src/newlib/_startup.c **** 
 208:../system/src/newlib/_startup.c **** static uint32_t volatile __attribute__ ((section(".data_begin")))
 209:../system/src/newlib/_startup.c **** __data_begin_guard = DATA_BEGIN_GUARD_VALUE;
 210:../system/src/newlib/_startup.c **** 
 211:../system/src/newlib/_startup.c **** static uint32_t volatile __attribute__ ((section(".data_end")))
 212:../system/src/newlib/_startup.c **** __data_end_guard = DATA_END_GUARD_VALUE;
 213:../system/src/newlib/_startup.c **** 
 214:../system/src/newlib/_startup.c **** #endif // defined(DEBUG) && (OS_INCLUDE_STARTUP_GUARD_CHECKS)
 215:../system/src/newlib/_startup.c **** 
 216:../system/src/newlib/_startup.c **** // This is the place where Cortex-M core will go immediately after reset,
 217:../system/src/newlib/_startup.c **** // via a call or jump from the Reset_Handler.
 218:../system/src/newlib/_startup.c **** //
 219:../system/src/newlib/_startup.c **** // For the call to work, and for the call to __initialize_hardware_early()
 220:../system/src/newlib/_startup.c **** // to work, the reset stack must point to a valid internal RAM area.
 221:../system/src/newlib/_startup.c **** 
 222:../system/src/newlib/_startup.c **** void __attribute__ ((section(".after_vectors"),noreturn,weak))
 223:../system/src/newlib/_startup.c **** _start (void)
 224:../system/src/newlib/_startup.c **** {
 230              		.loc 1 224 0
 231              		.cfi_startproc
 232              		@ Volatile: function does not return.
 233              		@ args = 0, pretend = 0, frame = 8
 234              		@ frame_needed = 0, uses_anonymous_args = 0
 235 0000 00B5     		push	{lr}
 236              		.cfi_def_cfa_offset 4
 237              		.cfi_offset 14, -4
 238 0002 83B0     		sub	sp, sp, #12
 239              		.cfi_def_cfa_offset 16
 225:../system/src/newlib/_startup.c **** 
 226:../system/src/newlib/_startup.c ****   // Initialise hardware right after reset, to switch clock to higher
 227:../system/src/newlib/_startup.c ****   // frequency and have the rest of the initialisations run faster.
 228:../system/src/newlib/_startup.c ****   //
 229:../system/src/newlib/_startup.c ****   // Mandatory on platforms like Kinetis, which start with the watch dog
 230:../system/src/newlib/_startup.c ****   // enabled and require an early sequence to disable it.
 231:../system/src/newlib/_startup.c ****   //
 232:../system/src/newlib/_startup.c ****   // Also useful on platform with external RAM, that need to be
 233:../system/src/newlib/_startup.c ****   // initialised before filling the BSS section.
 234:../system/src/newlib/_startup.c **** 
 235:../system/src/newlib/_startup.c ****   __initialize_hardware_early ();
 240              		.loc 1 235 0
 241 0004 FFF7FEFF 		bl	__initialize_hardware_early
 242              	.LVL24:
 236:../system/src/newlib/_startup.c **** 
 237:../system/src/newlib/_startup.c ****   // Use Old Style DATA and BSS section initialisation,
 238:../system/src/newlib/_startup.c ****   // that will manage a single BSS sections.
 239:../system/src/newlib/_startup.c **** 
 240:../system/src/newlib/_startup.c **** #if defined(DEBUG) && (OS_INCLUDE_STARTUP_GUARD_CHECKS)
 241:../system/src/newlib/_startup.c ****   __data_begin_guard = DATA_GUARD_BAD_VALUE;
 243              		.loc 1 241 0
 244 0008 304B     		ldr	r3, .L39
 245 000a 314A     		ldr	r2, .L39+4
 246 000c 1360     		str	r3, [r2]
 242:../system/src/newlib/_startup.c ****   __data_end_guard = DATA_GUARD_BAD_VALUE;
 247              		.loc 1 242 0
 248 000e 314A     		ldr	r2, .L39+8
 249 0010 1360     		str	r3, [r2]
 250              	.LVL25:
 251              	.LBB10:
 252              	.LBB11:
 122:../system/src/newlib/_startup.c ****   while (p < region_end)
 253              		.loc 1 122 0
 254 0012 314B     		ldr	r3, .L39+12
 255              	.LBE11:
 256              	.LBE10:
 257              		.loc 1 242 0
 258 0014 314A     		ldr	r2, .L39+16
 259              	.LVL26:
 260              	.L22:
 261              	.LBB13:
 262              	.LBB12:
 123:../system/src/newlib/_startup.c ****     *p++ = *from++;
 263              		.loc 1 123 0
 264 0016 3249     		ldr	r1, .L39+20
 265 0018 8B42     		cmp	r3, r1
 266 001a 04D2     		bcs	.L37
 267              	.LVL27:
 124:../system/src/newlib/_startup.c **** }
 268              		.loc 1 124 0
 269 001c 1168     		ldr	r1, [r2]
 270 001e 1960     		str	r1, [r3]
 271 0020 0433     		adds	r3, r3, #4
 272              	.LVL28:
 273 0022 0432     		adds	r2, r2, #4
 274              	.LVL29:
 275 0024 F7E7     		b	.L22
 276              	.L37:
 277              	.LVL30:
 278              	.LBE12:
 279              	.LBE13:
 243:../system/src/newlib/_startup.c **** #endif
 244:../system/src/newlib/_startup.c **** 
 245:../system/src/newlib/_startup.c **** #if !defined(OS_INCLUDE_STARTUP_INIT_MULTIPLE_RAM_SECTIONS)
 246:../system/src/newlib/_startup.c ****   // Copy the DATA segment from Flash to RAM (inlined).
 247:../system/src/newlib/_startup.c ****   __initialize_data(&_sidata, &_sdata, &_edata);
 248:../system/src/newlib/_startup.c **** #else
 249:../system/src/newlib/_startup.c **** 
 250:../system/src/newlib/_startup.c ****   // Copy the data sections from flash to SRAM.
 251:../system/src/newlib/_startup.c ****   for (unsigned int* p = &__data_regions_array_start;
 252:../system/src/newlib/_startup.c ****       p < &__data_regions_array_end;)
 253:../system/src/newlib/_startup.c ****     {
 254:../system/src/newlib/_startup.c ****       unsigned int* from = (unsigned int *) (*p++);
 255:../system/src/newlib/_startup.c ****       unsigned int* region_begin = (unsigned int *) (*p++);
 256:../system/src/newlib/_startup.c ****       unsigned int* region_end = (unsigned int *) (*p++);
 257:../system/src/newlib/_startup.c **** 
 258:../system/src/newlib/_startup.c ****       __initialize_data (from, region_begin, region_end);
 259:../system/src/newlib/_startup.c ****     }
 260:../system/src/newlib/_startup.c **** 
 261:../system/src/newlib/_startup.c **** #endif
 262:../system/src/newlib/_startup.c **** 
 263:../system/src/newlib/_startup.c **** #if defined(DEBUG) && (OS_INCLUDE_STARTUP_GUARD_CHECKS)
 264:../system/src/newlib/_startup.c ****   if ((__data_begin_guard != DATA_BEGIN_GUARD_VALUE)
 280              		.loc 1 264 0
 281 0026 2A4B     		ldr	r3, .L39+4
 282 0028 1A68     		ldr	r2, [r3]
 283 002a 2E4B     		ldr	r3, .L39+24
 284 002c 9A42     		cmp	r2, r3
 285 002e 00D0     		beq	.L38
 286              	.L24:
 287 0030 FEE7     		b	.L24
 288              	.L38:
 265:../system/src/newlib/_startup.c ****       || (__data_end_guard != DATA_END_GUARD_VALUE))
 289              		.loc 1 265 0
 290 0032 284B     		ldr	r3, .L39+8
 291 0034 1A68     		ldr	r2, [r3]
 292 0036 2C4B     		ldr	r3, .L39+28
 293 0038 9A42     		cmp	r2, r3
 294 003a F9D1     		bne	.L24
 266:../system/src/newlib/_startup.c ****     {
 267:../system/src/newlib/_startup.c ****       for (;;)
 268:../system/src/newlib/_startup.c **** 	;
 269:../system/src/newlib/_startup.c ****     }
 270:../system/src/newlib/_startup.c **** #endif
 271:../system/src/newlib/_startup.c **** 
 272:../system/src/newlib/_startup.c **** #if defined(DEBUG) && (OS_INCLUDE_STARTUP_GUARD_CHECKS)
 273:../system/src/newlib/_startup.c ****   __bss_begin_guard = BSS_GUARD_BAD_VALUE;
 295              		.loc 1 273 0
 296 003c 234B     		ldr	r3, .L39
 297 003e 2B4A     		ldr	r2, .L39+32
 298 0040 1360     		str	r3, [r2]
 274:../system/src/newlib/_startup.c ****   __bss_end_guard = BSS_GUARD_BAD_VALUE;
 299              		.loc 1 274 0
 300 0042 2B4A     		ldr	r2, .L39+36
 301 0044 1360     		str	r3, [r2]
 302              	.LVL31:
 303              	.LBB14:
 304              	.LBB15:
 133:../system/src/newlib/_startup.c ****   while (p < region_end)
 305              		.loc 1 133 0
 306 0046 2B4B     		ldr	r3, .L39+40
 307 0048 02E0     		b	.L26
 308              	.LVL32:
 309              	.L27:
 135:../system/src/newlib/_startup.c **** }
 310              		.loc 1 135 0
 311 004a 0022     		movs	r2, #0
 312 004c 1A60     		str	r2, [r3]
 313 004e 0433     		adds	r3, r3, #4
 314              	.LVL33:
 315              	.L26:
 134:../system/src/newlib/_startup.c ****     *p++ = 0;
 316              		.loc 1 134 0
 317 0050 294A     		ldr	r2, .L39+44
 318 0052 9342     		cmp	r3, r2
 319 0054 F9D3     		bcc	.L27
 320              	.LVL34:
 321              	.LBE15:
 322              	.LBE14:
 275:../system/src/newlib/_startup.c **** #endif
 276:../system/src/newlib/_startup.c **** 
 277:../system/src/newlib/_startup.c **** #if !defined(OS_INCLUDE_STARTUP_INIT_MULTIPLE_RAM_SECTIONS)
 278:../system/src/newlib/_startup.c ****   // Zero fill the BSS section (inlined).
 279:../system/src/newlib/_startup.c ****   __initialize_bss(&__bss_start__, &__bss_end__);
 280:../system/src/newlib/_startup.c **** #else
 281:../system/src/newlib/_startup.c **** 
 282:../system/src/newlib/_startup.c ****   // Zero fill all bss segments
 283:../system/src/newlib/_startup.c ****   for (unsigned int *p = &__bss_regions_array_start;
 284:../system/src/newlib/_startup.c ****       p < &__bss_regions_array_end;)
 285:../system/src/newlib/_startup.c ****     {
 286:../system/src/newlib/_startup.c ****       unsigned int* region_begin = (unsigned int*) (*p++);
 287:../system/src/newlib/_startup.c ****       unsigned int* region_end = (unsigned int*) (*p++);
 288:../system/src/newlib/_startup.c ****       __initialize_bss (region_begin, region_end);
 289:../system/src/newlib/_startup.c ****     }
 290:../system/src/newlib/_startup.c **** #endif
 291:../system/src/newlib/_startup.c **** 
 292:../system/src/newlib/_startup.c **** #if defined(DEBUG) && (OS_INCLUDE_STARTUP_GUARD_CHECKS)
 293:../system/src/newlib/_startup.c ****   if ((__bss_begin_guard != 0) || (__bss_end_guard != 0))
 323              		.loc 1 293 0
 324 0056 254B     		ldr	r3, .L39+32
 325 0058 1B68     		ldr	r3, [r3]
 326 005a 13B9     		cbnz	r3, .L28
 327              		.loc 1 293 0 is_stmt 0 discriminator 1
 328 005c 244B     		ldr	r3, .L39+36
 329 005e 1B68     		ldr	r3, [r3]
 330 0060 03B1     		cbz	r3, .L29
 331              	.L28:
 332 0062 FEE7     		b	.L28
 333              	.L29:
 294:../system/src/newlib/_startup.c ****     {
 295:../system/src/newlib/_startup.c ****       for (;;)
 296:../system/src/newlib/_startup.c **** 	;
 297:../system/src/newlib/_startup.c ****     }
 298:../system/src/newlib/_startup.c **** #endif
 299:../system/src/newlib/_startup.c **** 
 300:../system/src/newlib/_startup.c ****   // Hook to continue the initialisations. Usually compute and store the
 301:../system/src/newlib/_startup.c ****   // clock frequency in the global CMSIS variable, cleared above.
 302:../system/src/newlib/_startup.c ****   __initialize_hardware ();
 334              		.loc 1 302 0 is_stmt 1
 335 0064 FFF7FEFF 		bl	__initialize_hardware
 336              	.LVL35:
 303:../system/src/newlib/_startup.c **** 
 304:../system/src/newlib/_startup.c ****   // Get the argc/argv (useful in semihosting configurations).
 305:../system/src/newlib/_startup.c ****   int argc;
 306:../system/src/newlib/_startup.c ****   char** argv;
 307:../system/src/newlib/_startup.c ****   __initialize_args (&argc, &argv);
 337              		.loc 1 307 0
 338 0068 6946     		mov	r1, sp
 339 006a 01A8     		add	r0, sp, #4
 340 006c FFF7FEFF 		bl	__initialize_args
 341              	.LVL36:
 342              	.LBB16:
 343              	.LBB17:
 160:../system/src/newlib/_startup.c ****   for (i = 0; i < count; i++)
 344              		.loc 1 160 0
 345 0070 224C     		ldr	r4, .L39+48
 346 0072 234B     		ldr	r3, .L39+52
 347 0074 E41A     		subs	r4, r4, r3
 348 0076 A410     		asrs	r4, r4, #2
 349              	.LVL37:
 161:../system/src/newlib/_startup.c ****     __preinit_array_start[i] ();
 350              		.loc 1 161 0
 351 0078 0025     		movs	r5, #0
 352              	.LVL38:
 353              	.L30:
 354 007a AC42     		cmp	r4, r5
 355 007c 14DC     		bgt	.L31
 169:../system/src/newlib/_startup.c ****   for (i = 0; i < count; i++)
 356              		.loc 1 169 0
 357 007e 214C     		ldr	r4, .L39+56
 358              	.LVL39:
 359 0080 214B     		ldr	r3, .L39+60
 360 0082 E41A     		subs	r4, r4, r3
 361 0084 A410     		asrs	r4, r4, #2
 362              	.LVL40:
 170:../system/src/newlib/_startup.c ****     __init_array_start[i] ();
 363              		.loc 1 170 0
 364 0086 0025     		movs	r5, #0
 365              	.LVL41:
 366              	.L32:
 367 0088 AC42     		cmp	r4, r5
 368 008a 13DC     		bgt	.L33
 369              	.LVL42:
 370              	.LBE17:
 371              	.LBE16:
 308:../system/src/newlib/_startup.c **** 
 309:../system/src/newlib/_startup.c ****   // Call the standard library initialisation (mandatory for C++ to
 310:../system/src/newlib/_startup.c ****   // execute the constructors for the static objects).
 311:../system/src/newlib/_startup.c ****   __run_init_array ();
 312:../system/src/newlib/_startup.c **** 
 313:../system/src/newlib/_startup.c ****   // Call the main entry point, and save the exit code.
 314:../system/src/newlib/_startup.c ****   int code = main (argc, argv);
 372              		.loc 1 314 0
 373 008c 0099     		ldr	r1, [sp]
 374 008e 0198     		ldr	r0, [sp, #4]
 375 0090 FFF7FEFF 		bl	main
 376              	.LVL43:
 377 0094 0546     		mov	r5, r0
 378              	.LVL44:
 379              	.LBB19:
 380              	.LBB20:
 182:../system/src/newlib/_startup.c ****   for (i = count; i > 0; i--)
 381              		.loc 1 182 0
 382 0096 1D4C     		ldr	r4, .L39+64
 383 0098 1D4B     		ldr	r3, .L39+68
 384 009a E41A     		subs	r4, r4, r3
 385 009c A410     		asrs	r4, r4, #2
 386              	.LVL45:
 387              	.L34:
 183:../system/src/newlib/_startup.c ****     __fini_array_start[i - 1] ();
 388              		.loc 1 183 0
 389 009e 002C     		cmp	r4, #0
 390 00a0 0EDC     		bgt	.L35
 391              	.LVL46:
 392              	.LBE20:
 393              	.LBE19:
 315:../system/src/newlib/_startup.c **** 
 316:../system/src/newlib/_startup.c ****   // Run the C++ static destructors.
 317:../system/src/newlib/_startup.c ****   __run_fini_array ();
 318:../system/src/newlib/_startup.c **** 
 319:../system/src/newlib/_startup.c ****   _exit (code);
 394              		.loc 1 319 0
 395 00a2 2846     		mov	r0, r5
 396 00a4 FFF7FEFF 		bl	_exit
 397              	.LVL47:
 398              	.L31:
 399              	.LBB22:
 400              	.LBB18:
 162:../system/src/newlib/_startup.c **** 
 401              		.loc 1 162 0
 402 00a8 154B     		ldr	r3, .L39+52
 403 00aa 53F82530 		ldr	r3, [r3, r5, lsl #2]
 404 00ae 9847     		blx	r3
 405              	.LVL48:
 161:../system/src/newlib/_startup.c ****     __preinit_array_start[i] ();
 406              		.loc 1 161 0
 407 00b0 0135     		adds	r5, r5, #1
 408              	.LVL49:
 409 00b2 E2E7     		b	.L30
 410              	.L33:
 171:../system/src/newlib/_startup.c **** }
 411              		.loc 1 171 0
 412 00b4 144B     		ldr	r3, .L39+60
 413 00b6 53F82530 		ldr	r3, [r3, r5, lsl #2]
 414 00ba 9847     		blx	r3
 415              	.LVL50:
 170:../system/src/newlib/_startup.c ****     __init_array_start[i] ();
 416              		.loc 1 170 0
 417 00bc 0135     		adds	r5, r5, #1
 418              	.LVL51:
 419 00be E3E7     		b	.L32
 420              	.LVL52:
 421              	.L35:
 422              	.LBE18:
 423              	.LBE22:
 424              	.LBB23:
 425              	.LBB21:
 184:../system/src/newlib/_startup.c **** 
 426              		.loc 1 184 0
 427 00c0 013C     		subs	r4, r4, #1
 428              	.LVL53:
 429 00c2 134B     		ldr	r3, .L39+68
 430              	.LVL54:
 431 00c4 53F82430 		ldr	r3, [r3, r4, lsl #2]
 432              	.LVL55:
 433 00c8 9847     		blx	r3
 434              	.LVL56:
 435 00ca E8E7     		b	.L34
 436              	.L40:
 437              		.align	2
 438              	.L39:
 439 00cc BABADECA 		.word	-891372870
 440 00d0 00000000 		.word	.LANCHOR0
 441 00d4 00000000 		.word	.LANCHOR1
 442 00d8 00000000 		.word	_sdata
 443 00dc 00000000 		.word	_sidata
 444 00e0 00000000 		.word	_edata
 445 00e4 78563412 		.word	305419896
 446 00e8 32547698 		.word	-1737075662
 447 00ec 00000000 		.word	.LANCHOR2
 448 00f0 00000000 		.word	.LANCHOR3
 449 00f4 00000000 		.word	__bss_start__
 450 00f8 00000000 		.word	__bss_end__
 451 00fc 00000000 		.word	__preinit_array_end
 452 0100 00000000 		.word	__preinit_array_start
 453 0104 00000000 		.word	__init_array_end
 454 0108 00000000 		.word	__init_array_start
 455 010c 00000000 		.word	__fini_array_end
 456 0110 00000000 		.word	__fini_array_start
 457              	.LBE21:
 458              	.LBE23:
 459              		.cfi_endproc
 460              	.LFE4:
 462              		.section	.bss_begin,"aw",%progbits
 463              		.align	2
 464              		.set	.LANCHOR2,. + 0
 467              	__bss_begin_guard:
 468 0000 00000000 		.space	4
 469              		.section	.bss_end,"aw",%progbits
 470              		.align	2
 471              		.set	.LANCHOR3,. + 0
 474              	__bss_end_guard:
 475 0000 00000000 		.space	4
 476              		.section	.data_begin,"aw",%progbits
 477              		.align	2
 478              		.set	.LANCHOR0,. + 0
 481              	__data_begin_guard:
 482 0000 78563412 		.word	305419896
 483              		.section	.data_end,"aw",%progbits
 484              		.align	2
 485              		.set	.LANCHOR1,. + 0
 488              	__data_end_guard:
 489 0000 32547698 		.word	-1737075662
 490              		.weak	__fini_array_start
 491              		.weak	__fini_array_end
 492              		.weak	__init_array_start
 493              		.weak	__init_array_end
 494              		.weak	__preinit_array_start
 495              		.weak	__preinit_array_end
 496              		.text
 497              	.Letext0:
 498              		.file 2 "/usr/local/bin/gcc-arm-none-eabi-7-2018-q2-update/lib/gcc/arm-none-eabi/7.3.1/include/std