   1              		.cpu cortex-m4
   2              		.eabi_attribute 27, 1
   3              		.eabi_attribute 28, 1
   4              		.eabi_attribute 20, 1
   5              		.eabi_attribute 21, 1
   6              		.eabi_attribute 23, 3
   7              		.eabi_attribute 24, 1
   8              		.eabi_attribute 25, 1
   9              		.eabi_attribute 26, 1
  10              		.eabi_attribute 30, 1
  11              		.eabi_attribute 34, 1
  12              		.eabi_attribute 18, 4
  13              		.file	"rtu_parser.c"
  14              		.text
  15              	.Ltext0:
  16              		.cfi_sections	.debug_frame
  17              		.section	.text.rtu_parser_03_04_registers,"ax",%progbits
  18              		.align	1
  19              		.global	rtu_parser_03_04_registers
  20              		.syntax unified
  21              		.thumb
  22              		.thumb_func
  23              		.fpu fpv4-sp-d16
  25              	rtu_parser_03_04_registers:
  26              	.LFB1:
  27              		.file 1 "../system/src/modbus_rtu/rtu_parser.c"
   1:../system/src/modbus_rtu/rtu_parser.c **** /*
   2:../system/src/modbus_rtu/rtu_parser.c ****  * rtu_parser.c
   3:../system/src/modbus_rtu/rtu_parser.c ****  *
   4:../system/src/modbus_rtu/rtu_parser.c ****  *  Created on: 27.08.2020
   5:../system/src/modbus_rtu/rtu_parser.c ****  *      Author: mateusz
   6:../system/src/modbus_rtu/rtu_parser.c ****  */
   7:../system/src/modbus_rtu/rtu_parser.c **** 
   8:../system/src/modbus_rtu/rtu_parser.c **** #include "./modbus_rtu/rtu_parser.h"
   9:../system/src/modbus_rtu/rtu_parser.c **** #include "./modbus_rtu/rtu_return_values.h"
  10:../system/src/modbus_rtu/rtu_parser.c **** 
  11:../system/src/modbus_rtu/rtu_parser.c **** #define MODBUS_RTU_MIN_03_04_RESP_LN 	7	// one register to read
  12:../system/src/modbus_rtu/rtu_parser.c **** 
  13:../system/src/modbus_rtu/rtu_parser.c **** /**
  14:../system/src/modbus_rtu/rtu_parser.c **** * 2021-03-21 03:06:56 CET: SR6WXP>AKLPRZ,WIDE2-1,qAS,SQ6NDL:=5038.00N101747.00E# DigiW1 + WX ~ Lotn
  15:../system/src/modbus_rtu/rtu_parser.c **** * 2021-03-21 03:06:58 CET: SR6WXP>AKLPRZ,WIDE2-1,qAR,SR9NSK:T#237,023,004,001,000,122,10000110
  16:../system/src/modbus_rtu/rtu_parser.c **** * 2021-03-21 03:07:58 CET: SR6WXP>AKLPRZ,WIDE2-1,qAO,SR6NKB:>F1V FFED, F2V 47, F3V 0, F4V 0, F5V 0,
  17:../system/src/modbus_rtu/rtu_parser.c **** * 2021-03-21 03:08:59 CET: SR6WXP>AKLPRZ,WIDE2-1,qAR,SR9NSK:!5038.00N/01747.00E_344/006g011t025r...
  18:../system/src/modbus_rtu/rtu_parser.c **** * 2021-03-21 03:11:59 CET: SR6WXP>AKLPRZ,WIDE2-1,qAO,SR6NKB:>F1V FFEE, F2V 47, F3V 0, F4V 0, F5V 0,
  19:../system/src/modbus_rtu/rtu_parser.c **** * 2021-03-21 03:13:00 CET: SR6WXP>AKLPRZ,WIDE2-1,qAO,SR6NKB:!5038.00N/01747.00E_352/005g009t025r...
  20:../system/src/modbus_rtu/rtu_parser.c **** * 2021-03-21 03:16:00 CET: SR6WXP>AKLPRZ,WIDE2-1,qAO,SR6NKB:>F1V FFEE, F2V 47, F3V 0, F4V 0, F5V 0,
  21:../system/src/modbus_rtu/rtu_parser.c **** * 2021-03-21 03:17:01 CET: SR6WXP>AKLPRZ,WIDE2-1,qAR,SR9NSK:!5038.00N/01747.00E_348/006g008t025r...
  22:../system/src/modbus_rtu/rtu_parser.c **** * 
  23:../system/src/modbus_rtu/rtu_parser.c **** * 2021-03-21 05:36:27 CET: SR6WXP>AKLPRZ,WIDE2-1,qAS,SQ6NDL:>F1V FFFA, F2V 46, F3V 0, F4V 0, F5V 0,
  24:../system/src/modbus_rtu/rtu_parser.c **** * 2021-03-21 05:37:28 CET: SR6WXP>AKLPRZ,WIDE2-1,qAS,SQ6NDL:!5038.00N/01747.00E_339/003g007t027r...
  25:../system/src/modbus_rtu/rtu_parser.c **** * 2021-03-21 05:37:30 CET: SR6WXP>AKLPRZ,WIDE2-1,qAR,SR9NSK:T#252,026,004,001,000,122,10000110
  26:../system/src/modbus_rtu/rtu_parser.c **** * 2021-03-21 05:40:30 CET: SR6WXP>AKLPRZ,WIDE2-1,qAS,SQ6NDL:>F1V FFFA, F2V 46, F3V 0, F4V 0, F5V 0,
  27:../system/src/modbus_rtu/rtu_parser.c **** */
  28:../system/src/modbus_rtu/rtu_parser.c **** 
  29:../system/src/modbus_rtu/rtu_parser.c **** int32_t rtu_parser_03_04_registers(uint8_t* input, uint16_t input_ln, rtu_register_data_t* output, 
  28              		.loc 1 29 0
  29              		.cfi_startproc
  30              		@ args = 0, pretend = 0, frame = 0
  31              		@ frame_needed = 0, uses_anonymous_args = 0
  32              		@ link register save eliminated.
  33              	.LVL0:
  34 0000 70B4     		push	{r4, r5, r6}
  35              		.cfi_def_cfa_offset 12
  36              		.cfi_offset 4, -12
  37              		.cfi_offset 5, -8
  38              		.cfi_offset 6, -4
  39              	.LVL1:
  30:../system/src/modbus_rtu/rtu_parser.c **** 	uint32_t retval = MODBUS_RET_UNINITIALIZED;
  31:../system/src/modbus_rtu/rtu_parser.c **** 
  32:../system/src/modbus_rtu/rtu_parser.c **** 	uint16_t data = 0;
  33:../system/src/modbus_rtu/rtu_parser.c **** 
  34:../system/src/modbus_rtu/rtu_parser.c **** 	uint8_t slave_address_from_frame = 0;
  35:../system/src/modbus_rtu/rtu_parser.c **** 
  36:../system/src/modbus_rtu/rtu_parser.c **** 	// iterator through input table and registers table
  37:../system/src/modbus_rtu/rtu_parser.c **** 	int j = 3;
  38:../system/src/modbus_rtu/rtu_parser.c **** 
  39:../system/src/modbus_rtu/rtu_parser.c **** 	// rewind the input buffer if the first byte is not valid modbus rtu slave address
  40:../system/src/modbus_rtu/rtu_parser.c **** 	if (*input < 1 || *input > 0xF7) {
  40              		.loc 1 40 0
  41 0002 0478     		ldrb	r4, [r0]	@ zero_extendqisi2
  42 0004 013C     		subs	r4, r4, #1
  43 0006 E4B2     		uxtb	r4, r4
  44 0008 F62C     		cmp	r4, #246
  45 000a 00D9     		bls	.L2
  41:../system/src/modbus_rtu/rtu_parser.c **** 		// don't loop here and assume that the modbus response is shifted only
  42:../system/src/modbus_rtu/rtu_parser.c **** 		// by one byte
  43:../system/src/modbus_rtu/rtu_parser.c **** 		input++;
  46              		.loc 1 43 0
  47 000c 0130     		adds	r0, r0, #1
  48              	.LVL2:
  49              	.L2:
  44:../system/src/modbus_rtu/rtu_parser.c **** 	}
  45:../system/src/modbus_rtu/rtu_parser.c **** 
  46:../system/src/modbus_rtu/rtu_parser.c **** 	// 7 bytes is the shortest meaningful Modbus RTU frame
  47:../system/src/modbus_rtu/rtu_parser.c **** 	// with a value of single register
  48:../system/src/modbus_rtu/rtu_parser.c **** 	if (input_ln < MODBUS_RTU_MIN_03_04_RESP_LN) {
  50              		.loc 1 48 0
  51 000e 0629     		cmp	r1, #6
  52 0010 52D9     		bls	.L8
  49:../system/src/modbus_rtu/rtu_parser.c **** 		retval = MODBUS_RET_TOO_SHORT;
  50:../system/src/modbus_rtu/rtu_parser.c **** 	}
  51:../system/src/modbus_rtu/rtu_parser.c **** 	else {
  52:../system/src/modbus_rtu/rtu_parser.c **** 		// fetch slave address
  53:../system/src/modbus_rtu/rtu_parser.c **** 		data = *input;
  53              		.loc 1 53 0
  54 0012 0578     		ldrb	r5, [r0]	@ zero_extendqisi2
  55              	.LVL3:
  54:../system/src/modbus_rtu/rtu_parser.c **** 
  55:../system/src/modbus_rtu/rtu_parser.c **** 		// TODO: store slave address
  56:../system/src/modbus_rtu/rtu_parser.c **** 		slave_address_from_frame = data;
  57:../system/src/modbus_rtu/rtu_parser.c **** 
  58:../system/src/modbus_rtu/rtu_parser.c **** 		// fetch function code
  59:../system/src/modbus_rtu/rtu_parser.c **** 		data = *(input + 1);
  56              		.loc 1 59 0
  57 0014 4478     		ldrb	r4, [r0, #1]	@ zero_extendqisi2
  58 0016 A1B2     		uxth	r1, r4
  59              	.LVL4:
  60:../system/src/modbus_rtu/rtu_parser.c **** 
  61:../system/src/modbus_rtu/rtu_parser.c **** 		// if the exception flag is set
  62:../system/src/modbus_rtu/rtu_parser.c **** 		if ((data & 0x80) > 0) {
  60              		.loc 1 62 0
  61 0018 14F0800F 		tst	r4, #128
  62 001c 05D1     		bne	.L23
  63:../system/src/modbus_rtu/rtu_parser.c **** 			// parse the exception value
  64:../system/src/modbus_rtu/rtu_parser.c **** 			*exception = rtu_exception_from_frame_data(data);
  65:../system/src/modbus_rtu/rtu_parser.c **** 
  66:../system/src/modbus_rtu/rtu_parser.c **** 			// and set the return value
  67:../system/src/modbus_rtu/rtu_parser.c **** 			retval = MODBUS_RET_GOT_EXCEPTION;
  68:../system/src/modbus_rtu/rtu_parser.c **** 		}
  69:../system/src/modbus_rtu/rtu_parser.c **** 
  70:../system/src/modbus_rtu/rtu_parser.c **** 		// check if the function code is correct or not
  71:../system/src/modbus_rtu/rtu_parser.c **** 		else if (data == 0x03 || data == 0x04) {
  63              		.loc 1 71 0
  64 001e 0339     		subs	r1, r1, #3
  65              	.LVL5:
  66 0020 89B2     		uxth	r1, r1
  67              	.LVL6:
  68 0022 0129     		cmp	r1, #1
  69 0024 2DD9     		bls	.L24
  72:../system/src/modbus_rtu/rtu_parser.c **** 
  73:../system/src/modbus_rtu/rtu_parser.c **** 			// check if this is an answer from the slave we expect
  74:../system/src/modbus_rtu/rtu_parser.c **** 			if (slave_address_from_frame == output->slave_address) {
  75:../system/src/modbus_rtu/rtu_parser.c **** 				// fetch the function result lenght in bytes
  76:../system/src/modbus_rtu/rtu_parser.c **** 				data = *(input + 2);
  77:../system/src/modbus_rtu/rtu_parser.c **** 
  78:../system/src/modbus_rtu/rtu_parser.c **** 				// store amount of registers in this response
  79:../system/src/modbus_rtu/rtu_parser.c **** 				output->number_of_registers = data / 2;
  80:../system/src/modbus_rtu/rtu_parser.c **** 
  81:../system/src/modbus_rtu/rtu_parser.c **** 				// get all registers values
  82:../system/src/modbus_rtu/rtu_parser.c **** 				for (int i = 0; i < output->number_of_registers && i < MODBUS_RTU_MAX_REGISTERS_AT_ONCE; i++) {
  83:../system/src/modbus_rtu/rtu_parser.c **** 					output->registers_values[i] = *(input + j) << 8 | *(input + j + 1);
  84:../system/src/modbus_rtu/rtu_parser.c **** 
  85:../system/src/modbus_rtu/rtu_parser.c **** 					// moving to next 16bit word with next register
  86:../system/src/modbus_rtu/rtu_parser.c **** 					j += 2;
  87:../system/src/modbus_rtu/rtu_parser.c **** 				}
  88:../system/src/modbus_rtu/rtu_parser.c **** 				retval = MODBUS_RET_OK;
  89:../system/src/modbus_rtu/rtu_parser.c **** 			}
  90:../system/src/modbus_rtu/rtu_parser.c **** 			else {
  91:../system/src/modbus_rtu/rtu_parser.c **** 				retval = MODBUS_RET_UNEXP_SLAVE_ADR;
  92:../system/src/modbus_rtu/rtu_parser.c **** 			}
  93:../system/src/modbus_rtu/rtu_parser.c **** 
  94:../system/src/modbus_rtu/rtu_parser.c **** 		}
  95:../system/src/modbus_rtu/rtu_parser.c **** 		else {
  96:../system/src/modbus_rtu/rtu_parser.c **** 			// if not exit with an error as this isn't
  97:../system/src/modbus_rtu/rtu_parser.c **** 			// correct parser for this modbus function
  98:../system/src/modbus_rtu/rtu_parser.c **** 			retval = MODBUS_RET_WRONG_FUNCTION;
  70              		.loc 1 98 0
  71 0026 0220     		movs	r0, #2
  72              	.LVL7:
  73 0028 47E0     		b	.L3
  74              	.LVL8:
  75              	.L23:
  76              	.LBB5:
  77              	.LBB6:
  78              		.file 2 "../system/include/modbus_rtu/rtu_exception_t.h"
   1:../system/include/modbus_rtu/rtu_exception_t.h **** /*
   2:../system/include/modbus_rtu/rtu_exception_t.h ****  * rtu_exception_t.h
   3:../system/include/modbus_rtu/rtu_exception_t.h ****  *
   4:../system/include/modbus_rtu/rtu_exception_t.h ****  *  Created on: 28.09.2020
   5:../system/include/modbus_rtu/rtu_exception_t.h ****  *      Author: mateusz
   6:../system/include/modbus_rtu/rtu_exception_t.h ****  */
   7:../system/include/modbus_rtu/rtu_exception_t.h **** 
   8:../system/include/modbus_rtu/rtu_exception_t.h **** #ifndef INCLUDE_MODBUS_RTU_RTU_EXCEPTION_T_H_
   9:../system/include/modbus_rtu/rtu_exception_t.h **** #define INCLUDE_MODBUS_RTU_RTU_EXCEPTION_T_H_
  10:../system/include/modbus_rtu/rtu_exception_t.h **** 
  11:../system/include/modbus_rtu/rtu_exception_t.h **** #include <stdint.h>
  12:../system/include/modbus_rtu/rtu_exception_t.h **** 
  13:../system/include/modbus_rtu/rtu_exception_t.h **** typedef enum rtu_exception {
  14:../system/include/modbus_rtu/rtu_exception_t.h **** 
  15:../system/include/modbus_rtu/rtu_exception_t.h **** 	RTU_EXCEPTION_OK,
  16:../system/include/modbus_rtu/rtu_exception_t.h **** 
  17:../system/include/modbus_rtu/rtu_exception_t.h **** 	RTU_EXCEPTION_ILLEGAL_FUNCTION,
  18:../system/include/modbus_rtu/rtu_exception_t.h **** 	RTU_EXCETPION_ILLEGAL_ADDRESS,
  19:../system/include/modbus_rtu/rtu_exception_t.h **** 	RTU_EXCEPTION_ILLEGAL_VALUE,
  20:../system/include/modbus_rtu/rtu_exception_t.h **** 	RTU_EXCEPTION_SLAVE_FAIL,
  21:../system/include/modbus_rtu/rtu_exception_t.h **** 	RTU_EXCEPTION_ACK,
  22:../system/include/modbus_rtu/rtu_exception_t.h **** 	RTU_EXCEPTION_BUSY,
  23:../system/include/modbus_rtu/rtu_exception_t.h **** 	RTU_EXCEPTION_NACK,
  24:../system/include/modbus_rtu/rtu_exception_t.h **** 	RTU_EXCEPTION_PARITY_ERR,
  25:../system/include/modbus_rtu/rtu_exception_t.h **** 	RTU_EXCEPTION_GW_NAVAIBLE,
  26:../system/include/modbus_rtu/rtu_exception_t.h **** 	RTU_EXCEPTION_GW_TARGET_NAVAIBLE
  27:../system/include/modbus_rtu/rtu_exception_t.h **** 
  28:../system/include/modbus_rtu/rtu_exception_t.h **** 
  29:../system/include/modbus_rtu/rtu_exception_t.h **** } rtu_exception_t;
  30:../system/include/modbus_rtu/rtu_exception_t.h **** 
  31:../system/include/modbus_rtu/rtu_exception_t.h **** inline rtu_exception_t rtu_exception_from_frame_data(uint8_t in) {
  32:../system/include/modbus_rtu/rtu_exception_t.h **** 
  33:../system/include/modbus_rtu/rtu_exception_t.h **** 	rtu_exception_t out = RTU_EXCEPTION_OK;
  34:../system/include/modbus_rtu/rtu_exception_t.h **** 
  35:../system/include/modbus_rtu/rtu_exception_t.h **** 	if (in == 0x01) {
  79              		.loc 2 35 0
  80 002a 012C     		cmp	r4, #1
  81 002c 13D0     		beq	.L9
  36:../system/include/modbus_rtu/rtu_exception_t.h **** 		out = RTU_EXCEPTION_ILLEGAL_FUNCTION;
  37:../system/include/modbus_rtu/rtu_exception_t.h **** 	}
  38:../system/include/modbus_rtu/rtu_exception_t.h **** 	else if (in == 0x02) {
  82              		.loc 2 38 0
  83 002e 022C     		cmp	r4, #2
  84 0030 15D0     		beq	.L10
  39:../system/include/modbus_rtu/rtu_exception_t.h **** 		out = RTU_EXCETPION_ILLEGAL_ADDRESS;
  40:../system/include/modbus_rtu/rtu_exception_t.h **** 	}
  41:../system/include/modbus_rtu/rtu_exception_t.h **** 	else if (in == 0x03) {
  85              		.loc 2 41 0
  86 0032 032C     		cmp	r4, #3
  87 0034 15D0     		beq	.L11
  42:../system/include/modbus_rtu/rtu_exception_t.h **** 		out = RTU_EXCEPTION_ILLEGAL_VALUE;
  43:../system/include/modbus_rtu/rtu_exception_t.h **** 	}
  44:../system/include/modbus_rtu/rtu_exception_t.h **** 	else if (in == 0x04) {
  88              		.loc 2 44 0
  89 0036 042C     		cmp	r4, #4
  90 0038 15D0     		beq	.L12
  45:../system/include/modbus_rtu/rtu_exception_t.h **** 		out = RTU_EXCEPTION_SLAVE_FAIL;
  46:../system/include/modbus_rtu/rtu_exception_t.h **** 	}
  47:../system/include/modbus_rtu/rtu_exception_t.h **** 	else if (in == 0x05) {
  91              		.loc 2 47 0
  92 003a 052C     		cmp	r4, #5
  93 003c 15D0     		beq	.L13
  48:../system/include/modbus_rtu/rtu_exception_t.h **** 		out = RTU_EXCEPTION_ACK;
  49:../system/include/modbus_rtu/rtu_exception_t.h **** 	}
  50:../system/include/modbus_rtu/rtu_exception_t.h **** 	else if (in == 0x06) {
  94              		.loc 2 50 0
  95 003e 062C     		cmp	r4, #6
  96 0040 15D0     		beq	.L14
  51:../system/include/modbus_rtu/rtu_exception_t.h **** 		out = RTU_EXCEPTION_BUSY;
  52:../system/include/modbus_rtu/rtu_exception_t.h **** 	}
  53:../system/include/modbus_rtu/rtu_exception_t.h **** 	else if (in == 0x07) {
  97              		.loc 2 53 0
  98 0042 072C     		cmp	r4, #7
  99 0044 15D0     		beq	.L15
  54:../system/include/modbus_rtu/rtu_exception_t.h **** 		out = RTU_EXCEPTION_NACK;
  55:../system/include/modbus_rtu/rtu_exception_t.h **** 	}
  56:../system/include/modbus_rtu/rtu_exception_t.h **** 	else if (in == 0x08) {
 100              		.loc 2 56 0
 101 0046 082C     		cmp	r4, #8
 102 0048 15D0     		beq	.L16
  57:../system/include/modbus_rtu/rtu_exception_t.h **** 		out = RTU_EXCEPTION_PARITY_ERR;
  58:../system/include/modbus_rtu/rtu_exception_t.h **** 	}
  59:../system/include/modbus_rtu/rtu_exception_t.h **** 	else if (in == 0x0A) {
 103              		.loc 2 59 0
 104 004a 0A2C     		cmp	r4, #10
 105 004c 15D0     		beq	.L17
  60:../system/include/modbus_rtu/rtu_exception_t.h **** 		out = RTU_EXCEPTION_GW_NAVAIBLE;
  61:../system/include/modbus_rtu/rtu_exception_t.h **** 	}
  62:../system/include/modbus_rtu/rtu_exception_t.h **** 	else if (in == 0x0B) {
 106              		.loc 2 62 0
 107 004e 0B2C     		cmp	r4, #11
 108 0050 15D0     		beq	.L18
  33:../system/include/modbus_rtu/rtu_exception_t.h **** 
 109              		.loc 2 33 0
 110 0052 0022     		movs	r2, #0
 111              	.LVL9:
 112 0054 00E0     		b	.L5
 113              	.LVL10:
 114              	.L9:
  36:../system/include/modbus_rtu/rtu_exception_t.h **** 	}
 115              		.loc 2 36 0
 116 0056 0122     		movs	r2, #1
 117              	.LVL11:
 118              	.L5:
 119              	.LBE6:
 120              	.LBE5:
  64:../system/src/modbus_rtu/rtu_parser.c **** 
 121              		.loc 1 64 0
 122 0058 1A70     		strb	r2, [r3]
 123              	.LVL12:
  67:../system/src/modbus_rtu/rtu_parser.c **** 		}
 124              		.loc 1 67 0
 125 005a 0420     		movs	r0, #4
 126              	.LVL13:
 127 005c 2DE0     		b	.L3
 128              	.LVL14:
 129              	.L10:
 130              	.LBB8:
 131              	.LBB7:
  39:../system/include/modbus_rtu/rtu_exception_t.h **** 	}
 132              		.loc 2 39 0
 133 005e 0222     		movs	r2, #2
 134              	.LVL15:
 135 0060 FAE7     		b	.L5
 136              	.LVL16:
 137              	.L11:
  42:../system/include/modbus_rtu/rtu_exception_t.h **** 	}
 138              		.loc 2 42 0
 139 0062 0322     		movs	r2, #3
 140              	.LVL17:
 141 0064 F8E7     		b	.L5
 142              	.LVL18:
 143              	.L12:
  45:../system/include/modbus_rtu/rtu_exception_t.h **** 	}
 144              		.loc 2 45 0
 145 0066 0422     		movs	r2, #4
 146              	.LVL19:
 147 0068 F6E7     		b	.L5
 148              	.LVL20:
 149              	.L13:
  48:../system/include/modbus_rtu/rtu_exception_t.h **** 	}
 150              		.loc 2 48 0
 151 006a 0522     		movs	r2, #5
 152              	.LVL21:
 153 006c F4E7     		b	.L5
 154              	.LVL22:
 155              	.L14:
  51:../system/include/modbus_rtu/rtu_exception_t.h **** 	}
 156              		.loc 2 51 0
 157 006e 0622     		movs	r2, #6
 158              	.LVL23:
 159 0070 F2E7     		b	.L5
 160              	.LVL24:
 161              	.L15:
  54:../system/include/modbus_rtu/rtu_exception_t.h **** 	}
 162              		.loc 2 54 0
 163 0072 0722     		movs	r2, #7
 164              	.LVL25:
 165 0074 F0E7     		b	.L5
 166              	.LVL26:
 167              	.L16:
  57:../system/include/modbus_rtu/rtu_exception_t.h **** 	}
 168              		.loc 2 57 0
 169 0076 0822     		movs	r2, #8
 170              	.LVL27:
 171 0078 EEE7     		b	.L5
 172              	.LVL28:
 173              	.L17:
  60:../system/include/modbus_rtu/rtu_exception_t.h **** 	}
 174              		.loc 2 60 0
 175 007a 0922     		movs	r2, #9
 176              	.LVL29:
 177 007c ECE7     		b	.L5
 178              	.LVL30:
 179              	.L18:
  63:../system/include/modbus_rtu/rtu_exception_t.h **** 		out = RTU_EXCEPTION_GW_TARGET_NAVAIBLE;
 180              		.loc 2 63 0
 181 007e 0A22     		movs	r2, #10
 182              	.LVL31:
 183 0080 EAE7     		b	.L5
 184              	.LVL32:
 185              	.L24:
 186              	.LBE7:
 187              	.LBE8:
  74:../system/src/modbus_rtu/rtu_parser.c **** 				// fetch the function result lenght in bytes
 188              		.loc 1 74 0
 189 0082 1388     		ldrh	r3, [r2]
 190              	.LVL33:
 191 0084 AB42     		cmp	r3, r5
 192 0086 01D0     		beq	.L25
  91:../system/src/modbus_rtu/rtu_parser.c **** 			}
 193              		.loc 1 91 0
 194 0088 0720     		movs	r0, #7
 195              	.LVL34:
 196 008a 16E0     		b	.L3
 197              	.LVL35:
 198              	.L25:
  76:../system/src/modbus_rtu/rtu_parser.c **** 
 199              		.loc 1 76 0
 200 008c 8478     		ldrb	r4, [r0, #2]	@ zero_extendqisi2
 201              	.LVL36:
  79:../system/src/modbus_rtu/rtu_parser.c **** 
 202              		.loc 1 79 0
 203 008e 6408     		lsrs	r4, r4, #1
 204              	.LVL37:
 205 0090 9470     		strb	r4, [r2, #2]
 206              	.LVL38:
 207              	.LBB9:
  82:../system/src/modbus_rtu/rtu_parser.c **** 					output->registers_values[i] = *(input + j) << 8 | *(input + j + 1);
 208              		.loc 1 82 0
 209 0092 0023     		movs	r3, #0
 210              	.LBE9:
  37:../system/src/modbus_rtu/rtu_parser.c **** 
 211              		.loc 1 37 0
 212 0094 0321     		movs	r1, #3
 213              	.LBB10:
  82:../system/src/modbus_rtu/rtu_parser.c **** 					output->registers_values[i] = *(input + j) << 8 | *(input + j + 1);
 214              		.loc 1 82 0
 215 0096 09E0     		b	.L6
 216              	.LVL39:
 217              	.L7:
  83:../system/src/modbus_rtu/rtu_parser.c **** 
 218              		.loc 1 83 0 discriminator 4
 219 0098 465C     		ldrb	r6, [r0, r1]	@ zero_extendqisi2
 220 009a 4D1C     		adds	r5, r1, #1
 221 009c 455D     		ldrb	r5, [r0, r5]	@ zero_extendqisi2
 222 009e 45EA0625 		orr	r5, r5, r6, lsl #8
 223 00a2 02EB4306 		add	r6, r2, r3, lsl #1
 224 00a6 F580     		strh	r5, [r6, #6]	@ movhi
  86:../system/src/modbus_rtu/rtu_parser.c **** 				}
 225              		.loc 1 86 0 discriminator 4
 226 00a8 0231     		adds	r1, r1, #2
 227              	.LVL40:
  82:../system/src/modbus_rtu/rtu_parser.c **** 					output->registers_values[i] = *(input + j) << 8 | *(input + j + 1);
 228              		.loc 1 82 0 discriminator 4
 229 00aa 0133     		adds	r3, r3, #1
 230              	.LVL41:
 231              	.L6:
  82:../system/src/modbus_rtu/rtu_parser.c **** 					output->registers_values[i] = *(input + j) << 8 | *(input + j + 1);
 232              		.loc 1 82 0 is_stmt 0 discriminator 1
 233 00ac 9C42     		cmp	r4, r3
 234 00ae 06DD     		ble	.L21
  82:../system/src/modbus_rtu/rtu_parser.c **** 					output->registers_values[i] = *(input + j) << 8 | *(input + j + 1);
 235              		.loc 1 82 0 discriminator 3
 236 00b0 012B     		cmp	r3, #1
 237 00b2 F1DD     		ble	.L7
 238              	.LBE10:
  88:../system/src/modbus_rtu/rtu_parser.c **** 			}
 239              		.loc 1 88 0 is_stmt 1
 240 00b4 0020     		movs	r0, #0
 241              	.LVL42:
 242              	.LBB11:
 243 00b6 00E0     		b	.L3
 244              	.LVL43:
 245              	.L8:
 246              	.LBE11:
  49:../system/src/modbus_rtu/rtu_parser.c **** 	}
 247              		.loc 1 49 0
 248 00b8 0120     		movs	r0, #1
 249              	.LVL44:
 250              	.L3:
  99:../system/src/modbus_rtu/rtu_parser.c **** 		}
 100:../system/src/modbus_rtu/rtu_parser.c **** 	}
 101:../system/src/modbus_rtu/rtu_parser.c **** 
 102:../system/src/modbus_rtu/rtu_parser.c **** 	return retval;
 103:../system/src/modbus_rtu/rtu_parser.c **** }
 251              		.loc 1 103 0
 252 00ba 70BC     		pop	{r4, r5, r6}
 253              		.cfi_remember_state
 254              		.cfi_restore 6
 255              		.cfi_restore 5
 256              		.cfi_restore 4
 257              		.cfi_def_cfa_offset 0
 258 00bc 7047     		bx	lr
 259              	.LVL45:
 260              	.L21:
 261              		.cfi_restore_state
  88:../system/src/modbus_rtu/rtu_parser.c **** 			}
 262              		.loc 1 88 0
 263 00be 0020     		movs	r0, #0
 264              	.LVL46:
 265 00c0 FBE7     		b	.L3
 266              		.cfi_endproc
 267              	.LFE1:
 269              		.text
 270              	.Letext0:
 271              		.file 3 "/usr/local/bin/gcc-arm-none-eabi-7-2018-q2-update/lib/gcc/arm-none-eabi/7.3.1/include/std
 272              		.file 4 "../system/include/modbus_rtu/rtu_register_data_t.h"