   1              		.cpu cortex-m4
   2              		.eabi_attribute 27, 1
   3              		.eabi_attribute 28, 1
   4              		.eabi_attribute 20, 1
   5              		.eabi_attribute 21, 1
   6              		.eabi_attribute 23, 3
   7              		.eabi_attribute 24, 1
   8              		.eabi_attribute 25, 1
   9              		.eabi_attribute 26, 1
  10              		.eabi_attribute 30, 1
  11              		.eabi_attribute 34, 1
  12              		.eabi_attribute 18, 4
  13              		.file	"rtu_getters.c"
  14              		.text
  15              	.Ltext0:
  16              		.cfi_sections	.debug_frame
  17              		.section	.text.rtu_get_temperature,"ax",%progbits
  18              		.align	1
  19              		.global	rtu_get_temperature
  20              		.syntax unified
  21              		.thumb
  22              		.thumb_func
  23              		.fpu fpv4-sp-d16
  25              	rtu_get_temperature:
  26              	.LFB401:
  27              		.file 1 "../system/src/modbus_rtu/rtu_getters.c"
   1:../system/src/modbus_rtu/rtu_getters.c **** /*
   2:../system/src/modbus_rtu/rtu_getters.c ****  * rtu_getters.c
   3:../system/src/modbus_rtu/rtu_getters.c ****  *
   4:../system/src/modbus_rtu/rtu_getters.c ****  *  Created on: 29.09.2020
   5:../system/src/modbus_rtu/rtu_getters.c ****  *      Author: mateusz
   6:../system/src/modbus_rtu/rtu_getters.c ****  */
   7:../system/src/modbus_rtu/rtu_getters.c **** 
   8:../system/src/modbus_rtu/rtu_getters.c **** #include <stdio.h>
   9:../system/src/modbus_rtu/rtu_getters.c **** 
  10:../system/src/modbus_rtu/rtu_getters.c **** #include "station_config.h"
  11:../system/src/modbus_rtu/rtu_getters.c **** 
  12:../system/src/modbus_rtu/rtu_getters.c **** #include "modbus_rtu/rtu_getters.h"
  13:../system/src/modbus_rtu/rtu_getters.c **** #include "modbus_rtu/rtu_return_values.h"
  14:../system/src/modbus_rtu/rtu_getters.c **** #include "modbus_rtu/rtu_register_data_t.h"
  15:../system/src/modbus_rtu/rtu_getters.c **** 
  16:../system/src/modbus_rtu/rtu_getters.c **** #include "modbus_rtu/rtu_configuration.h"
  17:../system/src/modbus_rtu/rtu_getters.c **** 
  18:../system/src/modbus_rtu/rtu_getters.c **** #include "rte_wx.h"
  19:../system/src/modbus_rtu/rtu_getters.c **** #include "rte_rtu.h"
  20:../system/src/modbus_rtu/rtu_getters.c **** #include "main.h"
  21:../system/src/modbus_rtu/rtu_getters.c **** 
  22:../system/src/modbus_rtu/rtu_getters.c **** int32_t rtu_get_temperature(float* out, const config_data_rtu_t * const config) {
  28              		.loc 1 22 0
  29              		.cfi_startproc
  30              		@ args = 0, pretend = 0, frame = 0
  31              		@ frame_needed = 0, uses_anonymous_args = 0
  32              		@ link register save eliminated.
  33              	.LVL0:
  34 0000 F0B4     		push	{r4, r5, r6, r7}
  35              		.cfi_def_cfa_offset 16
  36              		.cfi_offset 4, -16
  37              		.cfi_offset 5, -12
  38              		.cfi_offset 6, -8
  39              		.cfi_offset 7, -4
  40 0002 0746     		mov	r7, r0
  41              	.LVL1:
  23:../system/src/modbus_rtu/rtu_getters.c **** 
  24:../system/src/modbus_rtu/rtu_getters.c **** 	int32_t retval = MODBUS_RET_UNINITIALIZED;
  25:../system/src/modbus_rtu/rtu_getters.c **** 
  26:../system/src/modbus_rtu/rtu_getters.c **** 	rtu_register_data_t* source = 0;
  27:../system/src/modbus_rtu/rtu_getters.c **** 
  28:../system/src/modbus_rtu/rtu_getters.c **** 	uint16_t raw_register_value = 0;
  29:../system/src/modbus_rtu/rtu_getters.c **** 
  30:../system/src/modbus_rtu/rtu_getters.c **** 	float physical_register_value = 0.0f;
  31:../system/src/modbus_rtu/rtu_getters.c **** 
  32:../system/src/modbus_rtu/rtu_getters.c **** 	uint16_t scaling_a, scaling_b, scaling_c, scaling_d;
  33:../system/src/modbus_rtu/rtu_getters.c **** 
  34:../system/src/modbus_rtu/rtu_getters.c **** 	// the timestamp of last update of the register value
  35:../system/src/modbus_rtu/rtu_getters.c **** 	uint32_t last_update_timestam = 0;
  36:../system/src/modbus_rtu/rtu_getters.c **** 
  37:../system/src/modbus_rtu/rtu_getters.c **** 	switch (config->temperature_source) {
  42              		.loc 1 37 0
  43 0004 4B79     		ldrb	r3, [r1, #5]	@ zero_extendqisi2
  44 0006 013B     		subs	r3, r3, #1
  45 0008 052B     		cmp	r3, #5
  46 000a 56D8     		bhi	.L12
  47 000c DFE803F0 		tbb	[pc, r3]
  48              	.LVL2:
  49              	.L4:
  50 0010 03       		.byte	(.L3-.L4)/2
  51 0011 11       		.byte	(.L5-.L4)/2
  52 0012 1D       		.byte	(.L6-.L4)/2
  53 0013 2B       		.byte	(.L7-.L4)/2
  54 0014 39       		.byte	(.L8-.L4)/2
  55 0015 47       		.byte	(.L9-.L4)/2
  56              		.p2align 1
  57              	.L3:
  38:../system/src/modbus_rtu/rtu_getters.c **** 	case 1:
  39:../system/src/modbus_rtu/rtu_getters.c **** 		source = &rte_wx_modbus_rtu_f1;
  40:../system/src/modbus_rtu/rtu_getters.c **** 		scaling_a = config->slave_1_scaling_a;
  58              		.loc 1 40 0
  59 0016 8A7C     		ldrb	r2, [r1, #18]	@ zero_extendqisi2
  60              	.LVL3:
  41:../system/src/modbus_rtu/rtu_getters.c **** 		scaling_b = config->slave_1_scaling_b;
  61              		.loc 1 41 0
  62 0018 CD7C     		ldrb	r5, [r1, #19]	@ zero_extendqisi2
  63              	.LVL4:
  42:../system/src/modbus_rtu/rtu_getters.c **** 		scaling_c = config->slave_1_scaling_c;
  64              		.loc 1 42 0
  65 001a 0C7D     		ldrb	r4, [r1, #20]	@ zero_extendqisi2
  66              	.LVL5:
  43:../system/src/modbus_rtu/rtu_getters.c **** 		scaling_d = config->slave_1_scaling_d;
  67              		.loc 1 43 0
  68 001c 4E7D     		ldrb	r6, [r1, #21]	@ zero_extendqisi2
  69              	.LVL6:
  44:../system/src/modbus_rtu/rtu_getters.c **** 		last_update_timestam = rte_rtu_pool_queue.last_successfull_call_to_function[0];
  70              		.loc 1 44 0
  71 001e 4D4B     		ldr	r3, .L19
  72 0020 1B6A     		ldr	r3, [r3, #32]
  73              	.LVL7:
  39:../system/src/modbus_rtu/rtu_getters.c **** 		scaling_a = config->slave_1_scaling_a;
  74              		.loc 1 39 0
  75 0022 4D49     		ldr	r1, .L19+4
  76              	.LVL8:
  24:../system/src/modbus_rtu/rtu_getters.c **** 
  77              		.loc 1 24 0
  78 0024 4FF0FF30 		mov	r0, #-1
  79              	.LVL9:
  80              	.L2:
  45:../system/src/modbus_rtu/rtu_getters.c **** 		break;
  46:../system/src/modbus_rtu/rtu_getters.c **** 	case 2:
  47:../system/src/modbus_rtu/rtu_getters.c **** 		source = &rte_wx_modbus_rtu_f2;
  48:../system/src/modbus_rtu/rtu_getters.c **** 		scaling_a = config->slave_2_scaling_a;
  49:../system/src/modbus_rtu/rtu_getters.c **** 		scaling_b = config->slave_2_scaling_b;
  50:../system/src/modbus_rtu/rtu_getters.c **** 		scaling_c = config->slave_2_scaling_c;
  51:../system/src/modbus_rtu/rtu_getters.c **** 		scaling_d = config->slave_2_scaling_d;
  52:../system/src/modbus_rtu/rtu_getters.c **** 		last_update_timestam = rte_rtu_pool_queue.last_successfull_call_to_function[1];
  53:../system/src/modbus_rtu/rtu_getters.c **** 		source = &rte_wx_modbus_rtu_f2;
  54:../system/src/modbus_rtu/rtu_getters.c **** 		break;
  55:../system/src/modbus_rtu/rtu_getters.c **** 	case 3:
  56:../system/src/modbus_rtu/rtu_getters.c **** 		source = &rte_wx_modbus_rtu_f3;
  57:../system/src/modbus_rtu/rtu_getters.c **** 		scaling_a = config->slave_3_scaling_a;
  58:../system/src/modbus_rtu/rtu_getters.c **** 		scaling_b = config->slave_3_scaling_b;
  59:../system/src/modbus_rtu/rtu_getters.c **** 		scaling_c = config->slave_3_scaling_c;
  60:../system/src/modbus_rtu/rtu_getters.c **** 		scaling_d = config->slave_3_scaling_d;
  61:../system/src/modbus_rtu/rtu_getters.c **** 		last_update_timestam = rte_rtu_pool_queue.last_successfull_call_to_function[2];
  62:../system/src/modbus_rtu/rtu_getters.c **** 		source = &rte_wx_modbus_rtu_f3;
  63:../system/src/modbus_rtu/rtu_getters.c **** 		break;
  64:../system/src/modbus_rtu/rtu_getters.c **** 	case 4:
  65:../system/src/modbus_rtu/rtu_getters.c **** 		source = &rte_wx_modbus_rtu_f4;
  66:../system/src/modbus_rtu/rtu_getters.c **** 		scaling_a = config->slave_4_scaling_a;
  67:../system/src/modbus_rtu/rtu_getters.c **** 		scaling_b = config->slave_4_scaling_b;
  68:../system/src/modbus_rtu/rtu_getters.c **** 		scaling_c = config->slave_4_scaling_c;
  69:../system/src/modbus_rtu/rtu_getters.c **** 		scaling_d = config->slave_4_scaling_d;
  70:../system/src/modbus_rtu/rtu_getters.c **** 		last_update_timestam = rte_rtu_pool_queue.last_successfull_call_to_function[3];
  71:../system/src/modbus_rtu/rtu_getters.c **** 		source = &rte_wx_modbus_rtu_f4;
  72:../system/src/modbus_rtu/rtu_getters.c **** 		break;
  73:../system/src/modbus_rtu/rtu_getters.c **** 	case 5:
  74:../system/src/modbus_rtu/rtu_getters.c **** 		source = &rte_wx_modbus_rtu_f5;
  75:../system/src/modbus_rtu/rtu_getters.c **** 		scaling_a = config->slave_5_scaling_a;
  76:../system/src/modbus_rtu/rtu_getters.c **** 		scaling_b = config->slave_5_scaling_b;
  77:../system/src/modbus_rtu/rtu_getters.c **** 		scaling_c = config->slave_5_scaling_c;
  78:../system/src/modbus_rtu/rtu_getters.c **** 		scaling_d = config->slave_5_scaling_d;
  79:../system/src/modbus_rtu/rtu_getters.c **** 		last_update_timestam = rte_rtu_pool_queue.last_successfull_call_to_function[4];
  80:../system/src/modbus_rtu/rtu_getters.c **** 		source = &rte_wx_modbus_rtu_f5;
  81:../system/src/modbus_rtu/rtu_getters.c **** 		break;
  82:../system/src/modbus_rtu/rtu_getters.c **** 	case 6:
  83:../system/src/modbus_rtu/rtu_getters.c **** 		source = &rte_wx_modbus_rtu_f6;
  84:../system/src/modbus_rtu/rtu_getters.c **** 		scaling_a = config->slave_6_scaling_a;
  85:../system/src/modbus_rtu/rtu_getters.c **** 		scaling_b = config->slave_6_scaling_b;
  86:../system/src/modbus_rtu/rtu_getters.c **** 		scaling_c = config->slave_6_scaling_c;
  87:../system/src/modbus_rtu/rtu_getters.c **** 		scaling_d = config->slave_6_scaling_d;
  88:../system/src/modbus_rtu/rtu_getters.c **** 		last_update_timestam = rte_rtu_pool_queue.last_successfull_call_to_function[5];
  89:../system/src/modbus_rtu/rtu_getters.c **** 		source = &rte_wx_modbus_rtu_f6;
  90:../system/src/modbus_rtu/rtu_getters.c **** 		break;
  91:../system/src/modbus_rtu/rtu_getters.c **** 	default:
  92:../system/src/modbus_rtu/rtu_getters.c **** 		retval = MODBUS_RET_NOT_CONFIGURED;
  93:../system/src/modbus_rtu/rtu_getters.c **** 	}
  94:../system/src/modbus_rtu/rtu_getters.c **** 
  95:../system/src/modbus_rtu/rtu_getters.c **** 	if (retval == MODBUS_RET_UNINITIALIZED && source != 0) {
  81              		.loc 1 95 0
  82 0028 B0F1FF3F 		cmp	r0, #-1
  83 002c 49D0     		beq	.L18
  84              	.LVL10:
  85              	.L1:
  96:../system/src/modbus_rtu/rtu_getters.c **** 		// copy the raw value from modbus register data
  97:../system/src/modbus_rtu/rtu_getters.c **** 		raw_register_value = source->registers_values[0];
  98:../system/src/modbus_rtu/rtu_getters.c **** 
  99:../system/src/modbus_rtu/rtu_getters.c **** 		// rescale the raw value to target value in degrees C
 100:../system/src/modbus_rtu/rtu_getters.c **** 		physical_register_value = 	(
 101:../system/src/modbus_rtu/rtu_getters.c **** 				scaling_a * (float)raw_register_value * (float)raw_register_value +
 102:../system/src/modbus_rtu/rtu_getters.c **** 				scaling_b * (float)raw_register_value +
 103:../system/src/modbus_rtu/rtu_getters.c **** 				scaling_c
 104:../system/src/modbus_rtu/rtu_getters.c **** 				) /
 105:../system/src/modbus_rtu/rtu_getters.c **** 				scaling_d;
 106:../system/src/modbus_rtu/rtu_getters.c **** 
 107:../system/src/modbus_rtu/rtu_getters.c **** 		// check when the value has been updated
 108:../system/src/modbus_rtu/rtu_getters.c **** 		if (main_get_master_time() - last_update_timestam > RTU_MAXIMUM_VALUE_AGE ||
 109:../system/src/modbus_rtu/rtu_getters.c **** 				physical_register_value < RTU_MIN_VALID_TEMPERATURE ||
 110:../system/src/modbus_rtu/rtu_getters.c **** 				physical_register_value > RTU_MAX_VALID_TEMPERATURE) {
 111:../system/src/modbus_rtu/rtu_getters.c **** 			retval = MODBUS_RET_NOT_AVALIABLE;
 112:../system/src/modbus_rtu/rtu_getters.c **** 		}
 113:../system/src/modbus_rtu/rtu_getters.c **** 		else {
 114:../system/src/modbus_rtu/rtu_getters.c **** 			if (main_get_master_time() - rte_rtu_last_modbus_rx_error_timestamp < RTU_MAXIMUM_VALUE_AGE) {
 115:../system/src/modbus_rtu/rtu_getters.c **** 				retval = MODBUS_RET_DEGRADED;
 116:../system/src/modbus_rtu/rtu_getters.c **** 			}
 117:../system/src/modbus_rtu/rtu_getters.c **** 			else {
 118:../system/src/modbus_rtu/rtu_getters.c **** 				retval = MODBUS_RET_OK;
 119:../system/src/modbus_rtu/rtu_getters.c **** 			}
 120:../system/src/modbus_rtu/rtu_getters.c **** 
 121:../system/src/modbus_rtu/rtu_getters.c **** 			*out = physical_register_value;
 122:../system/src/modbus_rtu/rtu_getters.c **** 		}
 123:../system/src/modbus_rtu/rtu_getters.c **** 
 124:../system/src/modbus_rtu/rtu_getters.c **** 	}
 125:../system/src/modbus_rtu/rtu_getters.c **** 
 126:../system/src/modbus_rtu/rtu_getters.c **** 	return retval;
 127:../system/src/modbus_rtu/rtu_getters.c **** }
  86              		.loc 1 127 0
  87 002e F0BC     		pop	{r4, r5, r6, r7}
  88              		.cfi_remember_state
  89              		.cfi_restore 7
  90              		.cfi_restore 6
  91              		.cfi_restore 5
  92              		.cfi_restore 4
  93              		.cfi_def_cfa_offset 0
  94              	.LVL11:
  95 0030 7047     		bx	lr
  96              	.LVL12:
  97              	.L5:
  98              		.cfi_restore_state
  48:../system/src/modbus_rtu/rtu_getters.c **** 		scaling_b = config->slave_2_scaling_b;
  99              		.loc 1 48 0
 100 0032 8A7F     		ldrb	r2, [r1, #30]	@ zero_extendqisi2
 101              	.LVL13:
  49:../system/src/modbus_rtu/rtu_getters.c **** 		scaling_c = config->slave_2_scaling_c;
 102              		.loc 1 49 0
 103 0034 CD7F     		ldrb	r5, [r1, #31]	@ zero_extendqisi2
 104              	.LVL14:
  50:../system/src/modbus_rtu/rtu_getters.c **** 		scaling_d = config->slave_2_scaling_d;
 105              		.loc 1 50 0
 106 0036 91F82040 		ldrb	r4, [r1, #32]	@ zero_extendqisi2
 107              	.LVL15:
  51:../system/src/modbus_rtu/rtu_getters.c **** 		last_update_timestam = rte_rtu_pool_queue.last_successfull_call_to_function[1];
 108              		.loc 1 51 0
 109 003a 91F82160 		ldrb	r6, [r1, #33]	@ zero_extendqisi2
 110              	.LVL16:
  52:../system/src/modbus_rtu/rtu_getters.c **** 		source = &rte_wx_modbus_rtu_f2;
 111              		.loc 1 52 0
 112 003e 454B     		ldr	r3, .L19
 113 0040 5B6A     		ldr	r3, [r3, #36]
 114              	.LVL17:
  53:../system/src/modbus_rtu/rtu_getters.c **** 		break;
 115              		.loc 1 53 0
 116 0042 4649     		ldr	r1, .L19+8
 117              	.LVL18:
  24:../system/src/modbus_rtu/rtu_getters.c **** 
 118              		.loc 1 24 0
 119 0044 4FF0FF30 		mov	r0, #-1
  54:../system/src/modbus_rtu/rtu_getters.c **** 	case 3:
 120              		.loc 1 54 0
 121 0048 EEE7     		b	.L2
 122              	.LVL19:
 123              	.L6:
  57:../system/src/modbus_rtu/rtu_getters.c **** 		scaling_b = config->slave_3_scaling_b;
 124              		.loc 1 57 0
 125 004a 91F82A20 		ldrb	r2, [r1, #42]	@ zero_extendqisi2
 126              	.LVL20:
  58:../system/src/modbus_rtu/rtu_getters.c **** 		scaling_c = config->slave_3_scaling_c;
 127              		.loc 1 58 0
 128 004e 91F82B50 		ldrb	r5, [r1, #43]	@ zero_extendqisi2
 129              	.LVL21:
  59:../system/src/modbus_rtu/rtu_getters.c **** 		scaling_d = config->slave_3_scaling_d;
 130              		.loc 1 59 0
 131 0052 91F82C40 		ldrb	r4, [r1, #44]	@ zero_extendqisi2
 132              	.LVL22:
  60:../system/src/modbus_rtu/rtu_getters.c **** 		last_update_timestam = rte_rtu_pool_queue.last_successfull_call_to_function[2];
 133              		.loc 1 60 0
 134 0056 91F82D60 		ldrb	r6, [r1, #45]	@ zero_extendqisi2
 135              	.LVL23:
  61:../system/src/modbus_rtu/rtu_getters.c **** 		source = &rte_wx_modbus_rtu_f3;
 136              		.loc 1 61 0
 137 005a 3E4B     		ldr	r3, .L19
 138 005c 9B6A     		ldr	r3, [r3, #40]
 139              	.LVL24:
  62:../system/src/modbus_rtu/rtu_getters.c **** 		break;
 140              		.loc 1 62 0
 141 005e 4049     		ldr	r1, .L19+12
 142              	.LVL25:
  24:../system/src/modbus_rtu/rtu_getters.c **** 
 143              		.loc 1 24 0
 144 0060 4FF0FF30 		mov	r0, #-1
  63:../system/src/modbus_rtu/rtu_getters.c **** 	case 4:
 145              		.loc 1 63 0
 146 0064 E0E7     		b	.L2
 147              	.LVL26:
 148              	.L7:
  66:../system/src/modbus_rtu/rtu_getters.c **** 		scaling_b = config->slave_4_scaling_b;
 149              		.loc 1 66 0
 150 0066 91F83620 		ldrb	r2, [r1, #54]	@ zero_extendqisi2
 151              	.LVL27:
  67:../system/src/modbus_rtu/rtu_getters.c **** 		scaling_c = config->slave_4_scaling_c;
 152              		.loc 1 67 0
 153 006a 91F83750 		ldrb	r5, [r1, #55]	@ zero_extendqisi2
 154              	.LVL28:
  68:../system/src/modbus_rtu/rtu_getters.c **** 		scaling_d = config->slave_4_scaling_d;
 155              		.loc 1 68 0
 156 006e 91F83840 		ldrb	r4, [r1, #56]	@ zero_extendqisi2
 157              	.LVL29:
  69:../system/src/modbus_rtu/rtu_getters.c **** 		last_update_timestam = rte_rtu_pool_queue.last_successfull_call_to_function[3];
 158              		.loc 1 69 0
 159 0072 91F83960 		ldrb	r6, [r1, #57]	@ zero_extendqisi2
 160              	.LVL30:
  70:../system/src/modbus_rtu/rtu_getters.c **** 		source = &rte_wx_modbus_rtu_f4;
 161              		.loc 1 70 0
 162 0076 374B     		ldr	r3, .L19
 163 0078 DB6A     		ldr	r3, [r3, #44]
 164              	.LVL31:
  71:../system/src/modbus_rtu/rtu_getters.c **** 		break;
 165              		.loc 1 71 0
 166 007a 3A49     		ldr	r1, .L19+16
 167              	.LVL32:
  24:../system/src/modbus_rtu/rtu_getters.c **** 
 168              		.loc 1 24 0
 169 007c 4FF0FF30 		mov	r0, #-1
  72:../system/src/modbus_rtu/rtu_getters.c **** 	case 5:
 170              		.loc 1 72 0
 171 0080 D2E7     		b	.L2
 172              	.LVL33:
 173              	.L8:
  75:../system/src/modbus_rtu/rtu_getters.c **** 		scaling_b = config->slave_5_scaling_b;
 174              		.loc 1 75 0
 175 0082 91F84220 		ldrb	r2, [r1, #66]	@ zero_extendqisi2
 176              	.LVL34:
  76:../system/src/modbus_rtu/rtu_getters.c **** 		scaling_c = config->slave_5_scaling_c;
 177              		.loc 1 76 0
 178 0086 91F84350 		ldrb	r5, [r1, #67]	@ zero_extendqisi2
 179              	.LVL35:
  77:../system/src/modbus_rtu/rtu_getters.c **** 		scaling_d = config->slave_5_scaling_d;
 180              		.loc 1 77 0
 181 008a 91F84440 		ldrb	r4, [r1, #68]	@ zero_extendqisi2
 182              	.LVL36:
  78:../system/src/modbus_rtu/rtu_getters.c **** 		last_update_timestam = rte_rtu_pool_queue.last_successfull_call_to_function[4];
 183              		.loc 1 78 0
 184 008e 91F84560 		ldrb	r6, [r1, #69]	@ zero_extendqisi2
 185              	.LVL37:
  79:../system/src/modbus_rtu/rtu_getters.c **** 		source = &rte_wx_modbus_rtu_f5;
 186              		.loc 1 79 0
 187 0092 304B     		ldr	r3, .L19
 188 0094 1B6B     		ldr	r3, [r3, #48]
 189              	.LVL38:
  80:../system/src/modbus_rtu/rtu_getters.c **** 		break;
 190              		.loc 1 80 0
 191 0096 3449     		ldr	r1, .L19+20
 192              	.LVL39:
  24:../system/src/modbus_rtu/rtu_getters.c **** 
 193              		.loc 1 24 0
 194 0098 4FF0FF30 		mov	r0, #-1
  81:../system/src/modbus_rtu/rtu_getters.c **** 	case 6:
 195              		.loc 1 81 0
 196 009c C4E7     		b	.L2
 197              	.LVL40:
 198              	.L9:
  84:../system/src/modbus_rtu/rtu_getters.c **** 		scaling_b = config->slave_6_scaling_b;
 199              		.loc 1 84 0
 200 009e 91F84E20 		ldrb	r2, [r1, #78]	@ zero_extendqisi2
 201              	.LVL41:
  85:../system/src/modbus_rtu/rtu_getters.c **** 		scaling_c = config->slave_6_scaling_c;
 202              		.loc 1 85 0
 203 00a2 91F84F50 		ldrb	r5, [r1, #79]	@ zero_extendqisi2
 204              	.LVL42:
  86:../system/src/modbus_rtu/rtu_getters.c **** 		scaling_d = config->slave_6_scaling_d;
 205              		.loc 1 86 0
 206 00a6 91F85040 		ldrb	r4, [r1, #80]	@ zero_extendqisi2
 207              	.LVL43:
  87:../system/src/modbus_rtu/rtu_getters.c **** 		last_update_timestam = rte_rtu_pool_queue.last_successfull_call_to_function[5];
 208              		.loc 1 87 0
 209 00aa 91F85160 		ldrb	r6, [r1, #81]	@ zero_extendqisi2
 210              	.LVL44:
  88:../system/src/modbus_rtu/rtu_getters.c **** 		source = &rte_wx_modbus_rtu_f6;
 211              		.loc 1 88 0
 212 00ae 294B     		ldr	r3, .L19
 213 00b0 5B6B     		ldr	r3, [r3, #52]
 214              	.LVL45:
  89:../system/src/modbus_rtu/rtu_getters.c **** 		break;
 215              		.loc 1 89 0
 216 00b2 2E49     		ldr	r1, .L19+24
 217              	.LVL46:
  24:../system/src/modbus_rtu/rtu_getters.c **** 
 218              		.loc 1 24 0
 219 00b4 4FF0FF30 		mov	r0, #-1
  90:../system/src/modbus_rtu/rtu_getters.c **** 	default:
 220              		.loc 1 90 0
 221 00b8 B6E7     		b	.L2
 222              	.LVL47:
 223              	.L12:
  35:../system/src/modbus_rtu/rtu_getters.c **** 
 224              		.loc 1 35 0
 225 00ba 0023     		movs	r3, #0
  26:../system/src/modbus_rtu/rtu_getters.c **** 
 226              		.loc 1 26 0
 227 00bc 1946     		mov	r1, r3
 228              	.LVL48:
  92:../system/src/modbus_rtu/rtu_getters.c **** 	}
 229              		.loc 1 92 0
 230 00be 0820     		movs	r0, #8
 231 00c0 B2E7     		b	.L2
 232              	.LVL49:
 233              	.L18:
  95:../system/src/modbus_rtu/rtu_getters.c **** 		// copy the raw value from modbus register data
 234              		.loc 1 95 0 discriminator 1
 235 00c2 0029     		cmp	r1, #0
 236 00c4 B3D0     		beq	.L1
  97:../system/src/modbus_rtu/rtu_getters.c **** 
 237              		.loc 1 97 0
 238 00c6 C988     		ldrh	r1, [r1, #6]
 239              	.LVL50:
 240 00c8 07EE101A 		vmov	s14, r1	@ int
 241              	.LVL51:
 101:../system/src/modbus_rtu/rtu_getters.c **** 				scaling_b * (float)raw_register_value +
 242              		.loc 1 101 0
 243 00cc F8EE476A 		vcvt.f32.u32	s13, s14
 244 00d0 07EE902A 		vmov	s15, r2	@ int
 245 00d4 F8EEE77A 		vcvt.f32.s32	s15, s15
 246 00d8 67EEA67A 		vmul.f32	s15, s15, s13
 247 00dc 66EEA77A 		vmul.f32	s15, s13, s15
 102:../system/src/modbus_rtu/rtu_getters.c **** 				scaling_c
 248              		.loc 1 102 0
 249 00e0 07EE105A 		vmov	s14, r5	@ int
 250              	.LVL52:
 251 00e4 B8EEC77A 		vcvt.f32.s32	s14, s14
 252 00e8 27EE267A 		vmul.f32	s14, s14, s13
 101:../system/src/modbus_rtu/rtu_getters.c **** 				scaling_b * (float)raw_register_value +
 253              		.loc 1 101 0
 254 00ec 77EE877A 		vadd.f32	s15, s15, s14
 102:../system/src/modbus_rtu/rtu_getters.c **** 				scaling_c
 255              		.loc 1 102 0
 256 00f0 07EE104A 		vmov	s14, r4	@ int
 257 00f4 B8EEC77A 		vcvt.f32.s32	s14, s14
 258 00f8 77EE277A 		vadd.f32	s15, s14, s15
 104:../system/src/modbus_rtu/rtu_getters.c **** 				scaling_d;
 259              		.loc 1 104 0
 260 00fc 07EE106A 		vmov	s14, r6	@ int
 261 0100 B8EEC77A 		vcvt.f32.s32	s14, s14
 100:../system/src/modbus_rtu/rtu_getters.c **** 				scaling_a * (float)raw_register_value * (float)raw_register_value +
 262              		.loc 1 100 0
 263 0104 C7EE876A 		vdiv.f32	s13, s15, s14
 264              	.LVL53:
 265              	.LBB26:
 266              	.LBB27:
 267              		.file 2 "../include/main.h"
   1:../include/main.h **** #ifndef MAIN_H_
   2:../include/main.h **** #define MAIN_H_
   3:../include/main.h **** 
   4:../include/main.h **** #include "aprs/ax25.h"
   5:../include/main.h **** #include "drivers/serial.h"
   6:../include/main.h **** #include "config_data.h"
   7:../include/main.h **** 
   8:../include/main.h **** #define SW_VER "EA00"
   9:../include/main.h **** #define SW_DATE "30062021"
  10:../include/main.h **** 
  11:../include/main.h **** #define SYSTICK_TICKS_PER_SECONDS 100
  12:../include/main.h **** #define SYSTICK_TICKS_PERIOD 10
  13:../include/main.h **** 
  14:../include/main.h **** //#define INTERNAL_WATCHDOG
  15:../include/main.h **** #define EXTERNAL_WATCHDOG
  16:../include/main.h **** 
  17:../include/main.h **** #define PWR_SWITCH_BOTH
  18:../include/main.h **** 
  19:../include/main.h **** #define OWN_APRS_MSG_LN 	160
  20:../include/main.h **** 
  21:../include/main.h **** extern uint32_t master_time;
  22:../include/main.h **** 
  23:../include/main.h **** extern const config_data_mode_t * main_config_data_mode;
  24:../include/main.h **** extern const config_data_basic_t * main_config_data_basic;
  25:../include/main.h **** extern const config_data_wx_sources_t * main_config_data_wx_sources;
  26:../include/main.h **** extern const config_data_umb_t * main_config_data_umb;
  27:../include/main.h **** extern const config_data_rtu_t * main_config_data_rtu;
  28:../include/main.h **** 
  29:../include/main.h **** extern int32_t main_wx_sensors_pool_timer;
  30:../include/main.h **** extern int32_t main_one_minute_pool_timer;
  31:../include/main.h **** extern int32_t main_one_second_pool_timer;
  32:../include/main.h **** extern int32_t main_two_second_pool_timer;
  33:../include/main.h **** extern int32_t main_ten_second_pool_timer;
  34:../include/main.h **** 
  35:../include/main.h **** extern AX25Ctx main_ax25;
  36:../include/main.h **** extern Afsk main_afsk;
  37:../include/main.h **** 
  38:../include/main.h **** extern AX25Call main_own_path[3];
  39:../include/main.h **** extern uint8_t main_own_path_ln;
  40:../include/main.h **** extern uint8_t main_own_aprs_msg_len;
  41:../include/main.h **** extern char main_own_aprs_msg[OWN_APRS_MSG_LN];
  42:../include/main.h **** 
  43:../include/main.h **** extern char main_string_latitude[9];
  44:../include/main.h **** extern char main_string_longitude[9];
  45:../include/main.h **** 
  46:../include/main.h **** extern char main_symbol_f;
  47:../include/main.h **** extern char main_symbol_s;
  48:../include/main.h **** 
  49:../include/main.h **** extern srl_context_t* main_kiss_srl_ctx_ptr;
  50:../include/main.h **** extern srl_context_t* main_wx_srl_ctx_ptr;
  51:../include/main.h **** 
  52:../include/main.h **** extern  uint8_t main_kiss_enabled;
  53:../include/main.h **** 
  54:../include/main.h **** extern char after_tx_lock;
  55:../include/main.h **** 
  56:../include/main.h **** extern unsigned short rx10m, tx10m, digi10m, digidrop10m, kiss10m;
  57:../include/main.h **** 
  58:../include/main.h **** uint16_t main_get_adc_sample(void);
  59:../include/main.h **** 
  60:../include/main.h **** void main_service_cpu_load_ticks(void);
  61:../include/main.h **** 
  62:../include/main.h **** inline uint32_t main_get_master_time(void) {
  63:../include/main.h **** 	return master_time;
 268              		.loc 2 63 0
 269 0108 194A     		ldr	r2, .L19+28
 270              	.LVL54:
 271 010a 1268     		ldr	r2, [r2]
 272              	.LBE27:
 273              	.LBE26:
 108:../system/src/modbus_rtu/rtu_getters.c **** 				physical_register_value < RTU_MIN_VALID_TEMPERATURE ||
 274              		.loc 1 108 0
 275 010c D31A     		subs	r3, r2, r3
 276              	.LVL55:
 277 010e 1949     		ldr	r1, .L19+32
 278              	.LVL56:
 279 0110 8B42     		cmp	r3, r1
 280 0112 19D8     		bhi	.L13
 108:../system/src/modbus_rtu/rtu_getters.c **** 				physical_register_value < RTU_MIN_VALID_TEMPERATURE ||
 281              		.loc 1 108 0 is_stmt 0 discriminator 1
 282 0114 FBEE0E7A 		vmov.f32	s15, #-3.0e+1
 283 0118 F4EEE76A 		vcmpe.f32	s13, s15
 284 011c F1EE10FA 		vmrs	APSR_nzcv, FPSCR
 285 0120 14D4     		bmi	.L14
 109:../system/src/modbus_rtu/rtu_getters.c **** 				physical_register_value > RTU_MAX_VALID_TEMPERATURE) {
 286              		.loc 1 109 0 is_stmt 1
 287 0122 DFED157A 		vldr.32	s15, .L19+36
 288 0126 F4EEE76A 		vcmpe.f32	s13, s15
 289 012a F1EE10FA 		vmrs	APSR_nzcv, FPSCR
 290 012e 0FDC     		bgt	.L15
 114:../system/src/modbus_rtu/rtu_getters.c **** 				retval = MODBUS_RET_DEGRADED;
 291              		.loc 1 114 0
 292 0130 124B     		ldr	r3, .L19+40
 293 0132 1B68     		ldr	r3, [r3]
 294 0134 D21A     		subs	r2, r2, r3
 295 0136 124B     		ldr	r3, .L19+44
 296 0138 9A42     		cmp	r2, r3
 297 013a 03D8     		bhi	.L16
 115:../system/src/modbus_rtu/rtu_getters.c **** 			}
 298              		.loc 1 115 0
 299 013c 0620     		movs	r0, #6
 300              	.LVL57:
 301              	.L11:
 121:../system/src/modbus_rtu/rtu_getters.c **** 		}
 302              		.loc 1 121 0
 303 013e C7ED006A 		vstr.32	s13, [r7]
 304 0142 74E7     		b	.L1
 305              	.L16:
 118:../system/src/modbus_rtu/rtu_getters.c **** 			}
 306              		.loc 1 118 0
 307 0144 0020     		movs	r0, #0
 308              	.LVL58:
 309 0146 FAE7     		b	.L11
 310              	.LVL59:
 311              	.L13:
 111:../system/src/modbus_rtu/rtu_getters.c **** 		}
 312              		.loc 1 111 0
 313 0148 0520     		movs	r0, #5
 314              	.LVL60:
 315 014a 70E7     		b	.L1
 316              	.LVL61:
 317              	.L14:
 318 014c 0520     		movs	r0, #5
 319              	.LVL62:
 320 014e 6EE7     		b	.L1
 321              	.LVL63:
 322              	.L15:
 323 0150 0520     		movs	r0, #5
 324              	.LVL64:
 126:../system/src/modbus_rtu/rtu_getters.c **** }
 325              		.loc 1 126 0
 326 0152 6CE7     		b	.L1
 327              	.L20:
 328              		.align	2
 329              	.L19:
 330 0154 00000000 		.word	rte_rtu_pool_queue
 331 0158 00000000 		.word	rte_wx_modbus_rtu_f1
 332 015c 00000000 		.word	rte_wx_modbus_rtu_f2
 333 0160 00000000 		.word	rte_wx_modbus_rtu_f3
 334 0164 00000000 		.word	rte_wx_modbus_rtu_f4
 335 0168 00000000 		.word	rte_wx_modbus_rtu_f5
 336 016c 00000000 		.word	rte_wx_modbus_rtu_f6
 337 0170 00000000 		.word	master_time
 338 0174 E0930400 		.word	300000
 339 0178 00007042 		.word	1114636288
 340 017c 00000000 		.word	rte_rtu_last_modbus_rx_error_timestamp
 341 0180 DF930400 		.word	299999
 342              		.cfi_endproc
 343              	.LFE401:
 345              		.section	.text.rtu_get_pressure,"ax",%progbits
 346              		.align	1
 347              		.global	rtu_get_pressure
 348              		.syntax unified
 349              		.thumb
 350              		.thumb_func
 351              		.fpu fpv4-sp-d16
 353              	rtu_get_pressure:
 354              	.LFB402:
 128:../system/src/modbus_rtu/rtu_getters.c **** 
 129:../system/src/modbus_rtu/rtu_getters.c **** int32_t rtu_get_pressure(float* out, const config_data_rtu_t * const config) {
 355              		.loc 1 129 0
 356              		.cfi_startproc
 357              		@ args = 0, pretend = 0, frame = 0
 358              		@ frame_needed = 0, uses_anonymous_args = 0
 359              		@ link register save eliminated.
 360              	.LVL65:
 361 0000 F0B4     		push	{r4, r5, r6, r7}
 362              		.cfi_def_cfa_offset 16
 363              		.cfi_offset 4, -16
 364              		.cfi_offset 5, -12
 365              		.cfi_offset 6, -8
 366              		.cfi_offset 7, -4
 367 0002 0746     		mov	r7, r0
 368              	.LVL66:
 130:../system/src/modbus_rtu/rtu_getters.c **** 
 131:../system/src/modbus_rtu/rtu_getters.c **** 	int32_t retval = MODBUS_RET_UNINITIALIZED;
 132:../system/src/modbus_rtu/rtu_getters.c **** 
 133:../system/src/modbus_rtu/rtu_getters.c **** 	rtu_register_data_t* source = 0;
 134:../system/src/modbus_rtu/rtu_getters.c **** 
 135:../system/src/modbus_rtu/rtu_getters.c **** 	uint16_t raw_register_value = 0;
 136:../system/src/modbus_rtu/rtu_getters.c **** 
 137:../system/src/modbus_rtu/rtu_getters.c **** 	float physical_register_value = 0.0f;
 138:../system/src/modbus_rtu/rtu_getters.c **** 
 139:../system/src/modbus_rtu/rtu_getters.c **** 	uint16_t scaling_a, scaling_b, scaling_c, scaling_d;
 140:../system/src/modbus_rtu/rtu_getters.c **** 
 141:../system/src/modbus_rtu/rtu_getters.c **** 	// the timestamp of last update of the register value
 142:../system/src/modbus_rtu/rtu_getters.c **** 	uint32_t last_update_timestam = 0;
 143:../system/src/modbus_rtu/rtu_getters.c **** 
 144:../system/src/modbus_rtu/rtu_getters.c **** 	switch (config->pressure_source) {
 369              		.loc 1 144 0
 370 0004 CB79     		ldrb	r3, [r1, #7]	@ zero_extendqisi2
 371 0006 013B     		subs	r3, r3, #1
 372 0008 052B     		cmp	r3, #5
 373 000a 56D8     		bhi	.L32
 374 000c DFE803F0 		tbb	[pc, r3]
 375              	.LVL67:
 376              	.L24:
 377 0010 03       		.byte	(.L23-.L24)/2
 378 0011 11       		.byte	(.L25-.L24)/2
 379 0012 1D       		.byte	(.L26-.L24)/2
 380 0013 2B       		.byte	(.L27-.L24)/2
 381 0014 39       		.byte	(.L28-.L24)/2
 382 0015 47       		.byte	(.L29-.L24)/2
 383              		.p2align 1
 384              	.L23:
 145:../system/src/modbus_rtu/rtu_getters.c **** 	case 1:
 146:../system/src/modbus_rtu/rtu_getters.c **** 		source = &rte_wx_modbus_rtu_f1;
 147:../system/src/modbus_rtu/rtu_getters.c **** 		scaling_a = config->slave_1_scaling_a;
 385              		.loc 1 147 0
 386 0016 8A7C     		ldrb	r2, [r1, #18]	@ zero_extendqisi2
 387              	.LVL68:
 148:../system/src/modbus_rtu/rtu_getters.c **** 		scaling_b = config->slave_1_scaling_b;
 388              		.loc 1 148 0
 389 0018 CD7C     		ldrb	r5, [r1, #19]	@ zero_extendqisi2
 390              	.LVL69:
 149:../system/src/modbus_rtu/rtu_getters.c **** 		scaling_c = config->slave_1_scaling_c;
 391              		.loc 1 149 0
 392 001a 0C7D     		ldrb	r4, [r1, #20]	@ zero_extendqisi2
 393              	.LVL70:
 150:../system/src/modbus_rtu/rtu_getters.c **** 		scaling_d = config->slave_1_scaling_d;
 394              		.loc 1 150 0
 395 001c 4E7D     		ldrb	r6, [r1, #21]	@ zero_extendqisi2
 396              	.LVL71:
 151:../system/src/modbus_rtu/rtu_getters.c **** 		last_update_timestam = rte_rtu_pool_queue.last_successfull_call_to_function[0];
 397              		.loc 1 151 0
 398 001e 4D4B     		ldr	r3, .L39
 399 0020 1B6A     		ldr	r3, [r3, #32]
 400              	.LVL72:
 146:../system/src/modbus_rtu/rtu_getters.c **** 		scaling_a = config->slave_1_scaling_a;
 401              		.loc 1 146 0
 402 0022 4D49     		ldr	r1, .L39+4
 403              	.LVL73:
 131:../system/src/modbus_rtu/rtu_getters.c **** 
 404              		.loc 1 131 0
 405 0024 4FF0FF30 		mov	r0, #-1
 406              	.LVL74:
 407              	.L22:
 152:../system/src/modbus_rtu/rtu_getters.c **** 		break;
 153:../system/src/modbus_rtu/rtu_getters.c **** 	case 2:
 154:../system/src/modbus_rtu/rtu_getters.c **** 		source = &rte_wx_modbus_rtu_f2;
 155:../system/src/modbus_rtu/rtu_getters.c **** 		scaling_a = config->slave_2_scaling_a;
 156:../system/src/modbus_rtu/rtu_getters.c **** 		scaling_b = config->slave_2_scaling_b;
 157:../system/src/modbus_rtu/rtu_getters.c **** 		scaling_c = config->slave_2_scaling_c;
 158:../system/src/modbus_rtu/rtu_getters.c **** 		scaling_d = config->slave_2_scaling_d;
 159:../system/src/modbus_rtu/rtu_getters.c **** 		last_update_timestam = rte_rtu_pool_queue.last_successfull_call_to_function[1];
 160:../system/src/modbus_rtu/rtu_getters.c **** 		source = &rte_wx_modbus_rtu_f2;
 161:../system/src/modbus_rtu/rtu_getters.c **** 		break;
 162:../system/src/modbus_rtu/rtu_getters.c **** 	case 3:
 163:../system/src/modbus_rtu/rtu_getters.c **** 		source = &rte_wx_modbus_rtu_f3;
 164:../system/src/modbus_rtu/rtu_getters.c **** 		scaling_a = config->slave_3_scaling_a;
 165:../system/src/modbus_rtu/rtu_getters.c **** 		scaling_b = config->slave_3_scaling_b;
 166:../system/src/modbus_rtu/rtu_getters.c **** 		scaling_c = config->slave_3_scaling_c;
 167:../system/src/modbus_rtu/rtu_getters.c **** 		scaling_d = config->slave_3_scaling_d;
 168:../system/src/modbus_rtu/rtu_getters.c **** 		last_update_timestam = rte_rtu_pool_queue.last_successfull_call_to_function[2];
 169:../system/src/modbus_rtu/rtu_getters.c **** 		source = &rte_wx_modbus_rtu_f3;
 170:../system/src/modbus_rtu/rtu_getters.c **** 		break;
 171:../system/src/modbus_rtu/rtu_getters.c **** 	case 4:
 172:../system/src/modbus_rtu/rtu_getters.c **** 		source = &rte_wx_modbus_rtu_f4;
 173:../system/src/modbus_rtu/rtu_getters.c **** 		scaling_a = config->slave_4_scaling_a;
 174:../system/src/modbus_rtu/rtu_getters.c **** 		scaling_b = config->slave_4_scaling_b;
 175:../system/src/modbus_rtu/rtu_getters.c **** 		scaling_c = config->slave_4_scaling_c;
 176:../system/src/modbus_rtu/rtu_getters.c **** 		scaling_d = config->slave_4_scaling_d;
 177:../system/src/modbus_rtu/rtu_getters.c **** 		last_update_timestam = rte_rtu_pool_queue.last_successfull_call_to_function[3];
 178:../system/src/modbus_rtu/rtu_getters.c **** 		source = &rte_wx_modbus_rtu_f4;
 179:../system/src/modbus_rtu/rtu_getters.c **** 		break;
 180:../system/src/modbus_rtu/rtu_getters.c **** 	case 5:
 181:../system/src/modbus_rtu/rtu_getters.c **** 		source = &rte_wx_modbus_rtu_f5;
 182:../system/src/modbus_rtu/rtu_getters.c **** 		scaling_a = config->slave_5_scaling_a;
 183:../system/src/modbus_rtu/rtu_getters.c **** 		scaling_b = config->slave_5_scaling_b;
 184:../system/src/modbus_rtu/rtu_getters.c **** 		scaling_c = config->slave_5_scaling_c;
 185:../system/src/modbus_rtu/rtu_getters.c **** 		scaling_d = config->slave_5_scaling_d;
 186:../system/src/modbus_rtu/rtu_getters.c **** 		last_update_timestam = rte_rtu_pool_queue.last_successfull_call_to_function[4];
 187:../system/src/modbus_rtu/rtu_getters.c **** 		source = &rte_wx_modbus_rtu_f5;
 188:../system/src/modbus_rtu/rtu_getters.c **** 		break;
 189:../system/src/modbus_rtu/rtu_getters.c **** 	case 6:
 190:../system/src/modbus_rtu/rtu_getters.c **** 		source = &rte_wx_modbus_rtu_f6;
 191:../system/src/modbus_rtu/rtu_getters.c **** 		scaling_a = config->slave_6_scaling_a;
 192:../system/src/modbus_rtu/rtu_getters.c **** 		scaling_b = config->slave_6_scaling_b;
 193:../system/src/modbus_rtu/rtu_getters.c **** 		scaling_c = config->slave_6_scaling_c;
 194:../system/src/modbus_rtu/rtu_getters.c **** 		scaling_d = config->slave_6_scaling_d;
 195:../system/src/modbus_rtu/rtu_getters.c **** 		last_update_timestam = rte_rtu_pool_queue.last_successfull_call_to_function[5];
 196:../system/src/modbus_rtu/rtu_getters.c **** 		source = &rte_wx_modbus_rtu_f6;
 197:../system/src/modbus_rtu/rtu_getters.c **** 		break;
 198:../system/src/modbus_rtu/rtu_getters.c **** 	default:
 199:../system/src/modbus_rtu/rtu_getters.c **** 		retval = MODBUS_RET_NOT_CONFIGURED;
 200:../system/src/modbus_rtu/rtu_getters.c **** 	}
 201:../system/src/modbus_rtu/rtu_getters.c **** 
 202:../system/src/modbus_rtu/rtu_getters.c **** 	if (retval == MODBUS_RET_UNINITIALIZED && source != 0) {
 408              		.loc 1 202 0
 409 0028 B0F1FF3F 		cmp	r0, #-1
 410 002c 49D0     		beq	.L38
 411              	.LVL75:
 412              	.L21:
 203:../system/src/modbus_rtu/rtu_getters.c **** 		// copy the raw value from modbus register data
 204:../system/src/modbus_rtu/rtu_getters.c **** 		raw_register_value = source->registers_values[0];
 205:../system/src/modbus_rtu/rtu_getters.c **** 
 206:../system/src/modbus_rtu/rtu_getters.c **** 		// rescale the raw value to target value in degrees C
 207:../system/src/modbus_rtu/rtu_getters.c **** 		physical_register_value = 	(
 208:../system/src/modbus_rtu/rtu_getters.c **** 				scaling_a * (float)raw_register_value * (float)raw_register_value +
 209:../system/src/modbus_rtu/rtu_getters.c **** 				scaling_b * (float)raw_register_value +
 210:../system/src/modbus_rtu/rtu_getters.c **** 				scaling_c
 211:../system/src/modbus_rtu/rtu_getters.c **** 				) /
 212:../system/src/modbus_rtu/rtu_getters.c **** 				scaling_d;
 213:../system/src/modbus_rtu/rtu_getters.c **** 
 214:../system/src/modbus_rtu/rtu_getters.c **** 		// check when the value has been updated
 215:../system/src/modbus_rtu/rtu_getters.c **** 		if (main_get_master_time() - last_update_timestam > RTU_MAXIMUM_VALUE_AGE ||
 216:../system/src/modbus_rtu/rtu_getters.c **** 				physical_register_value < RTU_MIN_VALID_PRESSURE ||
 217:../system/src/modbus_rtu/rtu_getters.c **** 				physical_register_value > RTU_MAX_VALID_PRESSURE) {
 218:../system/src/modbus_rtu/rtu_getters.c **** 			retval = MODBUS_RET_NOT_AVALIABLE;
 219:../system/src/modbus_rtu/rtu_getters.c **** 		}
 220:../system/src/modbus_rtu/rtu_getters.c **** 		else {
 221:../system/src/modbus_rtu/rtu_getters.c **** 			if (main_get_master_time() - rte_rtu_last_modbus_rx_error_timestamp < RTU_MAXIMUM_VALUE_AGE) {
 222:../system/src/modbus_rtu/rtu_getters.c **** 				retval = MODBUS_RET_DEGRADED;
 223:../system/src/modbus_rtu/rtu_getters.c **** 			}
 224:../system/src/modbus_rtu/rtu_getters.c **** 			else {
 225:../system/src/modbus_rtu/rtu_getters.c **** 				retval = MODBUS_RET_OK;
 226:../system/src/modbus_rtu/rtu_getters.c **** 			}
 227:../system/src/modbus_rtu/rtu_getters.c **** 
 228:../system/src/modbus_rtu/rtu_getters.c **** 			*out = physical_register_value;
 229:../system/src/modbus_rtu/rtu_getters.c **** 		}
 230:../system/src/modbus_rtu/rtu_getters.c **** 	}
 231:../system/src/modbus_rtu/rtu_getters.c **** 
 232:../system/src/modbus_rtu/rtu_getters.c **** 	return retval;
 233:../system/src/modbus_rtu/rtu_getters.c **** }
 413              		.loc 1 233 0
 414 002e F0BC     		pop	{r4, r5, r6, r7}
 415              		.cfi_remember_state
 416              		.cfi_restore 7
 417              		.cfi_restore 6
 418              		.cfi_restore 5
 419              		.cfi_restore 4
 420              		.cfi_def_cfa_offset 0
 421              	.LVL76:
 422 0030 7047     		bx	lr
 423              	.LVL77:
 424              	.L25:
 425              		.cfi_restore_state
 155:../system/src/modbus_rtu/rtu_getters.c **** 		scaling_b = config->slave_2_scaling_b;
 426              		.loc 1 155 0
 427 0032 8A7F     		ldrb	r2, [r1, #30]	@ zero_extendqisi2
 428              	.LVL78:
 156:../system/src/modbus_rtu/rtu_getters.c **** 		scaling_c = config->slave_2_scaling_c;
 429              		.loc 1 156 0
 430 0034 CD7F     		ldrb	r5, [r1, #31]	@ zero_extendqisi2
 431              	.LVL79:
 157:../system/src/modbus_rtu/rtu_getters.c **** 		scaling_d = config->slave_2_scaling_d;
 432              		.loc 1 157 0
 433 0036 91F82040 		ldrb	r4, [r1, #32]	@ zero_extendqisi2
 434              	.LVL80:
 158:../system/src/modbus_rtu/rtu_getters.c **** 		last_update_timestam = rte_rtu_pool_queue.last_successfull_call_to_function[1];
 435              		.loc 1 158 0
 436 003a 91F82160 		ldrb	r6, [r1, #33]	@ zero_extendqisi2
 437              	.LVL81:
 159:../system/src/modbus_rtu/rtu_getters.c **** 		source = &rte_wx_modbus_rtu_f2;
 438              		.loc 1 159 0
 439 003e 454B     		ldr	r3, .L39
 440 0040 5B6A     		ldr	r3, [r3, #36]
 441              	.LVL82:
 160:../system/src/modbus_rtu/rtu_getters.c **** 		break;
 442              		.loc 1 160 0
 443 0042 4649     		ldr	r1, .L39+8
 444              	.LVL83:
 131:../system/src/modbus_rtu/rtu_getters.c **** 
 445              		.loc 1 131 0
 446 0044 4FF0FF30 		mov	r0, #-1
 161:../system/src/modbus_rtu/rtu_getters.c **** 	case 3:
 447              		.loc 1 161 0
 448 0048 EEE7     		b	.L22
 449              	.LVL84:
 450              	.L26:
 164:../system/src/modbus_rtu/rtu_getters.c **** 		scaling_b = config->slave_3_scaling_b;
 451              		.loc 1 164 0
 452 004a 91F82A20 		ldrb	r2, [r1, #42]	@ zero_extendqisi2
 453              	.LVL85:
 165:../system/src/modbus_rtu/rtu_getters.c **** 		scaling_c = config->slave_3_scaling_c;
 454              		.loc 1 165 0
 455 004e 91F82B50 		ldrb	r5, [r1, #43]	@ zero_extendqisi2
 456              	.LVL86:
 166:../system/src/modbus_rtu/rtu_getters.c **** 		scaling_d = config->slave_3_scaling_d;
 457              		.loc 1 166 0
 458 0052 91F82C40 		ldrb	r4, [r1, #44]	@ zero_extendqisi2
 459              	.LVL87:
 167:../system/src/modbus_rtu/rtu_getters.c **** 		last_update_timestam = rte_rtu_pool_queue.last_successfull_call_to_function[2];
 460              		.loc 1 167 0
 461 0056 91F82D60 		ldrb	r6, [r1, #45]	@ zero_extendqisi2
 462              	.LVL88:
 168:../system/src/modbus_rtu/rtu_getters.c **** 		source = &rte_wx_modbus_rtu_f3;
 463              		.loc 1 168 0
 464 005a 3E4B     		ldr	r3, .L39
 465 005c 9B6A     		ldr	r3, [r3, #40]
 466              	.LVL89:
 169:../system/src/modbus_rtu/rtu_getters.c **** 		break;
 467              		.loc 1 169 0
 468 005e 4049     		ldr	r1, .L39+12
 469              	.LVL90:
 131:../system/src/modbus_rtu/rtu_getters.c **** 
 470              		.loc 1 131 0
 471 0060 4FF0FF30 		mov	r0, #-1
 170:../system/src/modbus_rtu/rtu_getters.c **** 	case 4:
 472              		.loc 1 170 0
 473 0064 E0E7     		b	.L22
 474              	.LVL91:
 475              	.L27:
 173:../system/src/modbus_rtu/rtu_getters.c **** 		scaling_b = config->slave_4_scaling_b;
 476              		.loc 1 173 0
 477 0066 91F83620 		ldrb	r2, [r1, #54]	@ zero_extendqisi2
 478              	.LVL92:
 174:../system/src/modbus_rtu/rtu_getters.c **** 		scaling_c = config->slave_4_scaling_c;
 479              		.loc 1 174 0
 480 006a 91F83750 		ldrb	r5, [r1, #55]	@ zero_extendqisi2
 481              	.LVL93:
 175:../system/src/modbus_rtu/rtu_getters.c **** 		scaling_d = config->slave_4_scaling_d;
 482              		.loc 1 175 0
 483 006e 91F83840 		ldrb	r4, [r1, #56]	@ zero_extendqisi2
 484              	.LVL94:
 176:../system/src/modbus_rtu/rtu_getters.c **** 		last_update_timestam = rte_rtu_pool_queue.last_successfull_call_to_function[3];
 485              		.loc 1 176 0
 486 0072 91F83960 		ldrb	r6, [r1, #57]	@ zero_extendqisi2
 487              	.LVL95:
 177:../system/src/modbus_rtu/rtu_getters.c **** 		source = &rte_wx_modbus_rtu_f4;
 488              		.loc 1 177 0
 489 0076 374B     		ldr	r3, .L39
 490 0078 DB6A     		ldr	r3, [r3, #44]
 491              	.LVL96:
 178:../system/src/modbus_rtu/rtu_getters.c **** 		break;
 492              		.loc 1 178 0
 493 007a 3A49     		ldr	r1, .L39+16
 494              	.LVL97:
 131:../system/src/modbus_rtu/rtu_getters.c **** 
 495              		.loc 1 131 0
 496 007c 4FF0FF30 		mov	r0, #-1
 179:../system/src/modbus_rtu/rtu_getters.c **** 	case 5:
 497              		.loc 1 179 0
 498 0080 D2E7     		b	.L22
 499              	.LVL98:
 500              	.L28:
 182:../system/src/modbus_rtu/rtu_getters.c **** 		scaling_b = config->slave_5_scaling_b;
 501              		.loc 1 182 0
 502 0082 91F84220 		ldrb	r2, [r1, #66]	@ zero_extendqisi2
 503              	.LVL99:
 183:../system/src/modbus_rtu/rtu_getters.c **** 		scaling_c = config->slave_5_scaling_c;
 504              		.loc 1 183 0
 505 0086 91F84350 		ldrb	r5, [r1, #67]	@ zero_extendqisi2
 506              	.LVL100:
 184:../system/src/modbus_rtu/rtu_getters.c **** 		scaling_d = config->slave_5_scaling_d;
 507              		.loc 1 184 0
 508 008a 91F84440 		ldrb	r4, [r1, #68]	@ zero_extendqisi2
 509              	.LVL101:
 185:../system/src/modbus_rtu/rtu_getters.c **** 		last_update_timestam = rte_rtu_pool_queue.last_successfull_call_to_function[4];
 510              		.loc 1 185 0
 511 008e 91F84560 		ldrb	r6, [r1, #69]	@ zero_extendqisi2
 512              	.LVL102:
 186:../system/src/modbus_rtu/rtu_getters.c **** 		source = &rte_wx_modbus_rtu_f5;
 513              		.loc 1 186 0
 514 0092 304B     		ldr	r3, .L39
 515 0094 1B6B     		ldr	r3, [r3, #48]
 516              	.LVL103:
 187:../system/src/modbus_rtu/rtu_getters.c **** 		break;
 517              		.loc 1 187 0
 518 0096 3449     		ldr	r1, .L39+20
 519              	.LVL104:
 131:../system/src/modbus_rtu/rtu_getters.c **** 
 520              		.loc 1 131 0
 521 0098 4FF0FF30 		mov	r0, #-1
 188:../system/src/modbus_rtu/rtu_getters.c **** 	case 6:
 522              		.loc 1 188 0
 523 009c C4E7     		b	.L22
 524              	.LVL105:
 525              	.L29:
 191:../system/src/modbus_rtu/rtu_getters.c **** 		scaling_b = config->slave_6_scaling_b;
 526              		.loc 1 191 0
 527 009e 91F84E20 		ldrb	r2, [r1, #78]	@ zero_extendqisi2
 528              	.LVL106:
 192:../system/src/modbus_rtu/rtu_getters.c **** 		scaling_c = config->slave_6_scaling_c;
 529              		.loc 1 192 0
 530 00a2 91F84F50 		ldrb	r5, [r1, #79]	@ zero_extendqisi2
 531              	.LVL107:
 193:../system/src/modbus_rtu/rtu_getters.c **** 		scaling_d = config->slave_6_scaling_d;
 532              		.loc 1 193 0
 533 00a6 91F85040 		ldrb	r4, [r1, #80]	@ zero_extendqisi2
 534              	.LVL108:
 194:../system/src/modbus_rtu/rtu_getters.c **** 		last_update_timestam = rte_rtu_pool_queue.last_successfull_call_to_function[5];
 535              		.loc 1 194 0
 536 00aa 91F85160 		ldrb	r6, [r1, #81]	@ zero_extendqisi2
 537              	.LVL109:
 195:../system/src/modbus_rtu/rtu_getters.c **** 		source = &rte_wx_modbus_rtu_f6;
 538              		.loc 1 195 0
 539 00ae 294B     		ldr	r3, .L39
 540 00b0 5B6B     		ldr	r3, [r3, #52]
 541              	.LVL110:
 196:../system/src/modbus_rtu/rtu_getters.c **** 		break;
 542              		.loc 1 196 0
 543 00b2 2E49     		ldr	r1, .L39+24
 544              	.LVL111:
 131:../system/src/modbus_rtu/rtu_getters.c **** 
 545              		.loc 1 131 0
 546 00b4 4FF0FF30 		mov	r0, #-1
 197:../system/src/modbus_rtu/rtu_getters.c **** 	default:
 547              		.loc 1 197 0
 548 00b8 B6E7     		b	.L22
 549              	.LVL112:
 550              	.L32:
 142:../system/src/modbus_rtu/rtu_getters.c **** 
 551              		.loc 1 142 0
 552 00ba 0023     		movs	r3, #0
 133:../system/src/modbus_rtu/rtu_getters.c **** 
 553              		.loc 1 133 0
 554 00bc 1946     		mov	r1, r3
 555              	.LVL113:
 199:../system/src/modbus_rtu/rtu_getters.c **** 	}
 556              		.loc 1 199 0
 557 00be 0820     		movs	r0, #8
 558 00c0 B2E7     		b	.L22
 559              	.LVL114:
 560              	.L38:
 202:../system/src/modbus_rtu/rtu_getters.c **** 		// copy the raw value from modbus register data
 561              		.loc 1 202 0 discriminator 1
 562 00c2 0029     		cmp	r1, #0
 563 00c4 B3D0     		beq	.L21
 204:../system/src/modbus_rtu/rtu_getters.c **** 
 564              		.loc 1 204 0
 565 00c6 C988     		ldrh	r1, [r1, #6]
 566              	.LVL115:
 567 00c8 07EE101A 		vmov	s14, r1	@ int
 568              	.LVL116:
 208:../system/src/modbus_rtu/rtu_getters.c **** 				scaling_b * (float)raw_register_value +
 569              		.loc 1 208 0
 570 00cc F8EE476A 		vcvt.f32.u32	s13, s14
 571 00d0 07EE902A 		vmov	s15, r2	@ int
 572 00d4 F8EEE77A 		vcvt.f32.s32	s15, s15
 573 00d8 67EEA67A 		vmul.f32	s15, s15, s13
 574 00dc 66EEA77A 		vmul.f32	s15, s13, s15
 209:../system/src/modbus_rtu/rtu_getters.c **** 				scaling_c
 575              		.loc 1 209 0
 576 00e0 07EE105A 		vmov	s14, r5	@ int
 577              	.LVL117:
 578 00e4 B8EEC77A 		vcvt.f32.s32	s14, s14
 579 00e8 27EE267A 		vmul.f32	s14, s14, s13
 208:../system/src/modbus_rtu/rtu_getters.c **** 				scaling_b * (float)raw_register_value +
 580              		.loc 1 208 0
 581 00ec 77EE877A 		vadd.f32	s15, s15, s14
 209:../system/src/modbus_rtu/rtu_getters.c **** 				scaling_c
 582              		.loc 1 209 0
 583 00f0 07EE104A 		vmov	s14, r4	@ int
 584 00f4 B8EEC77A 		vcvt.f32.s32	s14, s14
 585 00f8 77EE277A 		vadd.f32	s15, s14, s15
 211:../system/src/modbus_rtu/rtu_getters.c **** 				scaling_d;
 586              		.loc 1 211 0
 587 00fc 07EE106A 		vmov	s14, r6	@ int
 588 0100 B8EEC77A 		vcvt.f32.s32	s14, s14
 207:../system/src/modbus_rtu/rtu_getters.c **** 				scaling_a * (float)raw_register_value * (float)raw_register_value +
 589              		.loc 1 207 0
 590 0104 C7EE876A 		vdiv.f32	s13, s15, s14
 591              	.LVL118:
 592              	.LBB28:
 593              	.LBB29:
 594              		.loc 2 63 0
 595 0108 194A     		ldr	r2, .L39+28
 596              	.LVL119:
 597 010a 1268     		ldr	r2, [r2]
 598              	.LBE29:
 599              	.LBE28:
 215:../system/src/modbus_rtu/rtu_getters.c **** 				physical_register_value < RTU_MIN_VALID_PRESSURE ||
 600              		.loc 1 215 0
 601 010c D31A     		subs	r3, r2, r3
 602              	.LVL120:
 603 010e 1949     		ldr	r1, .L39+32
 604              	.LVL121:
 605 0110 8B42     		cmp	r3, r1
 606 0112 19D8     		bhi	.L33
 215:../system/src/modbus_rtu/rtu_getters.c **** 				physical_register_value < RTU_MIN_VALID_PRESSURE ||
 607              		.loc 1 215 0 is_stmt 0 discriminator 1
 608 0114 DFED187A 		vldr.32	s15, .L39+36
 609 0118 F4EEE76A 		vcmpe.f32	s13, s15
 610 011c F1EE10FA 		vmrs	APSR_nzcv, FPSCR
 611 0120 14D4     		bmi	.L34
 216:../system/src/modbus_rtu/rtu_getters.c **** 				physical_register_value > RTU_MAX_VALID_PRESSURE) {
 612              		.loc 1 216 0 is_stmt 1
 613 0122 DFED167A 		vldr.32	s15, .L39+40
 614 0126 F4EEE76A 		vcmpe.f32	s13, s15
 615 012a F1EE10FA 		vmrs	APSR_nzcv, FPSCR
 616 012e 0FDC     		bgt	.L35
 221:../system/src/modbus_rtu/rtu_getters.c **** 				retval = MODBUS_RET_DEGRADED;
 617              		.loc 1 221 0
 618 0130 134B     		ldr	r3, .L39+44
 619 0132 1B68     		ldr	r3, [r3]
 620 0134 D21A     		subs	r2, r2, r3
 621 0136 134B     		ldr	r3, .L39+48
 622 0138 9A42     		cmp	r2, r3
 623 013a 03D8     		bhi	.L36
 222:../system/src/modbus_rtu/rtu_getters.c **** 			}
 624              		.loc 1 222 0
 625 013c 0620     		movs	r0, #6
 626              	.LVL122:
 627              	.L31:
 228:../system/src/modbus_rtu/rtu_getters.c **** 		}
 628              		.loc 1 228 0
 629 013e C7ED006A 		vstr.32	s13, [r7]
 630 0142 74E7     		b	.L21
 631              	.L36:
 225:../system/src/modbus_rtu/rtu_getters.c **** 			}
 632              		.loc 1 225 0
 633 0144 0020     		movs	r0, #0
 634              	.LVL123:
 635 0146 FAE7     		b	.L31
 636              	.LVL124:
 637              	.L33:
 218:../system/src/modbus_rtu/rtu_getters.c **** 		}
 638              		.loc 1 218 0
 639 0148 0520     		movs	r0, #5
 640              	.LVL125:
 641 014a 70E7     		b	.L21
 642              	.LVL126:
 643              	.L34:
 644 014c 0520     		movs	r0, #5
 645              	.LVL127:
 646 014e 6EE7     		b	.L21
 647              	.LVL128:
 648              	.L35:
 649 0150 0520     		movs	r0, #5
 650              	.LVL129:
 232:../system/src/modbus_rtu/rtu_getters.c **** }
 651              		.loc 1 232 0
 652 0152 6CE7     		b	.L21
 653              	.L40:
 654              		.align	2
 655              	.L39:
 656 0154 00000000 		.word	rte_rtu_pool_queue
 657 0158 00000000 		.word	rte_wx_modbus_rtu_f1
 658 015c 00000000 		.word	rte_wx_modbus_rtu_f2
 659 0160 00000000 		.word	rte_wx_modbus_rtu_f3
 660 0164 00000000 		.word	rte_wx_modbus_rtu_f4
 661 0168 00000000 		.word	rte_wx_modbus_rtu_f5
 662 016c 00000000 		.word	rte_wx_modbus_rtu_f6
 663 0170 00000000 		.word	master_time
 664 0174 E0930400 		.word	300000
 665 0178 00006144 		.word	1147207680
 666 017c 00808944 		.word	1149861888
 667 0180 00000000 		.word	rte_rtu_last_modbus_rx_error_timestamp
 668 0184 DF930400 		.word	299999
 669              		.cfi_endproc
 670              	.LFE402:
 672              		.section	.text.rtu_get_wind_direction,"ax",%progbits
 673              		.align	1
 674              		.global	rtu_get_wind_direction
 675              		.syntax unified
 676              		.thumb
 677              		.thumb_func
 678              		.fpu fpv4-sp-d16
 680              	rtu_get_wind_direction:
 681              	.LFB403:
 234:../system/src/modbus_rtu/rtu_getters.c **** 
 235:../system/src/modbus_rtu/rtu_getters.c **** int32_t rtu_get_wind_direction(uint16_t* out, const config_data_rtu_t * const config) {
 682              		.loc 1 235 0
 683              		.cfi_startproc
 684              		@ args = 0, pretend = 0, frame = 0
 685              		@ frame_needed = 0, uses_anonymous_args = 0
 686              		@ link register save eliminated.
 687              	.LVL130:
 688 0000 F0B4     		push	{r4, r5, r6, r7}
 689              		.cfi_def_cfa_offset 16
 690              		.cfi_offset 4, -16
 691              		.cfi_offset 5, -12
 692              		.cfi_offset 6, -8
 693              		.cfi_offset 7, -4
 694 0002 0446     		mov	r4, r0
 695              	.LVL131:
 236:../system/src/modbus_rtu/rtu_getters.c **** 
 237:../system/src/modbus_rtu/rtu_getters.c **** 	int32_t retval = MODBUS_RET_UNINITIALIZED;
 238:../system/src/modbus_rtu/rtu_getters.c **** 
 239:../system/src/modbus_rtu/rtu_getters.c **** 	rtu_register_data_t* source = 0;
 240:../system/src/modbus_rtu/rtu_getters.c **** 
 241:../system/src/modbus_rtu/rtu_getters.c **** 	uint16_t raw_register_value = 0, physical_register_value = 0;
 242:../system/src/modbus_rtu/rtu_getters.c **** 
 243:../system/src/modbus_rtu/rtu_getters.c **** 	uint16_t scaling_a, scaling_b, scaling_c, scaling_d;
 244:../system/src/modbus_rtu/rtu_getters.c **** 
 245:../system/src/modbus_rtu/rtu_getters.c **** 	// the timestamp of last update of the register value
 246:../system/src/modbus_rtu/rtu_getters.c **** 	uint32_t last_update_timestam = 0;
 247:../system/src/modbus_rtu/rtu_getters.c **** 
 248:../system/src/modbus_rtu/rtu_getters.c **** 	switch (config->wind_direction_source) {
 696              		.loc 1 248 0
 697 0004 0B7A     		ldrb	r3, [r1, #8]	@ zero_extendqisi2
 698 0006 013B     		subs	r3, r3, #1
 699 0008 052B     		cmp	r3, #5
 700 000a 58D8     		bhi	.L52
 701 000c DFE803F0 		tbb	[pc, r3]
 702              	.LVL132:
 703              	.L44:
 704 0010 03       		.byte	(.L43-.L44)/2
 705 0011 12       		.byte	(.L45-.L44)/2
 706 0012 1F       		.byte	(.L46-.L44)/2
 707 0013 2D       		.byte	(.L47-.L44)/2
 708 0014 3B       		.byte	(.L48-.L44)/2
 709 0015 49       		.byte	(.L49-.L44)/2
 710              		.p2align 1
 711              	.L43:
 249:../system/src/modbus_rtu/rtu_getters.c **** 	case 1:
 250:../system/src/modbus_rtu/rtu_getters.c **** 		source = &rte_wx_modbus_rtu_f1;
 251:../system/src/modbus_rtu/rtu_getters.c **** 		scaling_a = config->slave_1_scaling_a;
 712              		.loc 1 251 0
 713 0016 8A7C     		ldrb	r2, [r1, #18]	@ zero_extendqisi2
 714              	.LVL133:
 252:../system/src/modbus_rtu/rtu_getters.c **** 		scaling_b = config->slave_1_scaling_b;
 715              		.loc 1 252 0
 716 0018 91F813C0 		ldrb	ip, [r1, #19]	@ zero_extendqisi2
 717              	.LVL134:
 253:../system/src/modbus_rtu/rtu_getters.c **** 		scaling_c = config->slave_1_scaling_c;
 718              		.loc 1 253 0
 719 001c 0F7D     		ldrb	r7, [r1, #20]	@ zero_extendqisi2
 720              	.LVL135:
 254:../system/src/modbus_rtu/rtu_getters.c **** 		scaling_d = config->slave_1_scaling_d;
 721              		.loc 1 254 0
 722 001e 4D7D     		ldrb	r5, [r1, #21]	@ zero_extendqisi2
 723              	.LVL136:
 255:../system/src/modbus_rtu/rtu_getters.c **** 		last_update_timestam = rte_rtu_pool_queue.last_successfull_call_to_function[0];
 724              		.loc 1 255 0
 725 0020 3B4B     		ldr	r3, .L58
 726 0022 196A     		ldr	r1, [r3, #32]
 727              	.LVL137:
 250:../system/src/modbus_rtu/rtu_getters.c **** 		scaling_a = config->slave_1_scaling_a;
 728              		.loc 1 250 0
 729 0024 3B4E     		ldr	r6, .L58+4
 237:../system/src/modbus_rtu/rtu_getters.c **** 
 730              		.loc 1 237 0
 731 0026 4FF0FF30 		mov	r0, #-1
 732              	.LVL138:
 733              	.L42:
 256:../system/src/modbus_rtu/rtu_getters.c **** 		break;
 257:../system/src/modbus_rtu/rtu_getters.c **** 	case 2:
 258:../system/src/modbus_rtu/rtu_getters.c **** 		source = &rte_wx_modbus_rtu_f2;
 259:../system/src/modbus_rtu/rtu_getters.c **** 		scaling_a = config->slave_2_scaling_a;
 260:../system/src/modbus_rtu/rtu_getters.c **** 		scaling_b = config->slave_2_scaling_b;
 261:../system/src/modbus_rtu/rtu_getters.c **** 		scaling_c = config->slave_2_scaling_c;
 262:../system/src/modbus_rtu/rtu_getters.c **** 		scaling_d = config->slave_2_scaling_d;
 263:../system/src/modbus_rtu/rtu_getters.c **** 		last_update_timestam = rte_rtu_pool_queue.last_successfull_call_to_function[1];
 264:../system/src/modbus_rtu/rtu_getters.c **** 		source = &rte_wx_modbus_rtu_f2;
 265:../system/src/modbus_rtu/rtu_getters.c **** 		break;
 266:../system/src/modbus_rtu/rtu_getters.c **** 	case 3:
 267:../system/src/modbus_rtu/rtu_getters.c **** 		source = &rte_wx_modbus_rtu_f3;
 268:../system/src/modbus_rtu/rtu_getters.c **** 		scaling_a = config->slave_3_scaling_a;
 269:../system/src/modbus_rtu/rtu_getters.c **** 		scaling_b = config->slave_3_scaling_b;
 270:../system/src/modbus_rtu/rtu_getters.c **** 		scaling_c = config->slave_3_scaling_c;
 271:../system/src/modbus_rtu/rtu_getters.c **** 		scaling_d = config->slave_3_scaling_d;
 272:../system/src/modbus_rtu/rtu_getters.c **** 		last_update_timestam = rte_rtu_pool_queue.last_successfull_call_to_function[2];
 273:../system/src/modbus_rtu/rtu_getters.c **** 		source = &rte_wx_modbus_rtu_f3;
 274:../system/src/modbus_rtu/rtu_getters.c **** 		break;
 275:../system/src/modbus_rtu/rtu_getters.c **** 	case 4:
 276:../system/src/modbus_rtu/rtu_getters.c **** 		source = &rte_wx_modbus_rtu_f4;
 277:../system/src/modbus_rtu/rtu_getters.c **** 		scaling_a = config->slave_4_scaling_a;
 278:../system/src/modbus_rtu/rtu_getters.c **** 		scaling_b = config->slave_4_scaling_b;
 279:../system/src/modbus_rtu/rtu_getters.c **** 		scaling_c = config->slave_4_scaling_c;
 280:../system/src/modbus_rtu/rtu_getters.c **** 		scaling_d = config->slave_4_scaling_d;
 281:../system/src/modbus_rtu/rtu_getters.c **** 		last_update_timestam = rte_rtu_pool_queue.last_successfull_call_to_function[3];
 282:../system/src/modbus_rtu/rtu_getters.c **** 		source = &rte_wx_modbus_rtu_f4;
 283:../system/src/modbus_rtu/rtu_getters.c **** 		break;
 284:../system/src/modbus_rtu/rtu_getters.c **** 	case 5:
 285:../system/src/modbus_rtu/rtu_getters.c **** 		source = &rte_wx_modbus_rtu_f5;
 286:../system/src/modbus_rtu/rtu_getters.c **** 		scaling_a = config->slave_5_scaling_a;
 287:../system/src/modbus_rtu/rtu_getters.c **** 		scaling_b = config->slave_5_scaling_b;
 288:../system/src/modbus_rtu/rtu_getters.c **** 		scaling_c = config->slave_5_scaling_c;
 289:../system/src/modbus_rtu/rtu_getters.c **** 		scaling_d = config->slave_5_scaling_d;
 290:../system/src/modbus_rtu/rtu_getters.c **** 		last_update_timestam = rte_rtu_pool_queue.last_successfull_call_to_function[4];
 291:../system/src/modbus_rtu/rtu_getters.c **** 		source = &rte_wx_modbus_rtu_f5;
 292:../system/src/modbus_rtu/rtu_getters.c **** 		break;
 293:../system/src/modbus_rtu/rtu_getters.c **** 	case 6:
 294:../system/src/modbus_rtu/rtu_getters.c **** 		source = &rte_wx_modbus_rtu_f6;
 295:../system/src/modbus_rtu/rtu_getters.c **** 		scaling_a = config->slave_6_scaling_a;
 296:../system/src/modbus_rtu/rtu_getters.c **** 		scaling_b = config->slave_6_scaling_b;
 297:../system/src/modbus_rtu/rtu_getters.c **** 		scaling_c = config->slave_6_scaling_c;
 298:../system/src/modbus_rtu/rtu_getters.c **** 		scaling_d = config->slave_6_scaling_d;
 299:../system/src/modbus_rtu/rtu_getters.c **** 		last_update_timestam = rte_rtu_pool_queue.last_successfull_call_to_function[5];
 300:../system/src/modbus_rtu/rtu_getters.c **** 		source = &rte_wx_modbus_rtu_f6;
 301:../system/src/modbus_rtu/rtu_getters.c **** 		break;
 302:../system/src/modbus_rtu/rtu_getters.c **** 	default:
 303:../system/src/modbus_rtu/rtu_getters.c **** 		retval = MODBUS_RET_NOT_CONFIGURED;
 304:../system/src/modbus_rtu/rtu_getters.c **** 	}
 305:../system/src/modbus_rtu/rtu_getters.c **** 
 306:../system/src/modbus_rtu/rtu_getters.c **** 	if (retval == MODBUS_RET_UNINITIALIZED && source != 0) {
 734              		.loc 1 306 0
 735 002a B0F1FF3F 		cmp	r0, #-1
 736 002e 4AD0     		beq	.L57
 737              	.LVL139:
 738              	.L41:
 307:../system/src/modbus_rtu/rtu_getters.c **** 		// copy the raw value from modbus register data
 308:../system/src/modbus_rtu/rtu_getters.c **** 		raw_register_value = source->registers_values[0];
 309:../system/src/modbus_rtu/rtu_getters.c **** 
 310:../system/src/modbus_rtu/rtu_getters.c **** 		// rescale the raw value to target value
 311:../system/src/modbus_rtu/rtu_getters.c **** 		physical_register_value = 	(uint16_t)(
 312:../system/src/modbus_rtu/rtu_getters.c **** 							scaling_a * (uint16_t)raw_register_value * (uint16_t)raw_register_value +
 313:../system/src/modbus_rtu/rtu_getters.c **** 							scaling_b * (uint16_t)raw_register_value +
 314:../system/src/modbus_rtu/rtu_getters.c **** 							scaling_c
 315:../system/src/modbus_rtu/rtu_getters.c **** 							) /
 316:../system/src/modbus_rtu/rtu_getters.c **** 							scaling_d;
 317:../system/src/modbus_rtu/rtu_getters.c **** 
 318:../system/src/modbus_rtu/rtu_getters.c **** 		// check when the value has been updated
 319:../system/src/modbus_rtu/rtu_getters.c **** 		if (main_get_master_time() - last_update_timestam > RTU_MAXIMUM_VALUE_AGE ||
 320:../system/src/modbus_rtu/rtu_getters.c **** 			physical_register_value > 360) {
 321:../system/src/modbus_rtu/rtu_getters.c **** 			retval = MODBUS_RET_NOT_AVALIABLE;
 322:../system/src/modbus_rtu/rtu_getters.c **** 		}
 323:../system/src/modbus_rtu/rtu_getters.c **** 		else {
 324:../system/src/modbus_rtu/rtu_getters.c **** 			if (main_get_master_time() - rte_rtu_last_modbus_rx_error_timestamp < RTU_MAXIMUM_VALUE_AGE) {
 325:../system/src/modbus_rtu/rtu_getters.c **** 				retval = MODBUS_RET_DEGRADED;
 326:../system/src/modbus_rtu/rtu_getters.c **** 			}
 327:../system/src/modbus_rtu/rtu_getters.c **** 			else {
 328:../system/src/modbus_rtu/rtu_getters.c **** 				retval = MODBUS_RET_OK;
 329:../system/src/modbus_rtu/rtu_getters.c **** 			}
 330:../system/src/modbus_rtu/rtu_getters.c **** 
 331:../system/src/modbus_rtu/rtu_getters.c **** 			*out = physical_register_value;
 332:../system/src/modbus_rtu/rtu_getters.c **** 		}
 333:../system/src/modbus_rtu/rtu_getters.c **** 	}
 334:../system/src/modbus_rtu/rtu_getters.c **** 
 335:../system/src/modbus_rtu/rtu_getters.c **** 	return retval;
 336:../system/src/modbus_rtu/rtu_getters.c **** }
 739              		.loc 1 336 0
 740 0030 F0BC     		pop	{r4, r5, r6, r7}
 741              		.cfi_remember_state
 742              		.cfi_restore 7
 743              		.cfi_restore 6
 744              		.cfi_restore 5
 745              		.cfi_restore 4
 746              		.cfi_def_cfa_offset 0
 747              	.LVL140:
 748 0032 7047     		bx	lr
 749              	.LVL141:
 750              	.L45:
 751              		.cfi_restore_state
 259:../system/src/modbus_rtu/rtu_getters.c **** 		scaling_b = config->slave_2_scaling_b;
 752              		.loc 1 259 0
 753 0034 8A7F     		ldrb	r2, [r1, #30]	@ zero_extendqisi2
 754              	.LVL142:
 260:../system/src/modbus_rtu/rtu_getters.c **** 		scaling_c = config->slave_2_scaling_c;
 755              		.loc 1 260 0
 756 0036 91F81FC0 		ldrb	ip, [r1, #31]	@ zero_extendqisi2
 757              	.LVL143:
 261:../system/src/modbus_rtu/rtu_getters.c **** 		scaling_d = config->slave_2_scaling_d;
 758              		.loc 1 261 0
 759 003a 91F82070 		ldrb	r7, [r1, #32]	@ zero_extendqisi2
 760              	.LVL144:
 262:../system/src/modbus_rtu/rtu_getters.c **** 		last_update_timestam = rte_rtu_pool_queue.last_successfull_call_to_function[1];
 761              		.loc 1 262 0
 762 003e 91F82150 		ldrb	r5, [r1, #33]	@ zero_extendqisi2
 763              	.LVL145:
 263:../system/src/modbus_rtu/rtu_getters.c **** 		source = &rte_wx_modbus_rtu_f2;
 764              		.loc 1 263 0
 765 0042 334B     		ldr	r3, .L58
 766 0044 596A     		ldr	r1, [r3, #36]
 767              	.LVL146:
 264:../system/src/modbus_rtu/rtu_getters.c **** 		break;
 768              		.loc 1 264 0
 769 0046 344E     		ldr	r6, .L58+8
 237:../system/src/modbus_rtu/rtu_getters.c **** 
 770              		.loc 1 237 0
 771 0048 4FF0FF30 		mov	r0, #-1
 265:../system/src/modbus_rtu/rtu_getters.c **** 	case 3:
 772              		.loc 1 265 0
 773 004c EDE7     		b	.L42
 774              	.LVL147:
 775              	.L46:
 268:../system/src/modbus_rtu/rtu_getters.c **** 		scaling_b = config->slave_3_scaling_b;
 776              		.loc 1 268 0
 777 004e 91F82A20 		ldrb	r2, [r1, #42]	@ zero_extendqisi2
 778              	.LVL148:
 269:../system/src/modbus_rtu/rtu_getters.c **** 		scaling_c = config->slave_3_scaling_c;
 779              		.loc 1 269 0
 780 0052 91F82BC0 		ldrb	ip, [r1, #43]	@ zero_extendqisi2
 781              	.LVL149:
 270:../system/src/modbus_rtu/rtu_getters.c **** 		scaling_d = config->slave_3_scaling_d;
 782              		.loc 1 270 0
 783 0056 91F82C70 		ldrb	r7, [r1, #44]	@ zero_extendqisi2
 784              	.LVL150:
 271:../system/src/modbus_rtu/rtu_getters.c **** 		last_update_timestam = rte_rtu_pool_queue.last_successfull_call_to_function[2];
 785              		.loc 1 271 0
 786 005a 91F82D50 		ldrb	r5, [r1, #45]	@ zero_extendqisi2
 787              	.LVL151:
 272:../system/src/modbus_rtu/rtu_getters.c **** 		source = &rte_wx_modbus_rtu_f3;
 788              		.loc 1 272 0
 789 005e 2C4B     		ldr	r3, .L58
 790 0060 996A     		ldr	r1, [r3, #40]
 791              	.LVL152:
 273:../system/src/modbus_rtu/rtu_getters.c **** 		break;
 792              		.loc 1 273 0
 793 0062 2E4E     		ldr	r6, .L58+12
 237:../system/src/modbus_rtu/rtu_getters.c **** 
 794              		.loc 1 237 0
 795 0064 4FF0FF30 		mov	r0, #-1
 274:../system/src/modbus_rtu/rtu_getters.c **** 	case 4:
 796              		.loc 1 274 0
 797 0068 DFE7     		b	.L42
 798              	.LVL153:
 799              	.L47:
 277:../system/src/modbus_rtu/rtu_getters.c **** 		scaling_b = config->slave_4_scaling_b;
 800              		.loc 1 277 0
 801 006a 91F83620 		ldrb	r2, [r1, #54]	@ zero_extendqisi2
 802              	.LVL154:
 278:../system/src/modbus_rtu/rtu_getters.c **** 		scaling_c = config->slave_4_scaling_c;
 803              		.loc 1 278 0
 804 006e 91F837C0 		ldrb	ip, [r1, #55]	@ zero_extendqisi2
 805              	.LVL155:
 279:../system/src/modbus_rtu/rtu_getters.c **** 		scaling_d = config->slave_4_scaling_d;
 806              		.loc 1 279 0
 807 0072 91F83870 		ldrb	r7, [r1, #56]	@ zero_extendqisi2
 808              	.LVL156:
 280:../system/src/modbus_rtu/rtu_getters.c **** 		last_update_timestam = rte_rtu_pool_queue.last_successfull_call_to_function[3];
 809              		.loc 1 280 0
 810 0076 91F83950 		ldrb	r5, [r1, #57]	@ zero_extendqisi2
 811              	.LVL157:
 281:../system/src/modbus_rtu/rtu_getters.c **** 		source = &rte_wx_modbus_rtu_f4;
 812              		.loc 1 281 0
 813 007a 254B     		ldr	r3, .L58
 814 007c D96A     		ldr	r1, [r3, #44]
 815              	.LVL158:
 282:../system/src/modbus_rtu/rtu_getters.c **** 		break;
 816              		.loc 1 282 0
 817 007e 284E     		ldr	r6, .L58+16
 237:../system/src/modbus_rtu/rtu_getters.c **** 
 818              		.loc 1 237 0
 819 0080 4FF0FF30 		mov	r0, #-1
 283:../system/src/modbus_rtu/rtu_getters.c **** 	case 5:
 820              		.loc 1 283 0
 821 0084 D1E7     		b	.L42
 822              	.LVL159:
 823              	.L48:
 286:../system/src/modbus_rtu/rtu_getters.c **** 		scaling_b = config->slave_5_scaling_b;
 824              		.loc 1 286 0
 825 0086 91F84220 		ldrb	r2, [r1, #66]	@ zero_extendqisi2
 826              	.LVL160:
 287:../system/src/modbus_rtu/rtu_getters.c **** 		scaling_c = config->slave_5_scaling_c;
 827              		.loc 1 287 0
 828 008a 91F843C0 		ldrb	ip, [r1, #67]	@ zero_extendqisi2
 829              	.LVL161:
 288:../system/src/modbus_rtu/rtu_getters.c **** 		scaling_d = config->slave_5_scaling_d;
 830              		.loc 1 288 0
 831 008e 91F84470 		ldrb	r7, [r1, #68]	@ zero_extendqisi2
 832              	.LVL162:
 289:../system/src/modbus_rtu/rtu_getters.c **** 		last_update_timestam = rte_rtu_pool_queue.last_successfull_call_to_function[4];
 833              		.loc 1 289 0
 834 0092 91F84550 		ldrb	r5, [r1, #69]	@ zero_extendqisi2
 835              	.LVL163:
 290:../system/src/modbus_rtu/rtu_getters.c **** 		source = &rte_wx_modbus_rtu_f5;
 836              		.loc 1 290 0
 837 0096 1E4B     		ldr	r3, .L58
 838 0098 196B     		ldr	r1, [r3, #48]
 839              	.LVL164:
 291:../system/src/modbus_rtu/rtu_getters.c **** 		break;
 840              		.loc 1 291 0
 841 009a 224E     		ldr	r6, .L58+20
 237:../system/src/modbus_rtu/rtu_getters.c **** 
 842              		.loc 1 237 0
 843 009c 4FF0FF30 		mov	r0, #-1
 292:../system/src/modbus_rtu/rtu_getters.c **** 	case 6:
 844              		.loc 1 292 0
 845 00a0 C3E7     		b	.L42
 846              	.LVL165:
 847              	.L49:
 295:../system/src/modbus_rtu/rtu_getters.c **** 		scaling_b = config->slave_6_scaling_b;
 848              		.loc 1 295 0
 849 00a2 91F84E20 		ldrb	r2, [r1, #78]	@ zero_extendqisi2
 850              	.LVL166:
 296:../system/src/modbus_rtu/rtu_getters.c **** 		scaling_c = config->slave_6_scaling_c;
 851              		.loc 1 296 0
 852 00a6 91F84FC0 		ldrb	ip, [r1, #79]	@ zero_extendqisi2
 853              	.LVL167:
 297:../system/src/modbus_rtu/rtu_getters.c **** 		scaling_d = config->slave_6_scaling_d;
 854              		.loc 1 297 0
 855 00aa 91F85070 		ldrb	r7, [r1, #80]	@ zero_extendqisi2
 856              	.LVL168:
 298:../system/src/modbus_rtu/rtu_getters.c **** 		last_update_timestam = rte_rtu_pool_queue.last_successfull_call_to_function[5];
 857              		.loc 1 298 0
 858 00ae 91F85150 		ldrb	r5, [r1, #81]	@ zero_extendqisi2
 859              	.LVL169:
 299:../system/src/modbus_rtu/rtu_getters.c **** 		source = &rte_wx_modbus_rtu_f6;
 860              		.loc 1 299 0
 861 00b2 174B     		ldr	r3, .L58
 862 00b4 596B     		ldr	r1, [r3, #52]
 863              	.LVL170:
 300:../system/src/modbus_rtu/rtu_getters.c **** 		break;
 864              		.loc 1 300 0
 865 00b6 1C4E     		ldr	r6, .L58+24
 237:../system/src/modbus_rtu/rtu_getters.c **** 
 866              		.loc 1 237 0
 867 00b8 4FF0FF30 		mov	r0, #-1
 301:../system/src/modbus_rtu/rtu_getters.c **** 	default:
 868              		.loc 1 301 0
 869 00bc B5E7     		b	.L42
 870              	.LVL171:
 871              	.L52:
 246:../system/src/modbus_rtu/rtu_getters.c **** 
 872              		.loc 1 246 0
 873 00be 0021     		movs	r1, #0
 874              	.LVL172:
 239:../system/src/modbus_rtu/rtu_getters.c **** 
 875              		.loc 1 239 0
 876 00c0 0E46     		mov	r6, r1
 303:../system/src/modbus_rtu/rtu_getters.c **** 	}
 877              		.loc 1 303 0
 878 00c2 0820     		movs	r0, #8
 879 00c4 B1E7     		b	.L42
 880              	.LVL173:
 881              	.L57:
 306:../system/src/modbus_rtu/rtu_getters.c **** 		// copy the raw value from modbus register data
 882              		.loc 1 306 0 discriminator 1
 883 00c6 002E     		cmp	r6, #0
 884 00c8 B2D0     		beq	.L41
 308:../system/src/modbus_rtu/rtu_getters.c **** 
 885              		.loc 1 308 0
 886 00ca F088     		ldrh	r0, [r6, #6]
 887              	.LVL174:
 312:../system/src/modbus_rtu/rtu_getters.c **** 							scaling_b * (uint16_t)raw_register_value +
 888              		.loc 1 312 0
 889 00cc 12FB00C3 		smlabb	r3, r2, r0, ip
 890 00d0 13FB00F3 		smulbb	r3, r3, r0
 311:../system/src/modbus_rtu/rtu_getters.c **** 							scaling_a * (uint16_t)raw_register_value * (uint16_t)raw_register_value +
 891              		.loc 1 311 0
 892 00d4 17FA83F3 		uxtah	r3, r7, r3
 893 00d8 9BB2     		uxth	r3, r3
 894 00da B3FBF5F3 		udiv	r3, r3, r5
 895              	.LVL175:
 896              	.LBB30:
 897              	.LBB31:
 898              		.loc 2 63 0
 899 00de 134A     		ldr	r2, .L58+28
 900              	.LVL176:
 901 00e0 1268     		ldr	r2, [r2]
 902              	.LBE31:
 903              	.LBE30:
 319:../system/src/modbus_rtu/rtu_getters.c **** 			physical_register_value > 360) {
 904              		.loc 1 319 0
 905 00e2 511A     		subs	r1, r2, r1
 906              	.LVL177:
 907 00e4 1248     		ldr	r0, .L58+32
 908              	.LVL178:
 909 00e6 8142     		cmp	r1, r0
 910 00e8 0DD8     		bhi	.L53
 319:../system/src/modbus_rtu/rtu_getters.c **** 			physical_register_value > 360) {
 911              		.loc 1 319 0 is_stmt 0 discriminator 1
 912 00ea B3F5B47F 		cmp	r3, #360
 913 00ee 0CD8     		bhi	.L54
 324:../system/src/modbus_rtu/rtu_getters.c **** 				retval = MODBUS_RET_DEGRADED;
 914              		.loc 1 324 0 is_stmt 1
 915 00f0 1049     		ldr	r1, .L58+36
 916 00f2 0968     		ldr	r1, [r1]
 917 00f4 521A     		subs	r2, r2, r1
 918 00f6 1049     		ldr	r1, .L58+40
 919 00f8 8A42     		cmp	r2, r1
 920 00fa 02D8     		bhi	.L55
 325:../system/src/modbus_rtu/rtu_getters.c **** 			}
 921              		.loc 1 325 0
 922 00fc 0620     		movs	r0, #6
 923              	.L51:
 924              	.LVL179:
 331:../system/src/modbus_rtu/rtu_getters.c **** 		}
 925              		.loc 1 331 0
 926 00fe 2380     		strh	r3, [r4]	@ movhi
 927              	.LVL180:
 928 0100 96E7     		b	.L41
 929              	.LVL181:
 930              	.L55:
 328:../system/src/modbus_rtu/rtu_getters.c **** 			}
 931              		.loc 1 328 0
 932 0102 0020     		movs	r0, #0
 933 0104 FBE7     		b	.L51
 934              	.L53:
 321:../system/src/modbus_rtu/rtu_getters.c **** 		}
 935              		.loc 1 321 0
 936 0106 0520     		movs	r0, #5
 937 0108 92E7     		b	.L41
 938              	.L54:
 939 010a 0520     		movs	r0, #5
 940              	.LVL182:
 335:../system/src/modbus_rtu/rtu_getters.c **** }
 941              		.loc 1 335 0
 942 010c 90E7     		b	.L41
 943              	.L59:
 944 010e 00BF     		.align	2
 945              	.L58:
 946 0110 00000000 		.word	rte_rtu_pool_queue
 947 0114 00000000 		.word	rte_wx_modbus_rtu_f1
 948 0118 00000000 		.word	rte_wx_modbus_rtu_f2
 949 011c 00000000 		.word	rte_wx_modbus_rtu_f3
 950 0120 00000000 		.word	rte_wx_modbus_rtu_f4
 951 0124 00000000 		.word	rte_wx_modbus_rtu_f5
 952 0128 00000000 		.word	rte_wx_modbus_rtu_f6
 953 012c 00000000 		.word	master_time
 954 0130 E0930400 		.word	300000
 955 0134 00000000 		.word	rte_rtu_last_modbus_rx_error_timestamp
 956 0138 DF930400 		.word	299999
 957              		.cfi_endproc
 958              	.LFE403:
 960              		.section	.text.rtu_get_wind_speed,"ax",%progbits
 961              		.align	1
 962              		.global	rtu_get_wind_speed
 963              		.syntax unified
 964              		.thumb
 965              		.thumb_func
 966              		.fpu fpv4-sp-d16
 968              	rtu_get_wind_speed:
 969              	.LFB404:
 337:../system/src/modbus_rtu/rtu_getters.c **** 
 338:../system/src/modbus_rtu/rtu_getters.c **** int32_t rtu_get_wind_speed(uint16_t* out, const config_data_rtu_t * const config) {
 970              		.loc 1 338 0
 971              		.cfi_startproc
 972              		@ args = 0, pretend = 0, frame = 0
 973              		@ frame_needed = 0, uses_anonymous_args = 0
 974              		@ link register save eliminated.
 975              	.LVL183:
 976 0000 F0B4     		push	{r4, r5, r6, r7}
 977              		.cfi_def_cfa_offset 16
 978              		.cfi_offset 4, -16
 979              		.cfi_offset 5, -12
 980              		.cfi_offset 6, -8
 981              		.cfi_offset 7, -4
 982 0002 0446     		mov	r4, r0
 983              	.LVL184:
 339:../system/src/modbus_rtu/rtu_getters.c **** 
 340:../system/src/modbus_rtu/rtu_getters.c **** 	int32_t retval = MODBUS_RET_UNINITIALIZED;
 341:../system/src/modbus_rtu/rtu_getters.c **** 
 342:../system/src/modbus_rtu/rtu_getters.c **** 	rtu_register_data_t* source = 0;
 343:../system/src/modbus_rtu/rtu_getters.c **** 
 344:../system/src/modbus_rtu/rtu_getters.c **** 	uint16_t raw_register_value = 0, physical_register_value = 0;
 345:../system/src/modbus_rtu/rtu_getters.c **** 
 346:../system/src/modbus_rtu/rtu_getters.c **** 	uint16_t scaling_a, scaling_b, scaling_c, scaling_d;
 347:../system/src/modbus_rtu/rtu_getters.c **** 
 348:../system/src/modbus_rtu/rtu_getters.c **** 	// the timestamp of last update of the register value
 349:../system/src/modbus_rtu/rtu_getters.c **** 	uint32_t last_update_timestam = 0;
 350:../system/src/modbus_rtu/rtu_getters.c **** 
 351:../system/src/modbus_rtu/rtu_getters.c **** 	switch (config->wind_speed_source) {
 984              		.loc 1 351 0
 985 0004 4B7A     		ldrb	r3, [r1, #9]	@ zero_extendqisi2
 986 0006 013B     		subs	r3, r3, #1
 987 0008 052B     		cmp	r3, #5
 988 000a 56D8     		bhi	.L71
 989 000c DFE803F0 		tbb	[pc, r3]
 990              	.LVL185:
 991              	.L63:
 992 0010 03       		.byte	(.L62-.L63)/2
 993 0011 11       		.byte	(.L64-.L63)/2
 994 0012 1D       		.byte	(.L65-.L63)/2
 995 0013 2B       		.byte	(.L66-.L63)/2
 996 0014 39       		.byte	(.L67-.L63)/2
 997 0015 47       		.byte	(.L68-.L63)/2
 998              		.p2align 1
 999              	.L62:
 352:../system/src/modbus_rtu/rtu_getters.c **** 	case 1:
 353:../system/src/modbus_rtu/rtu_getters.c **** 		source = &rte_wx_modbus_rtu_f1;
 354:../system/src/modbus_rtu/rtu_getters.c **** 		scaling_a = config->slave_1_scaling_a;
 1000              		.loc 1 354 0
 1001 0016 8A7C     		ldrb	r2, [r1, #18]	@ zero_extendqisi2
 1002              	.LVL186:
 355:../system/src/modbus_rtu/rtu_getters.c **** 		scaling_b = config->slave_1_scaling_b;
 1003              		.loc 1 355 0
 1004 0018 CF7C     		ldrb	r7, [r1, #19]	@ zero_extendqisi2
 1005              	.LVL187:
 356:../system/src/modbus_rtu/rtu_getters.c **** 		scaling_c = config->slave_1_scaling_c;
 1006              		.loc 1 356 0
 1007 001a 0E7D     		ldrb	r6, [r1, #20]	@ zero_extendqisi2
 1008              	.LVL188:
 357:../system/src/modbus_rtu/rtu_getters.c **** 		scaling_d = config->slave_1_scaling_d;
 1009              		.loc 1 357 0
 1010 001c 4D7D     		ldrb	r5, [r1, #21]	@ zero_extendqisi2
 1011              	.LVL189:
 358:../system/src/modbus_rtu/rtu_getters.c **** 		last_update_timestam = rte_rtu_pool_queue.last_successfull_call_to_function[0];
 1012              		.loc 1 358 0
 1013 001e 3B4B     		ldr	r3, .L77
 1014 0020 196A     		ldr	r1, [r3, #32]
 1015              	.LVL190:
 353:../system/src/modbus_rtu/rtu_getters.c **** 		scaling_a = config->slave_1_scaling_a;
 1016              		.loc 1 353 0
 1017 0022 3B4B     		ldr	r3, .L77+4
 340:../system/src/modbus_rtu/rtu_getters.c **** 
 1018              		.loc 1 340 0
 1019 0024 4FF0FF30 		mov	r0, #-1
 1020              	.LVL191:
 1021              	.L61:
 359:../system/src/modbus_rtu/rtu_getters.c **** 		break;
 360:../system/src/modbus_rtu/rtu_getters.c **** 	case 2:
 361:../system/src/modbus_rtu/rtu_getters.c **** 		source = &rte_wx_modbus_rtu_f2;
 362:../system/src/modbus_rtu/rtu_getters.c **** 		scaling_a = config->slave_2_scaling_a;
 363:../system/src/modbus_rtu/rtu_getters.c **** 		scaling_b = config->slave_2_scaling_b;
 364:../system/src/modbus_rtu/rtu_getters.c **** 		scaling_c = config->slave_2_scaling_c;
 365:../system/src/modbus_rtu/rtu_getters.c **** 		scaling_d = config->slave_2_scaling_d;
 366:../system/src/modbus_rtu/rtu_getters.c **** 		last_update_timestam = rte_rtu_pool_queue.last_successfull_call_to_function[1];
 367:../system/src/modbus_rtu/rtu_getters.c **** 		source = &rte_wx_modbus_rtu_f2;
 368:../system/src/modbus_rtu/rtu_getters.c **** 		break;
 369:../system/src/modbus_rtu/rtu_getters.c **** 	case 3:
 370:../system/src/modbus_rtu/rtu_getters.c **** 		source = &rte_wx_modbus_rtu_f3;
 371:../system/src/modbus_rtu/rtu_getters.c **** 		scaling_a = config->slave_3_scaling_a;
 372:../system/src/modbus_rtu/rtu_getters.c **** 		scaling_b = config->slave_3_scaling_b;
 373:../system/src/modbus_rtu/rtu_getters.c **** 		scaling_c = config->slave_3_scaling_c;
 374:../system/src/modbus_rtu/rtu_getters.c **** 		scaling_d = config->slave_3_scaling_d;
 375:../system/src/modbus_rtu/rtu_getters.c **** 		last_update_timestam = rte_rtu_pool_queue.last_successfull_call_to_function[2];
 376:../system/src/modbus_rtu/rtu_getters.c **** 		source = &rte_wx_modbus_rtu_f3;
 377:../system/src/modbus_rtu/rtu_getters.c **** 		break;
 378:../system/src/modbus_rtu/rtu_getters.c **** 	case 4:
 379:../system/src/modbus_rtu/rtu_getters.c **** 		source = &rte_wx_modbus_rtu_f4;
 380:../system/src/modbus_rtu/rtu_getters.c **** 		scaling_a = config->slave_4_scaling_a;
 381:../system/src/modbus_rtu/rtu_getters.c **** 		scaling_b = config->slave_4_scaling_b;
 382:../system/src/modbus_rtu/rtu_getters.c **** 		scaling_c = config->slave_4_scaling_c;
 383:../system/src/modbus_rtu/rtu_getters.c **** 		scaling_d = config->slave_4_scaling_d;
 384:../system/src/modbus_rtu/rtu_getters.c **** 		last_update_timestam = rte_rtu_pool_queue.last_successfull_call_to_function[3];
 385:../system/src/modbus_rtu/rtu_getters.c **** 		source = &rte_wx_modbus_rtu_f4;
 386:../system/src/modbus_rtu/rtu_getters.c **** 		break;
 387:../system/src/modbus_rtu/rtu_getters.c **** 	case 5:
 388:../system/src/modbus_rtu/rtu_getters.c **** 		source = &rte_wx_modbus_rtu_f5;
 389:../system/src/modbus_rtu/rtu_getters.c **** 		scaling_a = config->slave_5_scaling_a;
 390:../system/src/modbus_rtu/rtu_getters.c **** 		scaling_b = config->slave_5_scaling_b;
 391:../system/src/modbus_rtu/rtu_getters.c **** 		scaling_c = config->slave_5_scaling_c;
 392:../system/src/modbus_rtu/rtu_getters.c **** 		scaling_d = config->slave_5_scaling_d;
 393:../system/src/modbus_rtu/rtu_getters.c **** 		last_update_timestam = rte_rtu_pool_queue.last_successfull_call_to_function[4];
 394:../system/src/modbus_rtu/rtu_getters.c **** 		source = &rte_wx_modbus_rtu_f5;
 395:../system/src/modbus_rtu/rtu_getters.c **** 		break;
 396:../system/src/modbus_rtu/rtu_getters.c **** 	case 6:
 397:../system/src/modbus_rtu/rtu_getters.c **** 		source = &rte_wx_modbus_rtu_f6;
 398:../system/src/modbus_rtu/rtu_getters.c **** 		scaling_a = config->slave_6_scaling_a;
 399:../system/src/modbus_rtu/rtu_getters.c **** 		scaling_b = config->slave_6_scaling_b;
 400:../system/src/modbus_rtu/rtu_getters.c **** 		scaling_c = config->slave_6_scaling_c;
 401:../system/src/modbus_rtu/rtu_getters.c **** 		scaling_d = config->slave_6_scaling_d;
 402:../system/src/modbus_rtu/rtu_getters.c **** 		last_update_timestam = rte_rtu_pool_queue.last_successfull_call_to_function[5];
 403:../system/src/modbus_rtu/rtu_getters.c **** 		source = &rte_wx_modbus_rtu_f6;
 404:../system/src/modbus_rtu/rtu_getters.c **** 		break;
 405:../system/src/modbus_rtu/rtu_getters.c **** 	default:
 406:../system/src/modbus_rtu/rtu_getters.c **** 		retval = MODBUS_RET_NOT_CONFIGURED;
 407:../system/src/modbus_rtu/rtu_getters.c **** 	}
 408:../system/src/modbus_rtu/rtu_getters.c **** 
 409:../system/src/modbus_rtu/rtu_getters.c **** 	if (retval == MODBUS_RET_UNINITIALIZED && source != 0) {
 1022              		.loc 1 409 0
 1023 0028 B0F1FF3F 		cmp	r0, #-1
 1024 002c 49D0     		beq	.L76
 1025              	.LVL192:
 1026              	.L60:
 410:../system/src/modbus_rtu/rtu_getters.c **** 		// copy the raw value from modbus register data
 411:../system/src/modbus_rtu/rtu_getters.c **** 		raw_register_value = source->registers_values[0];
 412:../system/src/modbus_rtu/rtu_getters.c **** 
 413:../system/src/modbus_rtu/rtu_getters.c **** 		// rescale the raw value to target value in .1m/s incremenets
 414:../system/src/modbus_rtu/rtu_getters.c **** 		physical_register_value = 	(uint16_t) (10 * (
 415:../system/src/modbus_rtu/rtu_getters.c **** 							scaling_a * (uint16_t)raw_register_value * (uint16_t)raw_register_value +
 416:../system/src/modbus_rtu/rtu_getters.c **** 							scaling_b * (uint16_t)raw_register_value +
 417:../system/src/modbus_rtu/rtu_getters.c **** 							scaling_c
 418:../system/src/modbus_rtu/rtu_getters.c **** 							) /
 419:../system/src/modbus_rtu/rtu_getters.c **** 							scaling_d);
 420:../system/src/modbus_rtu/rtu_getters.c **** 
 421:../system/src/modbus_rtu/rtu_getters.c **** 		// check when the value has been updated
 422:../system/src/modbus_rtu/rtu_getters.c **** 		if (main_get_master_time() - last_update_timestam > RTU_MAXIMUM_VALUE_AGE ||
 423:../system/src/modbus_rtu/rtu_getters.c **** 			physical_register_value > RTU_MAX_VALID_WINDSPEED) {
 424:../system/src/modbus_rtu/rtu_getters.c **** 			retval = MODBUS_RET_NOT_AVALIABLE;
 425:../system/src/modbus_rtu/rtu_getters.c **** 		}
 426:../system/src/modbus_rtu/rtu_getters.c **** 		else {
 427:../system/src/modbus_rtu/rtu_getters.c **** 			if (main_get_master_time() - rte_rtu_last_modbus_rx_error_timestamp < RTU_MAXIMUM_VALUE_AGE) {
 428:../system/src/modbus_rtu/rtu_getters.c **** 				retval = MODBUS_RET_DEGRADED;
 429:../system/src/modbus_rtu/rtu_getters.c **** 			}
 430:../system/src/modbus_rtu/rtu_getters.c **** 			else {
 431:../system/src/modbus_rtu/rtu_getters.c **** 				retval = MODBUS_RET_OK;
 432:../system/src/modbus_rtu/rtu_getters.c **** 			}
 433:../system/src/modbus_rtu/rtu_getters.c **** 
 434:../system/src/modbus_rtu/rtu_getters.c **** 			*out = physical_register_value;
 435:../system/src/modbus_rtu/rtu_getters.c **** 		}
 436:../system/src/modbus_rtu/rtu_getters.c **** 	}
 437:../system/src/modbus_rtu/rtu_getters.c **** 
 438:../system/src/modbus_rtu/rtu_getters.c **** 	return retval;
 439:../system/src/modbus_rtu/rtu_getters.c **** }
 1027              		.loc 1 439 0
 1028 002e F0BC     		pop	{r4, r5, r6, r7}
 1029              		.cfi_remember_state
 1030              		.cfi_restore 7
 1031              		.cfi_restore 6
 1032              		.cfi_restore 5
 1033              		.cfi_restore 4
 1034              		.cfi_def_cfa_offset 0
 1035              	.LVL193:
 1036 0030 7047     		bx	lr
 1037              	.LVL194:
 1038              	.L64:
 1039              		.cfi_restore_state
 362:../system/src/modbus_rtu/rtu_getters.c **** 		scaling_b = config->slave_2_scaling_b;
 1040              		.loc 1 362 0
 1041 0032 8A7F     		ldrb	r2, [r1, #30]	@ zero_extendqisi2
 1042              	.LVL195:
 363:../system/src/modbus_rtu/rtu_getters.c **** 		scaling_c = config->slave_2_scaling_c;
 1043              		.loc 1 363 0
 1044 0034 CF7F     		ldrb	r7, [r1, #31]	@ zero_extendqisi2
 1045              	.LVL196:
 364:../system/src/modbus_rtu/rtu_getters.c **** 		scaling_d = config->slave_2_scaling_d;
 1046              		.loc 1 364 0
 1047 0036 91F82060 		ldrb	r6, [r1, #32]	@ zero_extendqisi2
 1048              	.LVL197:
 365:../system/src/modbus_rtu/rtu_getters.c **** 		last_update_timestam = rte_rtu_pool_queue.last_successfull_call_to_function[1];
 1049              		.loc 1 365 0
 1050 003a 91F82150 		ldrb	r5, [r1, #33]	@ zero_extendqisi2
 1051              	.LVL198:
 366:../system/src/modbus_rtu/rtu_getters.c **** 		source = &rte_wx_modbus_rtu_f2;
 1052              		.loc 1 366 0
 1053 003e 334B     		ldr	r3, .L77
 1054 0040 596A     		ldr	r1, [r3, #36]
 1055              	.LVL199:
 367:../system/src/modbus_rtu/rtu_getters.c **** 		break;
 1056              		.loc 1 367 0
 1057 0042 344B     		ldr	r3, .L77+8
 340:../system/src/modbus_rtu/rtu_getters.c **** 
 1058              		.loc 1 340 0
 1059 0044 4FF0FF30 		mov	r0, #-1
 368:../system/src/modbus_rtu/rtu_getters.c **** 	case 3:
 1060              		.loc 1 368 0
 1061 0048 EEE7     		b	.L61
 1062              	.LVL200:
 1063              	.L65:
 371:../system/src/modbus_rtu/rtu_getters.c **** 		scaling_b = config->slave_3_scaling_b;
 1064              		.loc 1 371 0
 1065 004a 91F82A20 		ldrb	r2, [r1, #42]	@ zero_extendqisi2
 1066              	.LVL201:
 372:../system/src/modbus_rtu/rtu_getters.c **** 		scaling_c = config->slave_3_scaling_c;
 1067              		.loc 1 372 0
 1068 004e 91F82B70 		ldrb	r7, [r1, #43]	@ zero_extendqisi2
 1069              	.LVL202:
 373:../system/src/modbus_rtu/rtu_getters.c **** 		scaling_d = config->slave_3_scaling_d;
 1070              		.loc 1 373 0
 1071 0052 91F82C60 		ldrb	r6, [r1, #44]	@ zero_extendqisi2
 1072              	.LVL203:
 374:../system/src/modbus_rtu/rtu_getters.c **** 		last_update_timestam = rte_rtu_pool_queue.last_successfull_call_to_function[2];
 1073              		.loc 1 374 0
 1074 0056 91F82D50 		ldrb	r5, [r1, #45]	@ zero_extendqisi2
 1075              	.LVL204:
 375:../system/src/modbus_rtu/rtu_getters.c **** 		source = &rte_wx_modbus_rtu_f3;
 1076              		.loc 1 375 0
 1077 005a 2C4B     		ldr	r3, .L77
 1078 005c 996A     		ldr	r1, [r3, #40]
 1079              	.LVL205:
 376:../system/src/modbus_rtu/rtu_getters.c **** 		break;
 1080              		.loc 1 376 0
 1081 005e 2E4B     		ldr	r3, .L77+12
 340:../system/src/modbus_rtu/rtu_getters.c **** 
 1082              		.loc 1 340 0
 1083 0060 4FF0FF30 		mov	r0, #-1
 377:../system/src/modbus_rtu/rtu_getters.c **** 	case 4:
 1084              		.loc 1 377 0
 1085 0064 E0E7     		b	.L61
 1086              	.LVL206:
 1087              	.L66:
 380:../system/src/modbus_rtu/rtu_getters.c **** 		scaling_b = config->slave_4_scaling_b;
 1088              		.loc 1 380 0
 1089 0066 91F83620 		ldrb	r2, [r1, #54]	@ zero_extendqisi2
 1090              	.LVL207:
 381:../system/src/modbus_rtu/rtu_getters.c **** 		scaling_c = config->slave_4_scaling_c;
 1091              		.loc 1 381 0
 1092 006a 91F83770 		ldrb	r7, [r1, #55]	@ zero_extendqisi2
 1093              	.LVL208:
 382:../system/src/modbus_rtu/rtu_getters.c **** 		scaling_d = config->slave_4_scaling_d;
 1094              		.loc 1 382 0
 1095 006e 91F83860 		ldrb	r6, [r1, #56]	@ zero_extendqisi2
 1096              	.LVL209:
 383:../system/src/modbus_rtu/rtu_getters.c **** 		last_update_timestam = rte_rtu_pool_queue.last_successfull_call_to_function[3];
 1097              		.loc 1 383 0
 1098 0072 91F83950 		ldrb	r5, [r1, #57]	@ zero_extendqisi2
 1099              	.LVL210:
 384:../system/src/modbus_rtu/rtu_getters.c **** 		source = &rte_wx_modbus_rtu_f4;
 1100              		.loc 1 384 0
 1101 0076 254B     		ldr	r3, .L77
 1102 0078 D96A     		ldr	r1, [r3, #44]
 1103              	.LVL211:
 385:../system/src/modbus_rtu/rtu_getters.c **** 		break;
 1104              		.loc 1 385 0
 1105 007a 284B     		ldr	r3, .L77+16
 340:../system/src/modbus_rtu/rtu_getters.c **** 
 1106              		.loc 1 340 0
 1107 007c 4FF0FF30 		mov	r0, #-1
 386:../system/src/modbus_rtu/rtu_getters.c **** 	case 5:
 1108              		.loc 1 386 0
 1109 0080 D2E7     		b	.L61
 1110              	.LVL212:
 1111              	.L67:
 389:../system/src/modbus_rtu/rtu_getters.c **** 		scaling_b = config->slave_5_scaling_b;
 1112              		.loc 1 389 0
 1113 0082 91F84220 		ldrb	r2, [r1, #66]	@ zero_extendqisi2
 1114              	.LVL213:
 390:../system/src/modbus_rtu/rtu_getters.c **** 		scaling_c = config->slave_5_scaling_c;
 1115              		.loc 1 390 0
 1116 0086 91F84370 		ldrb	r7, [r1, #67]	@ zero_extendqisi2
 1117              	.LVL214:
 391:../system/src/modbus_rtu/rtu_getters.c **** 		scaling_d = config->slave_5_scaling_d;
 1118              		.loc 1 391 0
 1119 008a 91F84460 		ldrb	r6, [r1, #68]	@ zero_extendqisi2
 1120              	.LVL215:
 392:../system/src/modbus_rtu/rtu_getters.c **** 		last_update_timestam = rte_rtu_pool_queue.last_successfull_call_to_function[4];
 1121              		.loc 1 392 0
 1122 008e 91F84550 		ldrb	r5, [r1, #69]	@ zero_extendqisi2
 1123              	.LVL216:
 393:../system/src/modbus_rtu/rtu_getters.c **** 		source = &rte_wx_modbus_rtu_f5;
 1124              		.loc 1 393 0
 1125 0092 1E4B     		ldr	r3, .L77
 1126 0094 196B     		ldr	r1, [r3, #48]
 1127              	.LVL217:
 394:../system/src/modbus_rtu/rtu_getters.c **** 		break;
 1128              		.loc 1 394 0
 1129 0096 224B     		ldr	r3, .L77+20
 340:../system/src/modbus_rtu/rtu_getters.c **** 
 1130              		.loc 1 340 0
 1131 0098 4FF0FF30 		mov	r0, #-1
 395:../system/src/modbus_rtu/rtu_getters.c **** 	case 6:
 1132              		.loc 1 395 0
 1133 009c C4E7     		b	.L61
 1134              	.LVL218:
 1135              	.L68:
 398:../system/src/modbus_rtu/rtu_getters.c **** 		scaling_b = config->slave_6_scaling_b;
 1136              		.loc 1 398 0
 1137 009e 91F84E20 		ldrb	r2, [r1, #78]	@ zero_extendqisi2
 1138              	.LVL219:
 399:../system/src/modbus_rtu/rtu_getters.c **** 		scaling_c = config->slave_6_scaling_c;
 1139              		.loc 1 399 0
 1140 00a2 91F84F70 		ldrb	r7, [r1, #79]	@ zero_extendqisi2
 1141              	.LVL220:
 400:../system/src/modbus_rtu/rtu_getters.c **** 		scaling_d = config->slave_6_scaling_d;
 1142              		.loc 1 400 0
 1143 00a6 91F85060 		ldrb	r6, [r1, #80]	@ zero_extendqisi2
 1144              	.LVL221:
 401:../system/src/modbus_rtu/rtu_getters.c **** 		last_update_timestam = rte_rtu_pool_queue.last_successfull_call_to_function[5];
 1145              		.loc 1 401 0
 1146 00aa 91F85150 		ldrb	r5, [r1, #81]	@ zero_extendqisi2
 1147              	.LVL222:
 402:../system/src/modbus_rtu/rtu_getters.c **** 		source = &rte_wx_modbus_rtu_f6;
 1148              		.loc 1 402 0
 1149 00ae 174B     		ldr	r3, .L77
 1150 00b0 596B     		ldr	r1, [r3, #52]
 1151              	.LVL223:
 403:../system/src/modbus_rtu/rtu_getters.c **** 		break;
 1152              		.loc 1 403 0
 1153 00b2 1C4B     		ldr	r3, .L77+24
 340:../system/src/modbus_rtu/rtu_getters.c **** 
 1154              		.loc 1 340 0
 1155 00b4 4FF0FF30 		mov	r0, #-1
 404:../system/src/modbus_rtu/rtu_getters.c **** 	default:
 1156              		.loc 1 404 0
 1157 00b8 B6E7     		b	.L61
 1158              	.LVL224:
 1159              	.L71:
 349:../system/src/modbus_rtu/rtu_getters.c **** 
 1160              		.loc 1 349 0
 1161 00ba 0021     		movs	r1, #0
 1162              	.LVL225:
 342:../system/src/modbus_rtu/rtu_getters.c **** 
 1163              		.loc 1 342 0
 1164 00bc 0B46     		mov	r3, r1
 406:../system/src/modbus_rtu/rtu_getters.c **** 	}
 1165              		.loc 1 406 0
 1166 00be 0820     		movs	r0, #8
 1167 00c0 B2E7     		b	.L61
 1168              	.LVL226:
 1169              	.L76:
 409:../system/src/modbus_rtu/rtu_getters.c **** 		// copy the raw value from modbus register data
 1170              		.loc 1 409 0 discriminator 1
 1171 00c2 002B     		cmp	r3, #0
 1172 00c4 B3D0     		beq	.L60
 411:../system/src/modbus_rtu/rtu_getters.c **** 
 1173              		.loc 1 411 0
 1174 00c6 DB88     		ldrh	r3, [r3, #6]
 1175              	.LVL227:
 415:../system/src/modbus_rtu/rtu_getters.c **** 							scaling_b * (uint16_t)raw_register_value +
 1176              		.loc 1 415 0
 1177 00c8 03FB0272 		mla	r2, r3, r2, r7
 1178              	.LVL228:
 416:../system/src/modbus_rtu/rtu_getters.c **** 							scaling_c
 1179              		.loc 1 416 0
 1180 00cc 03FB0262 		mla	r2, r3, r2, r6
 414:../system/src/modbus_rtu/rtu_getters.c **** 							scaling_a * (uint16_t)raw_register_value * (uint16_t)raw_register_value +
 1181              		.loc 1 414 0
 1182 00d0 02EB8202 		add	r2, r2, r2, lsl #2
 1183 00d4 5300     		lsls	r3, r2, #1
 1184              	.LVL229:
 418:../system/src/modbus_rtu/rtu_getters.c **** 							scaling_d);
 1185              		.loc 1 418 0
 1186 00d6 93FBF5F3 		sdiv	r3, r3, r5
 414:../system/src/modbus_rtu/rtu_getters.c **** 							scaling_a * (uint16_t)raw_register_value * (uint16_t)raw_register_value +
 1187              		.loc 1 414 0
 1188 00da 9BB2     		uxth	r3, r3
 1189              	.LVL230:
 1190              	.LBB32:
 1191              	.LBB33:
 1192              		.loc 2 63 0
 1193 00dc 124A     		ldr	r2, .L77+28
 1194 00de 1268     		ldr	r2, [r2]
 1195              	.LBE33:
 1196              	.LBE32:
 422:../system/src/modbus_rtu/rtu_getters.c **** 			physical_register_value > RTU_MAX_VALID_WINDSPEED) {
 1197              		.loc 1 422 0
 1198 00e0 511A     		subs	r1, r2, r1
 1199              	.LVL231:
 1200 00e2 1248     		ldr	r0, .L77+32
 1201              	.LVL232:
 1202 00e4 8142     		cmp	r1, r0
 1203 00e6 0DD8     		bhi	.L72
 422:../system/src/modbus_rtu/rtu_getters.c **** 			physical_register_value > RTU_MAX_VALID_WINDSPEED) {
 1204              		.loc 1 422 0 is_stmt 0 discriminator 1
 1205 00e8 B3F5C87F 		cmp	r3, #400
 1206 00ec 0CD8     		bhi	.L73
 427:../system/src/modbus_rtu/rtu_getters.c **** 				retval = MODBUS_RET_DEGRADED;
 1207              		.loc 1 427 0 is_stmt 1
 1208 00ee 1049     		ldr	r1, .L77+36
 1209 00f0 0968     		ldr	r1, [r1]
 1210 00f2 521A     		subs	r2, r2, r1
 1211 00f4 0F49     		ldr	r1, .L77+40
 1212 00f6 8A42     		cmp	r2, r1
 1213 00f8 02D8     		bhi	.L74
 428:../system/src/modbus_rtu/rtu_getters.c **** 			}
 1214              		.loc 1 428 0
 1215 00fa 0620     		movs	r0, #6
 1216              	.L70:
 1217              	.LVL233:
 434:../system/src/modbus_rtu/rtu_getters.c **** 		}
 1218              		.loc 1 434 0
 1219 00fc 2380     		strh	r3, [r4]	@ movhi
 1220 00fe 96E7     		b	.L60
 1221              	.LVL234:
 1222              	.L74:
 431:../system/src/modbus_rtu/rtu_getters.c **** 			}
 1223              		.loc 1 431 0
 1224 0100 0020     		movs	r0, #0
 1225 0102 FBE7     		b	.L70
 1226              	.L72:
 424:../system/src/modbus_rtu/rtu_getters.c **** 		}
 1227              		.loc 1 424 0
 1228 0104 0520     		movs	r0, #5
 1229 0106 92E7     		b	.L60
 1230              	.L73:
 1231 0108 0520     		movs	r0, #5
 1232              	.LVL235:
 438:../system/src/modbus_rtu/rtu_getters.c **** }
 1233              		.loc 1 438 0
 1234 010a 90E7     		b	.L60
 1235              	.L78:
 1236              		.align	2
 1237              	.L77:
 1238 010c 00000000 		.word	rte_rtu_pool_queue
 1239 0110 00000000 		.word	rte_wx_modbus_rtu_f1
 1240 0114 00000000 		.word	rte_wx_modbus_rtu_f2
 1241 0118 00000000 		.word	rte_wx_modbus_rtu_f3
 1242 011c 00000000 		.word	rte_wx_modbus_rtu_f4
 1243 0120 00000000 		.word	rte_wx_modbus_rtu_f5
 1244 0124 00000000 		.word	rte_wx_modbus_rtu_f6
 1245 0128 00000000 		.word	master_time
 1246 012c E0930400 		.word	300000
 1247 0130 00000000 		.word	rte_rtu_last_modbus_rx_error_timestamp
 1248 0134 DF930400 		.word	299999
 1249              		.cfi_endproc
 1250              	.LFE404:
 1252              		.section	.text.rtu_get_wind_gusts,"ax",%progbits
 1253              		.align	1
 1254              		.global	rtu_get_wind_gusts
 1255              		.syntax unified
 1256              		.thumb
 1257              		.thumb_func
 1258              		.fpu fpv4-sp-d16
 1260              	rtu_get_wind_gusts:
 1261              	.LFB405:
 440:../system/src/modbus_rtu/rtu_getters.c **** 
 441:../system/src/modbus_rtu/rtu_getters.c **** int32_t rtu_get_wind_gusts(uint16_t* out, const config_data_rtu_t * const config) {
 1262              		.loc 1 441 0
 1263              		.cfi_startproc
 1264              		@ args = 0, pretend = 0, frame = 0
 1265              		@ frame_needed = 0, uses_anonymous_args = 0
 1266              		@ link register save eliminated.
 1267              	.LVL236:
 1268 0000 F0B4     		push	{r4, r5, r6, r7}
 1269              		.cfi_def_cfa_offset 16
 1270              		.cfi_offset 4, -16
 1271              		.cfi_offset 5, -12
 1272              		.cfi_offset 6, -8
 1273              		.cfi_offset 7, -4
 1274 0002 0446     		mov	r4, r0
 1275              	.LVL237:
 442:../system/src/modbus_rtu/rtu_getters.c **** 	int32_t retval = MODBUS_RET_UNINITIALIZED;
 443:../system/src/modbus_rtu/rtu_getters.c **** 
 444:../system/src/modbus_rtu/rtu_getters.c **** 	rtu_register_data_t* source = 0;
 445:../system/src/modbus_rtu/rtu_getters.c **** 
 446:../system/src/modbus_rtu/rtu_getters.c **** 	uint16_t raw_register_value = 0, physical_register_value = 0;
 447:../system/src/modbus_rtu/rtu_getters.c **** 
 448:../system/src/modbus_rtu/rtu_getters.c **** 	uint16_t scaling_a, scaling_b, scaling_c, scaling_d;
 449:../system/src/modbus_rtu/rtu_getters.c **** 
 450:../system/src/modbus_rtu/rtu_getters.c **** 	// the timestamp of last update of the register value
 451:../system/src/modbus_rtu/rtu_getters.c **** 	uint32_t last_update_timestam = 0;
 452:../system/src/modbus_rtu/rtu_getters.c **** 
 453:../system/src/modbus_rtu/rtu_getters.c **** 	switch (config->wind_gusts_source) {
 1276              		.loc 1 453 0
 1277 0004 8B7A     		ldrb	r3, [r1, #10]	@ zero_extendqisi2
 1278 0006 013B     		subs	r3, r3, #1
 1279 0008 052B     		cmp	r3, #5
 1280 000a 56D8     		bhi	.L90
 1281 000c DFE803F0 		tbb	[pc, r3]
 1282              	.LVL238:
 1283              	.L82:
 1284 0010 03       		.byte	(.L81-.L82)/2
 1285 0011 11       		.byte	(.L83-.L82)/2
 1286 0012 1D       		.byte	(.L84-.L82)/2
 1287 0013 2B       		.byte	(.L85-.L82)/2
 1288 0014 39       		.byte	(.L86-.L82)/2
 1289 0015 47       		.byte	(.L87-.L82)/2
 1290              		.p2align 1
 1291              	.L81:
 454:../system/src/modbus_rtu/rtu_getters.c **** 	case 1:
 455:../system/src/modbus_rtu/rtu_getters.c **** 		source = &rte_wx_modbus_rtu_f1;
 456:../system/src/modbus_rtu/rtu_getters.c **** 		scaling_a = config->slave_1_scaling_a;
 1292              		.loc 1 456 0
 1293 0016 8A7C     		ldrb	r2, [r1, #18]	@ zero_extendqisi2
 1294              	.LVL239:
 457:../system/src/modbus_rtu/rtu_getters.c **** 		scaling_b = config->slave_1_scaling_b;
 1295              		.loc 1 457 0
 1296 0018 CF7C     		ldrb	r7, [r1, #19]	@ zero_extendqisi2
 1297              	.LVL240:
 458:../system/src/modbus_rtu/rtu_getters.c **** 		scaling_c = config->slave_1_scaling_c;
 1298              		.loc 1 458 0
 1299 001a 0E7D     		ldrb	r6, [r1, #20]	@ zero_extendqisi2
 1300              	.LVL241:
 459:../system/src/modbus_rtu/rtu_getters.c **** 		scaling_d = config->slave_1_scaling_d;
 1301              		.loc 1 459 0
 1302 001c 4D7D     		ldrb	r5, [r1, #21]	@ zero_extendqisi2
 1303              	.LVL242:
 460:../system/src/modbus_rtu/rtu_getters.c **** 		last_update_timestam = rte_rtu_pool_queue.last_successfull_call_to_function[0];
 1304              		.loc 1 460 0
 1305 001e 3B4B     		ldr	r3, .L96
 1306 0020 196A     		ldr	r1, [r3, #32]
 1307              	.LVL243:
 455:../system/src/modbus_rtu/rtu_getters.c **** 		scaling_a = config->slave_1_scaling_a;
 1308              		.loc 1 455 0
 1309 0022 3B4B     		ldr	r3, .L96+4
 442:../system/src/modbus_rtu/rtu_getters.c **** 
 1310              		.loc 1 442 0
 1311 0024 4FF0FF30 		mov	r0, #-1
 1312              	.LVL244:
 1313              	.L80:
 461:../system/src/modbus_rtu/rtu_getters.c **** 		break;
 462:../system/src/modbus_rtu/rtu_getters.c **** 	case 2:
 463:../system/src/modbus_rtu/rtu_getters.c **** 		source = &rte_wx_modbus_rtu_f2;
 464:../system/src/modbus_rtu/rtu_getters.c **** 		scaling_a = config->slave_2_scaling_a;
 465:../system/src/modbus_rtu/rtu_getters.c **** 		scaling_b = config->slave_2_scaling_b;
 466:../system/src/modbus_rtu/rtu_getters.c **** 		scaling_c = config->slave_2_scaling_c;
 467:../system/src/modbus_rtu/rtu_getters.c **** 		scaling_d = config->slave_2_scaling_d;
 468:../system/src/modbus_rtu/rtu_getters.c **** 		last_update_timestam = rte_rtu_pool_queue.last_successfull_call_to_function[1];
 469:../system/src/modbus_rtu/rtu_getters.c **** 		source = &rte_wx_modbus_rtu_f2;
 470:../system/src/modbus_rtu/rtu_getters.c **** 		break;
 471:../system/src/modbus_rtu/rtu_getters.c **** 	case 3:
 472:../system/src/modbus_rtu/rtu_getters.c **** 		source = &rte_wx_modbus_rtu_f3;
 473:../system/src/modbus_rtu/rtu_getters.c **** 		scaling_a = config->slave_3_scaling_a;
 474:../system/src/modbus_rtu/rtu_getters.c **** 		scaling_b = config->slave_3_scaling_b;
 475:../system/src/modbus_rtu/rtu_getters.c **** 		scaling_c = config->slave_3_scaling_c;
 476:../system/src/modbus_rtu/rtu_getters.c **** 		scaling_d = config->slave_3_scaling_d;
 477:../system/src/modbus_rtu/rtu_getters.c **** 		last_update_timestam = rte_rtu_pool_queue.last_successfull_call_to_function[2];
 478:../system/src/modbus_rtu/rtu_getters.c **** 		source = &rte_wx_modbus_rtu_f3;
 479:../system/src/modbus_rtu/rtu_getters.c **** 		break;
 480:../system/src/modbus_rtu/rtu_getters.c **** 	case 4:
 481:../system/src/modbus_rtu/rtu_getters.c **** 		source = &rte_wx_modbus_rtu_f4;
 482:../system/src/modbus_rtu/rtu_getters.c **** 		scaling_a = config->slave_4_scaling_a;
 483:../system/src/modbus_rtu/rtu_getters.c **** 		scaling_b = config->slave_4_scaling_b;
 484:../system/src/modbus_rtu/rtu_getters.c **** 		scaling_c = config->slave_4_scaling_c;
 485:../system/src/modbus_rtu/rtu_getters.c **** 		scaling_d = config->slave_4_scaling_d;
 486:../system/src/modbus_rtu/rtu_getters.c **** 		last_update_timestam = rte_rtu_pool_queue.last_successfull_call_to_function[3];
 487:../system/src/modbus_rtu/rtu_getters.c **** 		source = &rte_wx_modbus_rtu_f4;
 488:../system/src/modbus_rtu/rtu_getters.c **** 		break;
 489:../system/src/modbus_rtu/rtu_getters.c **** 	case 5:
 490:../system/src/modbus_rtu/rtu_getters.c **** 		source = &rte_wx_modbus_rtu_f5;
 491:../system/src/modbus_rtu/rtu_getters.c **** 		scaling_a = config->slave_5_scaling_a;
 492:../system/src/modbus_rtu/rtu_getters.c **** 		scaling_b = config->slave_5_scaling_b;
 493:../system/src/modbus_rtu/rtu_getters.c **** 		scaling_c = config->slave_5_scaling_c;
 494:../system/src/modbus_rtu/rtu_getters.c **** 		scaling_d = config->slave_5_scaling_d;
 495:../system/src/modbus_rtu/rtu_getters.c **** 		last_update_timestam = rte_rtu_pool_queue.last_successfull_call_to_function[4];
 496:../system/src/modbus_rtu/rtu_getters.c **** 		source = &rte_wx_modbus_rtu_f5;
 497:../system/src/modbus_rtu/rtu_getters.c **** 		break;
 498:../system/src/modbus_rtu/rtu_getters.c **** 	case 6:
 499:../system/src/modbus_rtu/rtu_getters.c **** 		source = &rte_wx_modbus_rtu_f6;
 500:../system/src/modbus_rtu/rtu_getters.c **** 		scaling_a = config->slave_6_scaling_a;
 501:../system/src/modbus_rtu/rtu_getters.c **** 		scaling_b = config->slave_6_scaling_b;
 502:../system/src/modbus_rtu/rtu_getters.c **** 		scaling_c = config->slave_6_scaling_c;
 503:../system/src/modbus_rtu/rtu_getters.c **** 		scaling_d = config->slave_6_scaling_d;
 504:../system/src/modbus_rtu/rtu_getters.c **** 		last_update_timestam = rte_rtu_pool_queue.last_successfull_call_to_function[5];
 505:../system/src/modbus_rtu/rtu_getters.c **** 		source = &rte_wx_modbus_rtu_f6;
 506:../system/src/modbus_rtu/rtu_getters.c **** 		break;
 507:../system/src/modbus_rtu/rtu_getters.c **** 	default:
 508:../system/src/modbus_rtu/rtu_getters.c **** 		retval = MODBUS_RET_NOT_CONFIGURED;
 509:../system/src/modbus_rtu/rtu_getters.c **** 	}
 510:../system/src/modbus_rtu/rtu_getters.c **** 
 511:../system/src/modbus_rtu/rtu_getters.c **** 	if (retval == MODBUS_RET_UNINITIALIZED && source != 0) {
 1314              		.loc 1 511 0
 1315 0028 B0F1FF3F 		cmp	r0, #-1
 1316 002c 49D0     		beq	.L95
 1317              	.LVL245:
 1318              	.L79:
 512:../system/src/modbus_rtu/rtu_getters.c **** 		// copy the raw value from modbus register data
 513:../system/src/modbus_rtu/rtu_getters.c **** 		raw_register_value = source->registers_values[0];
 514:../system/src/modbus_rtu/rtu_getters.c **** 
 515:../system/src/modbus_rtu/rtu_getters.c **** 		// rescale the raw value to target value in .1m/s incremenets
 516:../system/src/modbus_rtu/rtu_getters.c **** 		physical_register_value = 	(uint16_t) (10 * (
 517:../system/src/modbus_rtu/rtu_getters.c **** 							scaling_a * (uint16_t)raw_register_value * (uint16_t)raw_register_value +
 518:../system/src/modbus_rtu/rtu_getters.c **** 							scaling_b * (uint16_t)raw_register_value +
 519:../system/src/modbus_rtu/rtu_getters.c **** 							scaling_c
 520:../system/src/modbus_rtu/rtu_getters.c **** 							) /
 521:../system/src/modbus_rtu/rtu_getters.c **** 							scaling_d);
 522:../system/src/modbus_rtu/rtu_getters.c **** 
 523:../system/src/modbus_rtu/rtu_getters.c **** 		// check when the value has been updated
 524:../system/src/modbus_rtu/rtu_getters.c **** 		if (main_get_master_time() - last_update_timestam > RTU_MAXIMUM_VALUE_AGE ||
 525:../system/src/modbus_rtu/rtu_getters.c **** 			physical_register_value > RTU_MAX_VALID_WINDSPEED) {
 526:../system/src/modbus_rtu/rtu_getters.c **** 			retval = MODBUS_RET_NOT_AVALIABLE;
 527:../system/src/modbus_rtu/rtu_getters.c **** 		}
 528:../system/src/modbus_rtu/rtu_getters.c **** 		else {
 529:../system/src/modbus_rtu/rtu_getters.c **** 			if (main_get_master_time() - rte_rtu_last_modbus_rx_error_timestamp < RTU_MAXIMUM_VALUE_AGE) {
 530:../system/src/modbus_rtu/rtu_getters.c **** 				retval = MODBUS_RET_DEGRADED;
 531:../system/src/modbus_rtu/rtu_getters.c **** 			}
 532:../system/src/modbus_rtu/rtu_getters.c **** 			else {
 533:../system/src/modbus_rtu/rtu_getters.c **** 				retval = MODBUS_RET_OK;
 534:../system/src/modbus_rtu/rtu_getters.c **** 			}
 535:../system/src/modbus_rtu/rtu_getters.c **** 
 536:../system/src/modbus_rtu/rtu_getters.c **** 			*out = physical_register_value;
 537:../system/src/modbus_rtu/rtu_getters.c **** 
 538:../system/src/modbus_rtu/rtu_getters.c **** 		}
 539:../system/src/modbus_rtu/rtu_getters.c **** 	}
 540:../system/src/modbus_rtu/rtu_getters.c **** 
 541:../system/src/modbus_rtu/rtu_getters.c **** 	return retval;
 542:../system/src/modbus_rtu/rtu_getters.c **** }
 1319              		.loc 1 542 0
 1320 002e F0BC     		pop	{r4, r5, r6, r7}
 1321              		.cfi_remember_state
 1322              		.cfi_restore 7
 1323              		.cfi_restore 6
 1324              		.cfi_restore 5
 1325              		.cfi_restore 4
 1326              		.cfi_def_cfa_offset 0
 1327              	.LVL246:
 1328 0030 7047     		bx	lr
 1329              	.LVL247:
 1330              	.L83:
 1331              		.cfi_restore_state
 464:../system/src/modbus_rtu/rtu_getters.c **** 		scaling_b = config->slave_2_scaling_b;
 1332              		.loc 1 464 0
 1333 0032 8A7F     		ldrb	r2, [r1, #30]	@ zero_extendqisi2
 1334              	.LVL248:
 465:../system/src/modbus_rtu/rtu_getters.c **** 		scaling_c = config->slave_2_scaling_c;
 1335              		.loc 1 465 0
 1336 0034 CF7F     		ldrb	r7, [r1, #31]	@ zero_extendqisi2
 1337              	.LVL249:
 466:../system/src/modbus_rtu/rtu_getters.c **** 		scaling_d = config->slave_2_scaling_d;
 1338              		.loc 1 466 0
 1339 0036 91F82060 		ldrb	r6, [r1, #32]	@ zero_extendqisi2
 1340              	.LVL250:
 467:../system/src/modbus_rtu/rtu_getters.c **** 		last_update_timestam = rte_rtu_pool_queue.last_successfull_call_to_function[1];
 1341              		.loc 1 467 0
 1342 003a 91F82150 		ldrb	r5, [r1, #33]	@ zero_extendqisi2
 1343              	.LVL251:
 468:../system/src/modbus_rtu/rtu_getters.c **** 		source = &rte_wx_modbus_rtu_f2;
 1344              		.loc 1 468 0
 1345 003e 334B     		ldr	r3, .L96
 1346 0040 596A     		ldr	r1, [r3, #36]
 1347              	.LVL252:
 469:../system/src/modbus_rtu/rtu_getters.c **** 		break;
 1348              		.loc 1 469 0
 1349 0042 344B     		ldr	r3, .L96+8
 442:../system/src/modbus_rtu/rtu_getters.c **** 
 1350              		.loc 1 442 0
 1351 0044 4FF0FF30 		mov	r0, #-1
 470:../system/src/modbus_rtu/rtu_getters.c **** 	case 3:
 1352              		.loc 1 470 0
 1353 0048 EEE7     		b	.L80
 1354              	.LVL253:
 1355              	.L84:
 473:../system/src/modbus_rtu/rtu_getters.c **** 		scaling_b = config->slave_3_scaling_b;
 1356              		.loc 1 473 0
 1357 004a 91F82A20 		ldrb	r2, [r1, #42]	@ zero_extendqisi2
 1358              	.LVL254:
 474:../system/src/modbus_rtu/rtu_getters.c **** 		scaling_c = config->slave_3_scaling_c;
 1359              		.loc 1 474 0
 1360 004e 91F82B70 		ldrb	r7, [r1, #43]	@ zero_extendqisi2
 1361              	.LVL255:
 475:../system/src/modbus_rtu/rtu_getters.c **** 		scaling_d = config->slave_3_scaling_d;
 1362              		.loc 1 475 0
 1363 0052 91F82C60 		ldrb	r6, [r1, #44]	@ zero_extendqisi2
 1364              	.LVL256:
 476:../system/src/modbus_rtu/rtu_getters.c **** 		last_update_timestam = rte_rtu_pool_queue.last_successfull_call_to_function[2];
 1365              		.loc 1 476 0
 1366 0056 91F82D50 		ldrb	r5, [r1, #45]	@ zero_extendqisi2
 1367              	.LVL257:
 477:../system/src/modbus_rtu/rtu_getters.c **** 		source = &rte_wx_modbus_rtu_f3;
 1368              		.loc 1 477 0
 1369 005a 2C4B     		ldr	r3, .L96
 1370 005c 996A     		ldr	r1, [r3, #40]
 1371              	.LVL258:
 478:../system/src/modbus_rtu/rtu_getters.c **** 		break;
 1372              		.loc 1 478 0
 1373 005e 2E4B     		ldr	r3, .L96+12
 442:../system/src/modbus_rtu/rtu_getters.c **** 
 1374              		.loc 1 442 0
 1375 0060 4FF0FF30 		mov	r0, #-1
 479:../system/src/modbus_rtu/rtu_getters.c **** 	case 4:
 1376              		.loc 1 479 0
 1377 0064 E0E7     		b	.L80
 1378              	.LVL259:
 1379              	.L85:
 482:../system/src/modbus_rtu/rtu_getters.c **** 		scaling_b = config->slave_4_scaling_b;
 1380              		.loc 1 482 0
 1381 0066 91F83620 		ldrb	r2, [r1, #54]	@ zero_extendqisi2
 1382              	.LVL260:
 483:../system/src/modbus_rtu/rtu_getters.c **** 		scaling_c = config->slave_4_scaling_c;
 1383              		.loc 1 483 0
 1384 006a 91F83770 		ldrb	r7, [r1, #55]	@ zero_extendqisi2
 1385              	.LVL261:
 484:../system/src/modbus_rtu/rtu_getters.c **** 		scaling_d = config->slave_4_scaling_d;
 1386              		.loc 1 484 0
 1387 006e 91F83860 		ldrb	r6, [r1, #56]	@ zero_extendqisi2
 1388              	.LVL262:
 485:../system/src/modbus_rtu/rtu_getters.c **** 		last_update_timestam = rte_rtu_pool_queue.last_successfull_call_to_function[3];
 1389              		.loc 1 485 0
 1390 0072 91F83950 		ldrb	r5, [r1, #57]	@ zero_extendqisi2
 1391              	.LVL263:
 486:../system/src/modbus_rtu/rtu_getters.c **** 		source = &rte_wx_modbus_rtu_f4;
 1392              		.loc 1 486 0
 1393 0076 254B     		ldr	r3, .L96
 1394 0078 D96A     		ldr	r1, [r3, #44]
 1395              	.LVL264:
 487:../system/src/modbus_rtu/rtu_getters.c **** 		break;
 1396              		.loc 1 487 0
 1397 007a 284B     		ldr	r3, .L96+16
 442:../system/src/modbus_rtu/rtu_getters.c **** 
 1398              		.loc 1 442 0
 1399 007c 4FF0FF30 		mov	r0, #-1
 488:../system/src/modbus_rtu/rtu_getters.c **** 	case 5:
 1400              		.loc 1 488 0
 1401 0080 D2E7     		b	.L80
 1402              	.LVL265:
 1403              	.L86:
 491:../system/src/modbus_rtu/rtu_getters.c **** 		scaling_b = config->slave_5_scaling_b;
 1404              		.loc 1 491 0
 1405 0082 91F84220 		ldrb	r2, [r1, #66]	@ zero_extendqisi2
 1406              	.LVL266:
 492:../system/src/modbus_rtu/rtu_getters.c **** 		scaling_c = config->slave_5_scaling_c;
 1407              		.loc 1 492 0
 1408 0086 91F84370 		ldrb	r7, [r1, #67]	@ zero_extendqisi2
 1409              	.LVL267:
 493:../system/src/modbus_rtu/rtu_getters.c **** 		scaling_d = config->slave_5_scaling_d;
 1410              		.loc 1 493 0
 1411 008a 91F84460 		ldrb	r6, [r1, #68]	@ zero_extendqisi2
 1412              	.LVL268:
 494:../system/src/modbus_rtu/rtu_getters.c **** 		last_update_timestam = rte_rtu_pool_queue.last_successfull_call_to_function[4];
 1413              		.loc 1 494 0
 1414 008e 91F84550 		ldrb	r5, [r1, #69]	@ zero_extendqisi2
 1415              	.LVL269:
 495:../system/src/modbus_rtu/rtu_getters.c **** 		source = &rte_wx_modbus_rtu_f5;
 1416              		.loc 1 495 0
 1417 0092 1E4B     		ldr	r3, .L96
 1418 0094 196B     		ldr	r1, [r3, #48]
 1419              	.LVL270:
 496:../system/src/modbus_rtu/rtu_getters.c **** 		break;
 1420              		.loc 1 496 0
 1421 0096 224B     		ldr	r3, .L96+20
 442:../system/src/modbus_rtu/rtu_getters.c **** 
 1422              		.loc 1 442 0
 1423 0098 4FF0FF30 		mov	r0, #-1
 497:../system/src/modbus_rtu/rtu_getters.c **** 	case 6:
 1424              		.loc 1 497 0
 1425 009c C4E7     		b	.L80
 1426              	.LVL271:
 1427              	.L87:
 500:../system/src/modbus_rtu/rtu_getters.c **** 		scaling_b = config->slave_6_scaling_b;
 1428              		.loc 1 500 0
 1429 009e 91F84E20 		ldrb	r2, [r1, #78]	@ zero_extendqisi2
 1430              	.LVL272:
 501:../system/src/modbus_rtu/rtu_getters.c **** 		scaling_c = config->slave_6_scaling_c;
 1431              		.loc 1 501 0
 1432 00a2 91F84F70 		ldrb	r7, [r1, #79]	@ zero_extendqisi2
 1433              	.LVL273:
 502:../system/src/modbus_rtu/rtu_getters.c **** 		scaling_d = config->slave_6_scaling_d;
 1434              		.loc 1 502 0
 1435 00a6 91F85060 		ldrb	r6, [r1, #80]	@ zero_extendqisi2
 1436              	.LVL274:
 503:../system/src/modbus_rtu/rtu_getters.c **** 		last_update_timestam = rte_rtu_pool_queue.last_successfull_call_to_function[5];
 1437              		.loc 1 503 0
 1438 00aa 91F85150 		ldrb	r5, [r1, #81]	@ zero_extendqisi2
 1439              	.LVL275:
 504:../system/src/modbus_rtu/rtu_getters.c **** 		source = &rte_wx_modbus_rtu_f6;
 1440              		.loc 1 504 0
 1441 00ae 174B     		ldr	r3, .L96
 1442 00b0 596B     		ldr	r1, [r3, #52]
 1443              	.LVL276:
 505:../system/src/modbus_rtu/rtu_getters.c **** 		break;
 1444              		.loc 1 505 0
 1445 00b2 1C4B     		ldr	r3, .L96+24
 442:../system/src/modbus_rtu/rtu_getters.c **** 
 1446              		.loc 1 442 0
 1447 00b4 4FF0FF30 		mov	r0, #-1
 506:../system/src/modbus_rtu/rtu_getters.c **** 	default:
 1448              		.loc 1 506 0
 1449 00b8 B6E7     		b	.L80
 1450              	.LVL277:
 1451              	.L90:
 451:../system/src/modbus_rtu/rtu_getters.c **** 
 1452              		.loc 1 451 0
 1453 00ba 0021     		movs	r1, #0
 1454              	.LVL278:
 444:../system/src/modbus_rtu/rtu_getters.c **** 
 1455              		.loc 1 444 0
 1456 00bc 0B46     		mov	r3, r1
 508:../system/src/modbus_rtu/rtu_getters.c **** 	}
 1457              		.loc 1 508 0
 1458 00be 0820     		movs	r0, #8
 1459 00c0 B2E7     		b	.L80
 1460              	.LVL279:
 1461              	.L95:
 511:../system/src/modbus_rtu/rtu_getters.c **** 		// copy the raw value from modbus register data
 1462              		.loc 1 511 0 discriminator 1
 1463 00c2 002B     		cmp	r3, #0
 1464 00c4 B3D0     		beq	.L79
 513:../system/src/modbus_rtu/rtu_getters.c **** 
 1465              		.loc 1 513 0
 1466 00c6 DB88     		ldrh	r3, [r3, #6]
 1467              	.LVL280:
 517:../system/src/modbus_rtu/rtu_getters.c **** 							scaling_b * (uint16_t)raw_register_value +
 1468              		.loc 1 517 0
 1469 00c8 03FB0272 		mla	r2, r3, r2, r7
 1470              	.LVL281:
 518:../system/src/modbus_rtu/rtu_getters.c **** 							scaling_c
 1471              		.loc 1 518 0
 1472 00cc 03FB0262 		mla	r2, r3, r2, r6
 516:../system/src/modbus_rtu/rtu_getters.c **** 							scaling_a * (uint16_t)raw_register_value * (uint16_t)raw_register_value +
 1473              		.loc 1 516 0
 1474 00d0 02EB8202 		add	r2, r2, r2, lsl #2
 1475 00d4 5300     		lsls	r3, r2, #1
 1476              	.LVL282:
 520:../system/src/modbus_rtu/rtu_getters.c **** 							scaling_d);
 1477              		.loc 1 520 0
 1478 00d6 93FBF5F3 		sdiv	r3, r3, r5
 516:../system/src/modbus_rtu/rtu_getters.c **** 							scaling_a * (uint16_t)raw_register_value * (uint16_t)raw_register_value +
 1479              		.loc 1 516 0
 1480 00da 9BB2     		uxth	r3, r3
 1481              	.LVL283:
 1482              	.LBB34:
 1483              	.LBB35:
 1484              		.loc 2 63 0
 1485 00dc 124A     		ldr	r2, .L96+28
 1486 00de 1268     		ldr	r2, [r2]
 1487              	.LBE35:
 1488              	.LBE34:
 524:../system/src/modbus_rtu/rtu_getters.c **** 			physical_register_value > RTU_MAX_VALID_WINDSPEED) {
 1489              		.loc 1 524 0
 1490 00e0 511A     		subs	r1, r2, r1
 1491              	.LVL284:
 1492 00e2 1248     		ldr	r0, .L96+32
 1493              	.LVL285:
 1494 00e4 8142     		cmp	r1, r0
 1495 00e6 0DD8     		bhi	.L91
 524:../system/src/modbus_rtu/rtu_getters.c **** 			physical_register_value > RTU_MAX_VALID_WINDSPEED) {
 1496              		.loc 1 524 0 is_stmt 0 discriminator 1
 1497 00e8 B3F5C87F 		cmp	r3, #400
 1498 00ec 0CD8     		bhi	.L92
 529:../system/src/modbus_rtu/rtu_getters.c **** 				retval = MODBUS_RET_DEGRADED;
 1499              		.loc 1 529 0 is_stmt 1
 1500 00ee 1049     		ldr	r1, .L96+36
 1501 00f0 0968     		ldr	r1, [r1]
 1502 00f2 521A     		subs	r2, r2, r1
 1503 00f4 0F49     		ldr	r1, .L96+40
 1504 00f6 8A42     		cmp	r2, r1
 1505 00f8 02D8     		bhi	.L93
 530:../system/src/modbus_rtu/rtu_getters.c **** 			}
 1506              		.loc 1 530 0
 1507 00fa 0620     		movs	r0, #6
 1508              	.L89:
 1509              	.LVL286:
 536:../system/src/modbus_rtu/rtu_getters.c **** 
 1510              		.loc 1 536 0
 1511 00fc 2380     		strh	r3, [r4]	@ movhi
 1512 00fe 96E7     		b	.L79
 1513              	.LVL287:
 1514              	.L93:
 533:../system/src/modbus_rtu/rtu_getters.c **** 			}
 1515              		.loc 1 533 0
 1516 0100 0020     		movs	r0, #0
 1517 0102 FBE7     		b	.L89
 1518              	.L91:
 526:../system/src/modbus_rtu/rtu_getters.c **** 		}
 1519              		.loc 1 526 0
 1520 0104 0520     		movs	r0, #5
 1521 0106 92E7     		b	.L79
 1522              	.L92:
 1523 0108 0520     		movs	r0, #5
 1524              	.LVL288:
 541:../system/src/modbus_rtu/rtu_getters.c **** }
 1525              		.loc 1 541 0
 1526 010a 90E7     		b	.L79
 1527              	.L97:
 1528              		.align	2
 1529              	.L96:
 1530 010c 00000000 		.word	rte_rtu_pool_queue
 1531 0110 00000000 		.word	rte_wx_modbus_rtu_f1
 1532 0114 00000000 		.word	rte_wx_modbus_rtu_f2
 1533 0118 00000000 		.word	rte_wx_modbus_rtu_f3
 1534 011c 00000000 		.word	rte_wx_modbus_rtu_f4
 1535 0120 00000000 		.word	rte_wx_modbus_rtu_f5
 1536 0124 00000000 		.word	rte_wx_modbus_rtu_f6
 1537 0128 00000000 		.word	master_time
 1538 012c E0930400 		.word	300000
 1539 0130 00000000 		.word	rte_rtu_last_modbus_rx_error_timestamp
 1540 0134 DF930400 		.word	299999
 1541              		.cfi_endproc
 1542              	.LFE405:
 1544              		.section	.text.rtu_get_humidity,"ax",%progbits
 1545              		.align	1
 1546              		.global	rtu_get_humidity
 1547              		.syntax unified
 1548              		.thumb
 1549              		.thumb_func
 1550              		.fpu fpv4-sp-d16
 1552              	rtu_get_humidity:
 1553              	.LFB406:
 543:../system/src/modbus_rtu/rtu_getters.c **** 
 544:../system/src/modbus_rtu/rtu_getters.c **** int32_t rtu_get_humidity(int8_t* out, const config_data_rtu_t * const config) {
 1554              		.loc 1 544 0
 1555              		.cfi_startproc
 1556              		@ args = 0, pretend = 0, frame = 8
 1557              		@ frame_needed = 0, uses_anonymous_args = 0
 1558              		@ link register save eliminated.
 1559              	.LVL289:
 1560 0000 F0B4     		push	{r4, r5, r6, r7}
 1561              		.cfi_def_cfa_offset 16
 1562              		.cfi_offset 4, -16
 1563              		.cfi_offset 5, -12
 1564              		.cfi_offset 6, -8
 1565              		.cfi_offset 7, -4
 1566 0002 82B0     		sub	sp, sp, #8
 1567              		.cfi_def_cfa_offset 24
 1568 0004 0446     		mov	r4, r0
 1569              	.LVL290:
 545:../system/src/modbus_rtu/rtu_getters.c **** 
 546:../system/src/modbus_rtu/rtu_getters.c **** 	int32_t retval = MODBUS_RET_UNINITIALIZED;
 547:../system/src/modbus_rtu/rtu_getters.c **** 
 548:../system/src/modbus_rtu/rtu_getters.c **** 	rtu_register_data_t* source = 0;
 549:../system/src/modbus_rtu/rtu_getters.c **** 
 550:../system/src/modbus_rtu/rtu_getters.c **** 	volatile uint16_t raw_register_value = 0;
 1570              		.loc 1 550 0
 1571 0006 0023     		movs	r3, #0
 1572 0008 ADF80630 		strh	r3, [sp, #6]	@ movhi
 1573              	.LVL291:
 551:../system/src/modbus_rtu/rtu_getters.c **** 	int8_t physical_register_value = 0;
 552:../system/src/modbus_rtu/rtu_getters.c **** 
 553:../system/src/modbus_rtu/rtu_getters.c **** 	uint16_t scaling_a, scaling_b, scaling_c, scaling_d;
 554:../system/src/modbus_rtu/rtu_getters.c **** 
 555:../system/src/modbus_rtu/rtu_getters.c **** 	// the timestamp of last update of the register value
 556:../system/src/modbus_rtu/rtu_getters.c **** 	uint32_t last_update_timestam = 0;
 557:../system/src/modbus_rtu/rtu_getters.c **** 
 558:../system/src/modbus_rtu/rtu_getters.c **** 	switch (config->humidity_source) {
 1574              		.loc 1 558 0
 1575 000c 8B79     		ldrb	r3, [r1, #6]	@ zero_extendqisi2
 1576 000e 013B     		subs	r3, r3, #1
 1577 0010 052B     		cmp	r3, #5
 1578 0012 57D8     		bhi	.L109
 1579 0014 DFE803F0 		tbb	[pc, r3]
 1580              	.LVL292:
 1581              	.L101:
 1582 0018 03       		.byte	(.L100-.L101)/2
 1583 0019 12       		.byte	(.L102-.L101)/2
 1584 001a 1E       		.byte	(.L103-.L101)/2
 1585 001b 2C       		.byte	(.L104-.L101)/2
 1586 001c 3A       		.byte	(.L105-.L101)/2
 1587 001d 48       		.byte	(.L106-.L101)/2
 1588              		.p2align 1
 1589              	.L100:
 559:../system/src/modbus_rtu/rtu_getters.c **** 	case 1:
 560:../system/src/modbus_rtu/rtu_getters.c **** 		source = &rte_wx_modbus_rtu_f1;
 561:../system/src/modbus_rtu/rtu_getters.c **** 		scaling_a = config->slave_1_scaling_a;
 1590              		.loc 1 561 0
 1591 001e 8A7C     		ldrb	r2, [r1, #18]	@ zero_extendqisi2
 1592              	.LVL293:
 562:../system/src/modbus_rtu/rtu_getters.c **** 		scaling_b = config->slave_1_scaling_b;
 1593              		.loc 1 562 0
 1594 0020 CF7C     		ldrb	r7, [r1, #19]	@ zero_extendqisi2
 1595              	.LVL294:
 563:../system/src/modbus_rtu/rtu_getters.c **** 		scaling_c = config->slave_1_scaling_c;
 1596              		.loc 1 563 0
 1597 0022 0D7D     		ldrb	r5, [r1, #20]	@ zero_extendqisi2
 1598              	.LVL295:
 564:../system/src/modbus_rtu/rtu_getters.c **** 		scaling_d = config->slave_1_scaling_d;
 1599              		.loc 1 564 0
 1600 0024 4E7D     		ldrb	r6, [r1, #21]	@ zero_extendqisi2
 1601              	.LVL296:
 565:../system/src/modbus_rtu/rtu_getters.c **** 		last_update_timestam = rte_rtu_pool_queue.last_successfull_call_to_function[0];
 1602              		.loc 1 565 0
 1603 0026 424B     		ldr	r3, .L116
 1604 0028 1B6A     		ldr	r3, [r3, #32]
 1605              	.LVL297:
 560:../system/src/modbus_rtu/rtu_getters.c **** 		scaling_a = config->slave_1_scaling_a;
 1606              		.loc 1 560 0
 1607 002a 4249     		ldr	r1, .L116+4
 1608              	.LVL298:
 546:../system/src/modbus_rtu/rtu_getters.c **** 
 1609              		.loc 1 546 0
 1610 002c 4FF0FF30 		mov	r0, #-1
 1611              	.LVL299:
 1612              	.L99:
 566:../system/src/modbus_rtu/rtu_getters.c **** 		break;
 567:../system/src/modbus_rtu/rtu_getters.c **** 	case 2:
 568:../system/src/modbus_rtu/rtu_getters.c **** 		source = &rte_wx_modbus_rtu_f2;
 569:../system/src/modbus_rtu/rtu_getters.c **** 		scaling_a = config->slave_2_scaling_a;
 570:../system/src/modbus_rtu/rtu_getters.c **** 		scaling_b = config->slave_2_scaling_b;
 571:../system/src/modbus_rtu/rtu_getters.c **** 		scaling_c = config->slave_2_scaling_c;
 572:../system/src/modbus_rtu/rtu_getters.c **** 		scaling_d = config->slave_2_scaling_d;
 573:../system/src/modbus_rtu/rtu_getters.c **** 		last_update_timestam = rte_rtu_pool_queue.last_successfull_call_to_function[1];
 574:../system/src/modbus_rtu/rtu_getters.c **** 		source = &rte_wx_modbus_rtu_f2;
 575:../system/src/modbus_rtu/rtu_getters.c **** 		break;
 576:../system/src/modbus_rtu/rtu_getters.c **** 	case 3:
 577:../system/src/modbus_rtu/rtu_getters.c **** 		source = &rte_wx_modbus_rtu_f3;
 578:../system/src/modbus_rtu/rtu_getters.c **** 		scaling_a = config->slave_3_scaling_a;
 579:../system/src/modbus_rtu/rtu_getters.c **** 		scaling_b = config->slave_3_scaling_b;
 580:../system/src/modbus_rtu/rtu_getters.c **** 		scaling_c = config->slave_3_scaling_c;
 581:../system/src/modbus_rtu/rtu_getters.c **** 		scaling_d = config->slave_3_scaling_d;
 582:../system/src/modbus_rtu/rtu_getters.c **** 		last_update_timestam = rte_rtu_pool_queue.last_successfull_call_to_function[2];
 583:../system/src/modbus_rtu/rtu_getters.c **** 		source = &rte_wx_modbus_rtu_f3;
 584:../system/src/modbus_rtu/rtu_getters.c **** 		break;
 585:../system/src/modbus_rtu/rtu_getters.c **** 	case 4:
 586:../system/src/modbus_rtu/rtu_getters.c **** 		source = &rte_wx_modbus_rtu_f4;
 587:../system/src/modbus_rtu/rtu_getters.c **** 		scaling_a = config->slave_4_scaling_a;
 588:../system/src/modbus_rtu/rtu_getters.c **** 		scaling_b = config->slave_4_scaling_b;
 589:../system/src/modbus_rtu/rtu_getters.c **** 		scaling_c = config->slave_4_scaling_c;
 590:../system/src/modbus_rtu/rtu_getters.c **** 		scaling_d = config->slave_4_scaling_d;
 591:../system/src/modbus_rtu/rtu_getters.c **** 		last_update_timestam = rte_rtu_pool_queue.last_successfull_call_to_function[3];
 592:../system/src/modbus_rtu/rtu_getters.c **** 		source = &rte_wx_modbus_rtu_f4;
 593:../system/src/modbus_rtu/rtu_getters.c **** 		break;
 594:../system/src/modbus_rtu/rtu_getters.c **** 	case 5:
 595:../system/src/modbus_rtu/rtu_getters.c **** 		source = &rte_wx_modbus_rtu_f5;
 596:../system/src/modbus_rtu/rtu_getters.c **** 		scaling_a = config->slave_5_scaling_a;
 597:../system/src/modbus_rtu/rtu_getters.c **** 		scaling_b = config->slave_5_scaling_b;
 598:../system/src/modbus_rtu/rtu_getters.c **** 		scaling_c = config->slave_5_scaling_c;
 599:../system/src/modbus_rtu/rtu_getters.c **** 		scaling_d = config->slave_5_scaling_d;
 600:../system/src/modbus_rtu/rtu_getters.c **** 		last_update_timestam = rte_rtu_pool_queue.last_successfull_call_to_function[4];
 601:../system/src/modbus_rtu/rtu_getters.c **** 		source = &rte_wx_modbus_rtu_f5;
 602:../system/src/modbus_rtu/rtu_getters.c **** 		break;
 603:../system/src/modbus_rtu/rtu_getters.c **** 	case 6:
 604:../system/src/modbus_rtu/rtu_getters.c **** 		source = &rte_wx_modbus_rtu_f6;
 605:../system/src/modbus_rtu/rtu_getters.c **** 		scaling_a = config->slave_6_scaling_a;
 606:../system/src/modbus_rtu/rtu_getters.c **** 		scaling_b = config->slave_6_scaling_b;
 607:../system/src/modbus_rtu/rtu_getters.c **** 		scaling_c = config->slave_6_scaling_c;
 608:../system/src/modbus_rtu/rtu_getters.c **** 		scaling_d = config->slave_6_scaling_d;
 609:../system/src/modbus_rtu/rtu_getters.c **** 		last_update_timestam = rte_rtu_pool_queue.last_successfull_call_to_function[5];
 610:../system/src/modbus_rtu/rtu_getters.c **** 		source = &rte_wx_modbus_rtu_f6;
 611:../system/src/modbus_rtu/rtu_getters.c **** 		break;
 612:../system/src/modbus_rtu/rtu_getters.c **** 	default:
 613:../system/src/modbus_rtu/rtu_getters.c **** 		retval = MODBUS_RET_NOT_CONFIGURED;
 614:../system/src/modbus_rtu/rtu_getters.c **** 	}
 615:../system/src/modbus_rtu/rtu_getters.c **** 
 616:../system/src/modbus_rtu/rtu_getters.c **** 	if (retval == MODBUS_RET_UNINITIALIZED && source != 0) {
 1613              		.loc 1 616 0
 1614 0030 B0F1FF3F 		cmp	r0, #-1
 1615 0034 4AD0     		beq	.L115
 1616              	.LVL300:
 1617              	.L98:
 617:../system/src/modbus_rtu/rtu_getters.c **** 		// copy the raw value from modbus register data
 618:../system/src/modbus_rtu/rtu_getters.c **** 		raw_register_value = source->registers_values[0];
 619:../system/src/modbus_rtu/rtu_getters.c **** 
 620:../system/src/modbus_rtu/rtu_getters.c **** 		// rescale the raw value to target value in percents
 621:../system/src/modbus_rtu/rtu_getters.c **** 		physical_register_value = 	(int8_t) (
 622:../system/src/modbus_rtu/rtu_getters.c **** 							scaling_a * (uint16_t)raw_register_value * (uint16_t)raw_register_value +
 623:../system/src/modbus_rtu/rtu_getters.c **** 							scaling_b * (uint16_t)raw_register_value +
 624:../system/src/modbus_rtu/rtu_getters.c **** 							scaling_c
 625:../system/src/modbus_rtu/rtu_getters.c **** 							/
 626:../system/src/modbus_rtu/rtu_getters.c **** 							scaling_d);
 627:../system/src/modbus_rtu/rtu_getters.c **** 
 628:../system/src/modbus_rtu/rtu_getters.c **** 		// check when the value has been updated
 629:../system/src/modbus_rtu/rtu_getters.c **** 		if (main_get_master_time() - last_update_timestam > RTU_MAXIMUM_VALUE_AGE ||
 630:../system/src/modbus_rtu/rtu_getters.c **** 				physical_register_value > 100 || physical_register_value < 0) {
 631:../system/src/modbus_rtu/rtu_getters.c **** 			retval = MODBUS_RET_NOT_AVALIABLE;
 632:../system/src/modbus_rtu/rtu_getters.c **** 		}
 633:../system/src/modbus_rtu/rtu_getters.c **** 		else {
 634:../system/src/modbus_rtu/rtu_getters.c **** 			if (main_get_master_time() - rte_rtu_last_modbus_rx_error_timestamp < RTU_MAXIMUM_VALUE_AGE) {
 635:../system/src/modbus_rtu/rtu_getters.c **** 				retval = MODBUS_RET_DEGRADED;
 636:../system/src/modbus_rtu/rtu_getters.c **** 			}
 637:../system/src/modbus_rtu/rtu_getters.c **** 			else {
 638:../system/src/modbus_rtu/rtu_getters.c **** 				retval = MODBUS_RET_OK;
 639:../system/src/modbus_rtu/rtu_getters.c **** 			}
 640:../system/src/modbus_rtu/rtu_getters.c **** 
 641:../system/src/modbus_rtu/rtu_getters.c **** 			*out = physical_register_value;
 642:../system/src/modbus_rtu/rtu_getters.c **** 
 643:../system/src/modbus_rtu/rtu_getters.c **** 
 644:../system/src/modbus_rtu/rtu_getters.c **** 		}
 645:../system/src/modbus_rtu/rtu_getters.c **** 	}
 646:../system/src/modbus_rtu/rtu_getters.c **** 
 647:../system/src/modbus_rtu/rtu_getters.c **** 	return retval;
 648:../system/src/modbus_rtu/rtu_getters.c **** }
 1618              		.loc 1 648 0
 1619 0036 02B0     		add	sp, sp, #8
 1620              		.cfi_remember_state
 1621              		.cfi_def_cfa_offset 16
 1622              		@ sp needed
 1623 0038 F0BC     		pop	{r4, r5, r6, r7}
 1624              		.cfi_restore 7
 1625              		.cfi_restore 6
 1626              		.cfi_restore 5
 1627              		.cfi_restore 4
 1628              		.cfi_def_cfa_offset 0
 1629              	.LVL301:
 1630 003a 7047     		bx	lr
 1631              	.LVL302:
 1632              	.L102:
 1633              		.cfi_restore_state
 569:../system/src/modbus_rtu/rtu_getters.c **** 		scaling_b = config->slave_2_scaling_b;
 1634              		.loc 1 569 0
 1635 003c 8A7F     		ldrb	r2, [r1, #30]	@ zero_extendqisi2
 1636              	.LVL303:
 570:../system/src/modbus_rtu/rtu_getters.c **** 		scaling_c = config->slave_2_scaling_c;
 1637              		.loc 1 570 0
 1638 003e CF7F     		ldrb	r7, [r1, #31]	@ zero_extendqisi2
 1639              	.LVL304:
 571:../system/src/modbus_rtu/rtu_getters.c **** 		scaling_d = config->slave_2_scaling_d;
 1640              		.loc 1 571 0
 1641 0040 91F82050 		ldrb	r5, [r1, #32]	@ zero_extendqisi2
 1642              	.LVL305:
 572:../system/src/modbus_rtu/rtu_getters.c **** 		last_update_timestam = rte_rtu_pool_queue.last_successfull_call_to_function[1];
 1643              		.loc 1 572 0
 1644 0044 91F82160 		ldrb	r6, [r1, #33]	@ zero_extendqisi2
 1645              	.LVL306:
 573:../system/src/modbus_rtu/rtu_getters.c **** 		source = &rte_wx_modbus_rtu_f2;
 1646              		.loc 1 573 0
 1647 0048 394B     		ldr	r3, .L116
 1648 004a 5B6A     		ldr	r3, [r3, #36]
 1649              	.LVL307:
 574:../system/src/modbus_rtu/rtu_getters.c **** 		break;
 1650              		.loc 1 574 0
 1651 004c 3A49     		ldr	r1, .L116+8
 1652              	.LVL308:
 546:../system/src/modbus_rtu/rtu_getters.c **** 
 1653              		.loc 1 546 0
 1654 004e 4FF0FF30 		mov	r0, #-1
 575:../system/src/modbus_rtu/rtu_getters.c **** 	case 3:
 1655              		.loc 1 575 0
 1656 0052 EDE7     		b	.L99
 1657              	.LVL309:
 1658              	.L103:
 578:../system/src/modbus_rtu/rtu_getters.c **** 		scaling_b = config->slave_3_scaling_b;
 1659              		.loc 1 578 0
 1660 0054 91F82A20 		ldrb	r2, [r1, #42]	@ zero_extendqisi2
 1661              	.LVL310:
 579:../system/src/modbus_rtu/rtu_getters.c **** 		scaling_c = config->slave_3_scaling_c;
 1662              		.loc 1 579 0
 1663 0058 91F82B70 		ldrb	r7, [r1, #43]	@ zero_extendqisi2
 1664              	.LVL311:
 580:../system/src/modbus_rtu/rtu_getters.c **** 		scaling_d = config->slave_3_scaling_d;
 1665              		.loc 1 580 0
 1666 005c 91F82C50 		ldrb	r5, [r1, #44]	@ zero_extendqisi2
 1667              	.LVL312:
 581:../system/src/modbus_rtu/rtu_getters.c **** 		last_update_timestam = rte_rtu_pool_queue.last_successfull_call_to_function[2];
 1668              		.loc 1 581 0
 1669 0060 91F82D60 		ldrb	r6, [r1, #45]	@ zero_extendqisi2
 1670              	.LVL313:
 582:../system/src/modbus_rtu/rtu_getters.c **** 		source = &rte_wx_modbus_rtu_f3;
 1671              		.loc 1 582 0
 1672 0064 324B     		ldr	r3, .L116
 1673 0066 9B6A     		ldr	r3, [r3, #40]
 1674              	.LVL314:
 583:../system/src/modbus_rtu/rtu_getters.c **** 		break;
 1675              		.loc 1 583 0
 1676 0068 3449     		ldr	r1, .L116+12
 1677              	.LVL315:
 546:../system/src/modbus_rtu/rtu_getters.c **** 
 1678              		.loc 1 546 0
 1679 006a 4FF0FF30 		mov	r0, #-1
 584:../system/src/modbus_rtu/rtu_getters.c **** 	case 4:
 1680              		.loc 1 584 0
 1681 006e DFE7     		b	.L99
 1682              	.LVL316:
 1683              	.L104:
 587:../system/src/modbus_rtu/rtu_getters.c **** 		scaling_b = config->slave_4_scaling_b;
 1684              		.loc 1 587 0
 1685 0070 91F83620 		ldrb	r2, [r1, #54]	@ zero_extendqisi2
 1686              	.LVL317:
 588:../system/src/modbus_rtu/rtu_getters.c **** 		scaling_c = config->slave_4_scaling_c;
 1687              		.loc 1 588 0
 1688 0074 91F83770 		ldrb	r7, [r1, #55]	@ zero_extendqisi2
 1689              	.LVL318:
 589:../system/src/modbus_rtu/rtu_getters.c **** 		scaling_d = config->slave_4_scaling_d;
 1690              		.loc 1 589 0
 1691 0078 91F83850 		ldrb	r5, [r1, #56]	@ zero_extendqisi2
 1692              	.LVL319:
 590:../system/src/modbus_rtu/rtu_getters.c **** 		last_update_timestam = rte_rtu_pool_queue.last_successfull_call_to_function[3];
 1693              		.loc 1 590 0
 1694 007c 91F83960 		ldrb	r6, [r1, #57]	@ zero_extendqisi2
 1695              	.LVL320:
 591:../system/src/modbus_rtu/rtu_getters.c **** 		source = &rte_wx_modbus_rtu_f4;
 1696              		.loc 1 591 0
 1697 0080 2B4B     		ldr	r3, .L116
 1698 0082 DB6A     		ldr	r3, [r3, #44]
 1699              	.LVL321:
 592:../system/src/modbus_rtu/rtu_getters.c **** 		break;
 1700              		.loc 1 592 0
 1701 0084 2E49     		ldr	r1, .L116+16
 1702              	.LVL322:
 546:../system/src/modbus_rtu/rtu_getters.c **** 
 1703              		.loc 1 546 0
 1704 0086 4FF0FF30 		mov	r0, #-1
 593:../system/src/modbus_rtu/rtu_getters.c **** 	case 5:
 1705              		.loc 1 593 0
 1706 008a D1E7     		b	.L99
 1707              	.LVL323:
 1708              	.L105:
 596:../system/src/modbus_rtu/rtu_getters.c **** 		scaling_b = config->slave_5_scaling_b;
 1709              		.loc 1 596 0
 1710 008c 91F84220 		ldrb	r2, [r1, #66]	@ zero_extendqisi2
 1711              	.LVL324:
 597:../system/src/modbus_rtu/rtu_getters.c **** 		scaling_c = config->slave_5_scaling_c;
 1712              		.loc 1 597 0
 1713 0090 91F84370 		ldrb	r7, [r1, #67]	@ zero_extendqisi2
 1714              	.LVL325:
 598:../system/src/modbus_rtu/rtu_getters.c **** 		scaling_d = config->slave_5_scaling_d;
 1715              		.loc 1 598 0
 1716 0094 91F84450 		ldrb	r5, [r1, #68]	@ zero_extendqisi2
 1717              	.LVL326:
 599:../system/src/modbus_rtu/rtu_getters.c **** 		last_update_timestam = rte_rtu_pool_queue.last_successfull_call_to_function[4];
 1718              		.loc 1 599 0
 1719 0098 91F84560 		ldrb	r6, [r1, #69]	@ zero_extendqisi2
 1720              	.LVL327:
 600:../system/src/modbus_rtu/rtu_getters.c **** 		source = &rte_wx_modbus_rtu_f5;
 1721              		.loc 1 600 0
 1722 009c 244B     		ldr	r3, .L116
 1723 009e 1B6B     		ldr	r3, [r3, #48]
 1724              	.LVL328:
 601:../system/src/modbus_rtu/rtu_getters.c **** 		break;
 1725              		.loc 1 601 0
 1726 00a0 2849     		ldr	r1, .L116+20
 1727              	.LVL329:
 546:../system/src/modbus_rtu/rtu_getters.c **** 
 1728              		.loc 1 546 0
 1729 00a2 4FF0FF30 		mov	r0, #-1
 602:../system/src/modbus_rtu/rtu_getters.c **** 	case 6:
 1730              		.loc 1 602 0
 1731 00a6 C3E7     		b	.L99
 1732              	.LVL330:
 1733              	.L106:
 605:../system/src/modbus_rtu/rtu_getters.c **** 		scaling_b = config->slave_6_scaling_b;
 1734              		.loc 1 605 0
 1735 00a8 91F84E20 		ldrb	r2, [r1, #78]	@ zero_extendqisi2
 1736              	.LVL331:
 606:../system/src/modbus_rtu/rtu_getters.c **** 		scaling_c = config->slave_6_scaling_c;
 1737              		.loc 1 606 0
 1738 00ac 91F84F70 		ldrb	r7, [r1, #79]	@ zero_extendqisi2
 1739              	.LVL332:
 607:../system/src/modbus_rtu/rtu_getters.c **** 		scaling_d = config->slave_6_scaling_d;
 1740              		.loc 1 607 0
 1741 00b0 91F85050 		ldrb	r5, [r1, #80]	@ zero_extendqisi2
 1742              	.LVL333:
 608:../system/src/modbus_rtu/rtu_getters.c **** 		last_update_timestam = rte_rtu_pool_queue.last_successfull_call_to_function[5];
 1743              		.loc 1 608 0
 1744 00b4 91F85160 		ldrb	r6, [r1, #81]	@ zero_extendqisi2
 1745              	.LVL334:
 609:../system/src/modbus_rtu/rtu_getters.c **** 		source = &rte_wx_modbus_rtu_f6;
 1746              		.loc 1 609 0
 1747 00b8 1D4B     		ldr	r3, .L116
 1748 00ba 5B6B     		ldr	r3, [r3, #52]
 1749              	.LVL335:
 610:../system/src/modbus_rtu/rtu_getters.c **** 		break;
 1750              		.loc 1 610 0
 1751 00bc 2249     		ldr	r1, .L116+24
 1752              	.LVL336:
 546:../system/src/modbus_rtu/rtu_getters.c **** 
 1753              		.loc 1 546 0
 1754 00be 4FF0FF30 		mov	r0, #-1
 611:../system/src/modbus_rtu/rtu_getters.c **** 	default:
 1755              		.loc 1 611 0
 1756 00c2 B5E7     		b	.L99
 1757              	.LVL337:
 1758              	.L109:
 556:../system/src/modbus_rtu/rtu_getters.c **** 
 1759              		.loc 1 556 0
 1760 00c4 0023     		movs	r3, #0
 548:../system/src/modbus_rtu/rtu_getters.c **** 
 1761              		.loc 1 548 0
 1762 00c6 1946     		mov	r1, r3
 1763              	.LVL338:
 613:../system/src/modbus_rtu/rtu_getters.c **** 	}
 1764              		.loc 1 613 0
 1765 00c8 0820     		movs	r0, #8
 1766 00ca B1E7     		b	.L99
 1767              	.LVL339:
 1768              	.L115:
 616:../system/src/modbus_rtu/rtu_getters.c **** 		// copy the raw value from modbus register data
 1769              		.loc 1 616 0 discriminator 1
 1770 00cc 0029     		cmp	r1, #0
 1771 00ce B2D0     		beq	.L98
 618:../system/src/modbus_rtu/rtu_getters.c **** 
 1772              		.loc 1 618 0
 1773 00d0 C988     		ldrh	r1, [r1, #6]
 1774              	.LVL340:
 1775 00d2 ADF80610 		strh	r1, [sp, #6]	@ movhi
 622:../system/src/modbus_rtu/rtu_getters.c **** 							scaling_b * (uint16_t)raw_register_value +
 1776              		.loc 1 622 0
 1777 00d6 BDF806C0 		ldrh	ip, [sp, #6]
 1778 00da BDF80610 		ldrh	r1, [sp, #6]
 1779 00de BDF80600 		ldrh	r0, [sp, #6]
 1780              	.LVL341:
 1781 00e2 12FB0CF2 		smulbb	r2, r2, ip
 1782              	.LVL342:
 1783 00e6 17FB00F7 		smulbb	r7, r7, r0
 1784              	.LVL343:
 1785 00ea 12FB0172 		smlabb	r2, r2, r1, r7
 623:../system/src/modbus_rtu/rtu_getters.c **** 							scaling_c
 1786              		.loc 1 623 0
 1787 00ee B5FBF6F5 		udiv	r5, r5, r6
 1788              	.LVL344:
 1789 00f2 55FA82F2 		uxtab	r2, r5, r2
 621:../system/src/modbus_rtu/rtu_getters.c **** 							scaling_a * (uint16_t)raw_register_value * (uint16_t)raw_register_value +
 1790              		.loc 1 621 0
 1791 00f6 52B2     		sxtb	r2, r2
 1792              	.LVL345:
 1793              	.LBB36:
 1794              	.LBB37:
 1795              		.loc 2 63 0
 1796 00f8 1449     		ldr	r1, .L116+28
 1797 00fa 0968     		ldr	r1, [r1]
 1798              	.LBE37:
 1799              	.LBE36:
 629:../system/src/modbus_rtu/rtu_getters.c **** 				physical_register_value > 100 || physical_register_value < 0) {
 1800              		.loc 1 629 0
 1801 00fc CB1A     		subs	r3, r1, r3
 1802              	.LVL346:
 1803 00fe 1448     		ldr	r0, .L116+32
 1804 0100 8342     		cmp	r3, r0
 1805 0102 0ED8     		bhi	.L110
 629:../system/src/modbus_rtu/rtu_getters.c **** 				physical_register_value > 100 || physical_register_value < 0) {
 1806              		.loc 1 629 0 is_stmt 0 discriminator 1
 1807 0104 642A     		cmp	r2, #100
 1808 0106 0EDC     		bgt	.L111
 630:../system/src/modbus_rtu/rtu_getters.c **** 			retval = MODBUS_RET_NOT_AVALIABLE;
 1809              		.loc 1 630 0 is_stmt 1
 1810 0108 002A     		cmp	r2, #0
 1811 010a 0EDB     		blt	.L112
 634:../system/src/modbus_rtu/rtu_getters.c **** 				retval = MODBUS_RET_DEGRADED;
 1812              		.loc 1 634 0
 1813 010c 114B     		ldr	r3, .L116+36
 1814 010e 1B68     		ldr	r3, [r3]
 1815 0110 C91A     		subs	r1, r1, r3
 1816 0112 114B     		ldr	r3, .L116+40
 1817 0114 9942     		cmp	r1, r3
 1818 0116 02D8     		bhi	.L113
 635:../system/src/modbus_rtu/rtu_getters.c **** 			}
 1819              		.loc 1 635 0
 1820 0118 0620     		movs	r0, #6
 1821              	.L108:
 1822              	.LVL347:
 641:../system/src/modbus_rtu/rtu_getters.c **** 
 1823              		.loc 1 641 0
 1824 011a 2270     		strb	r2, [r4]
 1825 011c 8BE7     		b	.L98
 1826              	.LVL348:
 1827              	.L113:
 638:../system/src/modbus_rtu/rtu_getters.c **** 			}
 1828              		.loc 1 638 0
 1829 011e 0020     		movs	r0, #0
 1830 0120 FBE7     		b	.L108
 1831              	.L110:
 631:../system/src/modbus_rtu/rtu_getters.c **** 		}
 1832              		.loc 1 631 0
 1833 0122 0520     		movs	r0, #5
 1834 0124 87E7     		b	.L98
 1835              	.L111:
 1836 0126 0520     		movs	r0, #5
 1837 0128 85E7     		b	.L98
 1838              	.L112:
 1839 012a 0520     		movs	r0, #5
 1840              	.LVL349:
 647:../system/src/modbus_rtu/rtu_getters.c **** }
 1841              		.loc 1 647 0
 1842 012c 83E7     		b	.L98
 1843              	.L117:
 1844 012e 00BF     		.align	2
 1845              	.L116:
 1846 0130 00000000 		.word	rte_rtu_pool_queue
 1847 0134 00000000 		.word	rte_wx_modbus_rtu_f1
 1848 0138 00000000 		.word	rte_wx_modbus_rtu_f2
 1849 013c 00000000 		.word	rte_wx_modbus_rtu_f3
 1850 0140 00000000 		.word	rte_wx_modbus_rtu_f4
 1851 0144 00000000 		.word	rte_wx_modbus_rtu_f5
 1852 0148 00000000 		.word	rte_wx_modbus_rtu_f6
 1853 014c 00000000 		.word	master_time
 1854 0150 E0930400 		.word	300000
 1855 0154 00000000 		.word	rte_rtu_last_modbus_rx_error_timestamp
 1856 0158 DF930400 		.word	299999
 1857              		.cfi_endproc
 1858              	.LFE406:
 1860              		.section	.text.rtu_get_raw_values_string,"ax",%progbits
 1861              		.align	1
 1862              		.global	rtu_get_raw_values_string
 1863              		.syntax unified
 1864              		.thumb
 1865              		.thumb_func
 1866              		.fpu fpv4-sp-d16
 1868              	rtu_get_raw_values_string:
 1869              	.LFB407:
 649:../system/src/modbus_rtu/rtu_getters.c **** 
 650:../system/src/modbus_rtu/rtu_getters.c **** void rtu_get_raw_values_string(char* out, uint16_t out_buffer_ln, uint8_t* generated_string_ln) {
 1870              		.loc 1 650 0
 1871              		.cfi_startproc
 1872              		@ args = 0, pretend = 0, frame = 0
 1873              		@ frame_needed = 0, uses_anonymous_args = 0
 1874              	.LVL350:
 1875 0000 F0B5     		push	{r4, r5, r6, r7, lr}
 1876              		.cfi_def_cfa_offset 20
 1877              		.cfi_offset 4, -20
 1878              		.cfi_offset 5, -16
 1879              		.cfi_offset 6, -12
 1880              		.cfi_offset 7, -8
 1881              		.cfi_offset 14, -4
 1882 0002 87B0     		sub	sp, sp, #28
 1883              		.cfi_def_cfa_offset 48
 1884 0004 1446     		mov	r4, r2
 1885              	.LVL351:
 651:../system/src/modbus_rtu/rtu_getters.c **** 
 652:../system/src/modbus_rtu/rtu_getters.c **** 	uint16_t f1_value = 0;
 653:../system/src/modbus_rtu/rtu_getters.c **** 	uint16_t f2_value = 0;
 654:../system/src/modbus_rtu/rtu_getters.c **** 	uint16_t f3_value = 0;
 655:../system/src/modbus_rtu/rtu_getters.c **** 	uint16_t f4_value = 0;
 656:../system/src/modbus_rtu/rtu_getters.c **** 	uint16_t f5_value = 0;
 657:../system/src/modbus_rtu/rtu_getters.c **** 	uint16_t f6_value = 0;
 658:../system/src/modbus_rtu/rtu_getters.c **** 
 659:../system/src/modbus_rtu/rtu_getters.c **** 	int string_ln = 0;
 660:../system/src/modbus_rtu/rtu_getters.c **** 
 661:../system/src/modbus_rtu/rtu_getters.c **** 	f1_value = rte_wx_modbus_rtu_f1.registers_values[0];
 1886              		.loc 1 661 0
 1887 0006 0D4B     		ldr	r3, .L120
 1888 0008 DB88     		ldrh	r3, [r3, #6]
 1889              	.LVL352:
 662:../system/src/modbus_rtu/rtu_getters.c **** 
 663:../system/src/modbus_rtu/rtu_getters.c **** 	f2_value = rte_wx_modbus_rtu_f2.registers_values[0];
 1890              		.loc 1 663 0
 1891 000a 0D4A     		ldr	r2, .L120+4
 1892              	.LVL353:
 1893 000c D288     		ldrh	r2, [r2, #6]
 1894              	.LVL354:
 664:../system/src/modbus_rtu/rtu_getters.c **** 
 665:../system/src/modbus_rtu/rtu_getters.c **** 	f3_value = rte_wx_modbus_rtu_f3.registers_values[0];
 1895              		.loc 1 665 0
 1896 000e 0D4D     		ldr	r5, .L120+8
 1897 0010 ED88     		ldrh	r5, [r5, #6]
 1898              	.LVL355:
 666:../system/src/modbus_rtu/rtu_getters.c **** 
 667:../system/src/modbus_rtu/rtu_getters.c **** 	f4_value = rte_wx_modbus_rtu_f4.registers_values[0];
 1899              		.loc 1 667 0
 1900 0012 0D4E     		ldr	r6, .L120+12
 1901 0014 F688     		ldrh	r6, [r6, #6]
 1902              	.LVL356:
 668:../system/src/modbus_rtu/rtu_getters.c **** 
 669:../system/src/modbus_rtu/rtu_getters.c **** 	f5_value = rte_wx_modbus_rtu_f5.registers_values[0];
 1903              		.loc 1 669 0
 1904 0016 0D4F     		ldr	r7, .L120+16
 1905 0018 FF88     		ldrh	r7, [r7, #6]
 1906              	.LVL357:
 670:../system/src/modbus_rtu/rtu_getters.c **** 
 671:../system/src/modbus_rtu/rtu_getters.c **** 	f6_value = rte_wx_modbus_rtu_f6.registers_values[0];
 1907              		.loc 1 671 0
 1908 001a DFF838C0 		ldr	ip, .L120+24
 1909 001e BCF806C0 		ldrh	ip, [ip, #6]
 1910              	.LVL358:
 672:../system/src/modbus_rtu/rtu_getters.c **** 
 673:../system/src/modbus_rtu/rtu_getters.c **** 	string_ln = snprintf(out, out_buffer_ln, ">F1V %X, F2V %X, F3V %X, F4V %X, F5V %X, F6V %X",
 1911              		.loc 1 673 0
 1912 0022 CDF810C0 		str	ip, [sp, #16]
 1913 0026 0397     		str	r7, [sp, #12]
 1914 0028 0296     		str	r6, [sp, #8]
 1915 002a 0195     		str	r5, [sp, #4]
 1916 002c 0092     		str	r2, [sp]
 1917 002e 084A     		ldr	r2, .L120+20
 1918              	.LVL359:
 1919 0030 FFF7FEFF 		bl	snprintf
 1920              	.LVL360:
 674:../system/src/modbus_rtu/rtu_getters.c **** 												(int) f1_value,
 675:../system/src/modbus_rtu/rtu_getters.c **** 												(int) f2_value,
 676:../system/src/modbus_rtu/rtu_getters.c **** 												(int) f3_value,
 677:../system/src/modbus_rtu/rtu_getters.c **** 												(int) f4_value,
 678:../system/src/modbus_rtu/rtu_getters.c **** 												(int) f5_value,
 679:../system/src/modbus_rtu/rtu_getters.c **** 												(int) f6_value);
 680:../system/src/modbus_rtu/rtu_getters.c **** 
 681:../system/src/modbus_rtu/rtu_getters.c **** 	*generated_string_ln = (uint8_t)string_ln;
 1921              		.loc 1 681 0
 1922 0034 2070     		strb	r0, [r4]
 682:../system/src/modbus_rtu/rtu_getters.c **** }
 1923              		.loc 1 682 0
 1924 0036 07B0     		add	sp, sp, #28
 1925              		.cfi_def_cfa_offset 20
 1926              		@ sp needed
 1927 0038 F0BD     		pop	{r4, r5, r6, r7, pc}
 1928              	.LVL361:
 1929              	.L121:
 1930 003a 00BF     		.align	2
 1931              	.L120:
 1932 003c 00000000 		.word	rte_wx_modbus_rtu_f1
 1933 0040 00000000 		.word	rte_wx_modbus_rtu_f2
 1934 0044 00000000 		.word	rte_wx_modbus_rtu_f3
 1935 0048 00000000 		.word	rte_wx_modbus_rtu_f4
 1936 004c 00000000 		.word	rte_wx_modbus_rtu_f5
 1937 0050 00000000 		.word	.LC0
 1938 0054 00000000 		.word	rte_wx_modbus_rtu_f6
 1939              		.cfi_endproc
 1940              	.LFE407:
 1942              		.section	.rodata.rtu_get_raw_values_string.str1.4,"aMS",%progbits,1
 1943              		.align	2
 1944              	.LC0:
 1945 0000 3E463156 		.ascii	">F1V %X, F2V %X, F3V %X, F4V %X, F5V %X, F6V %X\000"
 1945      2025582C 
 1945      20463256 
 1945      2025582C 
 1945      20463356 
 1946              		.text
 1947              	.Letext0:
 1948              		.file 3 "/usr/local/bin/gcc-arm-none-eabi-7-2018-q2-update/arm-none-eabi/include/machine/_default_
 1949              		.file 4 "/usr/local/bin/gcc-arm-none-eabi-7-2018-q2-update/arm-none-eabi/include/sys/lock.h"
 1950              		.file 5 "/usr/local/bin/gcc-arm-none-eabi-7-2018-q2-update/arm-none-eabi/include/sys/_types.h"
 1951              		.file 6 "/usr/local/bin/gcc-arm-none-eabi-7-2018-q2-update/lib/gcc/arm-none-eabi/7.3.1/include/std
 1952              		.file 7 "/usr/local/bin/gcc-arm-none-eabi-7-2018-q2-update/arm-none-eabi/include/sys/reent.h"
 1953              		.file 8 "/usr/local/bin/gcc-arm-none-eabi-7-2018-q2-update/arm-none-eabi/include/sys/_stdint.h"
 1954              		.file 9 "../include/config_data.h"
 1955              		.file 10 "../system/include/modbus_rtu/rtu_register_data_t.h"
 1956              		.file 11 "../system/include/cmsis/stm32l4xx/core_cm4.h"
 1957              		.file 12 "../system/include/cmsis/stm32l4xx/device/system_stm32l4xx.h"
 1958              		.file 13 "../system/include/cmsis/stm32l4xx/device/stm32l471xx.h"
 1959              		.file 14 "../system/include/drivers/dallas.h"
 1960              		.file 15 "../system/include/drivers/analog_anemometer.h"
 1961              		.file 16 "../system/include/davis_vantage/davis_loop_t.h"
 1962              		.file 17 "../system/include/umb_master/umb_frame_t.h"
 1963              		.file 18 "../system/include/umb_master/umb_state_t.h"
 1964              		.file 19 "../system/include/drivers/serial.h"
 1965              		.file 20 "../system/include/umb_master/umb_context_t.h"
 1966              		.file 21 "../system/include/umb_master/umb_qf_t.h"
 1967              		.file 22 "/usr/local/bin/gcc-arm-none-eabi-7-2018-q2-update/arm-none-eabi/include/math.h"
 1968              		.file 23 "../system/include/drivers/ms5611.h"
 1969              		.file 24 "../system/include/drivers/bme280.h"
 1970              		.file 25 "../include/rte_wx.h"
 1971              		.file 26 "../system/include/modbus_rtu/rtu_exception_t.h"
 1972              		.file 27 "../system/include/modbus_rtu/rtu_pool_queue_t.h"
 1973              		.file 28 "../include/rte_rtu.h"
 1974              		.file 29 "../system/include/aprs/cfifo.h"
 1975              		.file 30 "../system/include/aprs/afsk.h"
 1976              		.file 31 "../system/include/aprs/ax25.h"
 1977              		.file 32 "/usr/local/bin/gcc-arm-none-eabi-7-2018-q2-update/arm-none-eabi/include/stdio.h"