   1              		.cpu cortex-m4
   2              		.eabi_attribute 27, 1
   3              		.eabi_attribute 28, 1
   4              		.eabi_attribute 20, 1
   5              		.eabi_attribute 21, 1
   6              		.eabi_attribute 23, 3
   7              		.eabi_attribute 24, 1
   8              		.eabi_attribute 25, 1
   9              		.eabi_attribute 26, 1
  10              		.eabi_attribute 30, 1
  11              		.eabi_attribute 34, 1
  12              		.eabi_attribute 18, 4
  13              		.file	"stm32l4xx_hal_crc_ex.c"
  14              		.text
  15              	.Ltext0:
  16              		.cfi_sections	.debug_frame
  17              		.section	.text.HAL_CRCEx_Polynomial_Set,"ax",%progbits
  18              		.align	1
  19              		.global	HAL_CRCEx_Polynomial_Set
  20              		.syntax unified
  21              		.thumb
  22              		.thumb_func
  23              		.fpu fpv4-sp-d16
  25              	HAL_CRCEx_Polynomial_Set:
  26              	.LFB317:
  27              		.file 1 "../system/src/stm32l4-hal-driver/stm32l4xx_hal_crc_ex.c"
   1:../system/src/stm32l4-hal-driver/stm32l4xx_hal_crc_ex.c **** /**
   2:../system/src/stm32l4-hal-driver/stm32l4xx_hal_crc_ex.c ****   ******************************************************************************
   3:../system/src/stm32l4-hal-driver/stm32l4xx_hal_crc_ex.c ****   * @file    stm32l4xx_hal_crc_ex.c
   4:../system/src/stm32l4-hal-driver/stm32l4xx_hal_crc_ex.c ****   * @author  MCD Application Team
   5:../system/src/stm32l4-hal-driver/stm32l4xx_hal_crc_ex.c ****   * @brief   Extended CRC HAL module driver.
   6:../system/src/stm32l4-hal-driver/stm32l4xx_hal_crc_ex.c ****   *          This file provides firmware functions to manage the extended
   7:../system/src/stm32l4-hal-driver/stm32l4xx_hal_crc_ex.c ****   *          functionalities of the CRC peripheral.
   8:../system/src/stm32l4-hal-driver/stm32l4xx_hal_crc_ex.c ****   *
   9:../system/src/stm32l4-hal-driver/stm32l4xx_hal_crc_ex.c ****   @verbatim
  10:../system/src/stm32l4-hal-driver/stm32l4xx_hal_crc_ex.c **** ================================================================================
  11:../system/src/stm32l4-hal-driver/stm32l4xx_hal_crc_ex.c ****             ##### How to use this driver #####
  12:../system/src/stm32l4-hal-driver/stm32l4xx_hal_crc_ex.c **** ================================================================================
  13:../system/src/stm32l4-hal-driver/stm32l4xx_hal_crc_ex.c ****     [..]
  14:../system/src/stm32l4-hal-driver/stm32l4xx_hal_crc_ex.c ****          (+) Set user-defined generating polynomial thru HAL_CRCEx_Polynomial_Set()
  15:../system/src/stm32l4-hal-driver/stm32l4xx_hal_crc_ex.c ****          (+) Configure Input or Output data inversion
  16:../system/src/stm32l4-hal-driver/stm32l4xx_hal_crc_ex.c **** 
  17:../system/src/stm32l4-hal-driver/stm32l4xx_hal_crc_ex.c ****   @endverbatim
  18:../system/src/stm32l4-hal-driver/stm32l4xx_hal_crc_ex.c ****   ******************************************************************************
  19:../system/src/stm32l4-hal-driver/stm32l4xx_hal_crc_ex.c ****   * @attention
  20:../system/src/stm32l4-hal-driver/stm32l4xx_hal_crc_ex.c ****   *
  21:../system/src/stm32l4-hal-driver/stm32l4xx_hal_crc_ex.c ****   * <h2><center>&copy; Copyright (c) 2017 STMicroelectronics.
  22:../system/src/stm32l4-hal-driver/stm32l4xx_hal_crc_ex.c ****   * All rights reserved.</center></h2>
  23:../system/src/stm32l4-hal-driver/stm32l4xx_hal_crc_ex.c ****   *
  24:../system/src/stm32l4-hal-driver/stm32l4xx_hal_crc_ex.c ****   * This software component is licensed by ST under BSD 3-Clause license,
  25:../system/src/stm32l4-hal-driver/stm32l4xx_hal_crc_ex.c ****   * the "License"; You may not use this file except in compliance with the
  26:../system/src/stm32l4-hal-driver/stm32l4xx_hal_crc_ex.c ****   * License. You may obtain a copy of the License at:
  27:../system/src/stm32l4-hal-driver/stm32l4xx_hal_crc_ex.c ****   *                        opensource.org/licenses/BSD-3-Clause
  28:../system/src/stm32l4-hal-driver/stm32l4xx_hal_crc_ex.c ****   *
  29:../system/src/stm32l4-hal-driver/stm32l4xx_hal_crc_ex.c ****   ******************************************************************************
  30:../system/src/stm32l4-hal-driver/stm32l4xx_hal_crc_ex.c ****   */
  31:../system/src/stm32l4-hal-driver/stm32l4xx_hal_crc_ex.c **** 
  32:../system/src/stm32l4-hal-driver/stm32l4xx_hal_crc_ex.c **** /* Includes ------------------------------------------------------------------*/
  33:../system/src/stm32l4-hal-driver/stm32l4xx_hal_crc_ex.c **** #include "stm32l4xx_hal.h"
  34:../system/src/stm32l4-hal-driver/stm32l4xx_hal_crc_ex.c **** 
  35:../system/src/stm32l4-hal-driver/stm32l4xx_hal_crc_ex.c **** /** @addtogroup STM32L4xx_HAL_Driver
  36:../system/src/stm32l4-hal-driver/stm32l4xx_hal_crc_ex.c ****   * @{
  37:../system/src/stm32l4-hal-driver/stm32l4xx_hal_crc_ex.c ****   */
  38:../system/src/stm32l4-hal-driver/stm32l4xx_hal_crc_ex.c **** 
  39:../system/src/stm32l4-hal-driver/stm32l4xx_hal_crc_ex.c **** /** @defgroup CRCEx CRCEx
  40:../system/src/stm32l4-hal-driver/stm32l4xx_hal_crc_ex.c ****   * @brief CRC Extended HAL module driver
  41:../system/src/stm32l4-hal-driver/stm32l4xx_hal_crc_ex.c ****   * @{
  42:../system/src/stm32l4-hal-driver/stm32l4xx_hal_crc_ex.c ****   */
  43:../system/src/stm32l4-hal-driver/stm32l4xx_hal_crc_ex.c **** 
  44:../system/src/stm32l4-hal-driver/stm32l4xx_hal_crc_ex.c **** #ifdef HAL_CRC_MODULE_ENABLED
  45:../system/src/stm32l4-hal-driver/stm32l4xx_hal_crc_ex.c **** 
  46:../system/src/stm32l4-hal-driver/stm32l4xx_hal_crc_ex.c **** /* Private typedef -----------------------------------------------------------*/
  47:../system/src/stm32l4-hal-driver/stm32l4xx_hal_crc_ex.c **** /* Private define ------------------------------------------------------------*/
  48:../system/src/stm32l4-hal-driver/stm32l4xx_hal_crc_ex.c **** /* Private macro -------------------------------------------------------------*/
  49:../system/src/stm32l4-hal-driver/stm32l4xx_hal_crc_ex.c **** /* Private variables ---------------------------------------------------------*/
  50:../system/src/stm32l4-hal-driver/stm32l4xx_hal_crc_ex.c **** /* Private function prototypes -----------------------------------------------*/
  51:../system/src/stm32l4-hal-driver/stm32l4xx_hal_crc_ex.c **** /* Exported functions --------------------------------------------------------*/
  52:../system/src/stm32l4-hal-driver/stm32l4xx_hal_crc_ex.c **** 
  53:../system/src/stm32l4-hal-driver/stm32l4xx_hal_crc_ex.c **** /** @defgroup CRCEx_Exported_Functions CRC Extended Exported Functions
  54:../system/src/stm32l4-hal-driver/stm32l4xx_hal_crc_ex.c ****   * @{
  55:../system/src/stm32l4-hal-driver/stm32l4xx_hal_crc_ex.c ****   */
  56:../system/src/stm32l4-hal-driver/stm32l4xx_hal_crc_ex.c **** 
  57:../system/src/stm32l4-hal-driver/stm32l4xx_hal_crc_ex.c **** /** @defgroup CRCEx_Exported_Functions_Group1 Extended Initialization/de-initialization functions
  58:../system/src/stm32l4-hal-driver/stm32l4xx_hal_crc_ex.c ****   * @brief    Extended Initialization and Configuration functions.
  59:../system/src/stm32l4-hal-driver/stm32l4xx_hal_crc_ex.c ****   *
  60:../system/src/stm32l4-hal-driver/stm32l4xx_hal_crc_ex.c **** @verbatim
  61:../system/src/stm32l4-hal-driver/stm32l4xx_hal_crc_ex.c ****  ===============================================================================
  62:../system/src/stm32l4-hal-driver/stm32l4xx_hal_crc_ex.c ****             ##### Extended configuration functions #####
  63:../system/src/stm32l4-hal-driver/stm32l4xx_hal_crc_ex.c ****  ===============================================================================
  64:../system/src/stm32l4-hal-driver/stm32l4xx_hal_crc_ex.c ****     [..]  This section provides functions allowing to:
  65:../system/src/stm32l4-hal-driver/stm32l4xx_hal_crc_ex.c ****       (+) Configure the generating polynomial
  66:../system/src/stm32l4-hal-driver/stm32l4xx_hal_crc_ex.c ****       (+) Configure the input data inversion
  67:../system/src/stm32l4-hal-driver/stm32l4xx_hal_crc_ex.c ****       (+) Configure the output data inversion
  68:../system/src/stm32l4-hal-driver/stm32l4xx_hal_crc_ex.c **** 
  69:../system/src/stm32l4-hal-driver/stm32l4xx_hal_crc_ex.c **** @endverbatim
  70:../system/src/stm32l4-hal-driver/stm32l4xx_hal_crc_ex.c ****   * @{
  71:../system/src/stm32l4-hal-driver/stm32l4xx_hal_crc_ex.c ****   */
  72:../system/src/stm32l4-hal-driver/stm32l4xx_hal_crc_ex.c **** 
  73:../system/src/stm32l4-hal-driver/stm32l4xx_hal_crc_ex.c **** 
  74:../system/src/stm32l4-hal-driver/stm32l4xx_hal_crc_ex.c **** /**
  75:../system/src/stm32l4-hal-driver/stm32l4xx_hal_crc_ex.c ****   * @brief  Initialize the CRC polynomial if different from default one.
  76:../system/src/stm32l4-hal-driver/stm32l4xx_hal_crc_ex.c ****   * @param  hcrc CRC handle
  77:../system/src/stm32l4-hal-driver/stm32l4xx_hal_crc_ex.c ****   * @param  Pol CRC generating polynomial (7, 8, 16 or 32-bit long).
  78:../system/src/stm32l4-hal-driver/stm32l4xx_hal_crc_ex.c ****   *         This parameter is written in normal representation, e.g.
  79:../system/src/stm32l4-hal-driver/stm32l4xx_hal_crc_ex.c ****   *         @arg for a polynomial of degree 7, X^7 + X^6 + X^5 + X^2 + 1 is written 0x65
  80:../system/src/stm32l4-hal-driver/stm32l4xx_hal_crc_ex.c ****   *         @arg for a polynomial of degree 16, X^16 + X^12 + X^5 + 1 is written 0x1021
  81:../system/src/stm32l4-hal-driver/stm32l4xx_hal_crc_ex.c ****   * @param  PolyLength CRC polynomial length.
  82:../system/src/stm32l4-hal-driver/stm32l4xx_hal_crc_ex.c ****   *         This parameter can be one of the following values:
  83:../system/src/stm32l4-hal-driver/stm32l4xx_hal_crc_ex.c ****   *          @arg @ref CRC_POLYLENGTH_7B  7-bit long CRC (generating polynomial of degree 7)
  84:../system/src/stm32l4-hal-driver/stm32l4xx_hal_crc_ex.c ****   *          @arg @ref CRC_POLYLENGTH_8B  8-bit long CRC (generating polynomial of degree 8)
  85:../system/src/stm32l4-hal-driver/stm32l4xx_hal_crc_ex.c ****   *          @arg @ref CRC_POLYLENGTH_16B 16-bit long CRC (generating polynomial of degree 16)
  86:../system/src/stm32l4-hal-driver/stm32l4xx_hal_crc_ex.c ****   *          @arg @ref CRC_POLYLENGTH_32B 32-bit long CRC (generating polynomial of degree 32)
  87:../system/src/stm32l4-hal-driver/stm32l4xx_hal_crc_ex.c ****   * @retval HAL status
  88:../system/src/stm32l4-hal-driver/stm32l4xx_hal_crc_ex.c ****   */
  89:../system/src/stm32l4-hal-driver/stm32l4xx_hal_crc_ex.c **** HAL_StatusTypeDef HAL_CRCEx_Polynomial_Set(CRC_HandleTypeDef *hcrc, uint32_t Pol, uint32_t PolyLeng
  90:../system/src/stm32l4-hal-driver/stm32l4xx_hal_crc_ex.c **** {
  28              		.loc 1 90 0
  29              		.cfi_startproc
  30              		@ args = 0, pretend = 0, frame = 0
  31              		@ frame_needed = 0, uses_anonymous_args = 0
  32              		@ link register save eliminated.
  33              	.LVL0:
  34 0000 30B4     		push	{r4, r5}
  35              		.cfi_def_cfa_offset 8
  36              		.cfi_offset 4, -8
  37              		.cfi_offset 5, -4
  38              	.LVL1:
  91:../system/src/stm32l4-hal-driver/stm32l4xx_hal_crc_ex.c ****   HAL_StatusTypeDef status = HAL_OK;
  92:../system/src/stm32l4-hal-driver/stm32l4xx_hal_crc_ex.c ****   uint32_t msb = 31U; /* polynomial degree is 32 at most, so msb is initialized to max value */
  39              		.loc 1 92 0
  40 0002 1F24     		movs	r4, #31
  41              	.LVL2:
  42              	.L3:
  93:../system/src/stm32l4-hal-driver/stm32l4xx_hal_crc_ex.c **** 
  94:../system/src/stm32l4-hal-driver/stm32l4xx_hal_crc_ex.c ****   /* Check the parameters */
  95:../system/src/stm32l4-hal-driver/stm32l4xx_hal_crc_ex.c ****   assert_param(IS_CRC_POL_LENGTH(PolyLength));
  96:../system/src/stm32l4-hal-driver/stm32l4xx_hal_crc_ex.c **** 
  97:../system/src/stm32l4-hal-driver/stm32l4xx_hal_crc_ex.c ****   /* check polynomial definition vs polynomial size:
  98:../system/src/stm32l4-hal-driver/stm32l4xx_hal_crc_ex.c ****    * polynomial length must be aligned with polynomial
  99:../system/src/stm32l4-hal-driver/stm32l4xx_hal_crc_ex.c ****    * definition. HAL_ERROR is reported if Pol degree is
 100:../system/src/stm32l4-hal-driver/stm32l4xx_hal_crc_ex.c ****    * larger than that indicated by PolyLength.
 101:../system/src/stm32l4-hal-driver/stm32l4xx_hal_crc_ex.c ****    * Look for MSB position: msb will contain the degree of
 102:../system/src/stm32l4-hal-driver/stm32l4xx_hal_crc_ex.c ****    *  the second to the largest polynomial member. E.g., for
 103:../system/src/stm32l4-hal-driver/stm32l4xx_hal_crc_ex.c ****    *  X^7 + X^6 + X^5 + X^2 + 1, msb = 6. */
 104:../system/src/stm32l4-hal-driver/stm32l4xx_hal_crc_ex.c ****   while ((msb-- > 0U) && ((Pol & ((uint32_t)(0x1U) << (msb & 0x1FU))) == 0U))
  43              		.loc 1 104 0 discriminator 2
  44 0004 651E     		subs	r5, r4, #1
  45              	.LVL3:
  46 0006 3CB1     		cbz	r4, .L2
  47              		.loc 1 104 0 is_stmt 0 discriminator 1
  48 0008 05F01F03 		and	r3, r5, #31
  49 000c 21FA03F3 		lsr	r3, r1, r3
  50 0010 2C46     		mov	r4, r5
  51 0012 13F0010F 		tst	r3, #1
  52 0016 F5D0     		beq	.L3
  53              	.L2:
 105:../system/src/stm32l4-hal-driver/stm32l4xx_hal_crc_ex.c ****   {
 106:../system/src/stm32l4-hal-driver/stm32l4xx_hal_crc_ex.c ****   }
 107:../system/src/stm32l4-hal-driver/stm32l4xx_hal_crc_ex.c **** 
 108:../system/src/stm32l4-hal-driver/stm32l4xx_hal_crc_ex.c ****   switch (PolyLength)
  54              		.loc 1 108 0 is_stmt 1
  55 0018 182A     		cmp	r2, #24
  56 001a 23D8     		bhi	.L10
  57 001c DFE802F0 		tbb	[pc, r2]
  58              	.L6:
  59 0020 0F       		.byte	(.L5-.L6)/2
  60 0021 22       		.byte	(.L10-.L6)/2
  61 0022 22       		.byte	(.L10-.L6)/2
  62 0023 22       		.byte	(.L10-.L6)/2
  63 0024 22       		.byte	(.L10-.L6)/2
  64 0025 22       		.byte	(.L10-.L6)/2
  65 0026 22       		.byte	(.L10-.L6)/2
  66 0027 22       		.byte	(.L10-.L6)/2
  67 0028 1E       		.byte	(.L7-.L6)/2
  68 0029 22       		.byte	(.L10-.L6)/2
  69 002a 22       		.byte	(.L10-.L6)/2
  70 002b 22       		.byte	(.L10-.L6)/2
  71 002c 22       		.byte	(.L10-.L6)/2
  72 002d 22       		.byte	(.L10-.L6)/2
  73 002e 22       		.byte	(.L10-.L6)/2
  74 002f 22       		.byte	(.L10-.L6)/2
  75 0030 1A       		.byte	(.L8-.L6)/2
  76 0031 22       		.byte	(.L10-.L6)/2
  77 0032 22       		.byte	(.L10-.L6)/2
  78 0033 22       		.byte	(.L10-.L6)/2
  79 0034 22       		.byte	(.L10-.L6)/2
  80 0035 22       		.byte	(.L10-.L6)/2
  81 0036 22       		.byte	(.L10-.L6)/2
  82 0037 22       		.byte	(.L10-.L6)/2
  83 0038 0D       		.byte	(.L9-.L6)/2
  84 0039 00       		.p2align 1
  85              	.L9:
 109:../system/src/stm32l4-hal-driver/stm32l4xx_hal_crc_ex.c ****   {
 110:../system/src/stm32l4-hal-driver/stm32l4xx_hal_crc_ex.c ****     case CRC_POLYLENGTH_7B:
 111:../system/src/stm32l4-hal-driver/stm32l4xx_hal_crc_ex.c ****       if (msb >= HAL_CRC_LENGTH_7B)
  86              		.loc 1 111 0
  87 003a 062D     		cmp	r5, #6
  88 003c 14D8     		bhi	.L15
  89              	.L5:
 112:../system/src/stm32l4-hal-driver/stm32l4xx_hal_crc_ex.c ****       {
 113:../system/src/stm32l4-hal-driver/stm32l4xx_hal_crc_ex.c ****         status =   HAL_ERROR;
 114:../system/src/stm32l4-hal-driver/stm32l4xx_hal_crc_ex.c ****       }
 115:../system/src/stm32l4-hal-driver/stm32l4xx_hal_crc_ex.c ****       break;
 116:../system/src/stm32l4-hal-driver/stm32l4xx_hal_crc_ex.c ****     case CRC_POLYLENGTH_8B:
 117:../system/src/stm32l4-hal-driver/stm32l4xx_hal_crc_ex.c ****       if (msb >= HAL_CRC_LENGTH_8B)
 118:../system/src/stm32l4-hal-driver/stm32l4xx_hal_crc_ex.c ****       {
 119:../system/src/stm32l4-hal-driver/stm32l4xx_hal_crc_ex.c ****         status =   HAL_ERROR;
 120:../system/src/stm32l4-hal-driver/stm32l4xx_hal_crc_ex.c ****       }
 121:../system/src/stm32l4-hal-driver/stm32l4xx_hal_crc_ex.c ****       break;
 122:../system/src/stm32l4-hal-driver/stm32l4xx_hal_crc_ex.c ****     case CRC_POLYLENGTH_16B:
 123:../system/src/stm32l4-hal-driver/stm32l4xx_hal_crc_ex.c ****       if (msb >= HAL_CRC_LENGTH_16B)
 124:../system/src/stm32l4-hal-driver/stm32l4xx_hal_crc_ex.c ****       {
 125:../system/src/stm32l4-hal-driver/stm32l4xx_hal_crc_ex.c ****         status =   HAL_ERROR;
 126:../system/src/stm32l4-hal-driver/stm32l4xx_hal_crc_ex.c ****       }
 127:../system/src/stm32l4-hal-driver/stm32l4xx_hal_crc_ex.c ****       break;
 128:../system/src/stm32l4-hal-driver/stm32l4xx_hal_crc_ex.c **** 
 129:../system/src/stm32l4-hal-driver/stm32l4xx_hal_crc_ex.c ****     case CRC_POLYLENGTH_32B:
 130:../system/src/stm32l4-hal-driver/stm32l4xx_hal_crc_ex.c ****       /* no polynomial definition vs. polynomial length issue possible */
 131:../system/src/stm32l4-hal-driver/stm32l4xx_hal_crc_ex.c ****       break;
 132:../system/src/stm32l4-hal-driver/stm32l4xx_hal_crc_ex.c ****     default:
 133:../system/src/stm32l4-hal-driver/stm32l4xx_hal_crc_ex.c ****       status =  HAL_ERROR;
 134:../system/src/stm32l4-hal-driver/stm32l4xx_hal_crc_ex.c ****       break;
 135:../system/src/stm32l4-hal-driver/stm32l4xx_hal_crc_ex.c ****   }
 136:../system/src/stm32l4-hal-driver/stm32l4xx_hal_crc_ex.c ****   if (status == HAL_OK)
 137:../system/src/stm32l4-hal-driver/stm32l4xx_hal_crc_ex.c ****   {
 138:../system/src/stm32l4-hal-driver/stm32l4xx_hal_crc_ex.c ****     /* set generating polynomial */
 139:../system/src/stm32l4-hal-driver/stm32l4xx_hal_crc_ex.c ****     WRITE_REG(hcrc->Instance->POL, Pol);
  90              		.loc 1 139 0
  91 003e 0368     		ldr	r3, [r0]
  92 0040 5961     		str	r1, [r3, #20]
 140:../system/src/stm32l4-hal-driver/stm32l4xx_hal_crc_ex.c **** 
 141:../system/src/stm32l4-hal-driver/stm32l4xx_hal_crc_ex.c ****     /* set generating polynomial size */
 142:../system/src/stm32l4-hal-driver/stm32l4xx_hal_crc_ex.c ****     MODIFY_REG(hcrc->Instance->CR, CRC_CR_POLYSIZE, PolyLength);
  93              		.loc 1 142 0
  94 0042 0168     		ldr	r1, [r0]
  95              	.LVL4:
  96 0044 8B68     		ldr	r3, [r1, #8]
  97              	.LVL5:
  98 0046 23F01803 		bic	r3, r3, #24
  99 004a 1A43     		orrs	r2, r2, r3
 100              	.LVL6:
 101 004c 8A60     		str	r2, [r1, #8]
 102 004e 0020     		movs	r0, #0
 103              	.LVL7:
 104              	.L4:
 143:../system/src/stm32l4-hal-driver/stm32l4xx_hal_crc_ex.c ****   }
 144:../system/src/stm32l4-hal-driver/stm32l4xx_hal_crc_ex.c ****   /* Return function status */
 145:../system/src/stm32l4-hal-driver/stm32l4xx_hal_crc_ex.c ****   return status;
 146:../system/src/stm32l4-hal-driver/stm32l4xx_hal_crc_ex.c **** }
 105              		.loc 1 146 0
 106 0050 30BC     		pop	{r4, r5}
 107              		.cfi_remember_state
 108              		.cfi_restore 5
 109              		.cfi_restore 4
 110              		.cfi_def_cfa_offset 0
 111              	.LVL8:
 112 0052 7047     		bx	lr
 113              	.LVL9:
 114              	.L8:
 115              		.cfi_restore_state
 117:../system/src/stm32l4-hal-driver/stm32l4xx_hal_crc_ex.c ****       {
 116              		.loc 1 117 0
 117 0054 072D     		cmp	r5, #7
 118 0056 F2D9     		bls	.L5
 119:../system/src/stm32l4-hal-driver/stm32l4xx_hal_crc_ex.c ****       }
 119              		.loc 1 119 0
 120 0058 0120     		movs	r0, #1
 121              	.LVL10:
 122 005a F9E7     		b	.L4
 123              	.LVL11:
 124              	.L7:
 123:../system/src/stm32l4-hal-driver/stm32l4xx_hal_crc_ex.c ****       {
 125              		.loc 1 123 0
 126 005c 0F2D     		cmp	r5, #15
 127 005e EED9     		bls	.L5
 125:../system/src/stm32l4-hal-driver/stm32l4xx_hal_crc_ex.c ****       }
 128              		.loc 1 125 0
 129 0060 0120     		movs	r0, #1
 130              	.LVL12:
 131 0062 F5E7     		b	.L4
 132              	.LVL13:
 133              	.L10:
 133:../system/src/stm32l4-hal-driver/stm32l4xx_hal_crc_ex.c ****       break;
 134              		.loc 1 133 0
 135 0064 0120     		movs	r0, #1
 136              	.LVL14:
 137 0066 F3E7     		b	.L4
 138              	.LVL15:
 139              	.L15:
 113:../system/src/stm32l4-hal-driver/stm32l4xx_hal_crc_ex.c ****       }
 140              		.loc 1 113 0
 141 0068 0120     		movs	r0, #1
 142              	.LVL16:
 143 006a F1E7     		b	.L4
 144              		.cfi_endproc
 145              	.LFE317:
 147              		.section	.text.HAL_CRCEx_Input_Data_Reverse,"ax",%progbits
 148              		.align	1
 149              		.global	HAL_CRCEx_Input_Data_Reverse
 150              		.syntax unified
 151              		.thumb
 152              		.thumb_func
 153              		.fpu fpv4-sp-d16
 155              	HAL_CRCEx_Input_Data_Reverse:
 156              	.LFB318:
 147:../system/src/stm32l4-hal-driver/stm32l4xx_hal_crc_ex.c **** 
 148:../system/src/stm32l4-hal-driver/stm32l4xx_hal_crc_ex.c **** /**
 149:../system/src/stm32l4-hal-driver/stm32l4xx_hal_crc_ex.c ****   * @brief  Set the Reverse Input data mode.
 150:../system/src/stm32l4-hal-driver/stm32l4xx_hal_crc_ex.c ****   * @param  hcrc CRC handle
 151:../system/src/stm32l4-hal-driver/stm32l4xx_hal_crc_ex.c ****   * @param  InputReverseMode Input Data inversion mode.
 152:../system/src/stm32l4-hal-driver/stm32l4xx_hal_crc_ex.c ****   *         This parameter can be one of the following values:
 153:../system/src/stm32l4-hal-driver/stm32l4xx_hal_crc_ex.c ****   *          @arg @ref CRC_INPUTDATA_INVERSION_NONE     no change in bit order (default value)
 154:../system/src/stm32l4-hal-driver/stm32l4xx_hal_crc_ex.c ****   *          @arg @ref CRC_INPUTDATA_INVERSION_BYTE     Byte-wise bit reversal
 155:../system/src/stm32l4-hal-driver/stm32l4xx_hal_crc_ex.c ****   *          @arg @ref CRC_INPUTDATA_INVERSION_HALFWORD HalfWord-wise bit reversal
 156:../system/src/stm32l4-hal-driver/stm32l4xx_hal_crc_ex.c ****   *          @arg @ref CRC_INPUTDATA_INVERSION_WORD     Word-wise bit reversal
 157:../system/src/stm32l4-hal-driver/stm32l4xx_hal_crc_ex.c ****   * @retval HAL status
 158:../system/src/stm32l4-hal-driver/stm32l4xx_hal_crc_ex.c ****   */
 159:../system/src/stm32l4-hal-driver/stm32l4xx_hal_crc_ex.c **** HAL_StatusTypeDef HAL_CRCEx_Input_Data_Reverse(CRC_HandleTypeDef *hcrc, uint32_t InputReverseMode)
 160:../system/src/stm32l4-hal-driver/stm32l4xx_hal_crc_ex.c **** {
 157              		.loc 1 160 0
 158              		.cfi_startproc
 159              		@ args = 0, pretend = 0, frame = 0
 160              		@ frame_needed = 0, uses_anonymous_args = 0
 161              		@ link register save eliminated.
 162              	.LVL17:
 161:../system/src/stm32l4-hal-driver/stm32l4xx_hal_crc_ex.c ****   /* Check the parameters */
 162:../system/src/stm32l4-hal-driver/stm32l4xx_hal_crc_ex.c ****   assert_param(IS_CRC_INPUTDATA_INVERSION_MODE(InputReverseMode));
 163:../system/src/stm32l4-hal-driver/stm32l4xx_hal_crc_ex.c **** 
 164:../system/src/stm32l4-hal-driver/stm32l4xx_hal_crc_ex.c ****   /* Change CRC peripheral state */
 165:../system/src/stm32l4-hal-driver/stm32l4xx_hal_crc_ex.c ****   hcrc->State = HAL_CRC_STATE_BUSY;
 163              		.loc 1 165 0
 164 0000 0223     		movs	r3, #2
 165 0002 4377     		strb	r3, [r0, #29]
 166:../system/src/stm32l4-hal-driver/stm32l4xx_hal_crc_ex.c **** 
 167:../system/src/stm32l4-hal-driver/stm32l4xx_hal_crc_ex.c ****   /* set input data inversion mode */
 168:../system/src/stm32l4-hal-driver/stm32l4xx_hal_crc_ex.c ****   MODIFY_REG(hcrc->Instance->CR, CRC_CR_REV_IN, InputReverseMode);
 166              		.loc 1 168 0
 167 0004 0268     		ldr	r2, [r0]
 168 0006 9368     		ldr	r3, [r2, #8]
 169 0008 23F06003 		bic	r3, r3, #96
 170 000c 1943     		orrs	r1, r1, r3
 171              	.LVL18:
 172 000e 9160     		str	r1, [r2, #8]
 169:../system/src/stm32l4-hal-driver/stm32l4xx_hal_crc_ex.c ****   /* Change CRC peripheral state */
 170:../system/src/stm32l4-hal-driver/stm32l4xx_hal_crc_ex.c ****   hcrc->State = HAL_CRC_STATE_READY;
 173              		.loc 1 170 0
 174 0010 0123     		movs	r3, #1
 175 0012 4377     		strb	r3, [r0, #29]
 171:../system/src/stm32l4-hal-driver/stm32l4xx_hal_crc_ex.c **** 
 172:../system/src/stm32l4-hal-driver/stm32l4xx_hal_crc_ex.c ****   /* Return function status */
 173:../system/src/stm32l4-hal-driver/stm32l4xx_hal_crc_ex.c ****   return HAL_OK;
 174:../system/src/stm32l4-hal-driver/stm32l4xx_hal_crc_ex.c **** }
 176              		.loc 1 174 0
 177 0014 0020     		movs	r0, #0
 178              	.LVL19:
 179 0016 7047     		bx	lr
 180              		.cfi_endproc
 181              	.LFE318:
 183              		.section	.text.HAL_CRCEx_Output_Data_Reverse,"ax",%progbits
 184              		.align	1
 185              		.global	HAL_CRCEx_Output_Data_Reverse
 186              		.syntax unified
 187              		.thumb
 188              		.thumb_func
 189              		.fpu fpv4-sp-d16
 191              	HAL_CRCEx_Output_Data_Reverse:
 192              	.LFB319:
 175:../system/src/stm32l4-hal-driver/stm32l4xx_hal_crc_ex.c **** 
 176:../system/src/stm32l4-hal-driver/stm32l4xx_hal_crc_ex.c **** /**
 177:../system/src/stm32l4-hal-driver/stm32l4xx_hal_crc_ex.c ****   * @brief  Set the Reverse Output data mode.
 178:../system/src/stm32l4-hal-driver/stm32l4xx_hal_crc_ex.c ****   * @param  hcrc CRC handle
 179:../system/src/stm32l4-hal-driver/stm32l4xx_hal_crc_ex.c ****   * @param  OutputReverseMode Output Data inversion mode.
 180:../system/src/stm32l4-hal-driver/stm32l4xx_hal_crc_ex.c ****   *         This parameter can be one of the following values:
 181:../system/src/stm32l4-hal-driver/stm32l4xx_hal_crc_ex.c ****   *          @arg @ref CRC_OUTPUTDATA_INVERSION_DISABLE no CRC inversion (default value)
 182:../system/src/stm32l4-hal-driver/stm32l4xx_hal_crc_ex.c ****   *          @arg @ref CRC_OUTPUTDATA_INVERSION_ENABLE  bit-level inversion (e.g. for a 8-bit CRC: 
 183:../system/src/stm32l4-hal-driver/stm32l4xx_hal_crc_ex.c ****   * @retval HAL status
 184:../system/src/stm32l4-hal-driver/stm32l4xx_hal_crc_ex.c ****   */
 185:../system/src/stm32l4-hal-driver/stm32l4xx_hal_crc_ex.c **** HAL_StatusTypeDef HAL_CRCEx_Output_Data_Reverse(CRC_HandleTypeDef *hcrc, uint32_t OutputReverseMode
 186:../system/src/stm32l4-hal-driver/stm32l4xx_hal_crc_ex.c **** {
 193              		.loc 1 186 0
 194              		.cfi_startproc
 195              		@ args = 0, pretend = 0, frame = 0
 196              		@ frame_needed = 0, uses_anonymous_args = 0
 197              		@ link register save eliminated.
 198              	.LVL20:
 187:../system/src/stm32l4-hal-driver/stm32l4xx_hal_crc_ex.c ****   /* Check the parameters */
 188:../system/src/stm32l4-hal-driver/stm32l4xx_hal_crc_ex.c ****   assert_param(IS_CRC_OUTPUTDATA_INVERSION_MODE(OutputReverseMode));
 189:../system/src/stm32l4-hal-driver/stm32l4xx_hal_crc_ex.c **** 
 190:../system/src/stm32l4-hal-driver/stm32l4xx_hal_crc_ex.c ****   /* Change CRC peripheral state */
 191:../system/src/stm32l4-hal-driver/stm32l4xx_hal_crc_ex.c ****   hcrc->State = HAL_CRC_STATE_BUSY;
 199              		.loc 1 191 0
 200 0000 0223     		movs	r3, #2
 201 0002 4377     		strb	r3, [r0, #29]
 192:../system/src/stm32l4-hal-driver/stm32l4xx_hal_crc_ex.c **** 
 193:../system/src/stm32l4-hal-driver/stm32l4xx_hal_crc_ex.c ****   /* set output data inversion mode */
 194:../system/src/stm32l4-hal-driver/stm32l4xx_hal_crc_ex.c ****   MODIFY_REG(hcrc->Instance->CR, CRC_CR_REV_OUT, OutputReverseMode);
 202              		.loc 1 194 0
 203 0004 0268     		ldr	r2, [r0]
 204 0006 9368     		ldr	r3, [r2, #8]
 205 0008 23F08003 		bic	r3, r3, #128
 206 000c 1943     		orrs	r1, r1, r3
 207              	.LVL21:
 208 000e 9160     		str	r1, [r2, #8]
 195:../system/src/stm32l4-hal-driver/stm32l4xx_hal_crc_ex.c **** 
 196:../system/src/stm32l4-hal-driver/stm32l4xx_hal_crc_ex.c ****   /* Change CRC peripheral state */
 197:../system/src/stm32l4-hal-driver/stm32l4xx_hal_crc_ex.c ****   hcrc->State = HAL_CRC_STATE_READY;
 209              		.loc 1 197 0
 210 0010 0123     		movs	r3, #1
 211 0012 4377     		strb	r3, [r0, #29]
 198:../system/src/stm32l4-hal-driver/stm32l4xx_hal_crc_ex.c **** 
 199:../system/src/stm32l4-hal-driver/stm32l4xx_hal_crc_ex.c ****   /* Return function status */
 200:../system/src/stm32l4-hal-driver/stm32l4xx_hal_crc_ex.c ****   return HAL_OK;
 201:../system/src/stm32l4-hal-driver/stm32l4xx_hal_crc_ex.c **** }
 212              		.loc 1 201 0
 213 0014 0020     		movs	r0, #0
 214              	.LVL22:
 215 0016 7047     		bx	lr
 216              		.cfi_endproc
 217              	.LFE319:
 219              		.text
 220              	.Letext0:
 221              		.file 2 "/usr/local/bin/gcc-arm-none-eabi-7-2018-q2-update/lib/gcc/arm-none-eabi/7.3.1/include/std
 222              		.file 3 "../system/include/cmsis/stm32l4xx/core_cm4.h"
 223              		.file 4 "../system/include/cmsis/stm32l4xx/device/system_stm32l4xx.h"
 224              		.file 5 "../system/include/cmsis/stm32l4xx/device/stm32l471xx.h"
 225              		.file 6 "../system/include/stm32l4-hal-driver/stm32l4xx_hal_def.h"
 226              		.file 7 "../system/include/stm32l4-hal-driver/stm32l4xx_hal_crc.h"
 227              		.file 8 "../system/include/stm32l4-hal-driver/stm32l4xx_hal_flash.h"
 228              		.file 9 "../system/include/stm32l4-hal-driver/stm32l4xx_hal.h"