   1              		.cpu cortex-m4
   2              		.eabi_attribute 27, 1
   3              		.eabi_attribute 28, 1
   4              		.eabi_attribute 20, 1
   5              		.eabi_attribute 21, 1
   6              		.eabi_attribute 23, 3
   7              		.eabi_attribute 24, 1
   8              		.eabi_attribute 25, 1
   9              		.eabi_attribute 26, 1
  10              		.eabi_attribute 30, 1
  11              		.eabi_attribute 34, 1
  12              		.eabi_attribute 18, 4
  13              		.file	"stm32l4xx_hal_adc_ex.c"
  14              		.text
  15              	.Ltext0:
  16              		.cfi_sections	.debug_frame
  17              		.section	.text.HAL_ADCEx_Calibration_Start,"ax",%progbits
  18              		.align	1
  19              		.global	HAL_ADCEx_Calibration_Start
  20              		.syntax unified
  21              		.thumb
  22              		.thumb_func
  23              		.fpu fpv4-sp-d16
  25              	HAL_ADCEx_Calibration_Start:
  26              	.LFB317:
  27              		.file 1 "../system/src/stm32l4-hal-driver/stm32l4xx_hal_adc_ex.c"
   1:../system/src/stm32l4-hal-driver/stm32l4xx_hal_adc_ex.c **** /**
   2:../system/src/stm32l4-hal-driver/stm32l4xx_hal_adc_ex.c ****   ******************************************************************************
   3:../system/src/stm32l4-hal-driver/stm32l4xx_hal_adc_ex.c ****   * @file    stm32l4xx_hal_adc_ex.c
   4:../system/src/stm32l4-hal-driver/stm32l4xx_hal_adc_ex.c ****   * @author  MCD Application Team
   5:../system/src/stm32l4-hal-driver/stm32l4xx_hal_adc_ex.c ****   * @brief   This file provides firmware functions to manage the following
   6:../system/src/stm32l4-hal-driver/stm32l4xx_hal_adc_ex.c ****   *          functionalities of the Analog to Digital Converter (ADC)
   7:../system/src/stm32l4-hal-driver/stm32l4xx_hal_adc_ex.c ****   *          peripheral:
   8:../system/src/stm32l4-hal-driver/stm32l4xx_hal_adc_ex.c ****   *           + Operation functions
   9:../system/src/stm32l4-hal-driver/stm32l4xx_hal_adc_ex.c ****   *             ++ Start, stop, get result of conversions of ADC group injected,
  10:../system/src/stm32l4-hal-driver/stm32l4xx_hal_adc_ex.c ****   *                using 2 possible modes: polling, interruption.
  11:../system/src/stm32l4-hal-driver/stm32l4xx_hal_adc_ex.c ****   *             ++ Calibration
  12:../system/src/stm32l4-hal-driver/stm32l4xx_hal_adc_ex.c ****   *               +++ ADC automatic self-calibration
  13:../system/src/stm32l4-hal-driver/stm32l4xx_hal_adc_ex.c ****   *               +++ Calibration factors get or set
  14:../system/src/stm32l4-hal-driver/stm32l4xx_hal_adc_ex.c ****   *             ++ Multimode feature when available
  15:../system/src/stm32l4-hal-driver/stm32l4xx_hal_adc_ex.c ****   *           + Control functions
  16:../system/src/stm32l4-hal-driver/stm32l4xx_hal_adc_ex.c ****   *             ++ Channels configuration on ADC group injected
  17:../system/src/stm32l4-hal-driver/stm32l4xx_hal_adc_ex.c ****   *           + State functions
  18:../system/src/stm32l4-hal-driver/stm32l4xx_hal_adc_ex.c ****   *             ++ ADC group injected contexts queue management
  19:../system/src/stm32l4-hal-driver/stm32l4xx_hal_adc_ex.c ****   *          Other functions (generic functions) are available in file
  20:../system/src/stm32l4-hal-driver/stm32l4xx_hal_adc_ex.c ****   *          "stm32l4xx_hal_adc.c".
  21:../system/src/stm32l4-hal-driver/stm32l4xx_hal_adc_ex.c ****   *
  22:../system/src/stm32l4-hal-driver/stm32l4xx_hal_adc_ex.c ****   @verbatim
  23:../system/src/stm32l4-hal-driver/stm32l4xx_hal_adc_ex.c ****   [..]
  24:../system/src/stm32l4-hal-driver/stm32l4xx_hal_adc_ex.c ****   (@) Sections "ADC peripheral features" and "How to use this driver" are
  25:../system/src/stm32l4-hal-driver/stm32l4xx_hal_adc_ex.c ****       available in file of generic functions "stm32l4xx_hal_adc.c".
  26:../system/src/stm32l4-hal-driver/stm32l4xx_hal_adc_ex.c ****   [..]
  27:../system/src/stm32l4-hal-driver/stm32l4xx_hal_adc_ex.c ****   @endverbatim
  28:../system/src/stm32l4-hal-driver/stm32l4xx_hal_adc_ex.c ****   ******************************************************************************
  29:../system/src/stm32l4-hal-driver/stm32l4xx_hal_adc_ex.c ****   * @attention
  30:../system/src/stm32l4-hal-driver/stm32l4xx_hal_adc_ex.c ****   *
  31:../system/src/stm32l4-hal-driver/stm32l4xx_hal_adc_ex.c ****   * <h2><center>&copy; Copyright (c) 2017 STMicroelectronics.
  32:../system/src/stm32l4-hal-driver/stm32l4xx_hal_adc_ex.c ****   * All rights reserved.</center></h2>
  33:../system/src/stm32l4-hal-driver/stm32l4xx_hal_adc_ex.c ****   *
  34:../system/src/stm32l4-hal-driver/stm32l4xx_hal_adc_ex.c ****   * This software component is licensed by ST under BSD 3-Clause license,
  35:../system/src/stm32l4-hal-driver/stm32l4xx_hal_adc_ex.c ****   * the "License"; You may not use this file except in compliance with the
  36:../system/src/stm32l4-hal-driver/stm32l4xx_hal_adc_ex.c ****   * License. You may obtain a copy of the License at:
  37:../system/src/stm32l4-hal-driver/stm32l4xx_hal_adc_ex.c ****   *                        opensource.org/licenses/BSD-3-Clause
  38:../system/src/stm32l4-hal-driver/stm32l4xx_hal_adc_ex.c ****   *
  39:../system/src/stm32l4-hal-driver/stm32l4xx_hal_adc_ex.c ****   ******************************************************************************
  40:../system/src/stm32l4-hal-driver/stm32l4xx_hal_adc_ex.c ****   */
  41:../system/src/stm32l4-hal-driver/stm32l4xx_hal_adc_ex.c **** 
  42:../system/src/stm32l4-hal-driver/stm32l4xx_hal_adc_ex.c **** /* Includes ------------------------------------------------------------------*/
  43:../system/src/stm32l4-hal-driver/stm32l4xx_hal_adc_ex.c **** #include "stm32l4xx_hal.h"
  44:../system/src/stm32l4-hal-driver/stm32l4xx_hal_adc_ex.c **** 
  45:../system/src/stm32l4-hal-driver/stm32l4xx_hal_adc_ex.c **** /** @addtogroup STM32L4xx_HAL_Driver
  46:../system/src/stm32l4-hal-driver/stm32l4xx_hal_adc_ex.c ****   * @{
  47:../system/src/stm32l4-hal-driver/stm32l4xx_hal_adc_ex.c ****   */
  48:../system/src/stm32l4-hal-driver/stm32l4xx_hal_adc_ex.c **** 
  49:../system/src/stm32l4-hal-driver/stm32l4xx_hal_adc_ex.c **** /** @defgroup ADCEx ADCEx
  50:../system/src/stm32l4-hal-driver/stm32l4xx_hal_adc_ex.c ****   * @brief ADC Extended HAL module driver
  51:../system/src/stm32l4-hal-driver/stm32l4xx_hal_adc_ex.c ****   * @{
  52:../system/src/stm32l4-hal-driver/stm32l4xx_hal_adc_ex.c ****   */
  53:../system/src/stm32l4-hal-driver/stm32l4xx_hal_adc_ex.c **** 
  54:../system/src/stm32l4-hal-driver/stm32l4xx_hal_adc_ex.c **** #ifdef HAL_ADC_MODULE_ENABLED
  55:../system/src/stm32l4-hal-driver/stm32l4xx_hal_adc_ex.c **** 
  56:../system/src/stm32l4-hal-driver/stm32l4xx_hal_adc_ex.c **** /* Private typedef -----------------------------------------------------------*/
  57:../system/src/stm32l4-hal-driver/stm32l4xx_hal_adc_ex.c **** /* Private define ------------------------------------------------------------*/
  58:../system/src/stm32l4-hal-driver/stm32l4xx_hal_adc_ex.c **** 
  59:../system/src/stm32l4-hal-driver/stm32l4xx_hal_adc_ex.c **** /** @defgroup ADCEx_Private_Constants ADC Extended Private Constants
  60:../system/src/stm32l4-hal-driver/stm32l4xx_hal_adc_ex.c ****   * @{
  61:../system/src/stm32l4-hal-driver/stm32l4xx_hal_adc_ex.c ****   */
  62:../system/src/stm32l4-hal-driver/stm32l4xx_hal_adc_ex.c **** 
  63:../system/src/stm32l4-hal-driver/stm32l4xx_hal_adc_ex.c **** #define ADC_JSQR_FIELDS  ((ADC_JSQR_JL | ADC_JSQR_JEXTSEL | ADC_JSQR_JEXTEN |\
  64:../system/src/stm32l4-hal-driver/stm32l4xx_hal_adc_ex.c ****                            ADC_JSQR_JSQ1  | ADC_JSQR_JSQ2 |\
  65:../system/src/stm32l4-hal-driver/stm32l4xx_hal_adc_ex.c ****                            ADC_JSQR_JSQ3 | ADC_JSQR_JSQ4 ))  /*!< ADC_JSQR fields of parameters tha
  66:../system/src/stm32l4-hal-driver/stm32l4xx_hal_adc_ex.c **** 
  67:../system/src/stm32l4-hal-driver/stm32l4xx_hal_adc_ex.c **** /* Fixed timeout value for ADC calibration.                                   */
  68:../system/src/stm32l4-hal-driver/stm32l4xx_hal_adc_ex.c **** /* Values defined to be higher than worst cases: maximum ratio between ADC    */
  69:../system/src/stm32l4-hal-driver/stm32l4xx_hal_adc_ex.c **** /* and CPU clock frequencies.                                                 */
  70:../system/src/stm32l4-hal-driver/stm32l4xx_hal_adc_ex.c **** /* Example of profile low frequency : ADC frequency at 31.25kHz (ADC clock    */
  71:../system/src/stm32l4-hal-driver/stm32l4xx_hal_adc_ex.c **** /* source PLL SAI 8MHz, ADC clock prescaler 256), CPU frequency 80MHz.        */
  72:../system/src/stm32l4-hal-driver/stm32l4xx_hal_adc_ex.c **** /* Calibration time max = 116 / fADC (refer to datasheet)                     */
  73:../system/src/stm32l4-hal-driver/stm32l4xx_hal_adc_ex.c **** /*                      = 296 960 CPU cycles                                  */
  74:../system/src/stm32l4-hal-driver/stm32l4xx_hal_adc_ex.c **** #define ADC_CALIBRATION_TIMEOUT         (296960UL)   /*!< ADC calibration time-out value (unit: CPU
  75:../system/src/stm32l4-hal-driver/stm32l4xx_hal_adc_ex.c **** 
  76:../system/src/stm32l4-hal-driver/stm32l4xx_hal_adc_ex.c **** /**
  77:../system/src/stm32l4-hal-driver/stm32l4xx_hal_adc_ex.c ****   * @}
  78:../system/src/stm32l4-hal-driver/stm32l4xx_hal_adc_ex.c ****   */
  79:../system/src/stm32l4-hal-driver/stm32l4xx_hal_adc_ex.c **** 
  80:../system/src/stm32l4-hal-driver/stm32l4xx_hal_adc_ex.c **** /* Private macro -------------------------------------------------------------*/
  81:../system/src/stm32l4-hal-driver/stm32l4xx_hal_adc_ex.c **** /* Private variables ---------------------------------------------------------*/
  82:../system/src/stm32l4-hal-driver/stm32l4xx_hal_adc_ex.c **** /* Private function prototypes -----------------------------------------------*/
  83:../system/src/stm32l4-hal-driver/stm32l4xx_hal_adc_ex.c **** /* Exported functions --------------------------------------------------------*/
  84:../system/src/stm32l4-hal-driver/stm32l4xx_hal_adc_ex.c **** 
  85:../system/src/stm32l4-hal-driver/stm32l4xx_hal_adc_ex.c **** /** @defgroup ADCEx_Exported_Functions ADC Extended Exported Functions
  86:../system/src/stm32l4-hal-driver/stm32l4xx_hal_adc_ex.c ****   * @{
  87:../system/src/stm32l4-hal-driver/stm32l4xx_hal_adc_ex.c ****   */
  88:../system/src/stm32l4-hal-driver/stm32l4xx_hal_adc_ex.c **** 
  89:../system/src/stm32l4-hal-driver/stm32l4xx_hal_adc_ex.c **** /** @defgroup ADCEx_Exported_Functions_Group1 Extended Input and Output operation functions
  90:../system/src/stm32l4-hal-driver/stm32l4xx_hal_adc_ex.c ****   * @brief    Extended IO operation functions
  91:../system/src/stm32l4-hal-driver/stm32l4xx_hal_adc_ex.c ****   *
  92:../system/src/stm32l4-hal-driver/stm32l4xx_hal_adc_ex.c **** @verbatim
  93:../system/src/stm32l4-hal-driver/stm32l4xx_hal_adc_ex.c ****  ===============================================================================
  94:../system/src/stm32l4-hal-driver/stm32l4xx_hal_adc_ex.c ****                       ##### IO operation functions #####
  95:../system/src/stm32l4-hal-driver/stm32l4xx_hal_adc_ex.c ****  ===============================================================================
  96:../system/src/stm32l4-hal-driver/stm32l4xx_hal_adc_ex.c ****     [..]  This section provides functions allowing to:
  97:../system/src/stm32l4-hal-driver/stm32l4xx_hal_adc_ex.c **** 
  98:../system/src/stm32l4-hal-driver/stm32l4xx_hal_adc_ex.c ****       (+) Perform the ADC self-calibration for single or differential ending.
  99:../system/src/stm32l4-hal-driver/stm32l4xx_hal_adc_ex.c ****       (+) Get calibration factors for single or differential ending.
 100:../system/src/stm32l4-hal-driver/stm32l4xx_hal_adc_ex.c ****       (+) Set calibration factors for single or differential ending.
 101:../system/src/stm32l4-hal-driver/stm32l4xx_hal_adc_ex.c **** 
 102:../system/src/stm32l4-hal-driver/stm32l4xx_hal_adc_ex.c ****       (+) Start conversion of ADC group injected.
 103:../system/src/stm32l4-hal-driver/stm32l4xx_hal_adc_ex.c ****       (+) Stop conversion of ADC group injected.
 104:../system/src/stm32l4-hal-driver/stm32l4xx_hal_adc_ex.c ****       (+) Poll for conversion complete on ADC group injected.
 105:../system/src/stm32l4-hal-driver/stm32l4xx_hal_adc_ex.c ****       (+) Get result of ADC group injected channel conversion.
 106:../system/src/stm32l4-hal-driver/stm32l4xx_hal_adc_ex.c ****       (+) Start conversion of ADC group injected and enable interruptions.
 107:../system/src/stm32l4-hal-driver/stm32l4xx_hal_adc_ex.c ****       (+) Stop conversion of ADC group injected and disable interruptions.
 108:../system/src/stm32l4-hal-driver/stm32l4xx_hal_adc_ex.c **** 
 109:../system/src/stm32l4-hal-driver/stm32l4xx_hal_adc_ex.c ****       (+) When multimode feature is available, start multimode and enable DMA transfer.
 110:../system/src/stm32l4-hal-driver/stm32l4xx_hal_adc_ex.c ****       (+) Stop multimode and disable ADC DMA transfer.
 111:../system/src/stm32l4-hal-driver/stm32l4xx_hal_adc_ex.c ****       (+) Get result of multimode conversion.
 112:../system/src/stm32l4-hal-driver/stm32l4xx_hal_adc_ex.c **** 
 113:../system/src/stm32l4-hal-driver/stm32l4xx_hal_adc_ex.c **** @endverbatim
 114:../system/src/stm32l4-hal-driver/stm32l4xx_hal_adc_ex.c ****   * @{
 115:../system/src/stm32l4-hal-driver/stm32l4xx_hal_adc_ex.c ****   */
 116:../system/src/stm32l4-hal-driver/stm32l4xx_hal_adc_ex.c **** 
 117:../system/src/stm32l4-hal-driver/stm32l4xx_hal_adc_ex.c **** /**
 118:../system/src/stm32l4-hal-driver/stm32l4xx_hal_adc_ex.c ****   * @brief  Perform an ADC automatic self-calibration
 119:../system/src/stm32l4-hal-driver/stm32l4xx_hal_adc_ex.c ****   *         Calibration prerequisite: ADC must be disabled (execute this
 120:../system/src/stm32l4-hal-driver/stm32l4xx_hal_adc_ex.c ****   *         function before HAL_ADC_Start() or after HAL_ADC_Stop() ).
 121:../system/src/stm32l4-hal-driver/stm32l4xx_hal_adc_ex.c ****   * @param  hadc       ADC handle
 122:../system/src/stm32l4-hal-driver/stm32l4xx_hal_adc_ex.c ****   * @param  SingleDiff Selection of single-ended or differential input
 123:../system/src/stm32l4-hal-driver/stm32l4xx_hal_adc_ex.c ****   *         This parameter can be one of the following values:
 124:../system/src/stm32l4-hal-driver/stm32l4xx_hal_adc_ex.c ****   *           @arg @ref ADC_SINGLE_ENDED       Channel in mode input single ended
 125:../system/src/stm32l4-hal-driver/stm32l4xx_hal_adc_ex.c ****   *           @arg @ref ADC_DIFFERENTIAL_ENDED Channel in mode input differential ended
 126:../system/src/stm32l4-hal-driver/stm32l4xx_hal_adc_ex.c ****   * @retval HAL status
 127:../system/src/stm32l4-hal-driver/stm32l4xx_hal_adc_ex.c ****   */
 128:../system/src/stm32l4-hal-driver/stm32l4xx_hal_adc_ex.c **** HAL_StatusTypeDef HAL_ADCEx_Calibration_Start(ADC_HandleTypeDef *hadc, uint32_t SingleDiff)
 129:../system/src/stm32l4-hal-driver/stm32l4xx_hal_adc_ex.c **** {
  28              		.loc 1 129 0
  29              		.cfi_startproc
  30              		@ args = 0, pretend = 0, frame = 8
  31              		@ frame_needed = 0, uses_anonymous_args = 0
  32              	.LVL0:
  33 0000 30B5     		push	{r4, r5, lr}
  34              		.cfi_def_cfa_offset 12
  35              		.cfi_offset 4, -12
  36              		.cfi_offset 5, -8
  37              		.cfi_offset 14, -4
  38 0002 83B0     		sub	sp, sp, #12
  39              		.cfi_def_cfa_offset 24
 130:../system/src/stm32l4-hal-driver/stm32l4xx_hal_adc_ex.c ****   HAL_StatusTypeDef tmp_hal_status;
 131:../system/src/stm32l4-hal-driver/stm32l4xx_hal_adc_ex.c ****   __IO uint32_t wait_loop_index = 0UL;
  40              		.loc 1 131 0
  41 0004 0022     		movs	r2, #0
  42 0006 0192     		str	r2, [sp, #4]
 132:../system/src/stm32l4-hal-driver/stm32l4xx_hal_adc_ex.c **** 
 133:../system/src/stm32l4-hal-driver/stm32l4xx_hal_adc_ex.c ****   /* Check the parameters */
 134:../system/src/stm32l4-hal-driver/stm32l4xx_hal_adc_ex.c ****   assert_param(IS_ADC_ALL_INSTANCE(hadc->Instance));
 135:../system/src/stm32l4-hal-driver/stm32l4xx_hal_adc_ex.c ****   assert_param(IS_ADC_SINGLE_DIFFERENTIAL(SingleDiff));
 136:../system/src/stm32l4-hal-driver/stm32l4xx_hal_adc_ex.c **** 
 137:../system/src/stm32l4-hal-driver/stm32l4xx_hal_adc_ex.c ****   /* Process locked */
 138:../system/src/stm32l4-hal-driver/stm32l4xx_hal_adc_ex.c ****   __HAL_LOCK(hadc);
  43              		.loc 1 138 0
  44 0008 90F85020 		ldrb	r2, [r0, #80]	@ zero_extendqisi2
  45 000c 012A     		cmp	r2, #1
  46 000e 43D0     		beq	.L8
  47 0010 0D46     		mov	r5, r1
  48 0012 0446     		mov	r4, r0
  49              		.loc 1 138 0 is_stmt 0 discriminator 2
  50 0014 0123     		movs	r3, #1
  51 0016 80F85030 		strb	r3, [r0, #80]
 139:../system/src/stm32l4-hal-driver/stm32l4xx_hal_adc_ex.c **** 
 140:../system/src/stm32l4-hal-driver/stm32l4xx_hal_adc_ex.c ****   /* Calibration prerequisite: ADC must be disabled. */
 141:../system/src/stm32l4-hal-driver/stm32l4xx_hal_adc_ex.c **** 
 142:../system/src/stm32l4-hal-driver/stm32l4xx_hal_adc_ex.c ****   /* Disable the ADC (if not already disabled) */
 143:../system/src/stm32l4-hal-driver/stm32l4xx_hal_adc_ex.c ****   tmp_hal_status = ADC_Disable(hadc);
  52              		.loc 1 143 0 is_stmt 1 discriminator 2
  53 001a FFF7FEFF 		bl	ADC_Disable
  54              	.LVL1:
 144:../system/src/stm32l4-hal-driver/stm32l4xx_hal_adc_ex.c **** 
 145:../system/src/stm32l4-hal-driver/stm32l4xx_hal_adc_ex.c ****   /* Check if ADC is effectively disabled */
 146:../system/src/stm32l4-hal-driver/stm32l4xx_hal_adc_ex.c ****   if (tmp_hal_status == HAL_OK)
  55              		.loc 1 146 0 discriminator 2
  56 001e 0246     		mov	r2, r0
  57 0020 80BB     		cbnz	r0, .L3
 147:../system/src/stm32l4-hal-driver/stm32l4xx_hal_adc_ex.c ****   {
 148:../system/src/stm32l4-hal-driver/stm32l4xx_hal_adc_ex.c ****     /* Set ADC state */
 149:../system/src/stm32l4-hal-driver/stm32l4xx_hal_adc_ex.c ****     ADC_STATE_CLR_SET(hadc->State,
  58              		.loc 1 149 0
  59 0022 636D     		ldr	r3, [r4, #84]
  60 0024 23F48853 		bic	r3, r3, #4352
  61 0028 23F00203 		bic	r3, r3, #2
  62 002c 43F00203 		orr	r3, r3, #2
  63 0030 6365     		str	r3, [r4, #84]
 150:../system/src/stm32l4-hal-driver/stm32l4xx_hal_adc_ex.c ****                       HAL_ADC_STATE_REG_BUSY | HAL_ADC_STATE_INJ_BUSY,
 151:../system/src/stm32l4-hal-driver/stm32l4xx_hal_adc_ex.c ****                       HAL_ADC_STATE_BUSY_INTERNAL);
 152:../system/src/stm32l4-hal-driver/stm32l4xx_hal_adc_ex.c **** 
 153:../system/src/stm32l4-hal-driver/stm32l4xx_hal_adc_ex.c ****     /* Start ADC calibration in mode single-ended or differential */
 154:../system/src/stm32l4-hal-driver/stm32l4xx_hal_adc_ex.c ****     LL_ADC_StartCalibration(hadc->Instance, SingleDiff);
  64              		.loc 1 154 0
  65 0032 2168     		ldr	r1, [r4]
  66              	.LVL2:
  67              	.LBB286:
  68              	.LBB287:
  69              		.file 2 "../system/include/stm32l4-hal-driver/stm32l4xx_ll_adc.h"
   1:../system/include/stm32l4-hal-driver/stm32l4xx_ll_adc.h **** /**
   2:../system/include/stm32l4-hal-driver/stm32l4xx_ll_adc.h ****   ******************************************************************************
   3:../system/include/stm32l4-hal-driver/stm32l4xx_ll_adc.h ****   * @file    stm32l4xx_ll_adc.h
   4:../system/include/stm32l4-hal-driver/stm32l4xx_ll_adc.h ****   * @author  MCD Application Team
   5:../system/include/stm32l4-hal-driver/stm32l4xx_ll_adc.h ****   * @brief   Header file of ADC LL module.
   6:../system/include/stm32l4-hal-driver/stm32l4xx_ll_adc.h ****   ******************************************************************************
   7:../system/include/stm32l4-hal-driver/stm32l4xx_ll_adc.h ****   * @attention
   8:../system/include/stm32l4-hal-driver/stm32l4xx_ll_adc.h ****   *
   9:../system/include/stm32l4-hal-driver/stm32l4xx_ll_adc.h ****   * <h2><center>&copy; Copyright (c) 2017 STMicroelectronics.
  10:../system/include/stm32l4-hal-driver/stm32l4xx_ll_adc.h ****   * All rights reserved.</center></h2>
  11:../system/include/stm32l4-hal-driver/stm32l4xx_ll_adc.h ****   *
  12:../system/include/stm32l4-hal-driver/stm32l4xx_ll_adc.h ****   * This software component is licensed by ST under BSD 3-Clause license,
  13:../system/include/stm32l4-hal-driver/stm32l4xx_ll_adc.h ****   * the "License"; You may not use this file except in compliance with the
  14:../system/include/stm32l4-hal-driver/stm32l4xx_ll_adc.h ****   * License. You may obtain a copy of the License at:
  15:../system/include/stm32l4-hal-driver/stm32l4xx_ll_adc.h ****   *                        opensource.org/licenses/BSD-3-Clause
  16:../system/include/stm32l4-hal-driver/stm32l4xx_ll_adc.h ****   *
  17:../system/include/stm32l4-hal-driver/stm32l4xx_ll_adc.h ****   ******************************************************************************
  18:../system/include/stm32l4-hal-driver/stm32l4xx_ll_adc.h ****   */
  19:../system/include/stm32l4-hal-driver/stm32l4xx_ll_adc.h **** 
  20:../system/include/stm32l4-hal-driver/stm32l4xx_ll_adc.h **** /* Define to prevent recursive inclusion -------------------------------------*/
  21:../system/include/stm32l4-hal-driver/stm32l4xx_ll_adc.h **** #ifndef STM32L4xx_LL_ADC_H
  22:../system/include/stm32l4-hal-driver/stm32l4xx_ll_adc.h **** #define STM32L4xx_LL_ADC_H
  23:../system/include/stm32l4-hal-driver/stm32l4xx_ll_adc.h **** 
  24:../system/include/stm32l4-hal-driver/stm32l4xx_ll_adc.h **** #ifdef __cplusplus
  25:../system/include/stm32l4-hal-driver/stm32l4xx_ll_adc.h **** extern "C" {
  26:../system/include/stm32l4-hal-driver/stm32l4xx_ll_adc.h **** #endif
  27:../system/include/stm32l4-hal-driver/stm32l4xx_ll_adc.h **** 
  28:../system/include/stm32l4-hal-driver/stm32l4xx_ll_adc.h **** /* Includes ------------------------------------------------------------------*/
  29:../system/include/stm32l4-hal-driver/stm32l4xx_ll_adc.h **** #include "stm32l4xx.h"
  30:../system/include/stm32l4-hal-driver/stm32l4xx_ll_adc.h **** 
  31:../system/include/stm32l4-hal-driver/stm32l4xx_ll_adc.h **** /** @addtogroup STM32L4xx_LL_Driver
  32:../system/include/stm32l4-hal-driver/stm32l4xx_ll_adc.h ****   * @{
  33:../system/include/stm32l4-hal-driver/stm32l4xx_ll_adc.h ****   */
  34:../system/include/stm32l4-hal-driver/stm32l4xx_ll_adc.h **** 
  35:../system/include/stm32l4-hal-driver/stm32l4xx_ll_adc.h **** #if defined (ADC1) || defined (ADC2) || defined (ADC3)
  36:../system/include/stm32l4-hal-driver/stm32l4xx_ll_adc.h **** 
  37:../system/include/stm32l4-hal-driver/stm32l4xx_ll_adc.h **** /** @defgroup ADC_LL ADC
  38:../system/include/stm32l4-hal-driver/stm32l4xx_ll_adc.h ****   * @{
  39:../system/include/stm32l4-hal-driver/stm32l4xx_ll_adc.h ****   */
  40:../system/include/stm32l4-hal-driver/stm32l4xx_ll_adc.h **** 
  41:../system/include/stm32l4-hal-driver/stm32l4xx_ll_adc.h **** /* Private types -------------------------------------------------------------*/
  42:../system/include/stm32l4-hal-driver/stm32l4xx_ll_adc.h **** /* Private variables ---------------------------------------------------------*/
  43:../system/include/stm32l4-hal-driver/stm32l4xx_ll_adc.h **** 
  44:../system/include/stm32l4-hal-driver/stm32l4xx_ll_adc.h **** /* Private constants ---------------------------------------------------------*/
  45:../system/include/stm32l4-hal-driver/stm32l4xx_ll_adc.h **** /** @defgroup ADC_LL_Private_Constants ADC Private Constants
  46:../system/include/stm32l4-hal-driver/stm32l4xx_ll_adc.h ****   * @{
  47:../system/include/stm32l4-hal-driver/stm32l4xx_ll_adc.h ****   */
  48:../system/include/stm32l4-hal-driver/stm32l4xx_ll_adc.h **** 
  49:../system/include/stm32l4-hal-driver/stm32l4xx_ll_adc.h **** /* Internal mask for ADC group regular sequencer:                             */
  50:../system/include/stm32l4-hal-driver/stm32l4xx_ll_adc.h **** /* To select into literal LL_ADC_REG_RANK_x the relevant bits for:            */
  51:../system/include/stm32l4-hal-driver/stm32l4xx_ll_adc.h **** /* - sequencer register offset                                                */
  52:../system/include/stm32l4-hal-driver/stm32l4xx_ll_adc.h **** /* - sequencer rank bits position into the selected register                  */
  53:../system/include/stm32l4-hal-driver/stm32l4xx_ll_adc.h **** 
  54:../system/include/stm32l4-hal-driver/stm32l4xx_ll_adc.h **** /* Internal register offset for ADC group regular sequencer configuration */
  55:../system/include/stm32l4-hal-driver/stm32l4xx_ll_adc.h **** /* (offset placed into a spare area of literal definition) */
  56:../system/include/stm32l4-hal-driver/stm32l4xx_ll_adc.h **** #define ADC_SQR1_REGOFFSET                 (0x00000000UL)
  57:../system/include/stm32l4-hal-driver/stm32l4xx_ll_adc.h **** #define ADC_SQR2_REGOFFSET                 (0x00000100UL)
  58:../system/include/stm32l4-hal-driver/stm32l4xx_ll_adc.h **** #define ADC_SQR3_REGOFFSET                 (0x00000200UL)
  59:../system/include/stm32l4-hal-driver/stm32l4xx_ll_adc.h **** #define ADC_SQR4_REGOFFSET                 (0x00000300UL)
  60:../system/include/stm32l4-hal-driver/stm32l4xx_ll_adc.h **** 
  61:../system/include/stm32l4-hal-driver/stm32l4xx_ll_adc.h **** #define ADC_REG_SQRX_REGOFFSET_MASK        (ADC_SQR1_REGOFFSET | ADC_SQR2_REGOFFSET \
  62:../system/include/stm32l4-hal-driver/stm32l4xx_ll_adc.h ****                                             | ADC_SQR3_REGOFFSET | ADC_SQR4_REGOFFSET)
  63:../system/include/stm32l4-hal-driver/stm32l4xx_ll_adc.h **** #define ADC_SQRX_REGOFFSET_POS             (8UL) /* Position of bits ADC_SQRx_REGOFFSET in ADC_REG_
  64:../system/include/stm32l4-hal-driver/stm32l4xx_ll_adc.h **** #define ADC_REG_RANK_ID_SQRX_MASK          (ADC_CHANNEL_ID_NUMBER_MASK_POSBIT0)
  65:../system/include/stm32l4-hal-driver/stm32l4xx_ll_adc.h **** 
  66:../system/include/stm32l4-hal-driver/stm32l4xx_ll_adc.h **** /* Definition of ADC group regular sequencer bits information to be inserted  */
  67:../system/include/stm32l4-hal-driver/stm32l4xx_ll_adc.h **** /* into ADC group regular sequencer ranks literals definition.                */
  68:../system/include/stm32l4-hal-driver/stm32l4xx_ll_adc.h **** #define ADC_REG_RANK_1_SQRX_BITOFFSET_POS  ( 6UL) /* Value equivalent to bitfield "ADC_SQR1_SQ1" po
  69:../system/include/stm32l4-hal-driver/stm32l4xx_ll_adc.h **** #define ADC_REG_RANK_2_SQRX_BITOFFSET_POS  (12UL) /* Value equivalent to bitfield "ADC_SQR1_SQ2" po
  70:../system/include/stm32l4-hal-driver/stm32l4xx_ll_adc.h **** #define ADC_REG_RANK_3_SQRX_BITOFFSET_POS  (18UL) /* Value equivalent to bitfield "ADC_SQR1_SQ3" po
  71:../system/include/stm32l4-hal-driver/stm32l4xx_ll_adc.h **** #define ADC_REG_RANK_4_SQRX_BITOFFSET_POS  (24UL) /* Value equivalent to bitfield "ADC_SQR1_SQ4" po
  72:../system/include/stm32l4-hal-driver/stm32l4xx_ll_adc.h **** #define ADC_REG_RANK_5_SQRX_BITOFFSET_POS  ( 0UL) /* Value equivalent to bitfield "ADC_SQR2_SQ5" po
  73:../system/include/stm32l4-hal-driver/stm32l4xx_ll_adc.h **** #define ADC_REG_RANK_6_SQRX_BITOFFSET_POS  ( 6UL) /* Value equivalent to bitfield "ADC_SQR2_SQ6" po
  74:../system/include/stm32l4-hal-driver/stm32l4xx_ll_adc.h **** #define ADC_REG_RANK_7_SQRX_BITOFFSET_POS  (12UL) /* Value equivalent to bitfield "ADC_SQR2_SQ7" po
  75:../system/include/stm32l4-hal-driver/stm32l4xx_ll_adc.h **** #define ADC_REG_RANK_8_SQRX_BITOFFSET_POS  (18UL) /* Value equivalent to bitfield "ADC_SQR2_SQ8" po
  76:../system/include/stm32l4-hal-driver/stm32l4xx_ll_adc.h **** #define ADC_REG_RANK_9_SQRX_BITOFFSET_POS  (24UL) /* Value equivalent to bitfield "ADC_SQR2_SQ9" po
  77:../system/include/stm32l4-hal-driver/stm32l4xx_ll_adc.h **** #define ADC_REG_RANK_10_SQRX_BITOFFSET_POS ( 0UL) /* Value equivalent to bitfield "ADC_SQR3_SQ10" p
  78:../system/include/stm32l4-hal-driver/stm32l4xx_ll_adc.h **** #define ADC_REG_RANK_11_SQRX_BITOFFSET_POS ( 6UL) /* Value equivalent to bitfield "ADC_SQR3_SQ11" p
  79:../system/include/stm32l4-hal-driver/stm32l4xx_ll_adc.h **** #define ADC_REG_RANK_12_SQRX_BITOFFSET_POS (12UL) /* Value equivalent to bitfield "ADC_SQR3_SQ12" p
  80:../system/include/stm32l4-hal-driver/stm32l4xx_ll_adc.h **** #define ADC_REG_RANK_13_SQRX_BITOFFSET_POS (18UL) /* Value equivalent to bitfield "ADC_SQR3_SQ13" p
  81:../system/include/stm32l4-hal-driver/stm32l4xx_ll_adc.h **** #define ADC_REG_RANK_14_SQRX_BITOFFSET_POS (24UL) /* Value equivalent to bitfield "ADC_SQR3_SQ14" p
  82:../system/include/stm32l4-hal-driver/stm32l4xx_ll_adc.h **** #define ADC_REG_RANK_15_SQRX_BITOFFSET_POS ( 0UL) /* Value equivalent to bitfield "ADC_SQR4_SQ15" p
  83:../system/include/stm32l4-hal-driver/stm32l4xx_ll_adc.h **** #define ADC_REG_RANK_16_SQRX_BITOFFSET_POS ( 6UL) /* Value equivalent to bitfield "ADC_SQR4_SQ16" p
  84:../system/include/stm32l4-hal-driver/stm32l4xx_ll_adc.h **** 
  85:../system/include/stm32l4-hal-driver/stm32l4xx_ll_adc.h **** 
  86:../system/include/stm32l4-hal-driver/stm32l4xx_ll_adc.h **** 
  87:../system/include/stm32l4-hal-driver/stm32l4xx_ll_adc.h **** /* Internal mask for ADC group injected sequencer:                            */
  88:../system/include/stm32l4-hal-driver/stm32l4xx_ll_adc.h **** /* To select into literal LL_ADC_INJ_RANK_x the relevant bits for:            */
  89:../system/include/stm32l4-hal-driver/stm32l4xx_ll_adc.h **** /* - data register offset                                                     */
  90:../system/include/stm32l4-hal-driver/stm32l4xx_ll_adc.h **** /* - sequencer rank bits position into the selected register                  */
  91:../system/include/stm32l4-hal-driver/stm32l4xx_ll_adc.h **** 
  92:../system/include/stm32l4-hal-driver/stm32l4xx_ll_adc.h **** /* Internal register offset for ADC group injected data register */
  93:../system/include/stm32l4-hal-driver/stm32l4xx_ll_adc.h **** /* (offset placed into a spare area of literal definition) */
  94:../system/include/stm32l4-hal-driver/stm32l4xx_ll_adc.h **** #define ADC_JDR1_REGOFFSET                 (0x00000000UL)
  95:../system/include/stm32l4-hal-driver/stm32l4xx_ll_adc.h **** #define ADC_JDR2_REGOFFSET                 (0x00000100UL)
  96:../system/include/stm32l4-hal-driver/stm32l4xx_ll_adc.h **** #define ADC_JDR3_REGOFFSET                 (0x00000200UL)
  97:../system/include/stm32l4-hal-driver/stm32l4xx_ll_adc.h **** #define ADC_JDR4_REGOFFSET                 (0x00000300UL)
  98:../system/include/stm32l4-hal-driver/stm32l4xx_ll_adc.h **** 
  99:../system/include/stm32l4-hal-driver/stm32l4xx_ll_adc.h **** #define ADC_INJ_JDRX_REGOFFSET_MASK        (ADC_JDR1_REGOFFSET | ADC_JDR2_REGOFFSET \
 100:../system/include/stm32l4-hal-driver/stm32l4xx_ll_adc.h ****                                             | ADC_JDR3_REGOFFSET | ADC_JDR4_REGOFFSET)
 101:../system/include/stm32l4-hal-driver/stm32l4xx_ll_adc.h **** #define ADC_INJ_RANK_ID_JSQR_MASK          (ADC_CHANNEL_ID_NUMBER_MASK_POSBIT0)
 102:../system/include/stm32l4-hal-driver/stm32l4xx_ll_adc.h **** #define ADC_JDRX_REGOFFSET_POS             (8UL) /* Position of bits ADC_JDRx_REGOFFSET in ADC_INJ_
 103:../system/include/stm32l4-hal-driver/stm32l4xx_ll_adc.h **** 
 104:../system/include/stm32l4-hal-driver/stm32l4xx_ll_adc.h **** /* Definition of ADC group injected sequencer bits information to be inserted */
 105:../system/include/stm32l4-hal-driver/stm32l4xx_ll_adc.h **** /* into ADC group injected sequencer ranks literals definition.               */
 106:../system/include/stm32l4-hal-driver/stm32l4xx_ll_adc.h **** #define ADC_INJ_RANK_1_JSQR_BITOFFSET_POS  ( 8UL) /* Value equivalent to bitfield "ADC_JSQR_JSQ1" p
 107:../system/include/stm32l4-hal-driver/stm32l4xx_ll_adc.h **** #define ADC_INJ_RANK_2_JSQR_BITOFFSET_POS  (14UL) /* Value equivalent to bitfield "ADC_JSQR_JSQ2" p
 108:../system/include/stm32l4-hal-driver/stm32l4xx_ll_adc.h **** #define ADC_INJ_RANK_3_JSQR_BITOFFSET_POS  (20UL) /* Value equivalent to bitfield "ADC_JSQR_JSQ3" p
 109:../system/include/stm32l4-hal-driver/stm32l4xx_ll_adc.h **** #define ADC_INJ_RANK_4_JSQR_BITOFFSET_POS  (26UL) /* Value equivalent to bitfield "ADC_JSQR_JSQ4" p
 110:../system/include/stm32l4-hal-driver/stm32l4xx_ll_adc.h **** 
 111:../system/include/stm32l4-hal-driver/stm32l4xx_ll_adc.h **** 
 112:../system/include/stm32l4-hal-driver/stm32l4xx_ll_adc.h **** 
 113:../system/include/stm32l4-hal-driver/stm32l4xx_ll_adc.h **** /* Internal mask for ADC group regular trigger:                               */
 114:../system/include/stm32l4-hal-driver/stm32l4xx_ll_adc.h **** /* To select into literal LL_ADC_REG_TRIG_x the relevant bits for:            */
 115:../system/include/stm32l4-hal-driver/stm32l4xx_ll_adc.h **** /* - regular trigger source                                                   */
 116:../system/include/stm32l4-hal-driver/stm32l4xx_ll_adc.h **** /* - regular trigger edge                                                     */
 117:../system/include/stm32l4-hal-driver/stm32l4xx_ll_adc.h **** #define ADC_REG_TRIG_EXT_EDGE_DEFAULT       (ADC_CFGR_EXTEN_0) /* Trigger edge set to rising edge (
 118:../system/include/stm32l4-hal-driver/stm32l4xx_ll_adc.h **** 
 119:../system/include/stm32l4-hal-driver/stm32l4xx_ll_adc.h **** /* Mask containing trigger source masks for each of possible                  */
 120:../system/include/stm32l4-hal-driver/stm32l4xx_ll_adc.h **** /* trigger edge selection duplicated with shifts [0; 4; 8; 12]                */
 121:../system/include/stm32l4-hal-driver/stm32l4xx_ll_adc.h **** /* corresponding to {SW start; ext trigger; ext trigger; ext trigger}.        */
 122:../system/include/stm32l4-hal-driver/stm32l4xx_ll_adc.h **** #define ADC_REG_TRIG_SOURCE_MASK            (((LL_ADC_REG_TRIG_SOFTWARE & ADC_CFGR_EXTSEL) << (4U *
 123:../system/include/stm32l4-hal-driver/stm32l4xx_ll_adc.h ****                                              ((ADC_CFGR_EXTSEL)                            << (4U *
 124:../system/include/stm32l4-hal-driver/stm32l4xx_ll_adc.h ****                                              ((ADC_CFGR_EXTSEL)                            << (4U *
 125:../system/include/stm32l4-hal-driver/stm32l4xx_ll_adc.h ****                                              ((ADC_CFGR_EXTSEL)                            << (4U *
 126:../system/include/stm32l4-hal-driver/stm32l4xx_ll_adc.h **** 
 127:../system/include/stm32l4-hal-driver/stm32l4xx_ll_adc.h **** /* Mask containing trigger edge masks for each of possible                    */
 128:../system/include/stm32l4-hal-driver/stm32l4xx_ll_adc.h **** /* trigger edge selection duplicated with shifts [0; 4; 8; 12]                */
 129:../system/include/stm32l4-hal-driver/stm32l4xx_ll_adc.h **** /* corresponding to {SW start; ext trigger; ext trigger; ext trigger}.        */
 130:../system/include/stm32l4-hal-driver/stm32l4xx_ll_adc.h **** #define ADC_REG_TRIG_EDGE_MASK              (((LL_ADC_REG_TRIG_SOFTWARE & ADC_CFGR_EXTEN) << (4U * 
 131:../system/include/stm32l4-hal-driver/stm32l4xx_ll_adc.h ****                                              ((ADC_REG_TRIG_EXT_EDGE_DEFAULT)             << (4U * 
 132:../system/include/stm32l4-hal-driver/stm32l4xx_ll_adc.h ****                                              ((ADC_REG_TRIG_EXT_EDGE_DEFAULT)             << (4U * 
 133:../system/include/stm32l4-hal-driver/stm32l4xx_ll_adc.h ****                                              ((ADC_REG_TRIG_EXT_EDGE_DEFAULT)             << (4U * 
 134:../system/include/stm32l4-hal-driver/stm32l4xx_ll_adc.h **** 
 135:../system/include/stm32l4-hal-driver/stm32l4xx_ll_adc.h **** /* Definition of ADC group regular trigger bits information.                  */
 136:../system/include/stm32l4-hal-driver/stm32l4xx_ll_adc.h **** #define ADC_REG_TRIG_EXTSEL_BITOFFSET_POS  ( 6UL) /* Value equivalent to bitfield "ADC_CFGR_EXTSEL"
 137:../system/include/stm32l4-hal-driver/stm32l4xx_ll_adc.h **** #define ADC_REG_TRIG_EXTEN_BITOFFSET_POS   (10UL) /* Value equivalent to bitfield "ADC_CFGR_EXTEN" 
 138:../system/include/stm32l4-hal-driver/stm32l4xx_ll_adc.h **** 
 139:../system/include/stm32l4-hal-driver/stm32l4xx_ll_adc.h **** 
 140:../system/include/stm32l4-hal-driver/stm32l4xx_ll_adc.h **** 
 141:../system/include/stm32l4-hal-driver/stm32l4xx_ll_adc.h **** /* Internal mask for ADC group injected trigger:                              */
 142:../system/include/stm32l4-hal-driver/stm32l4xx_ll_adc.h **** /* To select into literal LL_ADC_INJ_TRIG_x the relevant bits for:            */
 143:../system/include/stm32l4-hal-driver/stm32l4xx_ll_adc.h **** /* - injected trigger source                                                  */
 144:../system/include/stm32l4-hal-driver/stm32l4xx_ll_adc.h **** /* - injected trigger edge                                                    */
 145:../system/include/stm32l4-hal-driver/stm32l4xx_ll_adc.h **** #define ADC_INJ_TRIG_EXT_EDGE_DEFAULT      (ADC_JSQR_JEXTEN_0) /* Trigger edge set to rising edge (
 146:../system/include/stm32l4-hal-driver/stm32l4xx_ll_adc.h **** 
 147:../system/include/stm32l4-hal-driver/stm32l4xx_ll_adc.h **** /* Mask containing trigger source masks for each of possible                  */
 148:../system/include/stm32l4-hal-driver/stm32l4xx_ll_adc.h **** /* trigger edge selection duplicated with shifts [0; 4; 8; 12]                */
 149:../system/include/stm32l4-hal-driver/stm32l4xx_ll_adc.h **** /* corresponding to {SW start; ext trigger; ext trigger; ext trigger}.        */
 150:../system/include/stm32l4-hal-driver/stm32l4xx_ll_adc.h **** #define ADC_INJ_TRIG_SOURCE_MASK            (((LL_ADC_INJ_TRIG_SOFTWARE & ADC_JSQR_JEXTSEL)  << (4U
 151:../system/include/stm32l4-hal-driver/stm32l4xx_ll_adc.h ****                                              ((ADC_JSQR_JEXTSEL)                             << (4U
 152:../system/include/stm32l4-hal-driver/stm32l4xx_ll_adc.h ****                                              ((ADC_JSQR_JEXTSEL)                             << (4U
 153:../system/include/stm32l4-hal-driver/stm32l4xx_ll_adc.h ****                                              ((ADC_JSQR_JEXTSEL)                             << (4U
 154:../system/include/stm32l4-hal-driver/stm32l4xx_ll_adc.h **** 
 155:../system/include/stm32l4-hal-driver/stm32l4xx_ll_adc.h **** /* Mask containing trigger edge masks for each of possible                    */
 156:../system/include/stm32l4-hal-driver/stm32l4xx_ll_adc.h **** /* trigger edge selection duplicated with shifts [0; 4; 8; 12]                */
 157:../system/include/stm32l4-hal-driver/stm32l4xx_ll_adc.h **** /* corresponding to {SW start; ext trigger; ext trigger; ext trigger}.        */
 158:../system/include/stm32l4-hal-driver/stm32l4xx_ll_adc.h **** #define ADC_INJ_TRIG_EDGE_MASK              (((LL_ADC_INJ_TRIG_SOFTWARE & ADC_JSQR_JEXTEN) << (4U *
 159:../system/include/stm32l4-hal-driver/stm32l4xx_ll_adc.h ****                                              ((ADC_INJ_TRIG_EXT_EDGE_DEFAULT)              << (4U *
 160:../system/include/stm32l4-hal-driver/stm32l4xx_ll_adc.h ****                                              ((ADC_INJ_TRIG_EXT_EDGE_DEFAULT)              << (4U *
 161:../system/include/stm32l4-hal-driver/stm32l4xx_ll_adc.h ****                                              ((ADC_INJ_TRIG_EXT_EDGE_DEFAULT)              << (4U *
 162:../system/include/stm32l4-hal-driver/stm32l4xx_ll_adc.h **** 
 163:../system/include/stm32l4-hal-driver/stm32l4xx_ll_adc.h **** /* Definition of ADC group injected trigger bits information.                 */
 164:../system/include/stm32l4-hal-driver/stm32l4xx_ll_adc.h **** #define ADC_INJ_TRIG_EXTSEL_BITOFFSET_POS  ( 2UL) /* Value equivalent to bitfield "ADC_JSQR_JEXTSEL
 165:../system/include/stm32l4-hal-driver/stm32l4xx_ll_adc.h **** #define ADC_INJ_TRIG_EXTEN_BITOFFSET_POS   ( 6UL) /* Value equivalent to bitfield "ADC_JSQR_JEXTEN"
 166:../system/include/stm32l4-hal-driver/stm32l4xx_ll_adc.h **** 
 167:../system/include/stm32l4-hal-driver/stm32l4xx_ll_adc.h **** 
 168:../system/include/stm32l4-hal-driver/stm32l4xx_ll_adc.h **** 
 169:../system/include/stm32l4-hal-driver/stm32l4xx_ll_adc.h **** 
 170:../system/include/stm32l4-hal-driver/stm32l4xx_ll_adc.h **** 
 171:../system/include/stm32l4-hal-driver/stm32l4xx_ll_adc.h **** 
 172:../system/include/stm32l4-hal-driver/stm32l4xx_ll_adc.h **** /* Internal mask for ADC channel:                                             */
 173:../system/include/stm32l4-hal-driver/stm32l4xx_ll_adc.h **** /* To select into literal LL_ADC_CHANNEL_x the relevant bits for:             */
 174:../system/include/stm32l4-hal-driver/stm32l4xx_ll_adc.h **** /* - channel identifier defined by number                                     */
 175:../system/include/stm32l4-hal-driver/stm32l4xx_ll_adc.h **** /* - channel identifier defined by bitfield                                   */
 176:../system/include/stm32l4-hal-driver/stm32l4xx_ll_adc.h **** /* - channel differentiation between external channels (connected to          */
 177:../system/include/stm32l4-hal-driver/stm32l4xx_ll_adc.h **** /*   GPIO pins) and internal channels (connected to internal paths)           */
 178:../system/include/stm32l4-hal-driver/stm32l4xx_ll_adc.h **** /* - channel sampling time defined by SMPRx register offset                   */
 179:../system/include/stm32l4-hal-driver/stm32l4xx_ll_adc.h **** /*   and SMPx bits positions into SMPRx register                              */
 180:../system/include/stm32l4-hal-driver/stm32l4xx_ll_adc.h **** #define ADC_CHANNEL_ID_NUMBER_MASK         (ADC_CFGR_AWD1CH)
 181:../system/include/stm32l4-hal-driver/stm32l4xx_ll_adc.h **** #define ADC_CHANNEL_ID_BITFIELD_MASK       (ADC_AWD2CR_AWD2CH)
 182:../system/include/stm32l4-hal-driver/stm32l4xx_ll_adc.h **** #define ADC_CHANNEL_ID_NUMBER_BITOFFSET_POS (26UL)/* Value equivalent to bitfield "ADC_CHANNEL_ID_N
 183:../system/include/stm32l4-hal-driver/stm32l4xx_ll_adc.h **** #define ADC_CHANNEL_ID_MASK                (ADC_CHANNEL_ID_NUMBER_MASK | ADC_CHANNEL_ID_BITFIELD_MA
 184:../system/include/stm32l4-hal-driver/stm32l4xx_ll_adc.h ****                                             | ADC_CHANNEL_ID_INTERNAL_CH_MASK)
 185:../system/include/stm32l4-hal-driver/stm32l4xx_ll_adc.h **** /* Equivalent mask of ADC_CHANNEL_NUMBER_MASK aligned on register LSB (bit 0) */
 186:../system/include/stm32l4-hal-driver/stm32l4xx_ll_adc.h **** #define ADC_CHANNEL_ID_NUMBER_MASK_POSBIT0 (ADC_SQR2_SQ5) /* Equivalent to shift: (ADC_CHANNEL_NUMB
 187:../system/include/stm32l4-hal-driver/stm32l4xx_ll_adc.h **** 
 188:../system/include/stm32l4-hal-driver/stm32l4xx_ll_adc.h **** /* Channel differentiation between external and internal channels */
 189:../system/include/stm32l4-hal-driver/stm32l4xx_ll_adc.h **** #define ADC_CHANNEL_ID_INTERNAL_CH         (0x80000000UL) /* Marker of internal channel */
 190:../system/include/stm32l4-hal-driver/stm32l4xx_ll_adc.h **** #define ADC_CHANNEL_ID_INTERNAL_CH_2       (0x00080000UL) /* Marker of internal channel for other A
 191:../system/include/stm32l4-hal-driver/stm32l4xx_ll_adc.h **** #define ADC_CHANNEL_ID_INTERNAL_CH_MASK    (ADC_CHANNEL_ID_INTERNAL_CH | ADC_CHANNEL_ID_INTERNAL_CH
 192:../system/include/stm32l4-hal-driver/stm32l4xx_ll_adc.h **** 
 193:../system/include/stm32l4-hal-driver/stm32l4xx_ll_adc.h **** /* Internal register offset for ADC channel sampling time configuration */
 194:../system/include/stm32l4-hal-driver/stm32l4xx_ll_adc.h **** /* (offset placed into a spare area of literal definition) */
 195:../system/include/stm32l4-hal-driver/stm32l4xx_ll_adc.h **** #define ADC_SMPR1_REGOFFSET                (0x00000000UL)
 196:../system/include/stm32l4-hal-driver/stm32l4xx_ll_adc.h **** #define ADC_SMPR2_REGOFFSET                (0x02000000UL)
 197:../system/include/stm32l4-hal-driver/stm32l4xx_ll_adc.h **** #define ADC_CHANNEL_SMPRX_REGOFFSET_MASK   (ADC_SMPR1_REGOFFSET | ADC_SMPR2_REGOFFSET)
 198:../system/include/stm32l4-hal-driver/stm32l4xx_ll_adc.h **** #define ADC_SMPRX_REGOFFSET_POS            (25UL) /* Position of bits ADC_SMPRx_REGOFFSET in ADC_CH
 199:../system/include/stm32l4-hal-driver/stm32l4xx_ll_adc.h **** 
 200:../system/include/stm32l4-hal-driver/stm32l4xx_ll_adc.h **** #define ADC_CHANNEL_SMPx_BITOFFSET_MASK    (0x01F00000UL)
 201:../system/include/stm32l4-hal-driver/stm32l4xx_ll_adc.h **** #define ADC_CHANNEL_SMPx_BITOFFSET_POS     (20UL)           /* Value equivalent to bitfield "ADC_CH
 202:../system/include/stm32l4-hal-driver/stm32l4xx_ll_adc.h **** 
 203:../system/include/stm32l4-hal-driver/stm32l4xx_ll_adc.h **** /* Definition of channels ID number information to be inserted into           */
 204:../system/include/stm32l4-hal-driver/stm32l4xx_ll_adc.h **** /* channels literals definition.                                              */
 205:../system/include/stm32l4-hal-driver/stm32l4xx_ll_adc.h **** #define ADC_CHANNEL_0_NUMBER               (0x00000000UL)
 206:../system/include/stm32l4-hal-driver/stm32l4xx_ll_adc.h **** #define ADC_CHANNEL_1_NUMBER               (ADC_CFGR_AWD1CH_0)
 207:../system/include/stm32l4-hal-driver/stm32l4xx_ll_adc.h **** #define ADC_CHANNEL_2_NUMBER               (ADC_CFGR_AWD1CH_1)
 208:../system/include/stm32l4-hal-driver/stm32l4xx_ll_adc.h **** #define ADC_CHANNEL_3_NUMBER               (ADC_CFGR_AWD1CH_1 | ADC_CFGR_AWD1CH_0)
 209:../system/include/stm32l4-hal-driver/stm32l4xx_ll_adc.h **** #define ADC_CHANNEL_4_NUMBER               (ADC_CFGR_AWD1CH_2)
 210:../system/include/stm32l4-hal-driver/stm32l4xx_ll_adc.h **** #define ADC_CHANNEL_5_NUMBER               (ADC_CFGR_AWD1CH_2 | ADC_CFGR_AWD1CH_0)
 211:../system/include/stm32l4-hal-driver/stm32l4xx_ll_adc.h **** #define ADC_CHANNEL_6_NUMBER               (ADC_CFGR_AWD1CH_2 | ADC_CFGR_AWD1CH_1)
 212:../system/include/stm32l4-hal-driver/stm32l4xx_ll_adc.h **** #define ADC_CHANNEL_7_NUMBER               (ADC_CFGR_AWD1CH_2 | ADC_CFGR_AWD1CH_1 | ADC_CFGR_AWD1CH
 213:../system/include/stm32l4-hal-driver/stm32l4xx_ll_adc.h **** #define ADC_CHANNEL_8_NUMBER               (ADC_CFGR_AWD1CH_3)
 214:../system/include/stm32l4-hal-driver/stm32l4xx_ll_adc.h **** #define ADC_CHANNEL_9_NUMBER               (ADC_CFGR_AWD1CH_3 | ADC_CFGR_AWD1CH_0)
 215:../system/include/stm32l4-hal-driver/stm32l4xx_ll_adc.h **** #define ADC_CHANNEL_10_NUMBER              (ADC_CFGR_AWD1CH_3 | ADC_CFGR_AWD1CH_1)
 216:../system/include/stm32l4-hal-driver/stm32l4xx_ll_adc.h **** #define ADC_CHANNEL_11_NUMBER              (ADC_CFGR_AWD1CH_3 | ADC_CFGR_AWD1CH_1 | ADC_CFGR_AWD1CH
 217:../system/include/stm32l4-hal-driver/stm32l4xx_ll_adc.h **** #define ADC_CHANNEL_12_NUMBER              (ADC_CFGR_AWD1CH_3 | ADC_CFGR_AWD1CH_2)
 218:../system/include/stm32l4-hal-driver/stm32l4xx_ll_adc.h **** #define ADC_CHANNEL_13_NUMBER              (ADC_CFGR_AWD1CH_3 | ADC_CFGR_AWD1CH_2 | ADC_CFGR_AWD1CH
 219:../system/include/stm32l4-hal-driver/stm32l4xx_ll_adc.h **** #define ADC_CHANNEL_14_NUMBER              (ADC_CFGR_AWD1CH_3 | ADC_CFGR_AWD1CH_2 | ADC_CFGR_AWD1CH
 220:../system/include/stm32l4-hal-driver/stm32l4xx_ll_adc.h **** #define ADC_CHANNEL_15_NUMBER              (ADC_CFGR_AWD1CH_3 | ADC_CFGR_AWD1CH_2 | \
 221:../system/include/stm32l4-hal-driver/stm32l4xx_ll_adc.h ****                                             ADC_CFGR_AWD1CH_1 | ADC_CFGR_AWD1CH_0)
 222:../system/include/stm32l4-hal-driver/stm32l4xx_ll_adc.h **** #define ADC_CHANNEL_16_NUMBER              (ADC_CFGR_AWD1CH_4)
 223:../system/include/stm32l4-hal-driver/stm32l4xx_ll_adc.h **** #define ADC_CHANNEL_17_NUMBER              (ADC_CFGR_AWD1CH_4 | ADC_CFGR_AWD1CH_0)
 224:../system/include/stm32l4-hal-driver/stm32l4xx_ll_adc.h **** #define ADC_CHANNEL_18_NUMBER              (ADC_CFGR_AWD1CH_4 | ADC_CFGR_AWD1CH_1)
 225:../system/include/stm32l4-hal-driver/stm32l4xx_ll_adc.h **** 
 226:../system/include/stm32l4-hal-driver/stm32l4xx_ll_adc.h **** /* Definition of channels ID bitfield information to be inserted into         */
 227:../system/include/stm32l4-hal-driver/stm32l4xx_ll_adc.h **** /* channels literals definition.                                              */
 228:../system/include/stm32l4-hal-driver/stm32l4xx_ll_adc.h **** #define ADC_CHANNEL_0_BITFIELD             (ADC_AWD2CR_AWD2CH_0)
 229:../system/include/stm32l4-hal-driver/stm32l4xx_ll_adc.h **** #define ADC_CHANNEL_1_BITFIELD             (ADC_AWD2CR_AWD2CH_1)
 230:../system/include/stm32l4-hal-driver/stm32l4xx_ll_adc.h **** #define ADC_CHANNEL_2_BITFIELD             (ADC_AWD2CR_AWD2CH_2)
 231:../system/include/stm32l4-hal-driver/stm32l4xx_ll_adc.h **** #define ADC_CHANNEL_3_BITFIELD             (ADC_AWD2CR_AWD2CH_3)
 232:../system/include/stm32l4-hal-driver/stm32l4xx_ll_adc.h **** #define ADC_CHANNEL_4_BITFIELD             (ADC_AWD2CR_AWD2CH_4)
 233:../system/include/stm32l4-hal-driver/stm32l4xx_ll_adc.h **** #define ADC_CHANNEL_5_BITFIELD             (ADC_AWD2CR_AWD2CH_5)
 234:../system/include/stm32l4-hal-driver/stm32l4xx_ll_adc.h **** #define ADC_CHANNEL_6_BITFIELD             (ADC_AWD2CR_AWD2CH_6)
 235:../system/include/stm32l4-hal-driver/stm32l4xx_ll_adc.h **** #define ADC_CHANNEL_7_BITFIELD             (ADC_AWD2CR_AWD2CH_7)
 236:../system/include/stm32l4-hal-driver/stm32l4xx_ll_adc.h **** #define ADC_CHANNEL_8_BITFIELD             (ADC_AWD2CR_AWD2CH_8)
 237:../system/include/stm32l4-hal-driver/stm32l4xx_ll_adc.h **** #define ADC_CHANNEL_9_BITFIELD             (ADC_AWD2CR_AWD2CH_9)
 238:../system/include/stm32l4-hal-driver/stm32l4xx_ll_adc.h **** #define ADC_CHANNEL_10_BITFIELD            (ADC_AWD2CR_AWD2CH_10)
 239:../system/include/stm32l4-hal-driver/stm32l4xx_ll_adc.h **** #define ADC_CHANNEL_11_BITFIELD            (ADC_AWD2CR_AWD2CH_11)
 240:../system/include/stm32l4-hal-driver/stm32l4xx_ll_adc.h **** #define ADC_CHANNEL_12_BITFIELD            (ADC_AWD2CR_AWD2CH_12)
 241:../system/include/stm32l4-hal-driver/stm32l4xx_ll_adc.h **** #define ADC_CHANNEL_13_BITFIELD            (ADC_AWD2CR_AWD2CH_13)
 242:../system/include/stm32l4-hal-driver/stm32l4xx_ll_adc.h **** #define ADC_CHANNEL_14_BITFIELD            (ADC_AWD2CR_AWD2CH_14)
 243:../system/include/stm32l4-hal-driver/stm32l4xx_ll_adc.h **** #define ADC_CHANNEL_15_BITFIELD            (ADC_AWD2CR_AWD2CH_15)
 244:../system/include/stm32l4-hal-driver/stm32l4xx_ll_adc.h **** #define ADC_CHANNEL_16_BITFIELD            (ADC_AWD2CR_AWD2CH_16)
 245:../system/include/stm32l4-hal-driver/stm32l4xx_ll_adc.h **** #define ADC_CHANNEL_17_BITFIELD            (ADC_AWD2CR_AWD2CH_17)
 246:../system/include/stm32l4-hal-driver/stm32l4xx_ll_adc.h **** #define ADC_CHANNEL_18_BITFIELD            (ADC_AWD2CR_AWD2CH_18)
 247:../system/include/stm32l4-hal-driver/stm32l4xx_ll_adc.h **** 
 248:../system/include/stm32l4-hal-driver/stm32l4xx_ll_adc.h **** /* Definition of channels sampling time information to be inserted into       */
 249:../system/include/stm32l4-hal-driver/stm32l4xx_ll_adc.h **** /* channels literals definition.                                              */
 250:../system/include/stm32l4-hal-driver/stm32l4xx_ll_adc.h **** #define ADC_CHANNEL_0_SMP                  (ADC_SMPR1_REGOFFSET | (( 0UL) << ADC_CHANNEL_SMPx_BITOF
 251:../system/include/stm32l4-hal-driver/stm32l4xx_ll_adc.h **** #define ADC_CHANNEL_1_SMP                  (ADC_SMPR1_REGOFFSET | (( 3UL) << ADC_CHANNEL_SMPx_BITOF
 252:../system/include/stm32l4-hal-driver/stm32l4xx_ll_adc.h **** #define ADC_CHANNEL_2_SMP                  (ADC_SMPR1_REGOFFSET | (( 6UL) << ADC_CHANNEL_SMPx_BITOF
 253:../system/include/stm32l4-hal-driver/stm32l4xx_ll_adc.h **** #define ADC_CHANNEL_3_SMP                  (ADC_SMPR1_REGOFFSET | (( 9UL) << ADC_CHANNEL_SMPx_BITOF
 254:../system/include/stm32l4-hal-driver/stm32l4xx_ll_adc.h **** #define ADC_CHANNEL_4_SMP                  (ADC_SMPR1_REGOFFSET | ((12UL) << ADC_CHANNEL_SMPx_BITOF
 255:../system/include/stm32l4-hal-driver/stm32l4xx_ll_adc.h **** #define ADC_CHANNEL_5_SMP                  (ADC_SMPR1_REGOFFSET | ((15UL) << ADC_CHANNEL_SMPx_BITOF
 256:../system/include/stm32l4-hal-driver/stm32l4xx_ll_adc.h **** #define ADC_CHANNEL_6_SMP                  (ADC_SMPR1_REGOFFSET | ((18UL) << ADC_CHANNEL_SMPx_BITOF
 257:../system/include/stm32l4-hal-driver/stm32l4xx_ll_adc.h **** #define ADC_CHANNEL_7_SMP                  (ADC_SMPR1_REGOFFSET | ((21UL) << ADC_CHANNEL_SMPx_BITOF
 258:../system/include/stm32l4-hal-driver/stm32l4xx_ll_adc.h **** #define ADC_CHANNEL_8_SMP                  (ADC_SMPR1_REGOFFSET | ((24UL) << ADC_CHANNEL_SMPx_BITOF
 259:../system/include/stm32l4-hal-driver/stm32l4xx_ll_adc.h **** #define ADC_CHANNEL_9_SMP                  (ADC_SMPR1_REGOFFSET | ((27UL) << ADC_CHANNEL_SMPx_BITOF
 260:../system/include/stm32l4-hal-driver/stm32l4xx_ll_adc.h **** #define ADC_CHANNEL_10_SMP                 (ADC_SMPR2_REGOFFSET | (( 0UL) << ADC_CHANNEL_SMPx_BITOF
 261:../system/include/stm32l4-hal-driver/stm32l4xx_ll_adc.h **** #define ADC_CHANNEL_11_SMP                 (ADC_SMPR2_REGOFFSET | (( 3UL) << ADC_CHANNEL_SMPx_BITOF
 262:../system/include/stm32l4-hal-driver/stm32l4xx_ll_adc.h **** #define ADC_CHANNEL_12_SMP                 (ADC_SMPR2_REGOFFSET | (( 6UL) << ADC_CHANNEL_SMPx_BITOF
 263:../system/include/stm32l4-hal-driver/stm32l4xx_ll_adc.h **** #define ADC_CHANNEL_13_SMP                 (ADC_SMPR2_REGOFFSET | (( 9UL) << ADC_CHANNEL_SMPx_BITOF
 264:../system/include/stm32l4-hal-driver/stm32l4xx_ll_adc.h **** #define ADC_CHANNEL_14_SMP                 (ADC_SMPR2_REGOFFSET | ((12UL) << ADC_CHANNEL_SMPx_BITOF
 265:../system/include/stm32l4-hal-driver/stm32l4xx_ll_adc.h **** #define ADC_CHANNEL_15_SMP                 (ADC_SMPR2_REGOFFSET | ((15UL) << ADC_CHANNEL_SMPx_BITOF
 266:../system/include/stm32l4-hal-driver/stm32l4xx_ll_adc.h **** #define ADC_CHANNEL_16_SMP                 (ADC_SMPR2_REGOFFSET | ((18UL) << ADC_CHANNEL_SMPx_BITOF
 267:../system/include/stm32l4-hal-driver/stm32l4xx_ll_adc.h **** #define ADC_CHANNEL_17_SMP                 (ADC_SMPR2_REGOFFSET | ((21UL) << ADC_CHANNEL_SMPx_BITOF
 268:../system/include/stm32l4-hal-driver/stm32l4xx_ll_adc.h **** #define ADC_CHANNEL_18_SMP                 (ADC_SMPR2_REGOFFSET | ((24UL) << ADC_CHANNEL_SMPx_BITOF
 269:../system/include/stm32l4-hal-driver/stm32l4xx_ll_adc.h **** 
 270:../system/include/stm32l4-hal-driver/stm32l4xx_ll_adc.h **** 
 271:../system/include/stm32l4-hal-driver/stm32l4xx_ll_adc.h **** /* Internal mask for ADC mode single or differential ended:                   */
 272:../system/include/stm32l4-hal-driver/stm32l4xx_ll_adc.h **** /* To select into literals LL_ADC_SINGLE_ENDED or LL_ADC_SINGLE_DIFFERENTIAL  */
 273:../system/include/stm32l4-hal-driver/stm32l4xx_ll_adc.h **** /* the relevant bits for:                                                     */
 274:../system/include/stm32l4-hal-driver/stm32l4xx_ll_adc.h **** /* (concatenation of multiple bits used in different registers)               */
 275:../system/include/stm32l4-hal-driver/stm32l4xx_ll_adc.h **** /* - ADC calibration: calibration start, calibration factor get or set        */
 276:../system/include/stm32l4-hal-driver/stm32l4xx_ll_adc.h **** /* - ADC channels: set each ADC channel ending mode                           */
 277:../system/include/stm32l4-hal-driver/stm32l4xx_ll_adc.h **** #define ADC_SINGLEDIFF_CALIB_START_MASK    (ADC_CR_ADCALDIF)
 278:../system/include/stm32l4-hal-driver/stm32l4xx_ll_adc.h **** #define ADC_SINGLEDIFF_CALIB_FACTOR_MASK   (ADC_CALFACT_CALFACT_D | ADC_CALFACT_CALFACT_S)
 279:../system/include/stm32l4-hal-driver/stm32l4xx_ll_adc.h **** #define ADC_SINGLEDIFF_CHANNEL_MASK        (ADC_CHANNEL_ID_BITFIELD_MASK) /* Equivalent to ADC_DIFS
 280:../system/include/stm32l4-hal-driver/stm32l4xx_ll_adc.h **** #define ADC_SINGLEDIFF_CHANNEL_SHIFT_MASK  (ADC_CALFACT_CALFACT_S_4 | ADC_CALFACT_CALFACT_S_3) /* B
 281:../system/include/stm32l4-hal-driver/stm32l4xx_ll_adc.h **** #define ADC_SINGLEDIFF_CALIB_F_BIT_D_MASK   (0x00010000UL)                           /* Selection o
 282:../system/include/stm32l4-hal-driver/stm32l4xx_ll_adc.h **** #define ADC_SINGLEDIFF_CALIB_F_BIT_D_POS    (16UL)                                   /* Selection o
 283:../system/include/stm32l4-hal-driver/stm32l4xx_ll_adc.h **** #define ADC_SINGLEDIFF_CALIB_F_BIT_D_SHIFT4 (ADC_SINGLEDIFF_CALIB_F_BIT_D_POS - 4UL) /* Shift of bi
 284:../system/include/stm32l4-hal-driver/stm32l4xx_ll_adc.h **** 
 285:../system/include/stm32l4-hal-driver/stm32l4xx_ll_adc.h **** /* Internal mask for ADC analog watchdog:                                     */
 286:../system/include/stm32l4-hal-driver/stm32l4xx_ll_adc.h **** /* To select into literals LL_ADC_AWD_CHANNELx_xxx the relevant bits for:     */
 287:../system/include/stm32l4-hal-driver/stm32l4xx_ll_adc.h **** /* (concatenation of multiple bits used in different analog watchdogs,        */
 288:../system/include/stm32l4-hal-driver/stm32l4xx_ll_adc.h **** /* (feature of several watchdogs not available on all STM32 families)).       */
 289:../system/include/stm32l4-hal-driver/stm32l4xx_ll_adc.h **** /* - analog watchdog 1: monitored channel defined by number,                  */
 290:../system/include/stm32l4-hal-driver/stm32l4xx_ll_adc.h **** /*   selection of ADC group (ADC groups regular and-or injected).             */
 291:../system/include/stm32l4-hal-driver/stm32l4xx_ll_adc.h **** /* - analog watchdog 2 and 3: monitored channel defined by bitfield, no       */
 292:../system/include/stm32l4-hal-driver/stm32l4xx_ll_adc.h **** /*   selection on groups.                                                     */
 293:../system/include/stm32l4-hal-driver/stm32l4xx_ll_adc.h **** 
 294:../system/include/stm32l4-hal-driver/stm32l4xx_ll_adc.h **** /* Internal register offset for ADC analog watchdog channel configuration */
 295:../system/include/stm32l4-hal-driver/stm32l4xx_ll_adc.h **** #define ADC_AWD_CR1_REGOFFSET              (0x00000000UL)
 296:../system/include/stm32l4-hal-driver/stm32l4xx_ll_adc.h **** #define ADC_AWD_CR2_REGOFFSET              (0x00100000UL)
 297:../system/include/stm32l4-hal-driver/stm32l4xx_ll_adc.h **** #define ADC_AWD_CR3_REGOFFSET              (0x00200000UL)
 298:../system/include/stm32l4-hal-driver/stm32l4xx_ll_adc.h **** 
 299:../system/include/stm32l4-hal-driver/stm32l4xx_ll_adc.h **** /* Register offset gap between AWD1 and AWD2-AWD3 configuration registers */
 300:../system/include/stm32l4-hal-driver/stm32l4xx_ll_adc.h **** /* (Set separately as ADC_AWD_CRX_REGOFFSET to spare 32 bits space */
 301:../system/include/stm32l4-hal-driver/stm32l4xx_ll_adc.h **** #define ADC_AWD_CR12_REGOFFSETGAP_MASK     (ADC_AWD2CR_AWD2CH_0)
 302:../system/include/stm32l4-hal-driver/stm32l4xx_ll_adc.h **** #define ADC_AWD_CR12_REGOFFSETGAP_VAL      (0x00000024UL)
 303:../system/include/stm32l4-hal-driver/stm32l4xx_ll_adc.h **** 
 304:../system/include/stm32l4-hal-driver/stm32l4xx_ll_adc.h **** #define ADC_AWD_CRX_REGOFFSET_MASK         (ADC_AWD_CR1_REGOFFSET | ADC_AWD_CR2_REGOFFSET | ADC_AWD
 305:../system/include/stm32l4-hal-driver/stm32l4xx_ll_adc.h **** 
 306:../system/include/stm32l4-hal-driver/stm32l4xx_ll_adc.h **** #define ADC_AWD_CR1_CHANNEL_MASK           (ADC_CFGR_AWD1CH | ADC_CFGR_JAWD1EN | ADC_CFGR_AWD1EN | 
 307:../system/include/stm32l4-hal-driver/stm32l4xx_ll_adc.h **** #define ADC_AWD_CR23_CHANNEL_MASK          (ADC_AWD2CR_AWD2CH)
 308:../system/include/stm32l4-hal-driver/stm32l4xx_ll_adc.h **** #define ADC_AWD_CR_ALL_CHANNEL_MASK        (ADC_AWD_CR1_CHANNEL_MASK | ADC_AWD_CR23_CHANNEL_MASK)
 309:../system/include/stm32l4-hal-driver/stm32l4xx_ll_adc.h **** 
 310:../system/include/stm32l4-hal-driver/stm32l4xx_ll_adc.h **** #define ADC_AWD_CRX_REGOFFSET_POS          (20UL) /* Position of bits ADC_AWD_CRx_REGOFFSET in ADC_
 311:../system/include/stm32l4-hal-driver/stm32l4xx_ll_adc.h **** 
 312:../system/include/stm32l4-hal-driver/stm32l4xx_ll_adc.h **** /* Internal register offset for ADC analog watchdog threshold configuration */
 313:../system/include/stm32l4-hal-driver/stm32l4xx_ll_adc.h **** #define ADC_AWD_TR1_REGOFFSET              (ADC_AWD_CR1_REGOFFSET)
 314:../system/include/stm32l4-hal-driver/stm32l4xx_ll_adc.h **** #define ADC_AWD_TR2_REGOFFSET              (ADC_AWD_CR2_REGOFFSET)
 315:../system/include/stm32l4-hal-driver/stm32l4xx_ll_adc.h **** #define ADC_AWD_TR3_REGOFFSET              (ADC_AWD_CR3_REGOFFSET)
 316:../system/include/stm32l4-hal-driver/stm32l4xx_ll_adc.h **** #define ADC_AWD_TRX_REGOFFSET_MASK         (ADC_AWD_TR1_REGOFFSET | ADC_AWD_TR2_REGOFFSET | ADC_AWD
 317:../system/include/stm32l4-hal-driver/stm32l4xx_ll_adc.h **** #define ADC_AWD_TRX_REGOFFSET_POS          (ADC_AWD_CRX_REGOFFSET_POS)     /* Position of bits ADC_
 318:../system/include/stm32l4-hal-driver/stm32l4xx_ll_adc.h **** #define ADC_AWD_TRX_BIT_HIGH_MASK          (0x00010000UL)                   /* Selection of 1 bit t
 319:../system/include/stm32l4-hal-driver/stm32l4xx_ll_adc.h **** #define ADC_AWD_TRX_BIT_HIGH_POS           (16UL)                           /* Selection of 1 bit t
 320:../system/include/stm32l4-hal-driver/stm32l4xx_ll_adc.h **** #define ADC_AWD_TRX_BIT_HIGH_SHIFT4        (ADC_AWD_TRX_BIT_HIGH_POS - 4UL) /* Shift of bit ADC_AWD
 321:../system/include/stm32l4-hal-driver/stm32l4xx_ll_adc.h **** 
 322:../system/include/stm32l4-hal-driver/stm32l4xx_ll_adc.h **** /* Internal mask for ADC offset:                                              */
 323:../system/include/stm32l4-hal-driver/stm32l4xx_ll_adc.h **** /* Internal register offset for ADC offset number configuration */
 324:../system/include/stm32l4-hal-driver/stm32l4xx_ll_adc.h **** #define ADC_OFR1_REGOFFSET                 (0x00000000UL)
 325:../system/include/stm32l4-hal-driver/stm32l4xx_ll_adc.h **** #define ADC_OFR2_REGOFFSET                 (0x00000001UL)
 326:../system/include/stm32l4-hal-driver/stm32l4xx_ll_adc.h **** #define ADC_OFR3_REGOFFSET                 (0x00000002UL)
 327:../system/include/stm32l4-hal-driver/stm32l4xx_ll_adc.h **** #define ADC_OFR4_REGOFFSET                 (0x00000003UL)
 328:../system/include/stm32l4-hal-driver/stm32l4xx_ll_adc.h **** #define ADC_OFRx_REGOFFSET_MASK            (ADC_OFR1_REGOFFSET | ADC_OFR2_REGOFFSET \
 329:../system/include/stm32l4-hal-driver/stm32l4xx_ll_adc.h ****                                             | ADC_OFR3_REGOFFSET | ADC_OFR4_REGOFFSET)
 330:../system/include/stm32l4-hal-driver/stm32l4xx_ll_adc.h **** 
 331:../system/include/stm32l4-hal-driver/stm32l4xx_ll_adc.h **** 
 332:../system/include/stm32l4-hal-driver/stm32l4xx_ll_adc.h **** /* ADC registers bits positions */
 333:../system/include/stm32l4-hal-driver/stm32l4xx_ll_adc.h **** #define ADC_CFGR_RES_BITOFFSET_POS         ( 3UL) /* Value equivalent to bitfield "ADC_CFGR_RES" po
 334:../system/include/stm32l4-hal-driver/stm32l4xx_ll_adc.h **** #define ADC_CFGR_AWD1SGL_BITOFFSET_POS     (22UL) /* Value equivalent to bitfield "ADC_CFGR_AWD1SGL
 335:../system/include/stm32l4-hal-driver/stm32l4xx_ll_adc.h **** #define ADC_CFGR_AWD1EN_BITOFFSET_POS      (23UL) /* Value equivalent to bitfield "ADC_CFGR_AWD1EN"
 336:../system/include/stm32l4-hal-driver/stm32l4xx_ll_adc.h **** #define ADC_CFGR_JAWD1EN_BITOFFSET_POS     (24UL) /* Value equivalent to bitfield "ADC_CFGR_JAWD1EN
 337:../system/include/stm32l4-hal-driver/stm32l4xx_ll_adc.h **** #define ADC_TR1_HT1_BITOFFSET_POS          (16UL) /* Value equivalent to bitfield "ADC_TR1_HT1" pos
 338:../system/include/stm32l4-hal-driver/stm32l4xx_ll_adc.h **** 
 339:../system/include/stm32l4-hal-driver/stm32l4xx_ll_adc.h **** 
 340:../system/include/stm32l4-hal-driver/stm32l4xx_ll_adc.h **** /* ADC registers bits groups */
 341:../system/include/stm32l4-hal-driver/stm32l4xx_ll_adc.h **** #define ADC_CR_BITS_PROPERTY_RS            (ADC_CR_ADCAL | ADC_CR_JADSTP | ADC_CR_ADSTP | ADC_CR_JA
 342:../system/include/stm32l4-hal-driver/stm32l4xx_ll_adc.h **** 
 343:../system/include/stm32l4-hal-driver/stm32l4xx_ll_adc.h **** 
 344:../system/include/stm32l4-hal-driver/stm32l4xx_ll_adc.h **** /* ADC internal channels related definitions */
 345:../system/include/stm32l4-hal-driver/stm32l4xx_ll_adc.h **** /* Internal voltage reference VrefInt */
 346:../system/include/stm32l4-hal-driver/stm32l4xx_ll_adc.h **** #define VREFINT_CAL_ADDR                   ((uint16_t*) (0x1FFF75AAUL)) /* Internal voltage referen
 347:../system/include/stm32l4-hal-driver/stm32l4xx_ll_adc.h **** #define VREFINT_CAL_VREF                   ( 3000UL)                    /* Analog voltage reference
 348:../system/include/stm32l4-hal-driver/stm32l4xx_ll_adc.h **** /* Temperature sensor */
 349:../system/include/stm32l4-hal-driver/stm32l4xx_ll_adc.h **** #define TEMPSENSOR_CAL1_ADDR               ((uint16_t*) (0x1FFF75A8UL)) /* Internal temperature sen
 350:../system/include/stm32l4-hal-driver/stm32l4xx_ll_adc.h **** #define TEMPSENSOR_CAL2_ADDR               ((uint16_t*) (0x1FFF75CAUL)) /* Internal temperature sen
 351:../system/include/stm32l4-hal-driver/stm32l4xx_ll_adc.h **** #define TEMPSENSOR_CAL1_TEMP               (( int32_t)   30L)           /* Internal temperature sen
 352:../system/include/stm32l4-hal-driver/stm32l4xx_ll_adc.h **** #if defined (STM32L471xx) || defined (STM32L475xx) || defined (STM32L476xx) || defined (STM32L485xx
 353:../system/include/stm32l4-hal-driver/stm32l4xx_ll_adc.h **** #define TEMPSENSOR_CAL2_TEMP               (110L)                       /* Internal temperature sen
 354:../system/include/stm32l4-hal-driver/stm32l4xx_ll_adc.h **** #else
 355:../system/include/stm32l4-hal-driver/stm32l4xx_ll_adc.h **** #define TEMPSENSOR_CAL2_TEMP               (130L)                       /* Internal temperature sen
 356:../system/include/stm32l4-hal-driver/stm32l4xx_ll_adc.h **** #endif /* defined (STM32L471xx) || defined (STM32L475xx) || defined (STM32L476xx) || defined (STM32
 357:../system/include/stm32l4-hal-driver/stm32l4xx_ll_adc.h **** #define TEMPSENSOR_CAL_VREFANALOG          (3000UL)                     /* Analog voltage reference
 358:../system/include/stm32l4-hal-driver/stm32l4xx_ll_adc.h **** 
 359:../system/include/stm32l4-hal-driver/stm32l4xx_ll_adc.h **** /**
 360:../system/include/stm32l4-hal-driver/stm32l4xx_ll_adc.h ****   * @}
 361:../system/include/stm32l4-hal-driver/stm32l4xx_ll_adc.h ****   */
 362:../system/include/stm32l4-hal-driver/stm32l4xx_ll_adc.h **** 
 363:../system/include/stm32l4-hal-driver/stm32l4xx_ll_adc.h **** 
 364:../system/include/stm32l4-hal-driver/stm32l4xx_ll_adc.h **** /* Private macros ------------------------------------------------------------*/
 365:../system/include/stm32l4-hal-driver/stm32l4xx_ll_adc.h **** /** @defgroup ADC_LL_Private_Macros ADC Private Macros
 366:../system/include/stm32l4-hal-driver/stm32l4xx_ll_adc.h ****   * @{
 367:../system/include/stm32l4-hal-driver/stm32l4xx_ll_adc.h ****   */
 368:../system/include/stm32l4-hal-driver/stm32l4xx_ll_adc.h **** 
 369:../system/include/stm32l4-hal-driver/stm32l4xx_ll_adc.h **** /**
 370:../system/include/stm32l4-hal-driver/stm32l4xx_ll_adc.h ****   * @brief  Driver macro reserved for internal use: set a pointer to
 371:../system/include/stm32l4-hal-driver/stm32l4xx_ll_adc.h ****   *         a register from a register basis from which an offset
 372:../system/include/stm32l4-hal-driver/stm32l4xx_ll_adc.h ****   *         is applied.
 373:../system/include/stm32l4-hal-driver/stm32l4xx_ll_adc.h ****   * @param  __REG__ Register basis from which the offset is applied.
 374:../system/include/stm32l4-hal-driver/stm32l4xx_ll_adc.h ****   * @param  __REG_OFFFSET__ Offset to be applied (unit: number of registers).
 375:../system/include/stm32l4-hal-driver/stm32l4xx_ll_adc.h ****   * @retval Pointer to register address
 376:../system/include/stm32l4-hal-driver/stm32l4xx_ll_adc.h ****   */
 377:../system/include/stm32l4-hal-driver/stm32l4xx_ll_adc.h **** #define __ADC_PTR_REG_OFFSET(__REG__, __REG_OFFFSET__)                         \
 378:../system/include/stm32l4-hal-driver/stm32l4xx_ll_adc.h ****   ((__IO uint32_t *)((uint32_t) ((uint32_t)(&(__REG__)) + ((__REG_OFFFSET__) << 2UL))))
 379:../system/include/stm32l4-hal-driver/stm32l4xx_ll_adc.h **** 
 380:../system/include/stm32l4-hal-driver/stm32l4xx_ll_adc.h **** /**
 381:../system/include/stm32l4-hal-driver/stm32l4xx_ll_adc.h ****   * @}
 382:../system/include/stm32l4-hal-driver/stm32l4xx_ll_adc.h ****   */
 383:../system/include/stm32l4-hal-driver/stm32l4xx_ll_adc.h **** 
 384:../system/include/stm32l4-hal-driver/stm32l4xx_ll_adc.h **** 
 385:../system/include/stm32l4-hal-driver/stm32l4xx_ll_adc.h **** /* Exported types ------------------------------------------------------------*/
 386:../system/include/stm32l4-hal-driver/stm32l4xx_ll_adc.h **** #if defined(USE_FULL_LL_DRIVER)
 387:../system/include/stm32l4-hal-driver/stm32l4xx_ll_adc.h **** /** @defgroup ADC_LL_ES_INIT ADC Exported Init structure
 388:../system/include/stm32l4-hal-driver/stm32l4xx_ll_adc.h ****   * @{
 389:../system/include/stm32l4-hal-driver/stm32l4xx_ll_adc.h ****   */
 390:../system/include/stm32l4-hal-driver/stm32l4xx_ll_adc.h **** 
 391:../system/include/stm32l4-hal-driver/stm32l4xx_ll_adc.h **** /**
 392:../system/include/stm32l4-hal-driver/stm32l4xx_ll_adc.h ****   * @brief  Structure definition of some features of ADC common parameters
 393:../system/include/stm32l4-hal-driver/stm32l4xx_ll_adc.h ****   *         and multimode
 394:../system/include/stm32l4-hal-driver/stm32l4xx_ll_adc.h ****   *         (all ADC instances belonging to the same ADC common instance).
 395:../system/include/stm32l4-hal-driver/stm32l4xx_ll_adc.h ****   * @note   The setting of these parameters by function @ref LL_ADC_CommonInit()
 396:../system/include/stm32l4-hal-driver/stm32l4xx_ll_adc.h ****   *         is conditioned to ADC instances state (all ADC instances
 397:../system/include/stm32l4-hal-driver/stm32l4xx_ll_adc.h ****   *         sharing the same ADC common instance):
 398:../system/include/stm32l4-hal-driver/stm32l4xx_ll_adc.h ****   *         All ADC instances sharing the same ADC common instance must be
 399:../system/include/stm32l4-hal-driver/stm32l4xx_ll_adc.h ****   *         disabled.
 400:../system/include/stm32l4-hal-driver/stm32l4xx_ll_adc.h ****   */
 401:../system/include/stm32l4-hal-driver/stm32l4xx_ll_adc.h **** typedef struct
 402:../system/include/stm32l4-hal-driver/stm32l4xx_ll_adc.h **** {
 403:../system/include/stm32l4-hal-driver/stm32l4xx_ll_adc.h ****   uint32_t CommonClock;                 /*!< Set parameter common to several ADC: Clock source and 
 404:../system/include/stm32l4-hal-driver/stm32l4xx_ll_adc.h ****                                              This parameter can be a value of @ref ADC_LL_EC_COMMON
 405:../system/include/stm32l4-hal-driver/stm32l4xx_ll_adc.h ****                                              @note On this STM32 series, if ADC group injected is u
 406:../system/include/stm32l4-hal-driver/stm32l4xx_ll_adc.h ****                                                    clock ratio constraints between ADC clock and AH
 407:../system/include/stm32l4-hal-driver/stm32l4xx_ll_adc.h ****                                                    must be respected. Refer to reference manual.
 408:../system/include/stm32l4-hal-driver/stm32l4xx_ll_adc.h **** 
 409:../system/include/stm32l4-hal-driver/stm32l4xx_ll_adc.h ****                                              This feature can be modified afterwards using unitary 
 410:../system/include/stm32l4-hal-driver/stm32l4xx_ll_adc.h **** 
 411:../system/include/stm32l4-hal-driver/stm32l4xx_ll_adc.h **** #if defined(ADC_MULTIMODE_SUPPORT)
 412:../system/include/stm32l4-hal-driver/stm32l4xx_ll_adc.h ****   uint32_t Multimode;                   /*!< Set ADC multimode configuration to operate in independ
 413:../system/include/stm32l4-hal-driver/stm32l4xx_ll_adc.h ****                                              This parameter can be a value of @ref ADC_LL_EC_MULTI_
 414:../system/include/stm32l4-hal-driver/stm32l4xx_ll_adc.h **** 
 415:../system/include/stm32l4-hal-driver/stm32l4xx_ll_adc.h ****                                              This feature can be modified afterwards using unitary 
 416:../system/include/stm32l4-hal-driver/stm32l4xx_ll_adc.h **** 
 417:../system/include/stm32l4-hal-driver/stm32l4xx_ll_adc.h ****   uint32_t MultiDMATransfer;            /*!< Set ADC multimode conversion data transfer: no transfe
 418:../system/include/stm32l4-hal-driver/stm32l4xx_ll_adc.h ****                                              This parameter can be a value of @ref ADC_LL_EC_MULTI_
 419:../system/include/stm32l4-hal-driver/stm32l4xx_ll_adc.h **** 
 420:../system/include/stm32l4-hal-driver/stm32l4xx_ll_adc.h ****                                              This feature can be modified afterwards using unitary 
 421:../system/include/stm32l4-hal-driver/stm32l4xx_ll_adc.h **** 
 422:../system/include/stm32l4-hal-driver/stm32l4xx_ll_adc.h ****   uint32_t MultiTwoSamplingDelay;       /*!< Set ADC multimode delay between 2 sampling phases.
 423:../system/include/stm32l4-hal-driver/stm32l4xx_ll_adc.h ****                                              This parameter can be a value of @ref ADC_LL_EC_MULTI_
 424:../system/include/stm32l4-hal-driver/stm32l4xx_ll_adc.h **** 
 425:../system/include/stm32l4-hal-driver/stm32l4xx_ll_adc.h ****                                              This feature can be modified afterwards using unitary 
 426:../system/include/stm32l4-hal-driver/stm32l4xx_ll_adc.h **** #endif /* ADC_MULTIMODE_SUPPORT */
 427:../system/include/stm32l4-hal-driver/stm32l4xx_ll_adc.h **** 
 428:../system/include/stm32l4-hal-driver/stm32l4xx_ll_adc.h **** } LL_ADC_CommonInitTypeDef;
 429:../system/include/stm32l4-hal-driver/stm32l4xx_ll_adc.h **** 
 430:../system/include/stm32l4-hal-driver/stm32l4xx_ll_adc.h **** /**
 431:../system/include/stm32l4-hal-driver/stm32l4xx_ll_adc.h ****   * @brief  Structure definition of some features of ADC instance.
 432:../system/include/stm32l4-hal-driver/stm32l4xx_ll_adc.h ****   * @note   These parameters have an impact on ADC scope: ADC instance.
 433:../system/include/stm32l4-hal-driver/stm32l4xx_ll_adc.h ****   *         Affects both group regular and group injected (availability
 434:../system/include/stm32l4-hal-driver/stm32l4xx_ll_adc.h ****   *         of ADC group injected depends on STM32 families).
 435:../system/include/stm32l4-hal-driver/stm32l4xx_ll_adc.h ****   *         Refer to corresponding unitary functions into
 436:../system/include/stm32l4-hal-driver/stm32l4xx_ll_adc.h ****   *         @ref ADC_LL_EF_Configuration_ADC_Instance .
 437:../system/include/stm32l4-hal-driver/stm32l4xx_ll_adc.h ****   * @note   The setting of these parameters by function @ref LL_ADC_Init()
 438:../system/include/stm32l4-hal-driver/stm32l4xx_ll_adc.h ****   *         is conditioned to ADC state:
 439:../system/include/stm32l4-hal-driver/stm32l4xx_ll_adc.h ****   *         ADC instance must be disabled.
 440:../system/include/stm32l4-hal-driver/stm32l4xx_ll_adc.h ****   *         This condition is applied to all ADC features, for efficiency
 441:../system/include/stm32l4-hal-driver/stm32l4xx_ll_adc.h ****   *         and compatibility over all STM32 families. However, the different
 442:../system/include/stm32l4-hal-driver/stm32l4xx_ll_adc.h ****   *         features can be set under different ADC state conditions
 443:../system/include/stm32l4-hal-driver/stm32l4xx_ll_adc.h ****   *         (setting possible with ADC enabled without conversion on going,
 444:../system/include/stm32l4-hal-driver/stm32l4xx_ll_adc.h ****   *         ADC enabled with conversion on going, ...)
 445:../system/include/stm32l4-hal-driver/stm32l4xx_ll_adc.h ****   *         Each feature can be updated afterwards with a unitary function
 446:../system/include/stm32l4-hal-driver/stm32l4xx_ll_adc.h ****   *         and potentially with ADC in a different state than disabled,
 447:../system/include/stm32l4-hal-driver/stm32l4xx_ll_adc.h ****   *         refer to description of each function for setting
 448:../system/include/stm32l4-hal-driver/stm32l4xx_ll_adc.h ****   *         conditioned to ADC state.
 449:../system/include/stm32l4-hal-driver/stm32l4xx_ll_adc.h ****   */
 450:../system/include/stm32l4-hal-driver/stm32l4xx_ll_adc.h **** typedef struct
 451:../system/include/stm32l4-hal-driver/stm32l4xx_ll_adc.h **** {
 452:../system/include/stm32l4-hal-driver/stm32l4xx_ll_adc.h ****   uint32_t Resolution;                  /*!< Set ADC resolution.
 453:../system/include/stm32l4-hal-driver/stm32l4xx_ll_adc.h ****                                              This parameter can be a value of @ref ADC_LL_EC_RESOLU
 454:../system/include/stm32l4-hal-driver/stm32l4xx_ll_adc.h **** 
 455:../system/include/stm32l4-hal-driver/stm32l4xx_ll_adc.h ****                                              This feature can be modified afterwards using unitary 
 456:../system/include/stm32l4-hal-driver/stm32l4xx_ll_adc.h **** 
 457:../system/include/stm32l4-hal-driver/stm32l4xx_ll_adc.h ****   uint32_t DataAlignment;               /*!< Set ADC conversion data alignment.
 458:../system/include/stm32l4-hal-driver/stm32l4xx_ll_adc.h ****                                              This parameter can be a value of @ref ADC_LL_EC_DATA_A
 459:../system/include/stm32l4-hal-driver/stm32l4xx_ll_adc.h **** 
 460:../system/include/stm32l4-hal-driver/stm32l4xx_ll_adc.h ****                                              This feature can be modified afterwards using unitary 
 461:../system/include/stm32l4-hal-driver/stm32l4xx_ll_adc.h **** 
 462:../system/include/stm32l4-hal-driver/stm32l4xx_ll_adc.h ****   uint32_t LowPowerMode;                /*!< Set ADC low power mode.
 463:../system/include/stm32l4-hal-driver/stm32l4xx_ll_adc.h ****                                              This parameter can be a value of @ref ADC_LL_EC_LP_MOD
 464:../system/include/stm32l4-hal-driver/stm32l4xx_ll_adc.h **** 
 465:../system/include/stm32l4-hal-driver/stm32l4xx_ll_adc.h ****                                              This feature can be modified afterwards using unitary 
 466:../system/include/stm32l4-hal-driver/stm32l4xx_ll_adc.h **** 
 467:../system/include/stm32l4-hal-driver/stm32l4xx_ll_adc.h **** } LL_ADC_InitTypeDef;
 468:../system/include/stm32l4-hal-driver/stm32l4xx_ll_adc.h **** 
 469:../system/include/stm32l4-hal-driver/stm32l4xx_ll_adc.h **** /**
 470:../system/include/stm32l4-hal-driver/stm32l4xx_ll_adc.h ****   * @brief  Structure definition of some features of ADC group regular.
 471:../system/include/stm32l4-hal-driver/stm32l4xx_ll_adc.h ****   * @note   These parameters have an impact on ADC scope: ADC group regular.
 472:../system/include/stm32l4-hal-driver/stm32l4xx_ll_adc.h ****   *         Refer to corresponding unitary functions into
 473:../system/include/stm32l4-hal-driver/stm32l4xx_ll_adc.h ****   *         @ref ADC_LL_EF_Configuration_ADC_Group_Regular
 474:../system/include/stm32l4-hal-driver/stm32l4xx_ll_adc.h ****   *         (functions with prefix "REG").
 475:../system/include/stm32l4-hal-driver/stm32l4xx_ll_adc.h ****   * @note   The setting of these parameters by function @ref LL_ADC_REG_Init()
 476:../system/include/stm32l4-hal-driver/stm32l4xx_ll_adc.h ****   *         is conditioned to ADC state:
 477:../system/include/stm32l4-hal-driver/stm32l4xx_ll_adc.h ****   *         ADC instance must be disabled.
 478:../system/include/stm32l4-hal-driver/stm32l4xx_ll_adc.h ****   *         This condition is applied to all ADC features, for efficiency
 479:../system/include/stm32l4-hal-driver/stm32l4xx_ll_adc.h ****   *         and compatibility over all STM32 families. However, the different
 480:../system/include/stm32l4-hal-driver/stm32l4xx_ll_adc.h ****   *         features can be set under different ADC state conditions
 481:../system/include/stm32l4-hal-driver/stm32l4xx_ll_adc.h ****   *         (setting possible with ADC enabled without conversion on going,
 482:../system/include/stm32l4-hal-driver/stm32l4xx_ll_adc.h ****   *         ADC enabled with conversion on going, ...)
 483:../system/include/stm32l4-hal-driver/stm32l4xx_ll_adc.h ****   *         Each feature can be updated afterwards with a unitary function
 484:../system/include/stm32l4-hal-driver/stm32l4xx_ll_adc.h ****   *         and potentially with ADC in a different state than disabled,
 485:../system/include/stm32l4-hal-driver/stm32l4xx_ll_adc.h ****   *         refer to description of each function for setting
 486:../system/include/stm32l4-hal-driver/stm32l4xx_ll_adc.h ****   *         conditioned to ADC state.
 487:../system/include/stm32l4-hal-driver/stm32l4xx_ll_adc.h ****   */
 488:../system/include/stm32l4-hal-driver/stm32l4xx_ll_adc.h **** typedef struct
 489:../system/include/stm32l4-hal-driver/stm32l4xx_ll_adc.h **** {
 490:../system/include/stm32l4-hal-driver/stm32l4xx_ll_adc.h ****   uint32_t TriggerSource;               /*!< Set ADC group regular conversion trigger source: inter
 491:../system/include/stm32l4-hal-driver/stm32l4xx_ll_adc.h ****                                              This parameter can be a value of @ref ADC_LL_EC_REG_TR
 492:../system/include/stm32l4-hal-driver/stm32l4xx_ll_adc.h ****                                              @note On this STM32 series, setting trigger source to 
 493:../system/include/stm32l4-hal-driver/stm32l4xx_ll_adc.h ****                                                    (default setting for compatibility with some ADC
 494:../system/include/stm32l4-hal-driver/stm32l4xx_ll_adc.h ****                                                    In case of need to modify trigger edge, use func
 495:../system/include/stm32l4-hal-driver/stm32l4xx_ll_adc.h **** 
 496:../system/include/stm32l4-hal-driver/stm32l4xx_ll_adc.h ****                                              This feature can be modified afterwards using unitary 
 497:../system/include/stm32l4-hal-driver/stm32l4xx_ll_adc.h **** 
 498:../system/include/stm32l4-hal-driver/stm32l4xx_ll_adc.h ****   uint32_t SequencerLength;             /*!< Set ADC group regular sequencer length.
 499:../system/include/stm32l4-hal-driver/stm32l4xx_ll_adc.h ****                                              This parameter can be a value of @ref ADC_LL_EC_REG_SE
 500:../system/include/stm32l4-hal-driver/stm32l4xx_ll_adc.h **** 
 501:../system/include/stm32l4-hal-driver/stm32l4xx_ll_adc.h ****                                              This feature can be modified afterwards using unitary 
 502:../system/include/stm32l4-hal-driver/stm32l4xx_ll_adc.h **** 
 503:../system/include/stm32l4-hal-driver/stm32l4xx_ll_adc.h ****   uint32_t SequencerDiscont;            /*!< Set ADC group regular sequencer discontinuous mode: se
 504:../system/include/stm32l4-hal-driver/stm32l4xx_ll_adc.h ****                                              This parameter can be a value of @ref ADC_LL_EC_REG_SE
 505:../system/include/stm32l4-hal-driver/stm32l4xx_ll_adc.h ****                                              @note This parameter has an effect only if group regul
 506:../system/include/stm32l4-hal-driver/stm32l4xx_ll_adc.h ****                                                    (scan length of 2 ranks or more).
 507:../system/include/stm32l4-hal-driver/stm32l4xx_ll_adc.h **** 
 508:../system/include/stm32l4-hal-driver/stm32l4xx_ll_adc.h ****                                              This feature can be modified afterwards using unitary 
 509:../system/include/stm32l4-hal-driver/stm32l4xx_ll_adc.h **** 
 510:../system/include/stm32l4-hal-driver/stm32l4xx_ll_adc.h ****   uint32_t ContinuousMode;              /*!< Set ADC continuous conversion mode on ADC group regula
 511:../system/include/stm32l4-hal-driver/stm32l4xx_ll_adc.h ****                                              This parameter can be a value of @ref ADC_LL_EC_REG_CO
 512:../system/include/stm32l4-hal-driver/stm32l4xx_ll_adc.h ****                                              Note: It is not possible to enable both ADC group regu
 513:../system/include/stm32l4-hal-driver/stm32l4xx_ll_adc.h **** 
 514:../system/include/stm32l4-hal-driver/stm32l4xx_ll_adc.h ****                                              This feature can be modified afterwards using unitary 
 515:../system/include/stm32l4-hal-driver/stm32l4xx_ll_adc.h **** 
 516:../system/include/stm32l4-hal-driver/stm32l4xx_ll_adc.h ****   uint32_t DMATransfer;                 /*!< Set ADC group regular conversion data transfer: no tra
 517:../system/include/stm32l4-hal-driver/stm32l4xx_ll_adc.h ****                                              This parameter can be a value of @ref ADC_LL_EC_REG_DM
 518:../system/include/stm32l4-hal-driver/stm32l4xx_ll_adc.h **** 
 519:../system/include/stm32l4-hal-driver/stm32l4xx_ll_adc.h ****                                              This feature can be modified afterwards using unitary 
 520:../system/include/stm32l4-hal-driver/stm32l4xx_ll_adc.h **** 
 521:../system/include/stm32l4-hal-driver/stm32l4xx_ll_adc.h ****   uint32_t Overrun;                     /*!< Set ADC group regular behavior in case of overrun:
 522:../system/include/stm32l4-hal-driver/stm32l4xx_ll_adc.h ****                                              data preserved or overwritten.
 523:../system/include/stm32l4-hal-driver/stm32l4xx_ll_adc.h ****                                              This parameter can be a value of @ref ADC_LL_EC_REG_OV
 524:../system/include/stm32l4-hal-driver/stm32l4xx_ll_adc.h **** 
 525:../system/include/stm32l4-hal-driver/stm32l4xx_ll_adc.h ****                                              This feature can be modified afterwards using unitary 
 526:../system/include/stm32l4-hal-driver/stm32l4xx_ll_adc.h **** 
 527:../system/include/stm32l4-hal-driver/stm32l4xx_ll_adc.h **** } LL_ADC_REG_InitTypeDef;
 528:../system/include/stm32l4-hal-driver/stm32l4xx_ll_adc.h **** 
 529:../system/include/stm32l4-hal-driver/stm32l4xx_ll_adc.h **** /**
 530:../system/include/stm32l4-hal-driver/stm32l4xx_ll_adc.h ****   * @brief  Structure definition of some features of ADC group injected.
 531:../system/include/stm32l4-hal-driver/stm32l4xx_ll_adc.h ****   * @note   These parameters have an impact on ADC scope: ADC group injected.
 532:../system/include/stm32l4-hal-driver/stm32l4xx_ll_adc.h ****   *         Refer to corresponding unitary functions into
 533:../system/include/stm32l4-hal-driver/stm32l4xx_ll_adc.h ****   *         @ref ADC_LL_EF_Configuration_ADC_Group_Regular
 534:../system/include/stm32l4-hal-driver/stm32l4xx_ll_adc.h ****   *         (functions with prefix "INJ").
 535:../system/include/stm32l4-hal-driver/stm32l4xx_ll_adc.h ****   * @note   The setting of these parameters by function @ref LL_ADC_INJ_Init()
 536:../system/include/stm32l4-hal-driver/stm32l4xx_ll_adc.h ****   *         is conditioned to ADC state:
 537:../system/include/stm32l4-hal-driver/stm32l4xx_ll_adc.h ****   *         ADC instance must be disabled.
 538:../system/include/stm32l4-hal-driver/stm32l4xx_ll_adc.h ****   *         This condition is applied to all ADC features, for efficiency
 539:../system/include/stm32l4-hal-driver/stm32l4xx_ll_adc.h ****   *         and compatibility over all STM32 families. However, the different
 540:../system/include/stm32l4-hal-driver/stm32l4xx_ll_adc.h ****   *         features can be set under different ADC state conditions
 541:../system/include/stm32l4-hal-driver/stm32l4xx_ll_adc.h ****   *         (setting possible with ADC enabled without conversion on going,
 542:../system/include/stm32l4-hal-driver/stm32l4xx_ll_adc.h ****   *         ADC enabled with conversion on going, ...)
 543:../system/include/stm32l4-hal-driver/stm32l4xx_ll_adc.h ****   *         Each feature can be updated afterwards with a unitary function
 544:../system/include/stm32l4-hal-driver/stm32l4xx_ll_adc.h ****   *         and potentially with ADC in a different state than disabled,
 545:../system/include/stm32l4-hal-driver/stm32l4xx_ll_adc.h ****   *         refer to description of each function for setting
 546:../system/include/stm32l4-hal-driver/stm32l4xx_ll_adc.h ****   *         conditioned to ADC state.
 547:../system/include/stm32l4-hal-driver/stm32l4xx_ll_adc.h ****   */
 548:../system/include/stm32l4-hal-driver/stm32l4xx_ll_adc.h **** typedef struct
 549:../system/include/stm32l4-hal-driver/stm32l4xx_ll_adc.h **** {
 550:../system/include/stm32l4-hal-driver/stm32l4xx_ll_adc.h ****   uint32_t TriggerSource;               /*!< Set ADC group injected conversion trigger source: inte
 551:../system/include/stm32l4-hal-driver/stm32l4xx_ll_adc.h ****                                              This parameter can be a value of @ref ADC_LL_EC_INJ_TR
 552:../system/include/stm32l4-hal-driver/stm32l4xx_ll_adc.h ****                                              @note On this STM32 series, setting trigger source to 
 553:../system/include/stm32l4-hal-driver/stm32l4xx_ll_adc.h ****                                                    (default setting for compatibility with some ADC
 554:../system/include/stm32l4-hal-driver/stm32l4xx_ll_adc.h ****                                                    In case of need to modify trigger edge, use func
 555:../system/include/stm32l4-hal-driver/stm32l4xx_ll_adc.h **** 
 556:../system/include/stm32l4-hal-driver/stm32l4xx_ll_adc.h ****                                              This feature can be modified afterwards using unitary 
 557:../system/include/stm32l4-hal-driver/stm32l4xx_ll_adc.h **** 
 558:../system/include/stm32l4-hal-driver/stm32l4xx_ll_adc.h ****   uint32_t SequencerLength;             /*!< Set ADC group injected sequencer length.
 559:../system/include/stm32l4-hal-driver/stm32l4xx_ll_adc.h ****                                              This parameter can be a value of @ref ADC_LL_EC_INJ_SE
 560:../system/include/stm32l4-hal-driver/stm32l4xx_ll_adc.h **** 
 561:../system/include/stm32l4-hal-driver/stm32l4xx_ll_adc.h ****                                              This feature can be modified afterwards using unitary 
 562:../system/include/stm32l4-hal-driver/stm32l4xx_ll_adc.h **** 
 563:../system/include/stm32l4-hal-driver/stm32l4xx_ll_adc.h ****   uint32_t SequencerDiscont;            /*!< Set ADC group injected sequencer discontinuous mode: s
 564:../system/include/stm32l4-hal-driver/stm32l4xx_ll_adc.h ****                                              This parameter can be a value of @ref ADC_LL_EC_INJ_SE
 565:../system/include/stm32l4-hal-driver/stm32l4xx_ll_adc.h ****                                              @note This parameter has an effect only if group injec
 566:../system/include/stm32l4-hal-driver/stm32l4xx_ll_adc.h ****                                                    (scan length of 2 ranks or more).
 567:../system/include/stm32l4-hal-driver/stm32l4xx_ll_adc.h **** 
 568:../system/include/stm32l4-hal-driver/stm32l4xx_ll_adc.h ****                                              This feature can be modified afterwards using unitary 
 569:../system/include/stm32l4-hal-driver/stm32l4xx_ll_adc.h **** 
 570:../system/include/stm32l4-hal-driver/stm32l4xx_ll_adc.h ****   uint32_t TrigAuto;                    /*!< Set ADC group injected conversion trigger: independent
 571:../system/include/stm32l4-hal-driver/stm32l4xx_ll_adc.h ****                                              This parameter can be a value of @ref ADC_LL_EC_INJ_TR
 572:../system/include/stm32l4-hal-driver/stm32l4xx_ll_adc.h ****                                              Note: This parameter must be set to set to independent
 573:../system/include/stm32l4-hal-driver/stm32l4xx_ll_adc.h **** 
 574:../system/include/stm32l4-hal-driver/stm32l4xx_ll_adc.h ****                                              This feature can be modified afterwards using unitary 
 575:../system/include/stm32l4-hal-driver/stm32l4xx_ll_adc.h **** 
 576:../system/include/stm32l4-hal-driver/stm32l4xx_ll_adc.h **** } LL_ADC_INJ_InitTypeDef;
 577:../system/include/stm32l4-hal-driver/stm32l4xx_ll_adc.h **** 
 578:../system/include/stm32l4-hal-driver/stm32l4xx_ll_adc.h **** /**
 579:../system/include/stm32l4-hal-driver/stm32l4xx_ll_adc.h ****   * @}
 580:../system/include/stm32l4-hal-driver/stm32l4xx_ll_adc.h ****   */
 581:../system/include/stm32l4-hal-driver/stm32l4xx_ll_adc.h **** #endif /* USE_FULL_LL_DRIVER */
 582:../system/include/stm32l4-hal-driver/stm32l4xx_ll_adc.h **** 
 583:../system/include/stm32l4-hal-driver/stm32l4xx_ll_adc.h **** /* Exported constants --------------------------------------------------------*/
 584:../system/include/stm32l4-hal-driver/stm32l4xx_ll_adc.h **** /** @defgroup ADC_LL_Exported_Constants ADC Exported Constants
 585:../system/include/stm32l4-hal-driver/stm32l4xx_ll_adc.h ****   * @{
 586:../system/include/stm32l4-hal-driver/stm32l4xx_ll_adc.h ****   */
 587:../system/include/stm32l4-hal-driver/stm32l4xx_ll_adc.h **** 
 588:../system/include/stm32l4-hal-driver/stm32l4xx_ll_adc.h **** /** @defgroup ADC_LL_EC_FLAG ADC flags
 589:../system/include/stm32l4-hal-driver/stm32l4xx_ll_adc.h ****   * @brief    Flags defines which can be used with LL_ADC_ReadReg function
 590:../system/include/stm32l4-hal-driver/stm32l4xx_ll_adc.h ****   * @{
 591:../system/include/stm32l4-hal-driver/stm32l4xx_ll_adc.h ****   */
 592:../system/include/stm32l4-hal-driver/stm32l4xx_ll_adc.h **** #define LL_ADC_FLAG_ADRDY                  ADC_ISR_ADRDY      /*!< ADC flag ADC instance ready */
 593:../system/include/stm32l4-hal-driver/stm32l4xx_ll_adc.h **** #define LL_ADC_FLAG_EOC                    ADC_ISR_EOC        /*!< ADC flag ADC group regular end o
 594:../system/include/stm32l4-hal-driver/stm32l4xx_ll_adc.h **** #define LL_ADC_FLAG_EOS                    ADC_ISR_EOS        /*!< ADC flag ADC group regular end o
 595:../system/include/stm32l4-hal-driver/stm32l4xx_ll_adc.h **** #define LL_ADC_FLAG_OVR                    ADC_ISR_OVR        /*!< ADC flag ADC group regular overr
 596:../system/include/stm32l4-hal-driver/stm32l4xx_ll_adc.h **** #define LL_ADC_FLAG_EOSMP                  ADC_ISR_EOSMP      /*!< ADC flag ADC group regular end o
 597:../system/include/stm32l4-hal-driver/stm32l4xx_ll_adc.h **** #define LL_ADC_FLAG_JEOC                   ADC_ISR_JEOC       /*!< ADC flag ADC group injected end 
 598:../system/include/stm32l4-hal-driver/stm32l4xx_ll_adc.h **** #define LL_ADC_FLAG_JEOS                   ADC_ISR_JEOS       /*!< ADC flag ADC group injected end 
 599:../system/include/stm32l4-hal-driver/stm32l4xx_ll_adc.h **** #define LL_ADC_FLAG_JQOVF                  ADC_ISR_JQOVF      /*!< ADC flag ADC group injected cont
 600:../system/include/stm32l4-hal-driver/stm32l4xx_ll_adc.h **** #define LL_ADC_FLAG_AWD1                   ADC_ISR_AWD1       /*!< ADC flag ADC analog watchdog 1 *
 601:../system/include/stm32l4-hal-driver/stm32l4xx_ll_adc.h **** #define LL_ADC_FLAG_AWD2                   ADC_ISR_AWD2       /*!< ADC flag ADC analog watchdog 2 *
 602:../system/include/stm32l4-hal-driver/stm32l4xx_ll_adc.h **** #define LL_ADC_FLAG_AWD3                   ADC_ISR_AWD3       /*!< ADC flag ADC analog watchdog 3 *
 603:../system/include/stm32l4-hal-driver/stm32l4xx_ll_adc.h **** #if defined(ADC_MULTIMODE_SUPPORT)
 604:../system/include/stm32l4-hal-driver/stm32l4xx_ll_adc.h **** #define LL_ADC_FLAG_ADRDY_MST              ADC_CSR_ADRDY_MST  /*!< ADC flag ADC multimode master in
 605:../system/include/stm32l4-hal-driver/stm32l4xx_ll_adc.h **** #define LL_ADC_FLAG_ADRDY_SLV              ADC_CSR_ADRDY_SLV  /*!< ADC flag ADC multimode slave ins
 606:../system/include/stm32l4-hal-driver/stm32l4xx_ll_adc.h **** #define LL_ADC_FLAG_EOC_MST                ADC_CSR_EOC_MST    /*!< ADC flag ADC multimode master gr
 607:../system/include/stm32l4-hal-driver/stm32l4xx_ll_adc.h **** #define LL_ADC_FLAG_EOC_SLV                ADC_CSR_EOC_SLV    /*!< ADC flag ADC multimode slave gro
 608:../system/include/stm32l4-hal-driver/stm32l4xx_ll_adc.h **** #define LL_ADC_FLAG_EOS_MST                ADC_CSR_EOS_MST    /*!< ADC flag ADC multimode master gr
 609:../system/include/stm32l4-hal-driver/stm32l4xx_ll_adc.h **** #define LL_ADC_FLAG_EOS_SLV                ADC_CSR_EOS_SLV    /*!< ADC flag ADC multimode slave gro
 610:../system/include/stm32l4-hal-driver/stm32l4xx_ll_adc.h **** #define LL_ADC_FLAG_OVR_MST                ADC_CSR_OVR_MST    /*!< ADC flag ADC multimode master gr
 611:../system/include/stm32l4-hal-driver/stm32l4xx_ll_adc.h **** #define LL_ADC_FLAG_OVR_SLV                ADC_CSR_OVR_SLV    /*!< ADC flag ADC multimode slave gro
 612:../system/include/stm32l4-hal-driver/stm32l4xx_ll_adc.h **** #define LL_ADC_FLAG_EOSMP_MST              ADC_CSR_EOSMP_MST  /*!< ADC flag ADC multimode master gr
 613:../system/include/stm32l4-hal-driver/stm32l4xx_ll_adc.h **** #define LL_ADC_FLAG_EOSMP_SLV              ADC_CSR_EOSMP_SLV  /*!< ADC flag ADC multimode slave gro
 614:../system/include/stm32l4-hal-driver/stm32l4xx_ll_adc.h **** #define LL_ADC_FLAG_JEOC_MST               ADC_CSR_JEOC_MST   /*!< ADC flag ADC multimode master gr
 615:../system/include/stm32l4-hal-driver/stm32l4xx_ll_adc.h **** #define LL_ADC_FLAG_JEOC_SLV               ADC_CSR_JEOC_SLV   /*!< ADC flag ADC multimode slave gro
 616:../system/include/stm32l4-hal-driver/stm32l4xx_ll_adc.h **** #define LL_ADC_FLAG_JEOS_MST               ADC_CSR_JEOS_MST   /*!< ADC flag ADC multimode master gr
 617:../system/include/stm32l4-hal-driver/stm32l4xx_ll_adc.h **** #define LL_ADC_FLAG_JEOS_SLV               ADC_CSR_JEOS_SLV   /*!< ADC flag ADC multimode slave gro
 618:../system/include/stm32l4-hal-driver/stm32l4xx_ll_adc.h **** #define LL_ADC_FLAG_JQOVF_MST              ADC_CSR_JQOVF_MST  /*!< ADC flag ADC multimode master gr
 619:../system/include/stm32l4-hal-driver/stm32l4xx_ll_adc.h **** #define LL_ADC_FLAG_JQOVF_SLV              ADC_CSR_JQOVF_SLV  /*!< ADC flag ADC multimode slave gro
 620:../system/include/stm32l4-hal-driver/stm32l4xx_ll_adc.h **** #define LL_ADC_FLAG_AWD1_MST               ADC_CSR_AWD1_MST   /*!< ADC flag ADC multimode master an
 621:../system/include/stm32l4-hal-driver/stm32l4xx_ll_adc.h **** #define LL_ADC_FLAG_AWD1_SLV               ADC_CSR_AWD1_SLV   /*!< ADC flag ADC multimode slave ana
 622:../system/include/stm32l4-hal-driver/stm32l4xx_ll_adc.h **** #define LL_ADC_FLAG_AWD2_MST               ADC_CSR_AWD2_MST   /*!< ADC flag ADC multimode master an
 623:../system/include/stm32l4-hal-driver/stm32l4xx_ll_adc.h **** #define LL_ADC_FLAG_AWD2_SLV               ADC_CSR_AWD2_SLV   /*!< ADC flag ADC multimode slave ana
 624:../system/include/stm32l4-hal-driver/stm32l4xx_ll_adc.h **** #define LL_ADC_FLAG_AWD3_MST               ADC_CSR_AWD3_MST   /*!< ADC flag ADC multimode master an
 625:../system/include/stm32l4-hal-driver/stm32l4xx_ll_adc.h **** #define LL_ADC_FLAG_AWD3_SLV               ADC_CSR_AWD3_SLV   /*!< ADC flag ADC multimode slave ana
 626:../system/include/stm32l4-hal-driver/stm32l4xx_ll_adc.h **** #endif /* ADC_MULTIMODE_SUPPORT */
 627:../system/include/stm32l4-hal-driver/stm32l4xx_ll_adc.h **** /**
 628:../system/include/stm32l4-hal-driver/stm32l4xx_ll_adc.h ****   * @}
 629:../system/include/stm32l4-hal-driver/stm32l4xx_ll_adc.h ****   */
 630:../system/include/stm32l4-hal-driver/stm32l4xx_ll_adc.h **** 
 631:../system/include/stm32l4-hal-driver/stm32l4xx_ll_adc.h **** /** @defgroup ADC_LL_EC_IT ADC interruptions for configuration (interruption enable or disable)
 632:../system/include/stm32l4-hal-driver/stm32l4xx_ll_adc.h ****   * @brief    IT defines which can be used with LL_ADC_ReadReg and  LL_ADC_WriteReg functions
 633:../system/include/stm32l4-hal-driver/stm32l4xx_ll_adc.h ****   * @{
 634:../system/include/stm32l4-hal-driver/stm32l4xx_ll_adc.h ****   */
 635:../system/include/stm32l4-hal-driver/stm32l4xx_ll_adc.h **** #define LL_ADC_IT_ADRDY                    ADC_IER_ADRDYIE    /*!< ADC interruption ADC instance re
 636:../system/include/stm32l4-hal-driver/stm32l4xx_ll_adc.h **** #define LL_ADC_IT_EOC                      ADC_IER_EOCIE      /*!< ADC interruption ADC group regul
 637:../system/include/stm32l4-hal-driver/stm32l4xx_ll_adc.h **** #define LL_ADC_IT_EOS                      ADC_IER_EOSIE      /*!< ADC interruption ADC group regul
 638:../system/include/stm32l4-hal-driver/stm32l4xx_ll_adc.h **** #define LL_ADC_IT_OVR                      ADC_IER_OVRIE      /*!< ADC interruption ADC group regul
 639:../system/include/stm32l4-hal-driver/stm32l4xx_ll_adc.h **** #define LL_ADC_IT_EOSMP                    ADC_IER_EOSMPIE    /*!< ADC interruption ADC group regul
 640:../system/include/stm32l4-hal-driver/stm32l4xx_ll_adc.h **** #define LL_ADC_IT_JEOC                     ADC_IER_JEOCIE     /*!< ADC interruption ADC group injec
 641:../system/include/stm32l4-hal-driver/stm32l4xx_ll_adc.h **** #define LL_ADC_IT_JEOS                     ADC_IER_JEOSIE     /*!< ADC interruption ADC group injec
 642:../system/include/stm32l4-hal-driver/stm32l4xx_ll_adc.h **** #define LL_ADC_IT_JQOVF                    ADC_IER_JQOVFIE    /*!< ADC interruption ADC group injec
 643:../system/include/stm32l4-hal-driver/stm32l4xx_ll_adc.h **** #define LL_ADC_IT_AWD1                     ADC_IER_AWD1IE     /*!< ADC interruption ADC analog watc
 644:../system/include/stm32l4-hal-driver/stm32l4xx_ll_adc.h **** #define LL_ADC_IT_AWD2                     ADC_IER_AWD2IE     /*!< ADC interruption ADC analog watc
 645:../system/include/stm32l4-hal-driver/stm32l4xx_ll_adc.h **** #define LL_ADC_IT_AWD3                     ADC_IER_AWD3IE     /*!< ADC interruption ADC analog watc
 646:../system/include/stm32l4-hal-driver/stm32l4xx_ll_adc.h **** /**
 647:../system/include/stm32l4-hal-driver/stm32l4xx_ll_adc.h ****   * @}
 648:../system/include/stm32l4-hal-driver/stm32l4xx_ll_adc.h ****   */
 649:../system/include/stm32l4-hal-driver/stm32l4xx_ll_adc.h **** 
 650:../system/include/stm32l4-hal-driver/stm32l4xx_ll_adc.h **** /** @defgroup ADC_LL_EC_REGISTERS  ADC registers compliant with specific purpose
 651:../system/include/stm32l4-hal-driver/stm32l4xx_ll_adc.h ****   * @{
 652:../system/include/stm32l4-hal-driver/stm32l4xx_ll_adc.h ****   */
 653:../system/include/stm32l4-hal-driver/stm32l4xx_ll_adc.h **** /* List of ADC registers intended to be used (most commonly) with             */
 654:../system/include/stm32l4-hal-driver/stm32l4xx_ll_adc.h **** /* DMA transfer.                                                              */
 655:../system/include/stm32l4-hal-driver/stm32l4xx_ll_adc.h **** /* Refer to function @ref LL_ADC_DMA_GetRegAddr().                            */
 656:../system/include/stm32l4-hal-driver/stm32l4xx_ll_adc.h **** #define LL_ADC_DMA_REG_REGULAR_DATA          (0x00000000UL) /* ADC group regular conversion data re
 657:../system/include/stm32l4-hal-driver/stm32l4xx_ll_adc.h **** #if defined(ADC_MULTIMODE_SUPPORT)
 658:../system/include/stm32l4-hal-driver/stm32l4xx_ll_adc.h **** #define LL_ADC_DMA_REG_REGULAR_DATA_MULTI    (0x00000001UL) /* ADC group regular conversion data re
 659:../system/include/stm32l4-hal-driver/stm32l4xx_ll_adc.h **** #endif /* ADC_MULTIMODE_SUPPORT */
 660:../system/include/stm32l4-hal-driver/stm32l4xx_ll_adc.h **** /**
 661:../system/include/stm32l4-hal-driver/stm32l4xx_ll_adc.h ****   * @}
 662:../system/include/stm32l4-hal-driver/stm32l4xx_ll_adc.h ****   */
 663:../system/include/stm32l4-hal-driver/stm32l4xx_ll_adc.h **** 
 664:../system/include/stm32l4-hal-driver/stm32l4xx_ll_adc.h **** /** @defgroup ADC_LL_EC_COMMON_CLOCK_SOURCE  ADC common - Clock source
 665:../system/include/stm32l4-hal-driver/stm32l4xx_ll_adc.h ****   * @{
 666:../system/include/stm32l4-hal-driver/stm32l4xx_ll_adc.h ****   */
 667:../system/include/stm32l4-hal-driver/stm32l4xx_ll_adc.h **** #define LL_ADC_CLOCK_SYNC_PCLK_DIV1        (ADC_CCR_CKMODE_0)                                    /*
 668:../system/include/stm32l4-hal-driver/stm32l4xx_ll_adc.h **** #define LL_ADC_CLOCK_SYNC_PCLK_DIV2        (ADC_CCR_CKMODE_1                   )                 /*
 669:../system/include/stm32l4-hal-driver/stm32l4xx_ll_adc.h **** #define LL_ADC_CLOCK_SYNC_PCLK_DIV4        (ADC_CCR_CKMODE_1 | ADC_CCR_CKMODE_0)                 /*
 670:../system/include/stm32l4-hal-driver/stm32l4xx_ll_adc.h **** #define LL_ADC_CLOCK_ASYNC_DIV1            (0x00000000UL)                                        /*
 671:../system/include/stm32l4-hal-driver/stm32l4xx_ll_adc.h **** #define LL_ADC_CLOCK_ASYNC_DIV2            (ADC_CCR_PRESC_0)                                     /*
 672:../system/include/stm32l4-hal-driver/stm32l4xx_ll_adc.h **** #define LL_ADC_CLOCK_ASYNC_DIV4            (ADC_CCR_PRESC_1                  )                   /*
 673:../system/include/stm32l4-hal-driver/stm32l4xx_ll_adc.h **** #define LL_ADC_CLOCK_ASYNC_DIV6            (ADC_CCR_PRESC_1 | ADC_CCR_PRESC_0)                   /*
 674:../system/include/stm32l4-hal-driver/stm32l4xx_ll_adc.h **** #define LL_ADC_CLOCK_ASYNC_DIV8            (ADC_CCR_PRESC_2                                    ) /*
 675:../system/include/stm32l4-hal-driver/stm32l4xx_ll_adc.h **** #define LL_ADC_CLOCK_ASYNC_DIV10           (ADC_CCR_PRESC_2                   | ADC_CCR_PRESC_0) /*
 676:../system/include/stm32l4-hal-driver/stm32l4xx_ll_adc.h **** #define LL_ADC_CLOCK_ASYNC_DIV12           (ADC_CCR_PRESC_2 | ADC_CCR_PRESC_1                  ) /*
 677:../system/include/stm32l4-hal-driver/stm32l4xx_ll_adc.h **** #define LL_ADC_CLOCK_ASYNC_DIV16           (ADC_CCR_PRESC_2 | ADC_CCR_PRESC_1 | ADC_CCR_PRESC_0) /*
 678:../system/include/stm32l4-hal-driver/stm32l4xx_ll_adc.h **** #define LL_ADC_CLOCK_ASYNC_DIV32           (ADC_CCR_PRESC_3)                                     /*
 679:../system/include/stm32l4-hal-driver/stm32l4xx_ll_adc.h **** #define LL_ADC_CLOCK_ASYNC_DIV64           (ADC_CCR_PRESC_3 | ADC_CCR_PRESC_0)                   /*
 680:../system/include/stm32l4-hal-driver/stm32l4xx_ll_adc.h **** #define LL_ADC_CLOCK_ASYNC_DIV128          (ADC_CCR_PRESC_3 | ADC_CCR_PRESC_1)                   /*
 681:../system/include/stm32l4-hal-driver/stm32l4xx_ll_adc.h **** #define LL_ADC_CLOCK_ASYNC_DIV256          (ADC_CCR_PRESC_3 | ADC_CCR_PRESC_1 | ADC_CCR_PRESC_0) /*
 682:../system/include/stm32l4-hal-driver/stm32l4xx_ll_adc.h **** /**
 683:../system/include/stm32l4-hal-driver/stm32l4xx_ll_adc.h ****   * @}
 684:../system/include/stm32l4-hal-driver/stm32l4xx_ll_adc.h ****   */
 685:../system/include/stm32l4-hal-driver/stm32l4xx_ll_adc.h **** 
 686:../system/include/stm32l4-hal-driver/stm32l4xx_ll_adc.h **** /** @defgroup ADC_LL_EC_COMMON_PATH_INTERNAL  ADC common - Measurement path to internal channels
 687:../system/include/stm32l4-hal-driver/stm32l4xx_ll_adc.h ****   * @{
 688:../system/include/stm32l4-hal-driver/stm32l4xx_ll_adc.h ****   */
 689:../system/include/stm32l4-hal-driver/stm32l4xx_ll_adc.h **** /* Note: Other measurement paths to internal channels may be available        */
 690:../system/include/stm32l4-hal-driver/stm32l4xx_ll_adc.h **** /*       (connections to other peripherals).                                  */
 691:../system/include/stm32l4-hal-driver/stm32l4xx_ll_adc.h **** /*       If they are not listed below, they do not require any specific       */
 692:../system/include/stm32l4-hal-driver/stm32l4xx_ll_adc.h **** /*       path enable. In this case, Access to measurement path is done        */
 693:../system/include/stm32l4-hal-driver/stm32l4xx_ll_adc.h **** /*       only by selecting the corresponding ADC internal channel.            */
 694:../system/include/stm32l4-hal-driver/stm32l4xx_ll_adc.h **** #define LL_ADC_PATH_INTERNAL_NONE          (0x00000000UL)         /*!< ADC measurement paths all di
 695:../system/include/stm32l4-hal-driver/stm32l4xx_ll_adc.h **** #define LL_ADC_PATH_INTERNAL_VREFINT       (ADC_CCR_VREFEN)       /*!< ADC measurement path to inte
 696:../system/include/stm32l4-hal-driver/stm32l4xx_ll_adc.h **** #define LL_ADC_PATH_INTERNAL_TEMPSENSOR    (ADC_CCR_TSEN)         /*!< ADC measurement path to inte
 697:../system/include/stm32l4-hal-driver/stm32l4xx_ll_adc.h **** #define LL_ADC_PATH_INTERNAL_VBAT          (ADC_CCR_VBATEN)       /*!< ADC measurement path to inte
 698:../system/include/stm32l4-hal-driver/stm32l4xx_ll_adc.h **** /**
 699:../system/include/stm32l4-hal-driver/stm32l4xx_ll_adc.h ****   * @}
 700:../system/include/stm32l4-hal-driver/stm32l4xx_ll_adc.h ****   */
 701:../system/include/stm32l4-hal-driver/stm32l4xx_ll_adc.h **** 
 702:../system/include/stm32l4-hal-driver/stm32l4xx_ll_adc.h **** /** @defgroup ADC_LL_EC_RESOLUTION  ADC instance - Resolution
 703:../system/include/stm32l4-hal-driver/stm32l4xx_ll_adc.h ****   * @{
 704:../system/include/stm32l4-hal-driver/stm32l4xx_ll_adc.h ****   */
 705:../system/include/stm32l4-hal-driver/stm32l4xx_ll_adc.h **** #define LL_ADC_RESOLUTION_12B              (0x00000000UL)                      /*!< ADC resolution 
 706:../system/include/stm32l4-hal-driver/stm32l4xx_ll_adc.h **** #define LL_ADC_RESOLUTION_10B              (                 ADC_CFGR_RES_0)   /*!< ADC resolution 
 707:../system/include/stm32l4-hal-driver/stm32l4xx_ll_adc.h **** #define LL_ADC_RESOLUTION_8B               (ADC_CFGR_RES_1                 )   /*!< ADC resolution 
 708:../system/include/stm32l4-hal-driver/stm32l4xx_ll_adc.h **** #define LL_ADC_RESOLUTION_6B               (ADC_CFGR_RES_1 | ADC_CFGR_RES_0)   /*!< ADC resolution 
 709:../system/include/stm32l4-hal-driver/stm32l4xx_ll_adc.h **** /**
 710:../system/include/stm32l4-hal-driver/stm32l4xx_ll_adc.h ****   * @}
 711:../system/include/stm32l4-hal-driver/stm32l4xx_ll_adc.h ****   */
 712:../system/include/stm32l4-hal-driver/stm32l4xx_ll_adc.h **** 
 713:../system/include/stm32l4-hal-driver/stm32l4xx_ll_adc.h **** /** @defgroup ADC_LL_EC_DATA_ALIGN  ADC instance - Data alignment
 714:../system/include/stm32l4-hal-driver/stm32l4xx_ll_adc.h ****   * @{
 715:../system/include/stm32l4-hal-driver/stm32l4xx_ll_adc.h ****   */
 716:../system/include/stm32l4-hal-driver/stm32l4xx_ll_adc.h **** #define LL_ADC_DATA_ALIGN_RIGHT            (0x00000000UL)         /*!< ADC conversion data alignmen
 717:../system/include/stm32l4-hal-driver/stm32l4xx_ll_adc.h **** #define LL_ADC_DATA_ALIGN_LEFT             (ADC_CFGR_ALIGN)       /*!< ADC conversion data alignmen
 718:../system/include/stm32l4-hal-driver/stm32l4xx_ll_adc.h **** /**
 719:../system/include/stm32l4-hal-driver/stm32l4xx_ll_adc.h ****   * @}
 720:../system/include/stm32l4-hal-driver/stm32l4xx_ll_adc.h ****   */
 721:../system/include/stm32l4-hal-driver/stm32l4xx_ll_adc.h **** 
 722:../system/include/stm32l4-hal-driver/stm32l4xx_ll_adc.h **** /** @defgroup ADC_LL_EC_LP_MODE  ADC instance - Low power mode
 723:../system/include/stm32l4-hal-driver/stm32l4xx_ll_adc.h ****   * @{
 724:../system/include/stm32l4-hal-driver/stm32l4xx_ll_adc.h ****   */
 725:../system/include/stm32l4-hal-driver/stm32l4xx_ll_adc.h **** #define LL_ADC_LP_MODE_NONE                (0x00000000UL)                      /*!< No ADC low powe
 726:../system/include/stm32l4-hal-driver/stm32l4xx_ll_adc.h **** #define LL_ADC_LP_AUTOWAIT                 (ADC_CFGR_AUTDLY)                   /*!< ADC low power m
 727:../system/include/stm32l4-hal-driver/stm32l4xx_ll_adc.h **** /**
 728:../system/include/stm32l4-hal-driver/stm32l4xx_ll_adc.h ****   * @}
 729:../system/include/stm32l4-hal-driver/stm32l4xx_ll_adc.h ****   */
 730:../system/include/stm32l4-hal-driver/stm32l4xx_ll_adc.h **** 
 731:../system/include/stm32l4-hal-driver/stm32l4xx_ll_adc.h **** /** @defgroup ADC_LL_EC_OFFSET_NB  ADC instance - Offset number
 732:../system/include/stm32l4-hal-driver/stm32l4xx_ll_adc.h ****   * @{
 733:../system/include/stm32l4-hal-driver/stm32l4xx_ll_adc.h ****   */
 734:../system/include/stm32l4-hal-driver/stm32l4xx_ll_adc.h **** #define LL_ADC_OFFSET_1                    ADC_OFR1_REGOFFSET /*!< ADC offset number 1: ADC channel
 735:../system/include/stm32l4-hal-driver/stm32l4xx_ll_adc.h **** #define LL_ADC_OFFSET_2                    ADC_OFR2_REGOFFSET /*!< ADC offset number 2: ADC channel
 736:../system/include/stm32l4-hal-driver/stm32l4xx_ll_adc.h **** #define LL_ADC_OFFSET_3                    ADC_OFR3_REGOFFSET /*!< ADC offset number 3: ADC channel
 737:../system/include/stm32l4-hal-driver/stm32l4xx_ll_adc.h **** #define LL_ADC_OFFSET_4                    ADC_OFR4_REGOFFSET /*!< ADC offset number 4: ADC channel
 738:../system/include/stm32l4-hal-driver/stm32l4xx_ll_adc.h **** /**
 739:../system/include/stm32l4-hal-driver/stm32l4xx_ll_adc.h ****   * @}
 740:../system/include/stm32l4-hal-driver/stm32l4xx_ll_adc.h ****   */
 741:../system/include/stm32l4-hal-driver/stm32l4xx_ll_adc.h **** 
 742:../system/include/stm32l4-hal-driver/stm32l4xx_ll_adc.h **** /** @defgroup ADC_LL_EC_OFFSET_STATE ADC instance - Offset state
 743:../system/include/stm32l4-hal-driver/stm32l4xx_ll_adc.h ****   * @{
 744:../system/include/stm32l4-hal-driver/stm32l4xx_ll_adc.h ****   */
 745:../system/include/stm32l4-hal-driver/stm32l4xx_ll_adc.h **** #define LL_ADC_OFFSET_DISABLE              (0x00000000UL)         /*!< ADC offset disabled (among A
 746:../system/include/stm32l4-hal-driver/stm32l4xx_ll_adc.h **** #define LL_ADC_OFFSET_ENABLE               (ADC_OFR1_OFFSET1_EN)  /*!< ADC offset enabled (among AD
 747:../system/include/stm32l4-hal-driver/stm32l4xx_ll_adc.h **** /**
 748:../system/include/stm32l4-hal-driver/stm32l4xx_ll_adc.h ****   * @}
 749:../system/include/stm32l4-hal-driver/stm32l4xx_ll_adc.h ****   */
 750:../system/include/stm32l4-hal-driver/stm32l4xx_ll_adc.h **** 
 751:../system/include/stm32l4-hal-driver/stm32l4xx_ll_adc.h **** /** @defgroup ADC_LL_EC_GROUPS  ADC instance - Groups
 752:../system/include/stm32l4-hal-driver/stm32l4xx_ll_adc.h ****   * @{
 753:../system/include/stm32l4-hal-driver/stm32l4xx_ll_adc.h ****   */
 754:../system/include/stm32l4-hal-driver/stm32l4xx_ll_adc.h **** #define LL_ADC_GROUP_REGULAR               (0x00000001UL) /*!< ADC group regular (available on all 
 755:../system/include/stm32l4-hal-driver/stm32l4xx_ll_adc.h **** #define LL_ADC_GROUP_INJECTED              (0x00000002UL) /*!< ADC group injected (not available on
 756:../system/include/stm32l4-hal-driver/stm32l4xx_ll_adc.h **** #define LL_ADC_GROUP_REGULAR_INJECTED      (0x00000003UL) /*!< ADC both groups regular and injected
 757:../system/include/stm32l4-hal-driver/stm32l4xx_ll_adc.h **** /**
 758:../system/include/stm32l4-hal-driver/stm32l4xx_ll_adc.h ****   * @}
 759:../system/include/stm32l4-hal-driver/stm32l4xx_ll_adc.h ****   */
 760:../system/include/stm32l4-hal-driver/stm32l4xx_ll_adc.h **** 
 761:../system/include/stm32l4-hal-driver/stm32l4xx_ll_adc.h **** /** @defgroup ADC_LL_EC_CHANNEL  ADC instance - Channel number
 762:../system/include/stm32l4-hal-driver/stm32l4xx_ll_adc.h ****   * @{
 763:../system/include/stm32l4-hal-driver/stm32l4xx_ll_adc.h ****   */
 764:../system/include/stm32l4-hal-driver/stm32l4xx_ll_adc.h **** #define LL_ADC_CHANNEL_0                   (ADC_CHANNEL_0_NUMBER  | ADC_CHANNEL_0_SMP  | ADC_CHANNE
 765:../system/include/stm32l4-hal-driver/stm32l4xx_ll_adc.h **** #define LL_ADC_CHANNEL_1                   (ADC_CHANNEL_1_NUMBER  | ADC_CHANNEL_1_SMP  | ADC_CHANNE
 766:../system/include/stm32l4-hal-driver/stm32l4xx_ll_adc.h **** #define LL_ADC_CHANNEL_2                   (ADC_CHANNEL_2_NUMBER  | ADC_CHANNEL_2_SMP  | ADC_CHANNE
 767:../system/include/stm32l4-hal-driver/stm32l4xx_ll_adc.h **** #define LL_ADC_CHANNEL_3                   (ADC_CHANNEL_3_NUMBER  | ADC_CHANNEL_3_SMP  | ADC_CHANNE
 768:../system/include/stm32l4-hal-driver/stm32l4xx_ll_adc.h **** #define LL_ADC_CHANNEL_4                   (ADC_CHANNEL_4_NUMBER  | ADC_CHANNEL_4_SMP  | ADC_CHANNE
 769:../system/include/stm32l4-hal-driver/stm32l4xx_ll_adc.h **** #define LL_ADC_CHANNEL_5                   (ADC_CHANNEL_5_NUMBER  | ADC_CHANNEL_5_SMP  | ADC_CHANNE
 770:../system/include/stm32l4-hal-driver/stm32l4xx_ll_adc.h **** #define LL_ADC_CHANNEL_6                   (ADC_CHANNEL_6_NUMBER  | ADC_CHANNEL_6_SMP  | ADC_CHANNE
 771:../system/include/stm32l4-hal-driver/stm32l4xx_ll_adc.h **** #define LL_ADC_CHANNEL_7                   (ADC_CHANNEL_7_NUMBER  | ADC_CHANNEL_7_SMP  | ADC_CHANNE
 772:../system/include/stm32l4-hal-driver/stm32l4xx_ll_adc.h **** #define LL_ADC_CHANNEL_8                   (ADC_CHANNEL_8_NUMBER  | ADC_CHANNEL_8_SMP  | ADC_CHANNE
 773:../system/include/stm32l4-hal-driver/stm32l4xx_ll_adc.h **** #define LL_ADC_CHANNEL_9                   (ADC_CHANNEL_9_NUMBER  | ADC_CHANNEL_9_SMP  | ADC_CHANNE
 774:../system/include/stm32l4-hal-driver/stm32l4xx_ll_adc.h **** #define LL_ADC_CHANNEL_10                  (ADC_CHANNEL_10_NUMBER | ADC_CHANNEL_10_SMP | ADC_CHANNE
 775:../system/include/stm32l4-hal-driver/stm32l4xx_ll_adc.h **** #define LL_ADC_CHANNEL_11                  (ADC_CHANNEL_11_NUMBER | ADC_CHANNEL_11_SMP | ADC_CHANNE
 776:../system/include/stm32l4-hal-driver/stm32l4xx_ll_adc.h **** #define LL_ADC_CHANNEL_12                  (ADC_CHANNEL_12_NUMBER | ADC_CHANNEL_12_SMP | ADC_CHANNE
 777:../system/include/stm32l4-hal-driver/stm32l4xx_ll_adc.h **** #define LL_ADC_CHANNEL_13                  (ADC_CHANNEL_13_NUMBER | ADC_CHANNEL_13_SMP | ADC_CHANNE
 778:../system/include/stm32l4-hal-driver/stm32l4xx_ll_adc.h **** #define LL_ADC_CHANNEL_14                  (ADC_CHANNEL_14_NUMBER | ADC_CHANNEL_14_SMP | ADC_CHANNE
 779:../system/include/stm32l4-hal-driver/stm32l4xx_ll_adc.h **** #define LL_ADC_CHANNEL_15                  (ADC_CHANNEL_15_NUMBER | ADC_CHANNEL_15_SMP | ADC_CHANNE
 780:../system/include/stm32l4-hal-driver/stm32l4xx_ll_adc.h **** #define LL_ADC_CHANNEL_16                  (ADC_CHANNEL_16_NUMBER | ADC_CHANNEL_16_SMP | ADC_CHANNE
 781:../system/include/stm32l4-hal-driver/stm32l4xx_ll_adc.h **** #define LL_ADC_CHANNEL_17                  (ADC_CHANNEL_17_NUMBER | ADC_CHANNEL_17_SMP | ADC_CHANNE
 782:../system/include/stm32l4-hal-driver/stm32l4xx_ll_adc.h **** #define LL_ADC_CHANNEL_18                  (ADC_CHANNEL_18_NUMBER | ADC_CHANNEL_18_SMP | ADC_CHANNE
 783:../system/include/stm32l4-hal-driver/stm32l4xx_ll_adc.h **** #define LL_ADC_CHANNEL_VREFINT             (LL_ADC_CHANNEL_0  | ADC_CHANNEL_ID_INTERNAL_CH) /*!< AD
 784:../system/include/stm32l4-hal-driver/stm32l4xx_ll_adc.h **** #define LL_ADC_CHANNEL_TEMPSENSOR          (LL_ADC_CHANNEL_17 | ADC_CHANNEL_ID_INTERNAL_CH) /*!< AD
 785:../system/include/stm32l4-hal-driver/stm32l4xx_ll_adc.h **** #define LL_ADC_CHANNEL_VBAT                (LL_ADC_CHANNEL_18 | ADC_CHANNEL_ID_INTERNAL_CH) /*!< AD
 786:../system/include/stm32l4-hal-driver/stm32l4xx_ll_adc.h **** #if defined(ADC1) && !defined(ADC2)
 787:../system/include/stm32l4-hal-driver/stm32l4xx_ll_adc.h **** #define LL_ADC_CHANNEL_DAC1CH1             (LL_ADC_CHANNEL_17 | ADC_CHANNEL_ID_INTERNAL_CH | ADC_CH
 788:../system/include/stm32l4-hal-driver/stm32l4xx_ll_adc.h **** #define LL_ADC_CHANNEL_DAC1CH2             (LL_ADC_CHANNEL_18 | ADC_CHANNEL_ID_INTERNAL_CH | ADC_CH
 789:../system/include/stm32l4-hal-driver/stm32l4xx_ll_adc.h **** #elif defined(ADC2)
 790:../system/include/stm32l4-hal-driver/stm32l4xx_ll_adc.h **** #define LL_ADC_CHANNEL_DAC1CH1_ADC2        (LL_ADC_CHANNEL_17 | ADC_CHANNEL_ID_INTERNAL_CH | ADC_CH
 791:../system/include/stm32l4-hal-driver/stm32l4xx_ll_adc.h **** #define LL_ADC_CHANNEL_DAC1CH2_ADC2        (LL_ADC_CHANNEL_18 | ADC_CHANNEL_ID_INTERNAL_CH | ADC_CH
 792:../system/include/stm32l4-hal-driver/stm32l4xx_ll_adc.h **** #if defined(ADC3)
 793:../system/include/stm32l4-hal-driver/stm32l4xx_ll_adc.h **** #define LL_ADC_CHANNEL_DAC1CH1_ADC3        (LL_ADC_CHANNEL_14 | ADC_CHANNEL_ID_INTERNAL_CH) /*!< AD
 794:../system/include/stm32l4-hal-driver/stm32l4xx_ll_adc.h **** #define LL_ADC_CHANNEL_DAC1CH2_ADC3        (LL_ADC_CHANNEL_15 | ADC_CHANNEL_ID_INTERNAL_CH) /*!< AD
 795:../system/include/stm32l4-hal-driver/stm32l4xx_ll_adc.h **** #endif /* ADC3 */
 796:../system/include/stm32l4-hal-driver/stm32l4xx_ll_adc.h **** #endif /* ADC1 && !ADC2 */
 797:../system/include/stm32l4-hal-driver/stm32l4xx_ll_adc.h **** /**
 798:../system/include/stm32l4-hal-driver/stm32l4xx_ll_adc.h ****   * @}
 799:../system/include/stm32l4-hal-driver/stm32l4xx_ll_adc.h ****   */
 800:../system/include/stm32l4-hal-driver/stm32l4xx_ll_adc.h **** 
 801:../system/include/stm32l4-hal-driver/stm32l4xx_ll_adc.h **** /** @defgroup ADC_LL_EC_REG_TRIGGER_SOURCE  ADC group regular - Trigger source
 802:../system/include/stm32l4-hal-driver/stm32l4xx_ll_adc.h ****   * @{
 803:../system/include/stm32l4-hal-driver/stm32l4xx_ll_adc.h ****   */
 804:../system/include/stm32l4-hal-driver/stm32l4xx_ll_adc.h **** #define LL_ADC_REG_TRIG_SOFTWARE           (0x00000000UL)                                          
 805:../system/include/stm32l4-hal-driver/stm32l4xx_ll_adc.h **** #define LL_ADC_REG_TRIG_EXT_TIM1_TRGO      (ADC_CFGR_EXTSEL_3 | ADC_CFGR_EXTSEL_0 | ADC_REG_TRIG_EX
 806:../system/include/stm32l4-hal-driver/stm32l4xx_ll_adc.h **** #define LL_ADC_REG_TRIG_EXT_TIM1_TRGO2     (ADC_CFGR_EXTSEL_3 | ADC_CFGR_EXTSEL_1 | ADC_REG_TRIG_EX
 807:../system/include/stm32l4-hal-driver/stm32l4xx_ll_adc.h **** #define LL_ADC_REG_TRIG_EXT_TIM1_CH1       (ADC_REG_TRIG_EXT_EDGE_DEFAULT)                         
 808:../system/include/stm32l4-hal-driver/stm32l4xx_ll_adc.h **** #define LL_ADC_REG_TRIG_EXT_TIM1_CH2       (ADC_CFGR_EXTSEL_0 | ADC_REG_TRIG_EXT_EDGE_DEFAULT)     
 809:../system/include/stm32l4-hal-driver/stm32l4xx_ll_adc.h **** #define LL_ADC_REG_TRIG_EXT_TIM1_CH3       (ADC_CFGR_EXTSEL_1 | ADC_REG_TRIG_EXT_EDGE_DEFAULT)     
 810:../system/include/stm32l4-hal-driver/stm32l4xx_ll_adc.h **** #define LL_ADC_REG_TRIG_EXT_TIM2_TRGO      (ADC_CFGR_EXTSEL_3 | ADC_CFGR_EXTSEL_1 | ADC_CFGR_EXTSEL
 811:../system/include/stm32l4-hal-driver/stm32l4xx_ll_adc.h **** #define LL_ADC_REG_TRIG_EXT_TIM2_CH2       (ADC_CFGR_EXTSEL_1 | ADC_CFGR_EXTSEL_0 | ADC_REG_TRIG_EX
 812:../system/include/stm32l4-hal-driver/stm32l4xx_ll_adc.h **** #define LL_ADC_REG_TRIG_EXT_TIM3_TRGO      (ADC_CFGR_EXTSEL_2 | ADC_REG_TRIG_EXT_EDGE_DEFAULT)     
 813:../system/include/stm32l4-hal-driver/stm32l4xx_ll_adc.h **** #define LL_ADC_REG_TRIG_EXT_TIM3_CH4       (ADC_CFGR_EXTSEL_3 | ADC_CFGR_EXTSEL_2 | ADC_CFGR_EXTSEL
 814:../system/include/stm32l4-hal-driver/stm32l4xx_ll_adc.h **** #define LL_ADC_REG_TRIG_EXT_TIM4_TRGO      (ADC_CFGR_EXTSEL_3 | ADC_CFGR_EXTSEL_2 | ADC_REG_TRIG_EX
 815:../system/include/stm32l4-hal-driver/stm32l4xx_ll_adc.h **** #define LL_ADC_REG_TRIG_EXT_TIM4_CH4       (ADC_CFGR_EXTSEL_2 | ADC_CFGR_EXTSEL_0 | ADC_REG_TRIG_EX
 816:../system/include/stm32l4-hal-driver/stm32l4xx_ll_adc.h **** #define LL_ADC_REG_TRIG_EXT_TIM6_TRGO      (ADC_CFGR_EXTSEL_3 | ADC_CFGR_EXTSEL_2 | ADC_CFGR_EXTSEL
 817:../system/include/stm32l4-hal-driver/stm32l4xx_ll_adc.h **** #define LL_ADC_REG_TRIG_EXT_TIM8_TRGO      (ADC_CFGR_EXTSEL_2 | ADC_CFGR_EXTSEL_1 | ADC_CFGR_EXTSEL
 818:../system/include/stm32l4-hal-driver/stm32l4xx_ll_adc.h **** #define LL_ADC_REG_TRIG_EXT_TIM8_TRGO2     (ADC_CFGR_EXTSEL_3 | ADC_REG_TRIG_EXT_EDGE_DEFAULT)     
 819:../system/include/stm32l4-hal-driver/stm32l4xx_ll_adc.h **** #define LL_ADC_REG_TRIG_EXT_TIM15_TRGO     (ADC_CFGR_EXTSEL_3 | ADC_CFGR_EXTSEL_2 | ADC_CFGR_EXTSEL
 820:../system/include/stm32l4-hal-driver/stm32l4xx_ll_adc.h **** #define LL_ADC_REG_TRIG_EXT_EXTI_LINE11    (ADC_CFGR_EXTSEL_2 | ADC_CFGR_EXTSEL_1 | ADC_REG_TRIG_EX
 821:../system/include/stm32l4-hal-driver/stm32l4xx_ll_adc.h **** /**
 822:../system/include/stm32l4-hal-driver/stm32l4xx_ll_adc.h ****   * @}
 823:../system/include/stm32l4-hal-driver/stm32l4xx_ll_adc.h ****   */
 824:../system/include/stm32l4-hal-driver/stm32l4xx_ll_adc.h **** 
 825:../system/include/stm32l4-hal-driver/stm32l4xx_ll_adc.h **** /** @defgroup ADC_LL_EC_REG_TRIGGER_EDGE  ADC group regular - Trigger edge
 826:../system/include/stm32l4-hal-driver/stm32l4xx_ll_adc.h ****   * @{
 827:../system/include/stm32l4-hal-driver/stm32l4xx_ll_adc.h ****   */
 828:../system/include/stm32l4-hal-driver/stm32l4xx_ll_adc.h **** #define LL_ADC_REG_TRIG_EXT_RISING         (                   ADC_CFGR_EXTEN_0)   /*!< ADC group r
 829:../system/include/stm32l4-hal-driver/stm32l4xx_ll_adc.h **** #define LL_ADC_REG_TRIG_EXT_FALLING        (ADC_CFGR_EXTEN_1                   )   /*!< ADC group r
 830:../system/include/stm32l4-hal-driver/stm32l4xx_ll_adc.h **** #define LL_ADC_REG_TRIG_EXT_RISINGFALLING  (ADC_CFGR_EXTEN_1 | ADC_CFGR_EXTEN_0)   /*!< ADC group r
 831:../system/include/stm32l4-hal-driver/stm32l4xx_ll_adc.h **** /**
 832:../system/include/stm32l4-hal-driver/stm32l4xx_ll_adc.h ****   * @}
 833:../system/include/stm32l4-hal-driver/stm32l4xx_ll_adc.h ****   */
 834:../system/include/stm32l4-hal-driver/stm32l4xx_ll_adc.h **** 
 835:../system/include/stm32l4-hal-driver/stm32l4xx_ll_adc.h **** /** @defgroup ADC_LL_EC_REG_CONTINUOUS_MODE  ADC group regular - Continuous mode
 836:../system/include/stm32l4-hal-driver/stm32l4xx_ll_adc.h ****   * @{
 837:../system/include/stm32l4-hal-driver/stm32l4xx_ll_adc.h ****   */
 838:../system/include/stm32l4-hal-driver/stm32l4xx_ll_adc.h **** #define LL_ADC_REG_CONV_SINGLE             (0x00000000UL)          /*!< ADC conversions are perform
 839:../system/include/stm32l4-hal-driver/stm32l4xx_ll_adc.h **** #define LL_ADC_REG_CONV_CONTINUOUS         (ADC_CFGR_CONT)         /*!< ADC conversions are perform
 840:../system/include/stm32l4-hal-driver/stm32l4xx_ll_adc.h **** /**
 841:../system/include/stm32l4-hal-driver/stm32l4xx_ll_adc.h ****   * @}
 842:../system/include/stm32l4-hal-driver/stm32l4xx_ll_adc.h ****   */
 843:../system/include/stm32l4-hal-driver/stm32l4xx_ll_adc.h **** 
 844:../system/include/stm32l4-hal-driver/stm32l4xx_ll_adc.h **** /** @defgroup ADC_LL_EC_REG_DMA_TRANSFER  ADC group regular - DMA transfer of ADC conversion data
 845:../system/include/stm32l4-hal-driver/stm32l4xx_ll_adc.h ****   * @{
 846:../system/include/stm32l4-hal-driver/stm32l4xx_ll_adc.h ****   */
 847:../system/include/stm32l4-hal-driver/stm32l4xx_ll_adc.h **** #define LL_ADC_REG_DMA_TRANSFER_NONE       (0x00000000UL)                        /*!< ADC conversio
 848:../system/include/stm32l4-hal-driver/stm32l4xx_ll_adc.h **** #define LL_ADC_REG_DMA_TRANSFER_LIMITED    (                  ADC_CFGR_DMAEN)    /*!< ADC conversio
 849:../system/include/stm32l4-hal-driver/stm32l4xx_ll_adc.h **** #define LL_ADC_REG_DMA_TRANSFER_UNLIMITED  (ADC_CFGR_DMACFG | ADC_CFGR_DMAEN)    /*!< ADC conversio
 850:../system/include/stm32l4-hal-driver/stm32l4xx_ll_adc.h **** /**
 851:../system/include/stm32l4-hal-driver/stm32l4xx_ll_adc.h ****   * @}
 852:../system/include/stm32l4-hal-driver/stm32l4xx_ll_adc.h ****   */
 853:../system/include/stm32l4-hal-driver/stm32l4xx_ll_adc.h **** 
 854:../system/include/stm32l4-hal-driver/stm32l4xx_ll_adc.h **** #if defined(ADC_CFGR_DFSDMCFG) &&defined(DFSDM1_Channel0)
 855:../system/include/stm32l4-hal-driver/stm32l4xx_ll_adc.h **** /** @defgroup ADC_LL_EC_REG_DFSDM_TRANSFER ADC group regular - DFSDM transfer of ADC conversion dat
 856:../system/include/stm32l4-hal-driver/stm32l4xx_ll_adc.h ****   * @{
 857:../system/include/stm32l4-hal-driver/stm32l4xx_ll_adc.h ****   */
 858:../system/include/stm32l4-hal-driver/stm32l4xx_ll_adc.h **** #define LL_ADC_REG_DFSDM_TRANSFER_NONE     (0x00000000UL)          /*!< ADC conversions are not tra
 859:../system/include/stm32l4-hal-driver/stm32l4xx_ll_adc.h **** #define LL_ADC_REG_DFSDM_TRANSFER_ENABLE   (ADC_CFGR_DFSDMCFG)     /*!< ADC conversion data are tra
 860:../system/include/stm32l4-hal-driver/stm32l4xx_ll_adc.h **** /**
 861:../system/include/stm32l4-hal-driver/stm32l4xx_ll_adc.h ****   * @}
 862:../system/include/stm32l4-hal-driver/stm32l4xx_ll_adc.h ****   */
 863:../system/include/stm32l4-hal-driver/stm32l4xx_ll_adc.h **** #endif /* ADC_CFGR_DFSDMCFG */
 864:../system/include/stm32l4-hal-driver/stm32l4xx_ll_adc.h **** 
 865:../system/include/stm32l4-hal-driver/stm32l4xx_ll_adc.h **** #if defined(ADC_SMPR1_SMPPLUS)
 866:../system/include/stm32l4-hal-driver/stm32l4xx_ll_adc.h **** /** @defgroup ADC_LL_EC_SAMPLINGTIME_COMMON_CONFIG ADC instance - ADC sampling time common configur
 867:../system/include/stm32l4-hal-driver/stm32l4xx_ll_adc.h ****   * @{
 868:../system/include/stm32l4-hal-driver/stm32l4xx_ll_adc.h ****   */
 869:../system/include/stm32l4-hal-driver/stm32l4xx_ll_adc.h **** #define LL_ADC_SAMPLINGTIME_COMMON_DEFAULT      (0x00000000UL)      /*!< ADC sampling time let to d
 870:../system/include/stm32l4-hal-driver/stm32l4xx_ll_adc.h **** #define LL_ADC_SAMPLINGTIME_COMMON_3C5_REPL_2C5 (ADC_SMPR1_SMPPLUS) /*!< ADC additional sampling ti
 871:../system/include/stm32l4-hal-driver/stm32l4xx_ll_adc.h **** /**
 872:../system/include/stm32l4-hal-driver/stm32l4xx_ll_adc.h ****   * @}
 873:../system/include/stm32l4-hal-driver/stm32l4xx_ll_adc.h ****   */
 874:../system/include/stm32l4-hal-driver/stm32l4xx_ll_adc.h **** #endif
 875:../system/include/stm32l4-hal-driver/stm32l4xx_ll_adc.h **** 
 876:../system/include/stm32l4-hal-driver/stm32l4xx_ll_adc.h **** /** @defgroup ADC_LL_EC_REG_OVR_DATA_BEHAVIOR  ADC group regular - Overrun behavior on conversion d
 877:../system/include/stm32l4-hal-driver/stm32l4xx_ll_adc.h ****   * @{
 878:../system/include/stm32l4-hal-driver/stm32l4xx_ll_adc.h ****   */
 879:../system/include/stm32l4-hal-driver/stm32l4xx_ll_adc.h **** #define LL_ADC_REG_OVR_DATA_PRESERVED      (0x00000000UL)         /*!< ADC group regular behavior i
 880:../system/include/stm32l4-hal-driver/stm32l4xx_ll_adc.h **** #define LL_ADC_REG_OVR_DATA_OVERWRITTEN    (ADC_CFGR_OVRMOD)      /*!< ADC group regular behavior i
 881:../system/include/stm32l4-hal-driver/stm32l4xx_ll_adc.h **** /**
 882:../system/include/stm32l4-hal-driver/stm32l4xx_ll_adc.h ****   * @}
 883:../system/include/stm32l4-hal-driver/stm32l4xx_ll_adc.h ****   */
 884:../system/include/stm32l4-hal-driver/stm32l4xx_ll_adc.h **** 
 885:../system/include/stm32l4-hal-driver/stm32l4xx_ll_adc.h **** /** @defgroup ADC_LL_EC_REG_SEQ_SCAN_LENGTH  ADC group regular - Sequencer scan length
 886:../system/include/stm32l4-hal-driver/stm32l4xx_ll_adc.h ****   * @{
 887:../system/include/stm32l4-hal-driver/stm32l4xx_ll_adc.h ****   */
 888:../system/include/stm32l4-hal-driver/stm32l4xx_ll_adc.h **** #define LL_ADC_REG_SEQ_SCAN_DISABLE        (0x00000000UL)                                          
 889:../system/include/stm32l4-hal-driver/stm32l4xx_ll_adc.h **** #define LL_ADC_REG_SEQ_SCAN_ENABLE_2RANKS  (                                             ADC_SQR1_L
 890:../system/include/stm32l4-hal-driver/stm32l4xx_ll_adc.h **** #define LL_ADC_REG_SEQ_SCAN_ENABLE_3RANKS  (                              ADC_SQR1_L_1             
 891:../system/include/stm32l4-hal-driver/stm32l4xx_ll_adc.h **** #define LL_ADC_REG_SEQ_SCAN_ENABLE_4RANKS  (                              ADC_SQR1_L_1 | ADC_SQR1_L
 892:../system/include/stm32l4-hal-driver/stm32l4xx_ll_adc.h **** #define LL_ADC_REG_SEQ_SCAN_ENABLE_5RANKS  (               ADC_SQR1_L_2                            
 893:../system/include/stm32l4-hal-driver/stm32l4xx_ll_adc.h **** #define LL_ADC_REG_SEQ_SCAN_ENABLE_6RANKS  (               ADC_SQR1_L_2                | ADC_SQR1_L
 894:../system/include/stm32l4-hal-driver/stm32l4xx_ll_adc.h **** #define LL_ADC_REG_SEQ_SCAN_ENABLE_7RANKS  (               ADC_SQR1_L_2 | ADC_SQR1_L_1             
 895:../system/include/stm32l4-hal-driver/stm32l4xx_ll_adc.h **** #define LL_ADC_REG_SEQ_SCAN_ENABLE_8RANKS  (               ADC_SQR1_L_2 | ADC_SQR1_L_1 | ADC_SQR1_L
 896:../system/include/stm32l4-hal-driver/stm32l4xx_ll_adc.h **** #define LL_ADC_REG_SEQ_SCAN_ENABLE_9RANKS  (ADC_SQR1_L_3                                           
 897:../system/include/stm32l4-hal-driver/stm32l4xx_ll_adc.h **** #define LL_ADC_REG_SEQ_SCAN_ENABLE_10RANKS (ADC_SQR1_L_3                               | ADC_SQR1_L
 898:../system/include/stm32l4-hal-driver/stm32l4xx_ll_adc.h **** #define LL_ADC_REG_SEQ_SCAN_ENABLE_11RANKS (ADC_SQR1_L_3                | ADC_SQR1_L_1             
 899:../system/include/stm32l4-hal-driver/stm32l4xx_ll_adc.h **** #define LL_ADC_REG_SEQ_SCAN_ENABLE_12RANKS (ADC_SQR1_L_3                | ADC_SQR1_L_1 | ADC_SQR1_L
 900:../system/include/stm32l4-hal-driver/stm32l4xx_ll_adc.h **** #define LL_ADC_REG_SEQ_SCAN_ENABLE_13RANKS (ADC_SQR1_L_3 | ADC_SQR1_L_2                            
 901:../system/include/stm32l4-hal-driver/stm32l4xx_ll_adc.h **** #define LL_ADC_REG_SEQ_SCAN_ENABLE_14RANKS (ADC_SQR1_L_3 | ADC_SQR1_L_2                | ADC_SQR1_L
 902:../system/include/stm32l4-hal-driver/stm32l4xx_ll_adc.h **** #define LL_ADC_REG_SEQ_SCAN_ENABLE_15RANKS (ADC_SQR1_L_3 | ADC_SQR1_L_2 | ADC_SQR1_L_1             
 903:../system/include/stm32l4-hal-driver/stm32l4xx_ll_adc.h **** #define LL_ADC_REG_SEQ_SCAN_ENABLE_16RANKS (ADC_SQR1_L_3 | ADC_SQR1_L_2 | ADC_SQR1_L_1 | ADC_SQR1_L
 904:../system/include/stm32l4-hal-driver/stm32l4xx_ll_adc.h **** /**
 905:../system/include/stm32l4-hal-driver/stm32l4xx_ll_adc.h ****   * @}
 906:../system/include/stm32l4-hal-driver/stm32l4xx_ll_adc.h ****   */
 907:../system/include/stm32l4-hal-driver/stm32l4xx_ll_adc.h **** 
 908:../system/include/stm32l4-hal-driver/stm32l4xx_ll_adc.h **** /** @defgroup ADC_LL_EC_REG_SEQ_DISCONT_MODE  ADC group regular - Sequencer discontinuous mode
 909:../system/include/stm32l4-hal-driver/stm32l4xx_ll_adc.h ****   * @{
 910:../system/include/stm32l4-hal-driver/stm32l4xx_ll_adc.h ****   */
 911:../system/include/stm32l4-hal-driver/stm32l4xx_ll_adc.h **** #define LL_ADC_REG_SEQ_DISCONT_DISABLE     (0x00000000UL)                                          
 912:../system/include/stm32l4-hal-driver/stm32l4xx_ll_adc.h **** #define LL_ADC_REG_SEQ_DISCONT_1RANK       (                                                       
 913:../system/include/stm32l4-hal-driver/stm32l4xx_ll_adc.h **** #define LL_ADC_REG_SEQ_DISCONT_2RANKS      (                                          ADC_CFGR_DISC
 914:../system/include/stm32l4-hal-driver/stm32l4xx_ll_adc.h **** #define LL_ADC_REG_SEQ_DISCONT_3RANKS      (                     ADC_CFGR_DISCNUM_1                
 915:../system/include/stm32l4-hal-driver/stm32l4xx_ll_adc.h **** #define LL_ADC_REG_SEQ_DISCONT_4RANKS      (                     ADC_CFGR_DISCNUM_1 | ADC_CFGR_DISC
 916:../system/include/stm32l4-hal-driver/stm32l4xx_ll_adc.h **** #define LL_ADC_REG_SEQ_DISCONT_5RANKS      (ADC_CFGR_DISCNUM_2                                     
 917:../system/include/stm32l4-hal-driver/stm32l4xx_ll_adc.h **** #define LL_ADC_REG_SEQ_DISCONT_6RANKS      (ADC_CFGR_DISCNUM_2                      | ADC_CFGR_DISC
 918:../system/include/stm32l4-hal-driver/stm32l4xx_ll_adc.h **** #define LL_ADC_REG_SEQ_DISCONT_7RANKS      (ADC_CFGR_DISCNUM_2 | ADC_CFGR_DISCNUM_1                
 919:../system/include/stm32l4-hal-driver/stm32l4xx_ll_adc.h **** #define LL_ADC_REG_SEQ_DISCONT_8RANKS      (ADC_CFGR_DISCNUM_2 | ADC_CFGR_DISCNUM_1 | ADC_CFGR_DISC
 920:../system/include/stm32l4-hal-driver/stm32l4xx_ll_adc.h **** /**
 921:../system/include/stm32l4-hal-driver/stm32l4xx_ll_adc.h ****   * @}
 922:../system/include/stm32l4-hal-driver/stm32l4xx_ll_adc.h ****   */
 923:../system/include/stm32l4-hal-driver/stm32l4xx_ll_adc.h **** 
 924:../system/include/stm32l4-hal-driver/stm32l4xx_ll_adc.h **** /** @defgroup ADC_LL_EC_REG_SEQ_RANKS  ADC group regular - Sequencer ranks
 925:../system/include/stm32l4-hal-driver/stm32l4xx_ll_adc.h ****   * @{
 926:../system/include/stm32l4-hal-driver/stm32l4xx_ll_adc.h ****   */
 927:../system/include/stm32l4-hal-driver/stm32l4xx_ll_adc.h **** #define LL_ADC_REG_RANK_1                  (ADC_SQR1_REGOFFSET | ADC_REG_RANK_1_SQRX_BITOFFSET_POS)
 928:../system/include/stm32l4-hal-driver/stm32l4xx_ll_adc.h **** #define LL_ADC_REG_RANK_2                  (ADC_SQR1_REGOFFSET | ADC_REG_RANK_2_SQRX_BITOFFSET_POS)
 929:../system/include/stm32l4-hal-driver/stm32l4xx_ll_adc.h **** #define LL_ADC_REG_RANK_3                  (ADC_SQR1_REGOFFSET | ADC_REG_RANK_3_SQRX_BITOFFSET_POS)
 930:../system/include/stm32l4-hal-driver/stm32l4xx_ll_adc.h **** #define LL_ADC_REG_RANK_4                  (ADC_SQR1_REGOFFSET | ADC_REG_RANK_4_SQRX_BITOFFSET_POS)
 931:../system/include/stm32l4-hal-driver/stm32l4xx_ll_adc.h **** #define LL_ADC_REG_RANK_5                  (ADC_SQR2_REGOFFSET | ADC_REG_RANK_5_SQRX_BITOFFSET_POS)
 932:../system/include/stm32l4-hal-driver/stm32l4xx_ll_adc.h **** #define LL_ADC_REG_RANK_6                  (ADC_SQR2_REGOFFSET | ADC_REG_RANK_6_SQRX_BITOFFSET_POS)
 933:../system/include/stm32l4-hal-driver/stm32l4xx_ll_adc.h **** #define LL_ADC_REG_RANK_7                  (ADC_SQR2_REGOFFSET | ADC_REG_RANK_7_SQRX_BITOFFSET_POS)
 934:../system/include/stm32l4-hal-driver/stm32l4xx_ll_adc.h **** #define LL_ADC_REG_RANK_8                  (ADC_SQR2_REGOFFSET | ADC_REG_RANK_8_SQRX_BITOFFSET_POS)
 935:../system/include/stm32l4-hal-driver/stm32l4xx_ll_adc.h **** #define LL_ADC_REG_RANK_9                  (ADC_SQR2_REGOFFSET | ADC_REG_RANK_9_SQRX_BITOFFSET_POS)
 936:../system/include/stm32l4-hal-driver/stm32l4xx_ll_adc.h **** #define LL_ADC_REG_RANK_10                 (ADC_SQR3_REGOFFSET | ADC_REG_RANK_10_SQRX_BITOFFSET_POS
 937:../system/include/stm32l4-hal-driver/stm32l4xx_ll_adc.h **** #define LL_ADC_REG_RANK_11                 (ADC_SQR3_REGOFFSET | ADC_REG_RANK_11_SQRX_BITOFFSET_POS
 938:../system/include/stm32l4-hal-driver/stm32l4xx_ll_adc.h **** #define LL_ADC_REG_RANK_12                 (ADC_SQR3_REGOFFSET | ADC_REG_RANK_12_SQRX_BITOFFSET_POS
 939:../system/include/stm32l4-hal-driver/stm32l4xx_ll_adc.h **** #define LL_ADC_REG_RANK_13                 (ADC_SQR3_REGOFFSET | ADC_REG_RANK_13_SQRX_BITOFFSET_POS
 940:../system/include/stm32l4-hal-driver/stm32l4xx_ll_adc.h **** #define LL_ADC_REG_RANK_14                 (ADC_SQR3_REGOFFSET | ADC_REG_RANK_14_SQRX_BITOFFSET_POS
 941:../system/include/stm32l4-hal-driver/stm32l4xx_ll_adc.h **** #define LL_ADC_REG_RANK_15                 (ADC_SQR4_REGOFFSET | ADC_REG_RANK_15_SQRX_BITOFFSET_POS
 942:../system/include/stm32l4-hal-driver/stm32l4xx_ll_adc.h **** #define LL_ADC_REG_RANK_16                 (ADC_SQR4_REGOFFSET | ADC_REG_RANK_16_SQRX_BITOFFSET_POS
 943:../system/include/stm32l4-hal-driver/stm32l4xx_ll_adc.h **** /**
 944:../system/include/stm32l4-hal-driver/stm32l4xx_ll_adc.h ****   * @}
 945:../system/include/stm32l4-hal-driver/stm32l4xx_ll_adc.h ****   */
 946:../system/include/stm32l4-hal-driver/stm32l4xx_ll_adc.h **** 
 947:../system/include/stm32l4-hal-driver/stm32l4xx_ll_adc.h **** /** @defgroup ADC_LL_EC_INJ_TRIGGER_SOURCE  ADC group injected - Trigger source
 948:../system/include/stm32l4-hal-driver/stm32l4xx_ll_adc.h ****   * @{
 949:../system/include/stm32l4-hal-driver/stm32l4xx_ll_adc.h ****   */
 950:../system/include/stm32l4-hal-driver/stm32l4xx_ll_adc.h **** #define LL_ADC_INJ_TRIG_SOFTWARE           (0x00000000UL)                                          
 951:../system/include/stm32l4-hal-driver/stm32l4xx_ll_adc.h **** #define LL_ADC_INJ_TRIG_EXT_TIM1_TRGO      (ADC_INJ_TRIG_EXT_EDGE_DEFAULT)                         
 952:../system/include/stm32l4-hal-driver/stm32l4xx_ll_adc.h **** #define LL_ADC_INJ_TRIG_EXT_TIM1_TRGO2     (ADC_JSQR_JEXTSEL_3 | ADC_INJ_TRIG_EXT_EDGE_DEFAULT)    
 953:../system/include/stm32l4-hal-driver/stm32l4xx_ll_adc.h **** #define LL_ADC_INJ_TRIG_EXT_TIM1_CH4       (ADC_JSQR_JEXTSEL_0 | ADC_INJ_TRIG_EXT_EDGE_DEFAULT)    
 954:../system/include/stm32l4-hal-driver/stm32l4xx_ll_adc.h **** #define LL_ADC_INJ_TRIG_EXT_TIM2_TRGO      (ADC_JSQR_JEXTSEL_1 | ADC_INJ_TRIG_EXT_EDGE_DEFAULT)    
 955:../system/include/stm32l4-hal-driver/stm32l4xx_ll_adc.h **** #define LL_ADC_INJ_TRIG_EXT_TIM2_CH1       (ADC_JSQR_JEXTSEL_1 | ADC_JSQR_JEXTSEL_0 | ADC_INJ_TRIG_
 956:../system/include/stm32l4-hal-driver/stm32l4xx_ll_adc.h **** #define LL_ADC_INJ_TRIG_EXT_TIM3_TRGO      (ADC_JSQR_JEXTSEL_3 | ADC_JSQR_JEXTSEL_2 | ADC_INJ_TRIG_
 957:../system/include/stm32l4-hal-driver/stm32l4xx_ll_adc.h **** #define LL_ADC_INJ_TRIG_EXT_TIM3_CH1       (ADC_JSQR_JEXTSEL_3 | ADC_JSQR_JEXTSEL_2 | ADC_JSQR_JEXT
 958:../system/include/stm32l4-hal-driver/stm32l4xx_ll_adc.h **** #define LL_ADC_INJ_TRIG_EXT_TIM3_CH3       (ADC_JSQR_JEXTSEL_3 | ADC_JSQR_JEXTSEL_1 | ADC_JSQR_JEXT
 959:../system/include/stm32l4-hal-driver/stm32l4xx_ll_adc.h **** #define LL_ADC_INJ_TRIG_EXT_TIM3_CH4       (ADC_JSQR_JEXTSEL_2 | ADC_INJ_TRIG_EXT_EDGE_DEFAULT)    
 960:../system/include/stm32l4-hal-driver/stm32l4xx_ll_adc.h **** #define LL_ADC_INJ_TRIG_EXT_TIM4_TRGO      (ADC_JSQR_JEXTSEL_2 | ADC_JSQR_JEXTSEL_0 | ADC_INJ_TRIG_
 961:../system/include/stm32l4-hal-driver/stm32l4xx_ll_adc.h **** #define LL_ADC_INJ_TRIG_EXT_TIM6_TRGO      (ADC_JSQR_JEXTSEL_3 | ADC_JSQR_JEXTSEL_2 | ADC_JSQR_JEXT
 962:../system/include/stm32l4-hal-driver/stm32l4xx_ll_adc.h **** #define LL_ADC_INJ_TRIG_EXT_TIM8_CH4       (ADC_JSQR_JEXTSEL_2 | ADC_JSQR_JEXTSEL_1 | ADC_JSQR_JEXT
 963:../system/include/stm32l4-hal-driver/stm32l4xx_ll_adc.h **** #define LL_ADC_INJ_TRIG_EXT_TIM8_TRGO      (ADC_JSQR_JEXTSEL_3 | ADC_JSQR_JEXTSEL_0 | ADC_INJ_TRIG_
 964:../system/include/stm32l4-hal-driver/stm32l4xx_ll_adc.h **** #define LL_ADC_INJ_TRIG_EXT_TIM8_TRGO2     (ADC_JSQR_JEXTSEL_3 | ADC_JSQR_JEXTSEL_1 | ADC_INJ_TRIG_
 965:../system/include/stm32l4-hal-driver/stm32l4xx_ll_adc.h **** #define LL_ADC_INJ_TRIG_EXT_TIM15_TRGO     (ADC_JSQR_JEXTSEL_3 | ADC_JSQR_JEXTSEL_2 | ADC_JSQR_JEXT
 966:../system/include/stm32l4-hal-driver/stm32l4xx_ll_adc.h **** #define LL_ADC_INJ_TRIG_EXT_EXTI_LINE15    (ADC_JSQR_JEXTSEL_2 | ADC_JSQR_JEXTSEL_1 | ADC_INJ_TRIG_
 967:../system/include/stm32l4-hal-driver/stm32l4xx_ll_adc.h **** /**
 968:../system/include/stm32l4-hal-driver/stm32l4xx_ll_adc.h ****   * @}
 969:../system/include/stm32l4-hal-driver/stm32l4xx_ll_adc.h ****   */
 970:../system/include/stm32l4-hal-driver/stm32l4xx_ll_adc.h **** 
 971:../system/include/stm32l4-hal-driver/stm32l4xx_ll_adc.h **** /** @defgroup ADC_LL_EC_INJ_TRIGGER_EDGE  ADC group injected - Trigger edge
 972:../system/include/stm32l4-hal-driver/stm32l4xx_ll_adc.h ****   * @{
 973:../system/include/stm32l4-hal-driver/stm32l4xx_ll_adc.h ****   */
 974:../system/include/stm32l4-hal-driver/stm32l4xx_ll_adc.h **** #define LL_ADC_INJ_TRIG_EXT_RISING         (                    ADC_JSQR_JEXTEN_0) /*!< ADC group i
 975:../system/include/stm32l4-hal-driver/stm32l4xx_ll_adc.h **** #define LL_ADC_INJ_TRIG_EXT_FALLING        (ADC_JSQR_JEXTEN_1                    ) /*!< ADC group i
 976:../system/include/stm32l4-hal-driver/stm32l4xx_ll_adc.h **** #define LL_ADC_INJ_TRIG_EXT_RISINGFALLING  (ADC_JSQR_JEXTEN_1 | ADC_JSQR_JEXTEN_0) /*!< ADC group i
 977:../system/include/stm32l4-hal-driver/stm32l4xx_ll_adc.h **** /**
 978:../system/include/stm32l4-hal-driver/stm32l4xx_ll_adc.h ****   * @}
 979:../system/include/stm32l4-hal-driver/stm32l4xx_ll_adc.h ****   */
 980:../system/include/stm32l4-hal-driver/stm32l4xx_ll_adc.h **** 
 981:../system/include/stm32l4-hal-driver/stm32l4xx_ll_adc.h **** /** @defgroup ADC_LL_EC_INJ_TRIG_AUTO  ADC group injected - Automatic trigger mode
 982:../system/include/stm32l4-hal-driver/stm32l4xx_ll_adc.h ****   * @{
 983:../system/include/stm32l4-hal-driver/stm32l4xx_ll_adc.h ****   */
 984:../system/include/stm32l4-hal-driver/stm32l4xx_ll_adc.h **** #define LL_ADC_INJ_TRIG_INDEPENDENT        (0x00000000UL)         /*!< ADC group injected conversio
 985:../system/include/stm32l4-hal-driver/stm32l4xx_ll_adc.h **** #define LL_ADC_INJ_TRIG_FROM_GRP_REGULAR   (ADC_CFGR_JAUTO)       /*!< ADC group injected conversio
 986:../system/include/stm32l4-hal-driver/stm32l4xx_ll_adc.h **** /**
 987:../system/include/stm32l4-hal-driver/stm32l4xx_ll_adc.h ****   * @}
 988:../system/include/stm32l4-hal-driver/stm32l4xx_ll_adc.h ****   */
 989:../system/include/stm32l4-hal-driver/stm32l4xx_ll_adc.h **** 
 990:../system/include/stm32l4-hal-driver/stm32l4xx_ll_adc.h **** /** @defgroup ADC_LL_EC_INJ_CONTEXT_QUEUE  ADC group injected - Context queue mode
 991:../system/include/stm32l4-hal-driver/stm32l4xx_ll_adc.h ****   * @{
 992:../system/include/stm32l4-hal-driver/stm32l4xx_ll_adc.h ****   */
 993:../system/include/stm32l4-hal-driver/stm32l4xx_ll_adc.h **** #define LL_ADC_INJ_QUEUE_2CONTEXTS_LAST_ACTIVE (0x00000000UL)         /* Group injected sequence co
 994:../system/include/stm32l4-hal-driver/stm32l4xx_ll_adc.h **** #define LL_ADC_INJ_QUEUE_2CONTEXTS_END_EMPTY   (ADC_CFGR_JQM)         /* Group injected sequence co
 995:../system/include/stm32l4-hal-driver/stm32l4xx_ll_adc.h **** #define LL_ADC_INJ_QUEUE_DISABLE               (ADC_CFGR_JQDIS)       /* Group injected sequence co
 996:../system/include/stm32l4-hal-driver/stm32l4xx_ll_adc.h **** /**
 997:../system/include/stm32l4-hal-driver/stm32l4xx_ll_adc.h ****   * @}
 998:../system/include/stm32l4-hal-driver/stm32l4xx_ll_adc.h ****   */
 999:../system/include/stm32l4-hal-driver/stm32l4xx_ll_adc.h **** 
1000:../system/include/stm32l4-hal-driver/stm32l4xx_ll_adc.h **** /** @defgroup ADC_LL_EC_INJ_SEQ_SCAN_LENGTH  ADC group injected - Sequencer scan length
1001:../system/include/stm32l4-hal-driver/stm32l4xx_ll_adc.h ****   * @{
1002:../system/include/stm32l4-hal-driver/stm32l4xx_ll_adc.h ****   */
1003:../system/include/stm32l4-hal-driver/stm32l4xx_ll_adc.h **** #define LL_ADC_INJ_SEQ_SCAN_DISABLE        (0x00000000UL)                  /*!< ADC group injected 
1004:../system/include/stm32l4-hal-driver/stm32l4xx_ll_adc.h **** #define LL_ADC_INJ_SEQ_SCAN_ENABLE_2RANKS  (                ADC_JSQR_JL_0) /*!< ADC group injected 
1005:../system/include/stm32l4-hal-driver/stm32l4xx_ll_adc.h **** #define LL_ADC_INJ_SEQ_SCAN_ENABLE_3RANKS  (ADC_JSQR_JL_1                ) /*!< ADC group injected 
1006:../system/include/stm32l4-hal-driver/stm32l4xx_ll_adc.h **** #define LL_ADC_INJ_SEQ_SCAN_ENABLE_4RANKS  (ADC_JSQR_JL_1 | ADC_JSQR_JL_0) /*!< ADC group injected 
1007:../system/include/stm32l4-hal-driver/stm32l4xx_ll_adc.h **** /**
1008:../system/include/stm32l4-hal-driver/stm32l4xx_ll_adc.h ****   * @}
1009:../system/include/stm32l4-hal-driver/stm32l4xx_ll_adc.h ****   */
1010:../system/include/stm32l4-hal-driver/stm32l4xx_ll_adc.h **** 
1011:../system/include/stm32l4-hal-driver/stm32l4xx_ll_adc.h **** /** @defgroup ADC_LL_EC_INJ_SEQ_DISCONT_MODE  ADC group injected - Sequencer discontinuous mode
1012:../system/include/stm32l4-hal-driver/stm32l4xx_ll_adc.h ****   * @{
1013:../system/include/stm32l4-hal-driver/stm32l4xx_ll_adc.h ****   */
1014:../system/include/stm32l4-hal-driver/stm32l4xx_ll_adc.h **** #define LL_ADC_INJ_SEQ_DISCONT_DISABLE     (0x00000000UL)         /*!< ADC group injected sequencer
1015:../system/include/stm32l4-hal-driver/stm32l4xx_ll_adc.h **** #define LL_ADC_INJ_SEQ_DISCONT_1RANK       (ADC_CFGR_JDISCEN)     /*!< ADC group injected sequencer
1016:../system/include/stm32l4-hal-driver/stm32l4xx_ll_adc.h **** /**
1017:../system/include/stm32l4-hal-driver/stm32l4xx_ll_adc.h ****   * @}
1018:../system/include/stm32l4-hal-driver/stm32l4xx_ll_adc.h ****   */
1019:../system/include/stm32l4-hal-driver/stm32l4xx_ll_adc.h **** 
1020:../system/include/stm32l4-hal-driver/stm32l4xx_ll_adc.h **** /** @defgroup ADC_LL_EC_INJ_SEQ_RANKS  ADC group injected - Sequencer ranks
1021:../system/include/stm32l4-hal-driver/stm32l4xx_ll_adc.h ****   * @{
1022:../system/include/stm32l4-hal-driver/stm32l4xx_ll_adc.h ****   */
1023:../system/include/stm32l4-hal-driver/stm32l4xx_ll_adc.h **** #define LL_ADC_INJ_RANK_1                  (ADC_JDR1_REGOFFSET | ADC_INJ_RANK_1_JSQR_BITOFFSET_POS)
1024:../system/include/stm32l4-hal-driver/stm32l4xx_ll_adc.h **** #define LL_ADC_INJ_RANK_2                  (ADC_JDR2_REGOFFSET | ADC_INJ_RANK_2_JSQR_BITOFFSET_POS)
1025:../system/include/stm32l4-hal-driver/stm32l4xx_ll_adc.h **** #define LL_ADC_INJ_RANK_3                  (ADC_JDR3_REGOFFSET | ADC_INJ_RANK_3_JSQR_BITOFFSET_POS)
1026:../system/include/stm32l4-hal-driver/stm32l4xx_ll_adc.h **** #define LL_ADC_INJ_RANK_4                  (ADC_JDR4_REGOFFSET | ADC_INJ_RANK_4_JSQR_BITOFFSET_POS)
1027:../system/include/stm32l4-hal-driver/stm32l4xx_ll_adc.h **** /**
1028:../system/include/stm32l4-hal-driver/stm32l4xx_ll_adc.h ****   * @}
1029:../system/include/stm32l4-hal-driver/stm32l4xx_ll_adc.h ****   */
1030:../system/include/stm32l4-hal-driver/stm32l4xx_ll_adc.h **** 
1031:../system/include/stm32l4-hal-driver/stm32l4xx_ll_adc.h **** /** @defgroup ADC_LL_EC_CHANNEL_SAMPLINGTIME  Channel - Sampling time
1032:../system/include/stm32l4-hal-driver/stm32l4xx_ll_adc.h ****   * @{
1033:../system/include/stm32l4-hal-driver/stm32l4xx_ll_adc.h ****   */
1034:../system/include/stm32l4-hal-driver/stm32l4xx_ll_adc.h **** #define LL_ADC_SAMPLINGTIME_2CYCLES_5      (0x00000000UL)                                          
1035:../system/include/stm32l4-hal-driver/stm32l4xx_ll_adc.h **** #define LL_ADC_SAMPLINGTIME_6CYCLES_5      (                                        ADC_SMPR2_SMP10
1036:../system/include/stm32l4-hal-driver/stm32l4xx_ll_adc.h **** #define LL_ADC_SAMPLINGTIME_12CYCLES_5     (                    ADC_SMPR2_SMP10_1                  
1037:../system/include/stm32l4-hal-driver/stm32l4xx_ll_adc.h **** #define LL_ADC_SAMPLINGTIME_24CYCLES_5     (                    ADC_SMPR2_SMP10_1 | ADC_SMPR2_SMP10
1038:../system/include/stm32l4-hal-driver/stm32l4xx_ll_adc.h **** #define LL_ADC_SAMPLINGTIME_47CYCLES_5     (ADC_SMPR2_SMP10_2                                      
1039:../system/include/stm32l4-hal-driver/stm32l4xx_ll_adc.h **** #define LL_ADC_SAMPLINGTIME_92CYCLES_5     (ADC_SMPR2_SMP10_2                     | ADC_SMPR2_SMP10
1040:../system/include/stm32l4-hal-driver/stm32l4xx_ll_adc.h **** #define LL_ADC_SAMPLINGTIME_247CYCLES_5    (ADC_SMPR2_SMP10_2 | ADC_SMPR2_SMP10_1                  
1041:../system/include/stm32l4-hal-driver/stm32l4xx_ll_adc.h **** #define LL_ADC_SAMPLINGTIME_640CYCLES_5    (ADC_SMPR2_SMP10_2 | ADC_SMPR2_SMP10_1 | ADC_SMPR2_SMP10
1042:../system/include/stm32l4-hal-driver/stm32l4xx_ll_adc.h **** /**
1043:../system/include/stm32l4-hal-driver/stm32l4xx_ll_adc.h ****   * @}
1044:../system/include/stm32l4-hal-driver/stm32l4xx_ll_adc.h ****   */
1045:../system/include/stm32l4-hal-driver/stm32l4xx_ll_adc.h **** 
1046:../system/include/stm32l4-hal-driver/stm32l4xx_ll_adc.h **** /** @defgroup ADC_LL_EC_CHANNEL_SINGLE_DIFF_ENDING  Channel - Single or differential ending
1047:../system/include/stm32l4-hal-driver/stm32l4xx_ll_adc.h ****   * @{
1048:../system/include/stm32l4-hal-driver/stm32l4xx_ll_adc.h ****   */
1049:../system/include/stm32l4-hal-driver/stm32l4xx_ll_adc.h **** #define LL_ADC_SINGLE_ENDED                (                  ADC_CALFACT_CALFACT_S)         /*!< A
1050:../system/include/stm32l4-hal-driver/stm32l4xx_ll_adc.h **** #define LL_ADC_DIFFERENTIAL_ENDED          (ADC_CR_ADCALDIF | ADC_CALFACT_CALFACT_D)         /*!< A
1051:../system/include/stm32l4-hal-driver/stm32l4xx_ll_adc.h **** #define LL_ADC_BOTH_SINGLE_DIFF_ENDED      (LL_ADC_SINGLE_ENDED | LL_ADC_DIFFERENTIAL_ENDED) /*!< A
1052:../system/include/stm32l4-hal-driver/stm32l4xx_ll_adc.h **** /**
1053:../system/include/stm32l4-hal-driver/stm32l4xx_ll_adc.h ****   * @}
1054:../system/include/stm32l4-hal-driver/stm32l4xx_ll_adc.h ****   */
1055:../system/include/stm32l4-hal-driver/stm32l4xx_ll_adc.h **** 
1056:../system/include/stm32l4-hal-driver/stm32l4xx_ll_adc.h **** /** @defgroup ADC_LL_EC_AWD_NUMBER Analog watchdog - Analog watchdog number
1057:../system/include/stm32l4-hal-driver/stm32l4xx_ll_adc.h ****   * @{
1058:../system/include/stm32l4-hal-driver/stm32l4xx_ll_adc.h ****   */
1059:../system/include/stm32l4-hal-driver/stm32l4xx_ll_adc.h **** #define LL_ADC_AWD1                        (ADC_AWD_CR1_CHANNEL_MASK  | ADC_AWD_CR1_REGOFFSET) /*!<
1060:../system/include/stm32l4-hal-driver/stm32l4xx_ll_adc.h **** #define LL_ADC_AWD2                        (ADC_AWD_CR23_CHANNEL_MASK | ADC_AWD_CR2_REGOFFSET) /*!<
1061:../system/include/stm32l4-hal-driver/stm32l4xx_ll_adc.h **** #define LL_ADC_AWD3                        (ADC_AWD_CR23_CHANNEL_MASK | ADC_AWD_CR3_REGOFFSET) /*!<
1062:../system/include/stm32l4-hal-driver/stm32l4xx_ll_adc.h **** /**
1063:../system/include/stm32l4-hal-driver/stm32l4xx_ll_adc.h ****   * @}
1064:../system/include/stm32l4-hal-driver/stm32l4xx_ll_adc.h ****   */
1065:../system/include/stm32l4-hal-driver/stm32l4xx_ll_adc.h **** 
1066:../system/include/stm32l4-hal-driver/stm32l4xx_ll_adc.h **** /** @defgroup ADC_LL_EC_AWD_CHANNELS  Analog watchdog - Monitored channels
1067:../system/include/stm32l4-hal-driver/stm32l4xx_ll_adc.h ****   * @{
1068:../system/include/stm32l4-hal-driver/stm32l4xx_ll_adc.h ****   */
1069:../system/include/stm32l4-hal-driver/stm32l4xx_ll_adc.h **** #define LL_ADC_AWD_DISABLE                 (0x00000000UL)                                          
1070:../system/include/stm32l4-hal-driver/stm32l4xx_ll_adc.h **** #define LL_ADC_AWD_ALL_CHANNELS_REG        (ADC_AWD_CR23_CHANNEL_MASK                              
1071:../system/include/stm32l4-hal-driver/stm32l4xx_ll_adc.h **** #define LL_ADC_AWD_ALL_CHANNELS_INJ        (ADC_AWD_CR23_CHANNEL_MASK                 | ADC_CFGR_JA
1072:../system/include/stm32l4-hal-driver/stm32l4xx_ll_adc.h **** #define LL_ADC_AWD_ALL_CHANNELS_REG_INJ    (ADC_AWD_CR23_CHANNEL_MASK                 | ADC_CFGR_JA
1073:../system/include/stm32l4-hal-driver/stm32l4xx_ll_adc.h **** #define LL_ADC_AWD_CHANNEL_0_REG           ((LL_ADC_CHANNEL_0  & ADC_CHANNEL_ID_MASK)              
1074:../system/include/stm32l4-hal-driver/stm32l4xx_ll_adc.h **** #define LL_ADC_AWD_CHANNEL_0_INJ           ((LL_ADC_CHANNEL_0  & ADC_CHANNEL_ID_MASK) | ADC_CFGR_JA
1075:../system/include/stm32l4-hal-driver/stm32l4xx_ll_adc.h **** #define LL_ADC_AWD_CHANNEL_0_REG_INJ       ((LL_ADC_CHANNEL_0  & ADC_CHANNEL_ID_MASK) | ADC_CFGR_JA
1076:../system/include/stm32l4-hal-driver/stm32l4xx_ll_adc.h **** #define LL_ADC_AWD_CHANNEL_1_REG           ((LL_ADC_CHANNEL_1  & ADC_CHANNEL_ID_MASK)              
1077:../system/include/stm32l4-hal-driver/stm32l4xx_ll_adc.h **** #define LL_ADC_AWD_CHANNEL_1_INJ           ((LL_ADC_CHANNEL_1  & ADC_CHANNEL_ID_MASK) | ADC_CFGR_JA
1078:../system/include/stm32l4-hal-driver/stm32l4xx_ll_adc.h **** #define LL_ADC_AWD_CHANNEL_1_REG_INJ       ((LL_ADC_CHANNEL_1  & ADC_CHANNEL_ID_MASK) | ADC_CFGR_JA
1079:../system/include/stm32l4-hal-driver/stm32l4xx_ll_adc.h **** #define LL_ADC_AWD_CHANNEL_2_REG           ((LL_ADC_CHANNEL_2  & ADC_CHANNEL_ID_MASK)              
1080:../system/include/stm32l4-hal-driver/stm32l4xx_ll_adc.h **** #define LL_ADC_AWD_CHANNEL_2_INJ           ((LL_ADC_CHANNEL_2  & ADC_CHANNEL_ID_MASK) | ADC_CFGR_JA
1081:../system/include/stm32l4-hal-driver/stm32l4xx_ll_adc.h **** #define LL_ADC_AWD_CHANNEL_2_REG_INJ       ((LL_ADC_CHANNEL_2  & ADC_CHANNEL_ID_MASK) | ADC_CFGR_JA
1082:../system/include/stm32l4-hal-driver/stm32l4xx_ll_adc.h **** #define LL_ADC_AWD_CHANNEL_3_REG           ((LL_ADC_CHANNEL_3  & ADC_CHANNEL_ID_MASK)              
1083:../system/include/stm32l4-hal-driver/stm32l4xx_ll_adc.h **** #define LL_ADC_AWD_CHANNEL_3_INJ           ((LL_ADC_CHANNEL_3  & ADC_CHANNEL_ID_MASK) | ADC_CFGR_JA
1084:../system/include/stm32l4-hal-driver/stm32l4xx_ll_adc.h **** #define LL_ADC_AWD_CHANNEL_3_REG_INJ       ((LL_ADC_CHANNEL_3  & ADC_CHANNEL_ID_MASK) | ADC_CFGR_JA
1085:../system/include/stm32l4-hal-driver/stm32l4xx_ll_adc.h **** #define LL_ADC_AWD_CHANNEL_4_REG           ((LL_ADC_CHANNEL_4  & ADC_CHANNEL_ID_MASK)              
1086:../system/include/stm32l4-hal-driver/stm32l4xx_ll_adc.h **** #define LL_ADC_AWD_CHANNEL_4_INJ           ((LL_ADC_CHANNEL_4  & ADC_CHANNEL_ID_MASK) | ADC_CFGR_JA
1087:../system/include/stm32l4-hal-driver/stm32l4xx_ll_adc.h **** #define LL_ADC_AWD_CHANNEL_4_REG_INJ       ((LL_ADC_CHANNEL_4  & ADC_CHANNEL_ID_MASK) | ADC_CFGR_JA
1088:../system/include/stm32l4-hal-driver/stm32l4xx_ll_adc.h **** #define LL_ADC_AWD_CHANNEL_5_REG           ((LL_ADC_CHANNEL_5  & ADC_CHANNEL_ID_MASK)              
1089:../system/include/stm32l4-hal-driver/stm32l4xx_ll_adc.h **** #define LL_ADC_AWD_CHANNEL_5_INJ           ((LL_ADC_CHANNEL_5  & ADC_CHANNEL_ID_MASK) | ADC_CFGR_JA
1090:../system/include/stm32l4-hal-driver/stm32l4xx_ll_adc.h **** #define LL_ADC_AWD_CHANNEL_5_REG_INJ       ((LL_ADC_CHANNEL_5  & ADC_CHANNEL_ID_MASK) | ADC_CFGR_JA
1091:../system/include/stm32l4-hal-driver/stm32l4xx_ll_adc.h **** #define LL_ADC_AWD_CHANNEL_6_REG           ((LL_ADC_CHANNEL_6  & ADC_CHANNEL_ID_MASK)              
1092:../system/include/stm32l4-hal-driver/stm32l4xx_ll_adc.h **** #define LL_ADC_AWD_CHANNEL_6_INJ           ((LL_ADC_CHANNEL_6  & ADC_CHANNEL_ID_MASK) | ADC_CFGR_JA
1093:../system/include/stm32l4-hal-driver/stm32l4xx_ll_adc.h **** #define LL_ADC_AWD_CHANNEL_6_REG_INJ       ((LL_ADC_CHANNEL_6  & ADC_CHANNEL_ID_MASK) | ADC_CFGR_JA
1094:../system/include/stm32l4-hal-driver/stm32l4xx_ll_adc.h **** #define LL_ADC_AWD_CHANNEL_7_REG           ((LL_ADC_CHANNEL_7  & ADC_CHANNEL_ID_MASK)              
1095:../system/include/stm32l4-hal-driver/stm32l4xx_ll_adc.h **** #define LL_ADC_AWD_CHANNEL_7_INJ           ((LL_ADC_CHANNEL_7  & ADC_CHANNEL_ID_MASK) | ADC_CFGR_JA
1096:../system/include/stm32l4-hal-driver/stm32l4xx_ll_adc.h **** #define LL_ADC_AWD_CHANNEL_7_REG_INJ       ((LL_ADC_CHANNEL_7  & ADC_CHANNEL_ID_MASK) | ADC_CFGR_JA
1097:../system/include/stm32l4-hal-driver/stm32l4xx_ll_adc.h **** #define LL_ADC_AWD_CHANNEL_8_REG           ((LL_ADC_CHANNEL_8  & ADC_CHANNEL_ID_MASK)              
1098:../system/include/stm32l4-hal-driver/stm32l4xx_ll_adc.h **** #define LL_ADC_AWD_CHANNEL_8_INJ           ((LL_ADC_CHANNEL_8  & ADC_CHANNEL_ID_MASK) | ADC_CFGR_JA
1099:../system/include/stm32l4-hal-driver/stm32l4xx_ll_adc.h **** #define LL_ADC_AWD_CHANNEL_8_REG_INJ       ((LL_ADC_CHANNEL_8  & ADC_CHANNEL_ID_MASK) | ADC_CFGR_JA
1100:../system/include/stm32l4-hal-driver/stm32l4xx_ll_adc.h **** #define LL_ADC_AWD_CHANNEL_9_REG           ((LL_ADC_CHANNEL_9  & ADC_CHANNEL_ID_MASK)              
1101:../system/include/stm32l4-hal-driver/stm32l4xx_ll_adc.h **** #define LL_ADC_AWD_CHANNEL_9_INJ           ((LL_ADC_CHANNEL_9  & ADC_CHANNEL_ID_MASK) | ADC_CFGR_JA
1102:../system/include/stm32l4-hal-driver/stm32l4xx_ll_adc.h **** #define LL_ADC_AWD_CHANNEL_9_REG_INJ       ((LL_ADC_CHANNEL_9  & ADC_CHANNEL_ID_MASK) | ADC_CFGR_JA
1103:../system/include/stm32l4-hal-driver/stm32l4xx_ll_adc.h **** #define LL_ADC_AWD_CHANNEL_10_REG          ((LL_ADC_CHANNEL_10 & ADC_CHANNEL_ID_MASK)              
1104:../system/include/stm32l4-hal-driver/stm32l4xx_ll_adc.h **** #define LL_ADC_AWD_CHANNEL_10_INJ          ((LL_ADC_CHANNEL_10 & ADC_CHANNEL_ID_MASK) | ADC_CFGR_JA
1105:../system/include/stm32l4-hal-driver/stm32l4xx_ll_adc.h **** #define LL_ADC_AWD_CHANNEL_10_REG_INJ      ((LL_ADC_CHANNEL_10 & ADC_CHANNEL_ID_MASK) | ADC_CFGR_JA
1106:../system/include/stm32l4-hal-driver/stm32l4xx_ll_adc.h **** #define LL_ADC_AWD_CHANNEL_11_REG          ((LL_ADC_CHANNEL_11 & ADC_CHANNEL_ID_MASK)              
1107:../system/include/stm32l4-hal-driver/stm32l4xx_ll_adc.h **** #define LL_ADC_AWD_CHANNEL_11_INJ          ((LL_ADC_CHANNEL_11 & ADC_CHANNEL_ID_MASK) | ADC_CFGR_JA
1108:../system/include/stm32l4-hal-driver/stm32l4xx_ll_adc.h **** #define LL_ADC_AWD_CHANNEL_11_REG_INJ      ((LL_ADC_CHANNEL_11 & ADC_CHANNEL_ID_MASK) | ADC_CFGR_JA
1109:../system/include/stm32l4-hal-driver/stm32l4xx_ll_adc.h **** #define LL_ADC_AWD_CHANNEL_12_REG          ((LL_ADC_CHANNEL_12 & ADC_CHANNEL_ID_MASK)              
1110:../system/include/stm32l4-hal-driver/stm32l4xx_ll_adc.h **** #define LL_ADC_AWD_CHANNEL_12_INJ          ((LL_ADC_CHANNEL_12 & ADC_CHANNEL_ID_MASK) | ADC_CFGR_JA
1111:../system/include/stm32l4-hal-driver/stm32l4xx_ll_adc.h **** #define LL_ADC_AWD_CHANNEL_12_REG_INJ      ((LL_ADC_CHANNEL_12 & ADC_CHANNEL_ID_MASK) | ADC_CFGR_JA
1112:../system/include/stm32l4-hal-driver/stm32l4xx_ll_adc.h **** #define LL_ADC_AWD_CHANNEL_13_REG          ((LL_ADC_CHANNEL_13 & ADC_CHANNEL_ID_MASK)              
1113:../system/include/stm32l4-hal-driver/stm32l4xx_ll_adc.h **** #define LL_ADC_AWD_CHANNEL_13_INJ          ((LL_ADC_CHANNEL_13 & ADC_CHANNEL_ID_MASK) | ADC_CFGR_JA
1114:../system/include/stm32l4-hal-driver/stm32l4xx_ll_adc.h **** #define LL_ADC_AWD_CHANNEL_13_REG_INJ      ((LL_ADC_CHANNEL_13 & ADC_CHANNEL_ID_MASK) | ADC_CFGR_JA
1115:../system/include/stm32l4-hal-driver/stm32l4xx_ll_adc.h **** #define LL_ADC_AWD_CHANNEL_14_REG          ((LL_ADC_CHANNEL_14 & ADC_CHANNEL_ID_MASK)              
1116:../system/include/stm32l4-hal-driver/stm32l4xx_ll_adc.h **** #define LL_ADC_AWD_CHANNEL_14_INJ          ((LL_ADC_CHANNEL_14 & ADC_CHANNEL_ID_MASK) | ADC_CFGR_JA
1117:../system/include/stm32l4-hal-driver/stm32l4xx_ll_adc.h **** #define LL_ADC_AWD_CHANNEL_14_REG_INJ      ((LL_ADC_CHANNEL_14 & ADC_CHANNEL_ID_MASK) | ADC_CFGR_JA
1118:../system/include/stm32l4-hal-driver/stm32l4xx_ll_adc.h **** #define LL_ADC_AWD_CHANNEL_15_REG          ((LL_ADC_CHANNEL_15 & ADC_CHANNEL_ID_MASK)              
1119:../system/include/stm32l4-hal-driver/stm32l4xx_ll_adc.h **** #define LL_ADC_AWD_CHANNEL_15_INJ          ((LL_ADC_CHANNEL_15 & ADC_CHANNEL_ID_MASK) | ADC_CFGR_JA
1120:../system/include/stm32l4-hal-driver/stm32l4xx_ll_adc.h **** #define LL_ADC_AWD_CHANNEL_15_REG_INJ      ((LL_ADC_CHANNEL_15 & ADC_CHANNEL_ID_MASK) | ADC_CFGR_JA
1121:../system/include/stm32l4-hal-driver/stm32l4xx_ll_adc.h **** #define LL_ADC_AWD_CHANNEL_16_REG          ((LL_ADC_CHANNEL_16 & ADC_CHANNEL_ID_MASK)              
1122:../system/include/stm32l4-hal-driver/stm32l4xx_ll_adc.h **** #define LL_ADC_AWD_CHANNEL_16_INJ          ((LL_ADC_CHANNEL_16 & ADC_CHANNEL_ID_MASK) | ADC_CFGR_JA
1123:../system/include/stm32l4-hal-driver/stm32l4xx_ll_adc.h **** #define LL_ADC_AWD_CHANNEL_16_REG_INJ      ((LL_ADC_CHANNEL_16 & ADC_CHANNEL_ID_MASK) | ADC_CFGR_JA
1124:../system/include/stm32l4-hal-driver/stm32l4xx_ll_adc.h **** #define LL_ADC_AWD_CHANNEL_17_REG          ((LL_ADC_CHANNEL_17 & ADC_CHANNEL_ID_MASK)              
1125:../system/include/stm32l4-hal-driver/stm32l4xx_ll_adc.h **** #define LL_ADC_AWD_CHANNEL_17_INJ          ((LL_ADC_CHANNEL_17 & ADC_CHANNEL_ID_MASK) | ADC_CFGR_JA
1126:../system/include/stm32l4-hal-driver/stm32l4xx_ll_adc.h **** #define LL_ADC_AWD_CHANNEL_17_REG_INJ      ((LL_ADC_CHANNEL_17 & ADC_CHANNEL_ID_MASK) | ADC_CFGR_JA
1127:../system/include/stm32l4-hal-driver/stm32l4xx_ll_adc.h **** #define LL_ADC_AWD_CHANNEL_18_REG          ((LL_ADC_CHANNEL_18 & ADC_CHANNEL_ID_MASK)              
1128:../system/include/stm32l4-hal-driver/stm32l4xx_ll_adc.h **** #define LL_ADC_AWD_CHANNEL_18_INJ          ((LL_ADC_CHANNEL_18 & ADC_CHANNEL_ID_MASK) | ADC_CFGR_JA
1129:../system/include/stm32l4-hal-driver/stm32l4xx_ll_adc.h **** #define LL_ADC_AWD_CHANNEL_18_REG_INJ      ((LL_ADC_CHANNEL_18 & ADC_CHANNEL_ID_MASK) | ADC_CFGR_JA
1130:../system/include/stm32l4-hal-driver/stm32l4xx_ll_adc.h **** #define LL_ADC_AWD_CH_VREFINT_REG          ((LL_ADC_CHANNEL_VREFINT       & ADC_CHANNEL_ID_MASK)   
1131:../system/include/stm32l4-hal-driver/stm32l4xx_ll_adc.h **** #define LL_ADC_AWD_CH_VREFINT_INJ          ((LL_ADC_CHANNEL_VREFINT       & ADC_CHANNEL_ID_MASK) | 
1132:../system/include/stm32l4-hal-driver/stm32l4xx_ll_adc.h **** #define LL_ADC_AWD_CH_VREFINT_REG_INJ      ((LL_ADC_CHANNEL_VREFINT       & ADC_CHANNEL_ID_MASK) | 
1133:../system/include/stm32l4-hal-driver/stm32l4xx_ll_adc.h **** #define LL_ADC_AWD_CH_TEMPSENSOR_REG       ((LL_ADC_CHANNEL_TEMPSENSOR    & ADC_CHANNEL_ID_MASK)   
1134:../system/include/stm32l4-hal-driver/stm32l4xx_ll_adc.h **** #define LL_ADC_AWD_CH_TEMPSENSOR_INJ       ((LL_ADC_CHANNEL_TEMPSENSOR    & ADC_CHANNEL_ID_MASK) | 
1135:../system/include/stm32l4-hal-driver/stm32l4xx_ll_adc.h **** #define LL_ADC_AWD_CH_TEMPSENSOR_REG_INJ   ((LL_ADC_CHANNEL_TEMPSENSOR    & ADC_CHANNEL_ID_MASK) | 
1136:../system/include/stm32l4-hal-driver/stm32l4xx_ll_adc.h **** #define LL_ADC_AWD_CH_VBAT_REG             ((LL_ADC_CHANNEL_VBAT          & ADC_CHANNEL_ID_MASK)   
1137:../system/include/stm32l4-hal-driver/stm32l4xx_ll_adc.h **** #define LL_ADC_AWD_CH_VBAT_INJ             ((LL_ADC_CHANNEL_VBAT          & ADC_CHANNEL_ID_MASK) | 
1138:../system/include/stm32l4-hal-driver/stm32l4xx_ll_adc.h **** #define LL_ADC_AWD_CH_VBAT_REG_INJ         ((LL_ADC_CHANNEL_VBAT          & ADC_CHANNEL_ID_MASK) | 
1139:../system/include/stm32l4-hal-driver/stm32l4xx_ll_adc.h **** #if defined(ADC1) && !defined(ADC2)
1140:../system/include/stm32l4-hal-driver/stm32l4xx_ll_adc.h **** #define LL_ADC_AWD_CH_DAC1CH1_REG          ((LL_ADC_CHANNEL_DAC1CH1       & ADC_CHANNEL_ID_MASK)   
1141:../system/include/stm32l4-hal-driver/stm32l4xx_ll_adc.h **** #define LL_ADC_AWD_CH_DAC1CH1_INJ          ((LL_ADC_CHANNEL_DAC1CH1       & ADC_CHANNEL_ID_MASK) | 
1142:../system/include/stm32l4-hal-driver/stm32l4xx_ll_adc.h **** #define LL_ADC_AWD_CH_DAC1CH1_REG_INJ      ((LL_ADC_CHANNEL_DAC1CH1       & ADC_CHANNEL_ID_MASK) | 
1143:../system/include/stm32l4-hal-driver/stm32l4xx_ll_adc.h **** #define LL_ADC_AWD_CH_DAC1CH2_REG          ((LL_ADC_CHANNEL_DAC1CH2       & ADC_CHANNEL_ID_MASK)   
1144:../system/include/stm32l4-hal-driver/stm32l4xx_ll_adc.h **** #define LL_ADC_AWD_CH_DAC1CH2_INJ          ((LL_ADC_CHANNEL_DAC1CH2       & ADC_CHANNEL_ID_MASK) | 
1145:../system/include/stm32l4-hal-driver/stm32l4xx_ll_adc.h **** #define LL_ADC_AWD_CH_DAC1CH2_REG_INJ      ((LL_ADC_CHANNEL_DAC1CH2       & ADC_CHANNEL_ID_MASK) | 
1146:../system/include/stm32l4-hal-driver/stm32l4xx_ll_adc.h **** #elif defined(ADC2)
1147:../system/include/stm32l4-hal-driver/stm32l4xx_ll_adc.h **** #define LL_ADC_AWD_CH_DAC1CH1_ADC2_REG     ((LL_ADC_CHANNEL_DAC1CH1_ADC2  & ADC_CHANNEL_ID_MASK)   
1148:../system/include/stm32l4-hal-driver/stm32l4xx_ll_adc.h **** #define LL_ADC_AWD_CH_DAC1CH1_ADC2_INJ     ((LL_ADC_CHANNEL_DAC1CH1_ADC2  & ADC_CHANNEL_ID_MASK) | 
1149:../system/include/stm32l4-hal-driver/stm32l4xx_ll_adc.h **** #define LL_ADC_AWD_CH_DAC1CH1_ADC2_REG_INJ ((LL_ADC_CHANNEL_DAC1CH1_ADC2  & ADC_CHANNEL_ID_MASK) | 
1150:../system/include/stm32l4-hal-driver/stm32l4xx_ll_adc.h **** #define LL_ADC_AWD_CH_DAC1CH2_ADC2_REG     ((LL_ADC_CHANNEL_DAC1CH2_ADC2  & ADC_CHANNEL_ID_MASK)   
1151:../system/include/stm32l4-hal-driver/stm32l4xx_ll_adc.h **** #define LL_ADC_AWD_CH_DAC1CH2_ADC2_INJ     ((LL_ADC_CHANNEL_DAC1CH2_ADC2  & ADC_CHANNEL_ID_MASK) | 
1152:../system/include/stm32l4-hal-driver/stm32l4xx_ll_adc.h **** #define LL_ADC_AWD_CH_DAC1CH2_ADC2_REG_INJ ((LL_ADC_CHANNEL_DAC1CH2_ADC2  & ADC_CHANNEL_ID_MASK) | 
1153:../system/include/stm32l4-hal-driver/stm32l4xx_ll_adc.h **** #if defined(ADC3)
1154:../system/include/stm32l4-hal-driver/stm32l4xx_ll_adc.h **** #define LL_ADC_AWD_CH_DAC1CH1_ADC3_REG     ((LL_ADC_CHANNEL_DAC1CH1_ADC3  & ADC_CHANNEL_ID_MASK)   
1155:../system/include/stm32l4-hal-driver/stm32l4xx_ll_adc.h **** #define LL_ADC_AWD_CH_DAC1CH1_ADC3_INJ     ((LL_ADC_CHANNEL_DAC1CH1_ADC3  & ADC_CHANNEL_ID_MASK) | 
1156:../system/include/stm32l4-hal-driver/stm32l4xx_ll_adc.h **** #define LL_ADC_AWD_CH_DAC1CH1_ADC3_REG_INJ ((LL_ADC_CHANNEL_DAC1CH1_ADC3  & ADC_CHANNEL_ID_MASK) | 
1157:../system/include/stm32l4-hal-driver/stm32l4xx_ll_adc.h **** #define LL_ADC_AWD_CH_DAC1CH2_ADC3_REG     ((LL_ADC_CHANNEL_DAC1CH2_ADC3  & ADC_CHANNEL_ID_MASK)   
1158:../system/include/stm32l4-hal-driver/stm32l4xx_ll_adc.h **** #define LL_ADC_AWD_CH_DAC1CH2_ADC3_INJ     ((LL_ADC_CHANNEL_DAC1CH2_ADC3  & ADC_CHANNEL_ID_MASK) | 
1159:../system/include/stm32l4-hal-driver/stm32l4xx_ll_adc.h **** #define LL_ADC_AWD_CH_DAC1CH2_ADC3_REG_INJ ((LL_ADC_CHANNEL_DAC1CH2_ADC3  & ADC_CHANNEL_ID_MASK) | 
1160:../system/include/stm32l4-hal-driver/stm32l4xx_ll_adc.h **** #endif /* ADC3 */
1161:../system/include/stm32l4-hal-driver/stm32l4xx_ll_adc.h **** #endif /* ADC1 && !ADC2 */
1162:../system/include/stm32l4-hal-driver/stm32l4xx_ll_adc.h **** /**
1163:../system/include/stm32l4-hal-driver/stm32l4xx_ll_adc.h ****   * @}
1164:../system/include/stm32l4-hal-driver/stm32l4xx_ll_adc.h ****   */
1165:../system/include/stm32l4-hal-driver/stm32l4xx_ll_adc.h **** 
1166:../system/include/stm32l4-hal-driver/stm32l4xx_ll_adc.h **** /** @defgroup ADC_LL_EC_AWD_THRESHOLDS  Analog watchdog - Thresholds
1167:../system/include/stm32l4-hal-driver/stm32l4xx_ll_adc.h ****   * @{
1168:../system/include/stm32l4-hal-driver/stm32l4xx_ll_adc.h ****   */
1169:../system/include/stm32l4-hal-driver/stm32l4xx_ll_adc.h **** #define LL_ADC_AWD_THRESHOLD_HIGH          (ADC_TR1_HT1              ) /*!< ADC analog watchdog thr
1170:../system/include/stm32l4-hal-driver/stm32l4xx_ll_adc.h **** #define LL_ADC_AWD_THRESHOLD_LOW           (              ADC_TR1_LT1) /*!< ADC analog watchdog thr
1171:../system/include/stm32l4-hal-driver/stm32l4xx_ll_adc.h **** #define LL_ADC_AWD_THRESHOLDS_HIGH_LOW     (ADC_TR1_HT1 | ADC_TR1_LT1) /*!< ADC analog watchdog bot
1172:../system/include/stm32l4-hal-driver/stm32l4xx_ll_adc.h **** /**
1173:../system/include/stm32l4-hal-driver/stm32l4xx_ll_adc.h ****   * @}
1174:../system/include/stm32l4-hal-driver/stm32l4xx_ll_adc.h ****   */
1175:../system/include/stm32l4-hal-driver/stm32l4xx_ll_adc.h **** 
1176:../system/include/stm32l4-hal-driver/stm32l4xx_ll_adc.h **** /** @defgroup ADC_LL_EC_OVS_SCOPE  Oversampling - Oversampling scope
1177:../system/include/stm32l4-hal-driver/stm32l4xx_ll_adc.h ****   * @{
1178:../system/include/stm32l4-hal-driver/stm32l4xx_ll_adc.h ****   */
1179:../system/include/stm32l4-hal-driver/stm32l4xx_ll_adc.h **** #define LL_ADC_OVS_DISABLE                 (0x00000000UL)                                        /*
1180:../system/include/stm32l4-hal-driver/stm32l4xx_ll_adc.h **** #define LL_ADC_OVS_GRP_REGULAR_CONTINUED   (                                    ADC_CFGR2_ROVSE) /*
1181:../system/include/stm32l4-hal-driver/stm32l4xx_ll_adc.h **** #define LL_ADC_OVS_GRP_REGULAR_RESUMED     (ADC_CFGR2_ROVSM |                   ADC_CFGR2_ROVSE) /*
1182:../system/include/stm32l4-hal-driver/stm32l4xx_ll_adc.h **** #define LL_ADC_OVS_GRP_INJECTED            (                  ADC_CFGR2_JOVSE                  ) /*
1183:../system/include/stm32l4-hal-driver/stm32l4xx_ll_adc.h **** #define LL_ADC_OVS_GRP_INJ_REG_RESUMED     (                  ADC_CFGR2_JOVSE | ADC_CFGR2_ROVSE) /*
1184:../system/include/stm32l4-hal-driver/stm32l4xx_ll_adc.h **** /**
1185:../system/include/stm32l4-hal-driver/stm32l4xx_ll_adc.h ****   * @}
1186:../system/include/stm32l4-hal-driver/stm32l4xx_ll_adc.h ****   */
1187:../system/include/stm32l4-hal-driver/stm32l4xx_ll_adc.h **** 
1188:../system/include/stm32l4-hal-driver/stm32l4xx_ll_adc.h **** /** @defgroup ADC_LL_EC_OVS_DISCONT_MODE  Oversampling - Discontinuous mode
1189:../system/include/stm32l4-hal-driver/stm32l4xx_ll_adc.h ****   * @{
1190:../system/include/stm32l4-hal-driver/stm32l4xx_ll_adc.h ****   */
1191:../system/include/stm32l4-hal-driver/stm32l4xx_ll_adc.h **** #define LL_ADC_OVS_REG_CONT                (0x00000000UL)         /*!< ADC oversampling discontinuo
1192:../system/include/stm32l4-hal-driver/stm32l4xx_ll_adc.h **** #define LL_ADC_OVS_REG_DISCONT             (ADC_CFGR2_TROVS)      /*!< ADC oversampling discontinuo
1193:../system/include/stm32l4-hal-driver/stm32l4xx_ll_adc.h **** /**
1194:../system/include/stm32l4-hal-driver/stm32l4xx_ll_adc.h ****   * @}
1195:../system/include/stm32l4-hal-driver/stm32l4xx_ll_adc.h ****   */
1196:../system/include/stm32l4-hal-driver/stm32l4xx_ll_adc.h **** 
1197:../system/include/stm32l4-hal-driver/stm32l4xx_ll_adc.h **** /** @defgroup ADC_LL_EC_OVS_RATIO  Oversampling - Ratio
1198:../system/include/stm32l4-hal-driver/stm32l4xx_ll_adc.h ****   * @{
1199:../system/include/stm32l4-hal-driver/stm32l4xx_ll_adc.h ****   */
1200:../system/include/stm32l4-hal-driver/stm32l4xx_ll_adc.h **** #define LL_ADC_OVS_RATIO_2                 (0x00000000UL)                                          
1201:../system/include/stm32l4-hal-driver/stm32l4xx_ll_adc.h **** #define LL_ADC_OVS_RATIO_4                 (                                      ADC_CFGR2_OVSR_0)
1202:../system/include/stm32l4-hal-driver/stm32l4xx_ll_adc.h **** #define LL_ADC_OVS_RATIO_8                 (                   ADC_CFGR2_OVSR_1                   )
1203:../system/include/stm32l4-hal-driver/stm32l4xx_ll_adc.h **** #define LL_ADC_OVS_RATIO_16                (                   ADC_CFGR2_OVSR_1 | ADC_CFGR2_OVSR_0)
1204:../system/include/stm32l4-hal-driver/stm32l4xx_ll_adc.h **** #define LL_ADC_OVS_RATIO_32                (ADC_CFGR2_OVSR_2                                      )
1205:../system/include/stm32l4-hal-driver/stm32l4xx_ll_adc.h **** #define LL_ADC_OVS_RATIO_64                (ADC_CFGR2_OVSR_2                    | ADC_CFGR2_OVSR_0)
1206:../system/include/stm32l4-hal-driver/stm32l4xx_ll_adc.h **** #define LL_ADC_OVS_RATIO_128               (ADC_CFGR2_OVSR_2 | ADC_CFGR2_OVSR_1                   )
1207:../system/include/stm32l4-hal-driver/stm32l4xx_ll_adc.h **** #define LL_ADC_OVS_RATIO_256               (ADC_CFGR2_OVSR_2 | ADC_CFGR2_OVSR_1 | ADC_CFGR2_OVSR_0)
1208:../system/include/stm32l4-hal-driver/stm32l4xx_ll_adc.h **** /**
1209:../system/include/stm32l4-hal-driver/stm32l4xx_ll_adc.h ****   * @}
1210:../system/include/stm32l4-hal-driver/stm32l4xx_ll_adc.h ****   */
1211:../system/include/stm32l4-hal-driver/stm32l4xx_ll_adc.h **** 
1212:../system/include/stm32l4-hal-driver/stm32l4xx_ll_adc.h **** /** @defgroup ADC_LL_EC_OVS_SHIFT  Oversampling - Data shift
1213:../system/include/stm32l4-hal-driver/stm32l4xx_ll_adc.h ****   * @{
1214:../system/include/stm32l4-hal-driver/stm32l4xx_ll_adc.h ****   */
1215:../system/include/stm32l4-hal-driver/stm32l4xx_ll_adc.h **** #define LL_ADC_OVS_SHIFT_NONE              (0x00000000UL)                                          
1216:../system/include/stm32l4-hal-driver/stm32l4xx_ll_adc.h **** #define LL_ADC_OVS_SHIFT_RIGHT_1           (                                                       
1217:../system/include/stm32l4-hal-driver/stm32l4xx_ll_adc.h **** #define LL_ADC_OVS_SHIFT_RIGHT_2           (                                      ADC_CFGR2_OVSS_1 
1218:../system/include/stm32l4-hal-driver/stm32l4xx_ll_adc.h **** #define LL_ADC_OVS_SHIFT_RIGHT_3           (                                      ADC_CFGR2_OVSS_1 
1219:../system/include/stm32l4-hal-driver/stm32l4xx_ll_adc.h **** #define LL_ADC_OVS_SHIFT_RIGHT_4           (                   ADC_CFGR2_OVSS_2                    
1220:../system/include/stm32l4-hal-driver/stm32l4xx_ll_adc.h **** #define LL_ADC_OVS_SHIFT_RIGHT_5           (                   ADC_CFGR2_OVSS_2                    
1221:../system/include/stm32l4-hal-driver/stm32l4xx_ll_adc.h **** #define LL_ADC_OVS_SHIFT_RIGHT_6           (                   ADC_CFGR2_OVSS_2 | ADC_CFGR2_OVSS_1 
1222:../system/include/stm32l4-hal-driver/stm32l4xx_ll_adc.h **** #define LL_ADC_OVS_SHIFT_RIGHT_7           (                   ADC_CFGR2_OVSS_2 | ADC_CFGR2_OVSS_1 
1223:../system/include/stm32l4-hal-driver/stm32l4xx_ll_adc.h **** #define LL_ADC_OVS_SHIFT_RIGHT_8           (ADC_CFGR2_OVSS_3                                       
1224:../system/include/stm32l4-hal-driver/stm32l4xx_ll_adc.h **** /**
1225:../system/include/stm32l4-hal-driver/stm32l4xx_ll_adc.h ****   * @}
1226:../system/include/stm32l4-hal-driver/stm32l4xx_ll_adc.h ****   */
1227:../system/include/stm32l4-hal-driver/stm32l4xx_ll_adc.h **** 
1228:../system/include/stm32l4-hal-driver/stm32l4xx_ll_adc.h **** #if defined(ADC_MULTIMODE_SUPPORT)
1229:../system/include/stm32l4-hal-driver/stm32l4xx_ll_adc.h **** /** @defgroup ADC_LL_EC_MULTI_MODE  Multimode - Mode
1230:../system/include/stm32l4-hal-driver/stm32l4xx_ll_adc.h ****   * @{
1231:../system/include/stm32l4-hal-driver/stm32l4xx_ll_adc.h ****   */
1232:../system/include/stm32l4-hal-driver/stm32l4xx_ll_adc.h **** #define LL_ADC_MULTI_INDEPENDENT           (0x00000000UL)                                          
1233:../system/include/stm32l4-hal-driver/stm32l4xx_ll_adc.h **** #define LL_ADC_MULTI_DUAL_REG_SIMULT       (                 ADC_CCR_DUAL_2 | ADC_CCR_DUAL_1       
1234:../system/include/stm32l4-hal-driver/stm32l4xx_ll_adc.h **** #define LL_ADC_MULTI_DUAL_REG_INTERL       (                 ADC_CCR_DUAL_2 | ADC_CCR_DUAL_1 | ADC_
1235:../system/include/stm32l4-hal-driver/stm32l4xx_ll_adc.h **** #define LL_ADC_MULTI_DUAL_INJ_SIMULT       (                 ADC_CCR_DUAL_2                  | ADC_
1236:../system/include/stm32l4-hal-driver/stm32l4xx_ll_adc.h **** #define LL_ADC_MULTI_DUAL_INJ_ALTERN       (ADC_CCR_DUAL_3                                   | ADC_
1237:../system/include/stm32l4-hal-driver/stm32l4xx_ll_adc.h **** #define LL_ADC_MULTI_DUAL_REG_SIM_INJ_SIM  (                                                   ADC_
1238:../system/include/stm32l4-hal-driver/stm32l4xx_ll_adc.h **** #define LL_ADC_MULTI_DUAL_REG_SIM_INJ_ALT  (                                  ADC_CCR_DUAL_1       
1239:../system/include/stm32l4-hal-driver/stm32l4xx_ll_adc.h **** #define LL_ADC_MULTI_DUAL_REG_INT_INJ_SIM  (                                  ADC_CCR_DUAL_1 | ADC_
1240:../system/include/stm32l4-hal-driver/stm32l4xx_ll_adc.h **** /**
1241:../system/include/stm32l4-hal-driver/stm32l4xx_ll_adc.h ****   * @}
1242:../system/include/stm32l4-hal-driver/stm32l4xx_ll_adc.h ****   */
1243:../system/include/stm32l4-hal-driver/stm32l4xx_ll_adc.h **** 
1244:../system/include/stm32l4-hal-driver/stm32l4xx_ll_adc.h **** /** @defgroup ADC_LL_EC_MULTI_DMA_TRANSFER  Multimode - DMA transfer
1245:../system/include/stm32l4-hal-driver/stm32l4xx_ll_adc.h ****   * @{
1246:../system/include/stm32l4-hal-driver/stm32l4xx_ll_adc.h ****   */
1247:../system/include/stm32l4-hal-driver/stm32l4xx_ll_adc.h **** #define LL_ADC_MULTI_REG_DMA_EACH_ADC        (0x00000000UL)                                     /*!
1248:../system/include/stm32l4-hal-driver/stm32l4xx_ll_adc.h **** #define LL_ADC_MULTI_REG_DMA_LIMIT_RES12_10B (                 ADC_CCR_MDMA_1                 ) /*!
1249:../system/include/stm32l4-hal-driver/stm32l4xx_ll_adc.h **** #define LL_ADC_MULTI_REG_DMA_LIMIT_RES8_6B   (                 ADC_CCR_MDMA_1 | ADC_CCR_MDMA_0) /*!
1250:../system/include/stm32l4-hal-driver/stm32l4xx_ll_adc.h **** #define LL_ADC_MULTI_REG_DMA_UNLMT_RES12_10B (ADC_CCR_DMACFG | ADC_CCR_MDMA_1                 ) /*!
1251:../system/include/stm32l4-hal-driver/stm32l4xx_ll_adc.h **** #define LL_ADC_MULTI_REG_DMA_UNLMT_RES8_6B   (ADC_CCR_DMACFG | ADC_CCR_MDMA_1 | ADC_CCR_MDMA_0) /*!
1252:../system/include/stm32l4-hal-driver/stm32l4xx_ll_adc.h **** /**
1253:../system/include/stm32l4-hal-driver/stm32l4xx_ll_adc.h ****   * @}
1254:../system/include/stm32l4-hal-driver/stm32l4xx_ll_adc.h ****   */
1255:../system/include/stm32l4-hal-driver/stm32l4xx_ll_adc.h **** 
1256:../system/include/stm32l4-hal-driver/stm32l4xx_ll_adc.h **** /** @defgroup ADC_LL_EC_MULTI_TWOSMP_DELAY  Multimode - Delay between two sampling phases
1257:../system/include/stm32l4-hal-driver/stm32l4xx_ll_adc.h ****   * @{
1258:../system/include/stm32l4-hal-driver/stm32l4xx_ll_adc.h ****   */
1259:../system/include/stm32l4-hal-driver/stm32l4xx_ll_adc.h **** #define LL_ADC_MULTI_TWOSMP_DELAY_1CYCLE   (0x00000000UL)                                          
1260:../system/include/stm32l4-hal-driver/stm32l4xx_ll_adc.h **** #define LL_ADC_MULTI_TWOSMP_DELAY_2CYCLES  (                                                      A
1261:../system/include/stm32l4-hal-driver/stm32l4xx_ll_adc.h **** #define LL_ADC_MULTI_TWOSMP_DELAY_3CYCLES  (                                    ADC_CCR_DELAY_1    
1262:../system/include/stm32l4-hal-driver/stm32l4xx_ll_adc.h **** #define LL_ADC_MULTI_TWOSMP_DELAY_4CYCLES  (                                    ADC_CCR_DELAY_1 | A
1263:../system/include/stm32l4-hal-driver/stm32l4xx_ll_adc.h **** #define LL_ADC_MULTI_TWOSMP_DELAY_5CYCLES  (                  ADC_CCR_DELAY_2                      
1264:../system/include/stm32l4-hal-driver/stm32l4xx_ll_adc.h **** #define LL_ADC_MULTI_TWOSMP_DELAY_6CYCLES  (                  ADC_CCR_DELAY_2                   | A
1265:../system/include/stm32l4-hal-driver/stm32l4xx_ll_adc.h **** #define LL_ADC_MULTI_TWOSMP_DELAY_7CYCLES  (                  ADC_CCR_DELAY_2 | ADC_CCR_DELAY_1    
1266:../system/include/stm32l4-hal-driver/stm32l4xx_ll_adc.h **** #define LL_ADC_MULTI_TWOSMP_DELAY_8CYCLES  (                  ADC_CCR_DELAY_2 | ADC_CCR_DELAY_1 | A
1267:../system/include/stm32l4-hal-driver/stm32l4xx_ll_adc.h **** #define LL_ADC_MULTI_TWOSMP_DELAY_9CYCLES  (ADC_CCR_DELAY_3                                        
1268:../system/include/stm32l4-hal-driver/stm32l4xx_ll_adc.h **** #define LL_ADC_MULTI_TWOSMP_DELAY_10CYCLES (ADC_CCR_DELAY_3                                     | A
1269:../system/include/stm32l4-hal-driver/stm32l4xx_ll_adc.h **** #define LL_ADC_MULTI_TWOSMP_DELAY_11CYCLES (ADC_CCR_DELAY_3                   | ADC_CCR_DELAY_1    
1270:../system/include/stm32l4-hal-driver/stm32l4xx_ll_adc.h **** #define LL_ADC_MULTI_TWOSMP_DELAY_12CYCLES (ADC_CCR_DELAY_3                   | ADC_CCR_DELAY_1 | A
1271:../system/include/stm32l4-hal-driver/stm32l4xx_ll_adc.h **** /**
1272:../system/include/stm32l4-hal-driver/stm32l4xx_ll_adc.h ****   * @}
1273:../system/include/stm32l4-hal-driver/stm32l4xx_ll_adc.h ****   */
1274:../system/include/stm32l4-hal-driver/stm32l4xx_ll_adc.h **** 
1275:../system/include/stm32l4-hal-driver/stm32l4xx_ll_adc.h **** /** @defgroup ADC_LL_EC_MULTI_MASTER_SLAVE  Multimode - ADC master or slave
1276:../system/include/stm32l4-hal-driver/stm32l4xx_ll_adc.h ****   * @{
1277:../system/include/stm32l4-hal-driver/stm32l4xx_ll_adc.h ****   */
1278:../system/include/stm32l4-hal-driver/stm32l4xx_ll_adc.h **** #define LL_ADC_MULTI_MASTER                (                    ADC_CDR_RDATA_MST) /*!< In multimod
1279:../system/include/stm32l4-hal-driver/stm32l4xx_ll_adc.h **** #define LL_ADC_MULTI_SLAVE                 (ADC_CDR_RDATA_SLV                    ) /*!< In multimod
1280:../system/include/stm32l4-hal-driver/stm32l4xx_ll_adc.h **** #define LL_ADC_MULTI_MASTER_SLAVE          (ADC_CDR_RDATA_SLV | ADC_CDR_RDATA_MST) /*!< In multimod
1281:../system/include/stm32l4-hal-driver/stm32l4xx_ll_adc.h **** /**
1282:../system/include/stm32l4-hal-driver/stm32l4xx_ll_adc.h ****   * @}
1283:../system/include/stm32l4-hal-driver/stm32l4xx_ll_adc.h ****   */
1284:../system/include/stm32l4-hal-driver/stm32l4xx_ll_adc.h **** 
1285:../system/include/stm32l4-hal-driver/stm32l4xx_ll_adc.h **** #endif /* ADC_MULTIMODE_SUPPORT */
1286:../system/include/stm32l4-hal-driver/stm32l4xx_ll_adc.h **** 
1287:../system/include/stm32l4-hal-driver/stm32l4xx_ll_adc.h **** /** @defgroup ADC_LL_EC_LEGACY ADC literals legacy naming
1288:../system/include/stm32l4-hal-driver/stm32l4xx_ll_adc.h ****   * @{
1289:../system/include/stm32l4-hal-driver/stm32l4xx_ll_adc.h ****   */
1290:../system/include/stm32l4-hal-driver/stm32l4xx_ll_adc.h **** #define LL_ADC_REG_TRIG_SW_START           (LL_ADC_REG_TRIG_SOFTWARE)
1291:../system/include/stm32l4-hal-driver/stm32l4xx_ll_adc.h **** #define LL_ADC_REG_TRIG_EXT_TIM1_CC1       (LL_ADC_REG_TRIG_EXT_TIM1_CH1)
1292:../system/include/stm32l4-hal-driver/stm32l4xx_ll_adc.h **** #define LL_ADC_REG_TRIG_EXT_TIM1_CC2       (LL_ADC_REG_TRIG_EXT_TIM1_CH2)
1293:../system/include/stm32l4-hal-driver/stm32l4xx_ll_adc.h **** #define LL_ADC_REG_TRIG_EXT_TIM1_CC3       (LL_ADC_REG_TRIG_EXT_TIM1_CH3)
1294:../system/include/stm32l4-hal-driver/stm32l4xx_ll_adc.h **** #define LL_ADC_REG_TRIG_EXT_TIM2_CC2       (LL_ADC_REG_TRIG_EXT_TIM2_CH2)
1295:../system/include/stm32l4-hal-driver/stm32l4xx_ll_adc.h **** #define LL_ADC_REG_TRIG_EXT_TIM3_CC4       (LL_ADC_REG_TRIG_EXT_TIM3_CH4)
1296:../system/include/stm32l4-hal-driver/stm32l4xx_ll_adc.h **** #define LL_ADC_REG_TRIG_EXT_TIM4_CC4       (LL_ADC_REG_TRIG_EXT_TIM4_CH4)
1297:../system/include/stm32l4-hal-driver/stm32l4xx_ll_adc.h **** 
1298:../system/include/stm32l4-hal-driver/stm32l4xx_ll_adc.h **** #define LL_ADC_INJ_TRIG_SW_START           (LL_ADC_INJ_TRIG_SOFTWARE)
1299:../system/include/stm32l4-hal-driver/stm32l4xx_ll_adc.h **** #define LL_ADC_INJ_TRIG_EXT_TIM1_CC4       (LL_ADC_INJ_TRIG_EXT_TIM1_CH4)
1300:../system/include/stm32l4-hal-driver/stm32l4xx_ll_adc.h **** #define LL_ADC_INJ_TRIG_EXT_TIM2_CC1       (LL_ADC_INJ_TRIG_EXT_TIM2_CH1)
1301:../system/include/stm32l4-hal-driver/stm32l4xx_ll_adc.h **** #define LL_ADC_INJ_TRIG_EXT_TIM3_CC1       (LL_ADC_INJ_TRIG_EXT_TIM3_CH1)
1302:../system/include/stm32l4-hal-driver/stm32l4xx_ll_adc.h **** #define LL_ADC_INJ_TRIG_EXT_TIM3_CC3       (LL_ADC_INJ_TRIG_EXT_TIM3_CH3)
1303:../system/include/stm32l4-hal-driver/stm32l4xx_ll_adc.h **** #define LL_ADC_INJ_TRIG_EXT_TIM3_CC4       (LL_ADC_INJ_TRIG_EXT_TIM3_CH4)
1304:../system/include/stm32l4-hal-driver/stm32l4xx_ll_adc.h **** #define LL_ADC_INJ_TRIG_EXT_TIM8_CC4       (LL_ADC_INJ_TRIG_EXT_TIM8_CH4)
1305:../system/include/stm32l4-hal-driver/stm32l4xx_ll_adc.h **** 
1306:../system/include/stm32l4-hal-driver/stm32l4xx_ll_adc.h **** #define LL_ADC_OVS_DATA_SHIFT_NONE        (LL_ADC_OVS_SHIFT_NONE)
1307:../system/include/stm32l4-hal-driver/stm32l4xx_ll_adc.h **** #define LL_ADC_OVS_DATA_SHIFT_1           (LL_ADC_OVS_SHIFT_RIGHT_1)
1308:../system/include/stm32l4-hal-driver/stm32l4xx_ll_adc.h **** #define LL_ADC_OVS_DATA_SHIFT_2           (LL_ADC_OVS_SHIFT_RIGHT_2)
1309:../system/include/stm32l4-hal-driver/stm32l4xx_ll_adc.h **** #define LL_ADC_OVS_DATA_SHIFT_3           (LL_ADC_OVS_SHIFT_RIGHT_3)
1310:../system/include/stm32l4-hal-driver/stm32l4xx_ll_adc.h **** #define LL_ADC_OVS_DATA_SHIFT_4           (LL_ADC_OVS_SHIFT_RIGHT_4)
1311:../system/include/stm32l4-hal-driver/stm32l4xx_ll_adc.h **** #define LL_ADC_OVS_DATA_SHIFT_5           (LL_ADC_OVS_SHIFT_RIGHT_5)
1312:../system/include/stm32l4-hal-driver/stm32l4xx_ll_adc.h **** #define LL_ADC_OVS_DATA_SHIFT_6           (LL_ADC_OVS_SHIFT_RIGHT_6)
1313:../system/include/stm32l4-hal-driver/stm32l4xx_ll_adc.h **** #define LL_ADC_OVS_DATA_SHIFT_7           (LL_ADC_OVS_SHIFT_RIGHT_7)
1314:../system/include/stm32l4-hal-driver/stm32l4xx_ll_adc.h **** #define LL_ADC_OVS_DATA_SHIFT_8           (LL_ADC_OVS_SHIFT_RIGHT_8)
1315:../system/include/stm32l4-hal-driver/stm32l4xx_ll_adc.h **** 
1316:../system/include/stm32l4-hal-driver/stm32l4xx_ll_adc.h **** /**
1317:../system/include/stm32l4-hal-driver/stm32l4xx_ll_adc.h ****   * @}
1318:../system/include/stm32l4-hal-driver/stm32l4xx_ll_adc.h ****   */
1319:../system/include/stm32l4-hal-driver/stm32l4xx_ll_adc.h **** 
1320:../system/include/stm32l4-hal-driver/stm32l4xx_ll_adc.h **** 
1321:../system/include/stm32l4-hal-driver/stm32l4xx_ll_adc.h **** /** @defgroup ADC_LL_EC_HW_DELAYS  Definitions of ADC hardware constraints delays
1322:../system/include/stm32l4-hal-driver/stm32l4xx_ll_adc.h ****   * @note   Only ADC peripheral HW delays are defined in ADC LL driver driver,
1323:../system/include/stm32l4-hal-driver/stm32l4xx_ll_adc.h ****   *         not timeout values.
1324:../system/include/stm32l4-hal-driver/stm32l4xx_ll_adc.h ****   *         For details on delays values, refer to descriptions in source code
1325:../system/include/stm32l4-hal-driver/stm32l4xx_ll_adc.h ****   *         above each literal definition.
1326:../system/include/stm32l4-hal-driver/stm32l4xx_ll_adc.h ****   * @{
1327:../system/include/stm32l4-hal-driver/stm32l4xx_ll_adc.h ****   */
1328:../system/include/stm32l4-hal-driver/stm32l4xx_ll_adc.h **** 
1329:../system/include/stm32l4-hal-driver/stm32l4xx_ll_adc.h **** /* Note: Only ADC peripheral HW delays are defined in ADC LL driver driver,   */
1330:../system/include/stm32l4-hal-driver/stm32l4xx_ll_adc.h **** /*       not timeout values.                                                  */
1331:../system/include/stm32l4-hal-driver/stm32l4xx_ll_adc.h **** /*       Timeout values for ADC operations are dependent to device clock      */
1332:../system/include/stm32l4-hal-driver/stm32l4xx_ll_adc.h **** /*       configuration (system clock versus ADC clock),                       */
1333:../system/include/stm32l4-hal-driver/stm32l4xx_ll_adc.h **** /*       and therefore must be defined in user application.                   */
1334:../system/include/stm32l4-hal-driver/stm32l4xx_ll_adc.h **** /*       Indications for estimation of ADC timeout delays, for this           */
1335:../system/include/stm32l4-hal-driver/stm32l4xx_ll_adc.h **** /*       STM32 series:                                                        */
1336:../system/include/stm32l4-hal-driver/stm32l4xx_ll_adc.h **** /*       - ADC calibration time: maximum delay is 112/fADC.                   */
1337:../system/include/stm32l4-hal-driver/stm32l4xx_ll_adc.h **** /*         (refer to device datasheet, parameter "tCAL")                      */
1338:../system/include/stm32l4-hal-driver/stm32l4xx_ll_adc.h **** /*       - ADC enable time: maximum delay is 1 conversion cycle.              */
1339:../system/include/stm32l4-hal-driver/stm32l4xx_ll_adc.h **** /*         (refer to device datasheet, parameter "tSTAB")                     */
1340:../system/include/stm32l4-hal-driver/stm32l4xx_ll_adc.h **** /*       - ADC disable time: maximum delay should be a few ADC clock cycles   */
1341:../system/include/stm32l4-hal-driver/stm32l4xx_ll_adc.h **** /*       - ADC stop conversion time: maximum delay should be a few ADC clock  */
1342:../system/include/stm32l4-hal-driver/stm32l4xx_ll_adc.h **** /*         cycles                                                             */
1343:../system/include/stm32l4-hal-driver/stm32l4xx_ll_adc.h **** /*       - ADC conversion time: duration depending on ADC clock and ADC       */
1344:../system/include/stm32l4-hal-driver/stm32l4xx_ll_adc.h **** /*         configuration.                                                     */
1345:../system/include/stm32l4-hal-driver/stm32l4xx_ll_adc.h **** /*         (refer to device reference manual, section "Timing")               */
1346:../system/include/stm32l4-hal-driver/stm32l4xx_ll_adc.h **** 
1347:../system/include/stm32l4-hal-driver/stm32l4xx_ll_adc.h **** /* Delay for ADC stabilization time (ADC voltage regulator start-up time)     */
1348:../system/include/stm32l4-hal-driver/stm32l4xx_ll_adc.h **** /* Delay set to maximum value (refer to device datasheet,                     */
1349:../system/include/stm32l4-hal-driver/stm32l4xx_ll_adc.h **** /* parameter "tADCVREG_STUP").                                                */
1350:../system/include/stm32l4-hal-driver/stm32l4xx_ll_adc.h **** /* Unit: us                                                                   */
1351:../system/include/stm32l4-hal-driver/stm32l4xx_ll_adc.h **** #define LL_ADC_DELAY_INTERNAL_REGUL_STAB_US ( 20UL)  /*!< Delay for ADC stabilization time (ADC vol
1352:../system/include/stm32l4-hal-driver/stm32l4xx_ll_adc.h **** 
1353:../system/include/stm32l4-hal-driver/stm32l4xx_ll_adc.h **** /* Delay for internal voltage reference stabilization time.                   */
1354:../system/include/stm32l4-hal-driver/stm32l4xx_ll_adc.h **** /* Delay set to maximum value (refer to device datasheet,                     */
1355:../system/include/stm32l4-hal-driver/stm32l4xx_ll_adc.h **** /* parameter "tstart_vrefint").                                               */
1356:../system/include/stm32l4-hal-driver/stm32l4xx_ll_adc.h **** /* Unit: us                                                                   */
1357:../system/include/stm32l4-hal-driver/stm32l4xx_ll_adc.h **** #define LL_ADC_DELAY_VREFINT_STAB_US           ( 12UL)  /*!< Delay for internal voltage reference s
1358:../system/include/stm32l4-hal-driver/stm32l4xx_ll_adc.h **** 
1359:../system/include/stm32l4-hal-driver/stm32l4xx_ll_adc.h **** /* Delay for temperature sensor stabilization time.                           */
1360:../system/include/stm32l4-hal-driver/stm32l4xx_ll_adc.h **** /* Literal set to maximum value (refer to device datasheet,                   */
1361:../system/include/stm32l4-hal-driver/stm32l4xx_ll_adc.h **** /* parameter "tSTART").                                                       */
1362:../system/include/stm32l4-hal-driver/stm32l4xx_ll_adc.h **** /* Unit: us                                                                   */
1363:../system/include/stm32l4-hal-driver/stm32l4xx_ll_adc.h **** #define LL_ADC_DELAY_TEMPSENSOR_STAB_US        (120UL)  /*!< Delay for temperature sensor stabiliza
1364:../system/include/stm32l4-hal-driver/stm32l4xx_ll_adc.h **** 
1365:../system/include/stm32l4-hal-driver/stm32l4xx_ll_adc.h **** /* Delay required between ADC end of calibration and ADC enable.              */
1366:../system/include/stm32l4-hal-driver/stm32l4xx_ll_adc.h **** /* Note: On this STM32 series, a minimum number of ADC clock cycles           */
1367:../system/include/stm32l4-hal-driver/stm32l4xx_ll_adc.h **** /*       are required between ADC end of calibration and ADC enable.          */
1368:../system/include/stm32l4-hal-driver/stm32l4xx_ll_adc.h **** /*       Wait time can be computed in user application by waiting for the     */
1369:../system/include/stm32l4-hal-driver/stm32l4xx_ll_adc.h **** /*       equivalent number of CPU cycles, by taking into account              */
1370:../system/include/stm32l4-hal-driver/stm32l4xx_ll_adc.h **** /*       ratio of CPU clock versus ADC clock prescalers.                      */
1371:../system/include/stm32l4-hal-driver/stm32l4xx_ll_adc.h **** /* Unit: ADC clock cycles.                                                    */
1372:../system/include/stm32l4-hal-driver/stm32l4xx_ll_adc.h **** #define LL_ADC_DELAY_CALIB_ENABLE_ADC_CYCLES   (  4UL)  /*!< Delay required between ADC end of cali
1373:../system/include/stm32l4-hal-driver/stm32l4xx_ll_adc.h **** 
1374:../system/include/stm32l4-hal-driver/stm32l4xx_ll_adc.h **** /**
1375:../system/include/stm32l4-hal-driver/stm32l4xx_ll_adc.h ****   * @}
1376:../system/include/stm32l4-hal-driver/stm32l4xx_ll_adc.h ****   */
1377:../system/include/stm32l4-hal-driver/stm32l4xx_ll_adc.h **** 
1378:../system/include/stm32l4-hal-driver/stm32l4xx_ll_adc.h **** /**
1379:../system/include/stm32l4-hal-driver/stm32l4xx_ll_adc.h ****   * @}
1380:../system/include/stm32l4-hal-driver/stm32l4xx_ll_adc.h ****   */
1381:../system/include/stm32l4-hal-driver/stm32l4xx_ll_adc.h **** 
1382:../system/include/stm32l4-hal-driver/stm32l4xx_ll_adc.h **** 
1383:../system/include/stm32l4-hal-driver/stm32l4xx_ll_adc.h **** /* Exported macro ------------------------------------------------------------*/
1384:../system/include/stm32l4-hal-driver/stm32l4xx_ll_adc.h **** /** @defgroup ADC_LL_Exported_Macros ADC Exported Macros
1385:../system/include/stm32l4-hal-driver/stm32l4xx_ll_adc.h ****   * @{
1386:../system/include/stm32l4-hal-driver/stm32l4xx_ll_adc.h ****   */
1387:../system/include/stm32l4-hal-driver/stm32l4xx_ll_adc.h **** 
1388:../system/include/stm32l4-hal-driver/stm32l4xx_ll_adc.h **** /** @defgroup ADC_LL_EM_WRITE_READ Common write and read registers Macros
1389:../system/include/stm32l4-hal-driver/stm32l4xx_ll_adc.h ****   * @{
1390:../system/include/stm32l4-hal-driver/stm32l4xx_ll_adc.h ****   */
1391:../system/include/stm32l4-hal-driver/stm32l4xx_ll_adc.h **** 
1392:../system/include/stm32l4-hal-driver/stm32l4xx_ll_adc.h **** /**
1393:../system/include/stm32l4-hal-driver/stm32l4xx_ll_adc.h ****   * @brief  Write a value in ADC register
1394:../system/include/stm32l4-hal-driver/stm32l4xx_ll_adc.h ****   * @param  __INSTANCE__ ADC Instance
1395:../system/include/stm32l4-hal-driver/stm32l4xx_ll_adc.h ****   * @param  __REG__ Register to be written
1396:../system/include/stm32l4-hal-driver/stm32l4xx_ll_adc.h ****   * @param  __VALUE__ Value to be written in the register
1397:../system/include/stm32l4-hal-driver/stm32l4xx_ll_adc.h ****   * @retval None
1398:../system/include/stm32l4-hal-driver/stm32l4xx_ll_adc.h ****   */
1399:../system/include/stm32l4-hal-driver/stm32l4xx_ll_adc.h **** #define LL_ADC_WriteReg(__INSTANCE__, __REG__, __VALUE__) WRITE_REG(__INSTANCE__->__REG__, (__VALUE
1400:../system/include/stm32l4-hal-driver/stm32l4xx_ll_adc.h **** 
1401:../system/include/stm32l4-hal-driver/stm32l4xx_ll_adc.h **** /**
1402:../system/include/stm32l4-hal-driver/stm32l4xx_ll_adc.h ****   * @brief  Read a value in ADC register
1403:../system/include/stm32l4-hal-driver/stm32l4xx_ll_adc.h ****   * @param  __INSTANCE__ ADC Instance
1404:../system/include/stm32l4-hal-driver/stm32l4xx_ll_adc.h ****   * @param  __REG__ Register to be read
1405:../system/include/stm32l4-hal-driver/stm32l4xx_ll_adc.h ****   * @retval Register value
1406:../system/include/stm32l4-hal-driver/stm32l4xx_ll_adc.h ****   */
1407:../system/include/stm32l4-hal-driver/stm32l4xx_ll_adc.h **** #define LL_ADC_ReadReg(__INSTANCE__, __REG__) READ_REG(__INSTANCE__->__REG__)
1408:../system/include/stm32l4-hal-driver/stm32l4xx_ll_adc.h **** /**
1409:../system/include/stm32l4-hal-driver/stm32l4xx_ll_adc.h ****   * @}
1410:../system/include/stm32l4-hal-driver/stm32l4xx_ll_adc.h ****   */
1411:../system/include/stm32l4-hal-driver/stm32l4xx_ll_adc.h **** 
1412:../system/include/stm32l4-hal-driver/stm32l4xx_ll_adc.h **** /** @defgroup ADC_LL_EM_HELPER_MACRO ADC helper macro
1413:../system/include/stm32l4-hal-driver/stm32l4xx_ll_adc.h ****   * @{
1414:../system/include/stm32l4-hal-driver/stm32l4xx_ll_adc.h ****   */
1415:../system/include/stm32l4-hal-driver/stm32l4xx_ll_adc.h **** 
1416:../system/include/stm32l4-hal-driver/stm32l4xx_ll_adc.h **** /**
1417:../system/include/stm32l4-hal-driver/stm32l4xx_ll_adc.h ****   * @brief  Helper macro to get ADC channel number in decimal format
1418:../system/include/stm32l4-hal-driver/stm32l4xx_ll_adc.h ****   *         from literals LL_ADC_CHANNEL_x.
1419:../system/include/stm32l4-hal-driver/stm32l4xx_ll_adc.h ****   * @note   Example:
1420:../system/include/stm32l4-hal-driver/stm32l4xx_ll_adc.h ****   *           __LL_ADC_CHANNEL_TO_DECIMAL_NB(LL_ADC_CHANNEL_4)
1421:../system/include/stm32l4-hal-driver/stm32l4xx_ll_adc.h ****   *           will return decimal number "4".
1422:../system/include/stm32l4-hal-driver/stm32l4xx_ll_adc.h ****   * @note   The input can be a value from functions where a channel
1423:../system/include/stm32l4-hal-driver/stm32l4xx_ll_adc.h ****   *         number is returned, either defined with number
1424:../system/include/stm32l4-hal-driver/stm32l4xx_ll_adc.h ****   *         or with bitfield (only one bit must be set).
1425:../system/include/stm32l4-hal-driver/stm32l4xx_ll_adc.h ****   * @param  __CHANNEL__ This parameter can be one of the following values:
1426:../system/include/stm32l4-hal-driver/stm32l4xx_ll_adc.h ****   *         @arg @ref LL_ADC_CHANNEL_0
1427:../system/include/stm32l4-hal-driver/stm32l4xx_ll_adc.h ****   *         @arg @ref LL_ADC_CHANNEL_1            (7)
1428:../system/include/stm32l4-hal-driver/stm32l4xx_ll_adc.h ****   *         @arg @ref LL_ADC_CHANNEL_2            (7)
1429:../system/include/stm32l4-hal-driver/stm32l4xx_ll_adc.h ****   *         @arg @ref LL_ADC_CHANNEL_3            (7)
1430:../system/include/stm32l4-hal-driver/stm32l4xx_ll_adc.h ****   *         @arg @ref LL_ADC_CHANNEL_4            (7)
1431:../system/include/stm32l4-hal-driver/stm32l4xx_ll_adc.h ****   *         @arg @ref LL_ADC_CHANNEL_5            (7)
1432:../system/include/stm32l4-hal-driver/stm32l4xx_ll_adc.h ****   *         @arg @ref LL_ADC_CHANNEL_6
1433:../system/include/stm32l4-hal-driver/stm32l4xx_ll_adc.h ****   *         @arg @ref LL_ADC_CHANNEL_7
1434:../system/include/stm32l4-hal-driver/stm32l4xx_ll_adc.h ****   *         @arg @ref LL_ADC_CHANNEL_8
1435:../system/include/stm32l4-hal-driver/stm32l4xx_ll_adc.h ****   *         @arg @ref LL_ADC_CHANNEL_9
1436:../system/include/stm32l4-hal-driver/stm32l4xx_ll_adc.h ****   *         @arg @ref LL_ADC_CHANNEL_10
1437:../system/include/stm32l4-hal-driver/stm32l4xx_ll_adc.h ****   *         @arg @ref LL_ADC_CHANNEL_11
1438:../system/include/stm32l4-hal-driver/stm32l4xx_ll_adc.h ****   *         @arg @ref LL_ADC_CHANNEL_12
1439:../system/include/stm32l4-hal-driver/stm32l4xx_ll_adc.h ****   *         @arg @ref LL_ADC_CHANNEL_13
1440:../system/include/stm32l4-hal-driver/stm32l4xx_ll_adc.h ****   *         @arg @ref LL_ADC_CHANNEL_14
1441:../system/include/stm32l4-hal-driver/stm32l4xx_ll_adc.h ****   *         @arg @ref LL_ADC_CHANNEL_15
1442:../system/include/stm32l4-hal-driver/stm32l4xx_ll_adc.h ****   *         @arg @ref LL_ADC_CHANNEL_16
1443:../system/include/stm32l4-hal-driver/stm32l4xx_ll_adc.h ****   *         @arg @ref LL_ADC_CHANNEL_17
1444:../system/include/stm32l4-hal-driver/stm32l4xx_ll_adc.h ****   *         @arg @ref LL_ADC_CHANNEL_18
1445:../system/include/stm32l4-hal-driver/stm32l4xx_ll_adc.h ****   *         @arg @ref LL_ADC_CHANNEL_VREFINT      (1)
1446:../system/include/stm32l4-hal-driver/stm32l4xx_ll_adc.h ****   *         @arg @ref LL_ADC_CHANNEL_TEMPSENSOR   (4)
1447:../system/include/stm32l4-hal-driver/stm32l4xx_ll_adc.h ****   *         @arg @ref LL_ADC_CHANNEL_VBAT         (4)
1448:../system/include/stm32l4-hal-driver/stm32l4xx_ll_adc.h ****   *         @arg @ref LL_ADC_CHANNEL_DAC1CH1         (5)
1449:../system/include/stm32l4-hal-driver/stm32l4xx_ll_adc.h ****   *         @arg @ref LL_ADC_CHANNEL_DAC1CH2         (5)
1450:../system/include/stm32l4-hal-driver/stm32l4xx_ll_adc.h ****   *         @arg @ref LL_ADC_CHANNEL_DAC1CH1_ADC2 (2)(6)
1451:../system/include/stm32l4-hal-driver/stm32l4xx_ll_adc.h ****   *         @arg @ref LL_ADC_CHANNEL_DAC1CH2_ADC2 (2)(6)
1452:../system/include/stm32l4-hal-driver/stm32l4xx_ll_adc.h ****   *         @arg @ref LL_ADC_CHANNEL_DAC1CH1_ADC3 (3)(6)
1453:../system/include/stm32l4-hal-driver/stm32l4xx_ll_adc.h ****   *         @arg @ref LL_ADC_CHANNEL_DAC1CH2_ADC3 (3)(6)
1454:../system/include/stm32l4-hal-driver/stm32l4xx_ll_adc.h ****   *
1455:../system/include/stm32l4-hal-driver/stm32l4xx_ll_adc.h ****   *         (1) On STM32L4, parameter available only on ADC instance: ADC1.\n
1456:../system/include/stm32l4-hal-driver/stm32l4xx_ll_adc.h ****   *         (2) On STM32L4, parameter available only on ADC instance: ADC2.\n
1457:../system/include/stm32l4-hal-driver/stm32l4xx_ll_adc.h ****   *         (3) On STM32L4, parameter available only on ADC instance: ADC3.\n
1458:../system/include/stm32l4-hal-driver/stm32l4xx_ll_adc.h ****   *         (4) On STM32L4, parameter available only on ADC instances: ADC1, ADC3.\n
1459:../system/include/stm32l4-hal-driver/stm32l4xx_ll_adc.h ****   *         (5) On STM32L4, parameter available on devices with only 1 ADC instance.\n
1460:../system/include/stm32l4-hal-driver/stm32l4xx_ll_adc.h ****   *         (6) On STM32L4, parameter available on devices with several ADC instances.\n
1461:../system/include/stm32l4-hal-driver/stm32l4xx_ll_adc.h ****   *         (7) On STM32L4, fast channel (0.188 us for 12-bit resolution (ADC conversion rate up to
1462:../system/include/stm32l4-hal-driver/stm32l4xx_ll_adc.h ****   *             Other channels are slow channels (0.238 us for 12-bit resolution (ADC conversion ra
1463:../system/include/stm32l4-hal-driver/stm32l4xx_ll_adc.h ****   * @retval Value between Min_Data=0 and Max_Data=18
1464:../system/include/stm32l4-hal-driver/stm32l4xx_ll_adc.h ****   */
1465:../system/include/stm32l4-hal-driver/stm32l4xx_ll_adc.h **** #define __LL_ADC_CHANNEL_TO_DECIMAL_NB(__CHANNEL__)                                        \
1466:../system/include/stm32l4-hal-driver/stm32l4xx_ll_adc.h ****   ((((__CHANNEL__) & ADC_CHANNEL_ID_BITFIELD_MASK) == 0UL) ?                               \
1467:../system/include/stm32l4-hal-driver/stm32l4xx_ll_adc.h ****    (                                                                                       \
1468:../system/include/stm32l4-hal-driver/stm32l4xx_ll_adc.h ****        ((__CHANNEL__) & ADC_CHANNEL_ID_NUMBER_MASK) >> ADC_CHANNEL_ID_NUMBER_BITOFFSET_POS \
1469:../system/include/stm32l4-hal-driver/stm32l4xx_ll_adc.h ****    )                                                                                       \
1470:../system/include/stm32l4-hal-driver/stm32l4xx_ll_adc.h ****    :                                                                                       \
1471:../system/include/stm32l4-hal-driver/stm32l4xx_ll_adc.h ****    (                                                                                       \
1472:../system/include/stm32l4-hal-driver/stm32l4xx_ll_adc.h ****        (uint32_t)POSITION_VAL((__CHANNEL__))                                               \
1473:../system/include/stm32l4-hal-driver/stm32l4xx_ll_adc.h ****    )                                                                                       \
1474:../system/include/stm32l4-hal-driver/stm32l4xx_ll_adc.h ****   )
1475:../system/include/stm32l4-hal-driver/stm32l4xx_ll_adc.h **** 
1476:../system/include/stm32l4-hal-driver/stm32l4xx_ll_adc.h **** /**
1477:../system/include/stm32l4-hal-driver/stm32l4xx_ll_adc.h ****   * @brief  Helper macro to get ADC channel in literal format LL_ADC_CHANNEL_x
1478:../system/include/stm32l4-hal-driver/stm32l4xx_ll_adc.h ****   *         from number in decimal format.
1479:../system/include/stm32l4-hal-driver/stm32l4xx_ll_adc.h ****   * @note   Example:
1480:../system/include/stm32l4-hal-driver/stm32l4xx_ll_adc.h ****   *           __LL_ADC_DECIMAL_NB_TO_CHANNEL(4)
1481:../system/include/stm32l4-hal-driver/stm32l4xx_ll_adc.h ****   *           will return a data equivalent to "LL_ADC_CHANNEL_4".
1482:../system/include/stm32l4-hal-driver/stm32l4xx_ll_adc.h ****   * @param  __DECIMAL_NB__ Value between Min_Data=0 and Max_Data=18
1483:../system/include/stm32l4-hal-driver/stm32l4xx_ll_adc.h ****   * @retval Returned value can be one of the following values:
1484:../system/include/stm32l4-hal-driver/stm32l4xx_ll_adc.h ****   *         @arg @ref LL_ADC_CHANNEL_0
1485:../system/include/stm32l4-hal-driver/stm32l4xx_ll_adc.h ****   *         @arg @ref LL_ADC_CHANNEL_1            (7)
1486:../system/include/stm32l4-hal-driver/stm32l4xx_ll_adc.h ****   *         @arg @ref LL_ADC_CHANNEL_2            (7)
1487:../system/include/stm32l4-hal-driver/stm32l4xx_ll_adc.h ****   *         @arg @ref LL_ADC_CHANNEL_3            (7)
1488:../system/include/stm32l4-hal-driver/stm32l4xx_ll_adc.h ****   *         @arg @ref LL_ADC_CHANNEL_4            (7)
1489:../system/include/stm32l4-hal-driver/stm32l4xx_ll_adc.h ****   *         @arg @ref LL_ADC_CHANNEL_5            (7)
1490:../system/include/stm32l4-hal-driver/stm32l4xx_ll_adc.h ****   *         @arg @ref LL_ADC_CHANNEL_6
1491:../system/include/stm32l4-hal-driver/stm32l4xx_ll_adc.h ****   *         @arg @ref LL_ADC_CHANNEL_7
1492:../system/include/stm32l4-hal-driver/stm32l4xx_ll_adc.h ****   *         @arg @ref LL_ADC_CHANNEL_8
1493:../system/include/stm32l4-hal-driver/stm32l4xx_ll_adc.h ****   *         @arg @ref LL_ADC_CHANNEL_9
1494:../system/include/stm32l4-hal-driver/stm32l4xx_ll_adc.h ****   *         @arg @ref LL_ADC_CHANNEL_10
1495:../system/include/stm32l4-hal-driver/stm32l4xx_ll_adc.h ****   *         @arg @ref LL_ADC_CHANNEL_11
1496:../system/include/stm32l4-hal-driver/stm32l4xx_ll_adc.h ****   *         @arg @ref LL_ADC_CHANNEL_12
1497:../system/include/stm32l4-hal-driver/stm32l4xx_ll_adc.h ****   *         @arg @ref LL_ADC_CHANNEL_13
1498:../system/include/stm32l4-hal-driver/stm32l4xx_ll_adc.h ****   *         @arg @ref LL_ADC_CHANNEL_14
1499:../system/include/stm32l4-hal-driver/stm32l4xx_ll_adc.h ****   *         @arg @ref LL_ADC_CHANNEL_15
1500:../system/include/stm32l4-hal-driver/stm32l4xx_ll_adc.h ****   *         @arg @ref LL_ADC_CHANNEL_16
1501:../system/include/stm32l4-hal-driver/stm32l4xx_ll_adc.h ****   *         @arg @ref LL_ADC_CHANNEL_17
1502:../system/include/stm32l4-hal-driver/stm32l4xx_ll_adc.h ****   *         @arg @ref LL_ADC_CHANNEL_18
1503:../system/include/stm32l4-hal-driver/stm32l4xx_ll_adc.h ****   *         @arg @ref LL_ADC_CHANNEL_VREFINT      (1)
1504:../system/include/stm32l4-hal-driver/stm32l4xx_ll_adc.h ****   *         @arg @ref LL_ADC_CHANNEL_TEMPSENSOR   (4)
1505:../system/include/stm32l4-hal-driver/stm32l4xx_ll_adc.h ****   *         @arg @ref LL_ADC_CHANNEL_VBAT         (4)
1506:../system/include/stm32l4-hal-driver/stm32l4xx_ll_adc.h ****   *         @arg @ref LL_ADC_CHANNEL_DAC1CH1         (5)
1507:../system/include/stm32l4-hal-driver/stm32l4xx_ll_adc.h ****   *         @arg @ref LL_ADC_CHANNEL_DAC1CH2         (5)
1508:../system/include/stm32l4-hal-driver/stm32l4xx_ll_adc.h ****   *         @arg @ref LL_ADC_CHANNEL_DAC1CH1_ADC2 (2)(6)
1509:../system/include/stm32l4-hal-driver/stm32l4xx_ll_adc.h ****   *         @arg @ref LL_ADC_CHANNEL_DAC1CH2_ADC2 (2)(6)
1510:../system/include/stm32l4-hal-driver/stm32l4xx_ll_adc.h ****   *         @arg @ref LL_ADC_CHANNEL_DAC1CH1_ADC3 (3)(6)
1511:../system/include/stm32l4-hal-driver/stm32l4xx_ll_adc.h ****   *         @arg @ref LL_ADC_CHANNEL_DAC1CH2_ADC3 (3)(6)
1512:../system/include/stm32l4-hal-driver/stm32l4xx_ll_adc.h ****   *
1513:../system/include/stm32l4-hal-driver/stm32l4xx_ll_adc.h ****   *         (1) On STM32L4, parameter available only on ADC instance: ADC1.\n
1514:../system/include/stm32l4-hal-driver/stm32l4xx_ll_adc.h ****   *         (2) On STM32L4, parameter available only on ADC instance: ADC2.\n
1515:../system/include/stm32l4-hal-driver/stm32l4xx_ll_adc.h ****   *         (3) On STM32L4, parameter available only on ADC instance: ADC3.\n
1516:../system/include/stm32l4-hal-driver/stm32l4xx_ll_adc.h ****   *         (4) On STM32L4, parameter available only on ADC instances: ADC1, ADC3.\n
1517:../system/include/stm32l4-hal-driver/stm32l4xx_ll_adc.h ****   *         (5) On STM32L4, parameter available on devices with only 1 ADC instance.\n
1518:../system/include/stm32l4-hal-driver/stm32l4xx_ll_adc.h ****   *         (6) On STM32L4, parameter available on devices with several ADC instances.\n
1519:../system/include/stm32l4-hal-driver/stm32l4xx_ll_adc.h ****   *         (7) On STM32L4, fast channel (0.188 us for 12-bit resolution (ADC conversion rate up to
1520:../system/include/stm32l4-hal-driver/stm32l4xx_ll_adc.h ****   *             Other channels are slow channels (0.238 us for 12-bit resolution (ADC conversion ra
1521:../system/include/stm32l4-hal-driver/stm32l4xx_ll_adc.h ****   *         (1, 2, 3, 4) For ADC channel read back from ADC register,
1522:../system/include/stm32l4-hal-driver/stm32l4xx_ll_adc.h ****   *                      comparison with internal channel parameter to be done
1523:../system/include/stm32l4-hal-driver/stm32l4xx_ll_adc.h ****   *                      using helper macro @ref __LL_ADC_CHANNEL_INTERNAL_TO_EXTERNAL().
1524:../system/include/stm32l4-hal-driver/stm32l4xx_ll_adc.h ****   */
1525:../system/include/stm32l4-hal-driver/stm32l4xx_ll_adc.h **** #define __LL_ADC_DECIMAL_NB_TO_CHANNEL(__DECIMAL_NB__)                                             
1526:../system/include/stm32l4-hal-driver/stm32l4xx_ll_adc.h ****   (((__DECIMAL_NB__) <= 9UL) ?                                                                     
1527:../system/include/stm32l4-hal-driver/stm32l4xx_ll_adc.h ****    (                                                                                               
1528:../system/include/stm32l4-hal-driver/stm32l4xx_ll_adc.h ****        ((__DECIMAL_NB__) << ADC_CHANNEL_ID_NUMBER_BITOFFSET_POS)                             |     
1529:../system/include/stm32l4-hal-driver/stm32l4xx_ll_adc.h ****        (ADC_AWD2CR_AWD2CH_0 << (__DECIMAL_NB__))                                             |     
1530:../system/include/stm32l4-hal-driver/stm32l4xx_ll_adc.h ****        (ADC_SMPR1_REGOFFSET | (((3UL * (__DECIMAL_NB__))) << ADC_CHANNEL_SMPx_BITOFFSET_POS))      
1531:../system/include/stm32l4-hal-driver/stm32l4xx_ll_adc.h ****    )                                                                                               
1532:../system/include/stm32l4-hal-driver/stm32l4xx_ll_adc.h ****    :                                                                                               
1533:../system/include/stm32l4-hal-driver/stm32l4xx_ll_adc.h ****    (                                                                                               
1534:../system/include/stm32l4-hal-driver/stm32l4xx_ll_adc.h ****        ((__DECIMAL_NB__) << ADC_CHANNEL_ID_NUMBER_BITOFFSET_POS)                                   
1535:../system/include/stm32l4-hal-driver/stm32l4xx_ll_adc.h ****        (ADC_AWD2CR_AWD2CH_0 << (__DECIMAL_NB__))                                                   
1536:../system/include/stm32l4-hal-driver/stm32l4xx_ll_adc.h ****        (ADC_SMPR2_REGOFFSET | (((3UL * ((__DECIMAL_NB__) - 10UL))) << ADC_CHANNEL_SMPx_BITOFFSET_PO
1537:../system/include/stm32l4-hal-driver/stm32l4xx_ll_adc.h ****    )                                                                                               
1538:../system/include/stm32l4-hal-driver/stm32l4xx_ll_adc.h ****   )
1539:../system/include/stm32l4-hal-driver/stm32l4xx_ll_adc.h **** 
1540:../system/include/stm32l4-hal-driver/stm32l4xx_ll_adc.h **** /**
1541:../system/include/stm32l4-hal-driver/stm32l4xx_ll_adc.h ****   * @brief  Helper macro to determine whether the selected channel
1542:../system/include/stm32l4-hal-driver/stm32l4xx_ll_adc.h ****   *         corresponds to literal definitions of driver.
1543:../system/include/stm32l4-hal-driver/stm32l4xx_ll_adc.h ****   * @note   The different literal definitions of ADC channels are:
1544:../system/include/stm32l4-hal-driver/stm32l4xx_ll_adc.h ****   *         - ADC internal channel:
1545:../system/include/stm32l4-hal-driver/stm32l4xx_ll_adc.h ****   *           LL_ADC_CHANNEL_VREFINT, LL_ADC_CHANNEL_TEMPSENSOR, ...
1546:../system/include/stm32l4-hal-driver/stm32l4xx_ll_adc.h ****   *         - ADC external channel (channel connected to a GPIO pin):
1547:../system/include/stm32l4-hal-driver/stm32l4xx_ll_adc.h ****   *           LL_ADC_CHANNEL_1, LL_ADC_CHANNEL_2, ...
1548:../system/include/stm32l4-hal-driver/stm32l4xx_ll_adc.h ****   * @note   The channel parameter must be a value defined from literal
1549:../system/include/stm32l4-hal-driver/stm32l4xx_ll_adc.h ****   *         definition of a ADC internal channel (LL_ADC_CHANNEL_VREFINT,
1550:../system/include/stm32l4-hal-driver/stm32l4xx_ll_adc.h ****   *         LL_ADC_CHANNEL_TEMPSENSOR, ...),
1551:../system/include/stm32l4-hal-driver/stm32l4xx_ll_adc.h ****   *         ADC external channel (LL_ADC_CHANNEL_1, LL_ADC_CHANNEL_2, ...),
1552:../system/include/stm32l4-hal-driver/stm32l4xx_ll_adc.h ****   *         must not be a value from functions where a channel number is
1553:../system/include/stm32l4-hal-driver/stm32l4xx_ll_adc.h ****   *         returned from ADC registers,
1554:../system/include/stm32l4-hal-driver/stm32l4xx_ll_adc.h ****   *         because internal and external channels share the same channel
1555:../system/include/stm32l4-hal-driver/stm32l4xx_ll_adc.h ****   *         number in ADC registers. The differentiation is made only with
1556:../system/include/stm32l4-hal-driver/stm32l4xx_ll_adc.h ****   *         parameters definitions of driver.
1557:../system/include/stm32l4-hal-driver/stm32l4xx_ll_adc.h ****   * @param  __CHANNEL__ This parameter can be one of the following values:
1558:../system/include/stm32l4-hal-driver/stm32l4xx_ll_adc.h ****   *         @arg @ref LL_ADC_CHANNEL_0
1559:../system/include/stm32l4-hal-driver/stm32l4xx_ll_adc.h ****   *         @arg @ref LL_ADC_CHANNEL_1            (7)
1560:../system/include/stm32l4-hal-driver/stm32l4xx_ll_adc.h ****   *         @arg @ref LL_ADC_CHANNEL_2            (7)
1561:../system/include/stm32l4-hal-driver/stm32l4xx_ll_adc.h ****   *         @arg @ref LL_ADC_CHANNEL_3            (7)
1562:../system/include/stm32l4-hal-driver/stm32l4xx_ll_adc.h ****   *         @arg @ref LL_ADC_CHANNEL_4            (7)
1563:../system/include/stm32l4-hal-driver/stm32l4xx_ll_adc.h ****   *         @arg @ref LL_ADC_CHANNEL_5            (7)
1564:../system/include/stm32l4-hal-driver/stm32l4xx_ll_adc.h ****   *         @arg @ref LL_ADC_CHANNEL_6
1565:../system/include/stm32l4-hal-driver/stm32l4xx_ll_adc.h ****   *         @arg @ref LL_ADC_CHANNEL_7
1566:../system/include/stm32l4-hal-driver/stm32l4xx_ll_adc.h ****   *         @arg @ref LL_ADC_CHANNEL_8
1567:../system/include/stm32l4-hal-driver/stm32l4xx_ll_adc.h ****   *         @arg @ref LL_ADC_CHANNEL_9
1568:../system/include/stm32l4-hal-driver/stm32l4xx_ll_adc.h ****   *         @arg @ref LL_ADC_CHANNEL_10
1569:../system/include/stm32l4-hal-driver/stm32l4xx_ll_adc.h ****   *         @arg @ref LL_ADC_CHANNEL_11
1570:../system/include/stm32l4-hal-driver/stm32l4xx_ll_adc.h ****   *         @arg @ref LL_ADC_CHANNEL_12
1571:../system/include/stm32l4-hal-driver/stm32l4xx_ll_adc.h ****   *         @arg @ref LL_ADC_CHANNEL_13
1572:../system/include/stm32l4-hal-driver/stm32l4xx_ll_adc.h ****   *         @arg @ref LL_ADC_CHANNEL_14
1573:../system/include/stm32l4-hal-driver/stm32l4xx_ll_adc.h ****   *         @arg @ref LL_ADC_CHANNEL_15
1574:../system/include/stm32l4-hal-driver/stm32l4xx_ll_adc.h ****   *         @arg @ref LL_ADC_CHANNEL_16
1575:../system/include/stm32l4-hal-driver/stm32l4xx_ll_adc.h ****   *         @arg @ref LL_ADC_CHANNEL_17
1576:../system/include/stm32l4-hal-driver/stm32l4xx_ll_adc.h ****   *         @arg @ref LL_ADC_CHANNEL_18
1577:../system/include/stm32l4-hal-driver/stm32l4xx_ll_adc.h ****   *         @arg @ref LL_ADC_CHANNEL_VREFINT      (1)
1578:../system/include/stm32l4-hal-driver/stm32l4xx_ll_adc.h ****   *         @arg @ref LL_ADC_CHANNEL_TEMPSENSOR   (4)
1579:../system/include/stm32l4-hal-driver/stm32l4xx_ll_adc.h ****   *         @arg @ref LL_ADC_CHANNEL_VBAT         (4)
1580:../system/include/stm32l4-hal-driver/stm32l4xx_ll_adc.h ****   *         @arg @ref LL_ADC_CHANNEL_DAC1CH1         (5)
1581:../system/include/stm32l4-hal-driver/stm32l4xx_ll_adc.h ****   *         @arg @ref LL_ADC_CHANNEL_DAC1CH2         (5)
1582:../system/include/stm32l4-hal-driver/stm32l4xx_ll_adc.h ****   *         @arg @ref LL_ADC_CHANNEL_DAC1CH1_ADC2 (2)(6)
1583:../system/include/stm32l4-hal-driver/stm32l4xx_ll_adc.h ****   *         @arg @ref LL_ADC_CHANNEL_DAC1CH2_ADC2 (2)(6)
1584:../system/include/stm32l4-hal-driver/stm32l4xx_ll_adc.h ****   *         @arg @ref LL_ADC_CHANNEL_DAC1CH1_ADC3 (3)(6)
1585:../system/include/stm32l4-hal-driver/stm32l4xx_ll_adc.h ****   *         @arg @ref LL_ADC_CHANNEL_DAC1CH2_ADC3 (3)(6)
1586:../system/include/stm32l4-hal-driver/stm32l4xx_ll_adc.h ****   *
1587:../system/include/stm32l4-hal-driver/stm32l4xx_ll_adc.h ****   *         (1) On STM32L4, parameter available only on ADC instance: ADC1.\n
1588:../system/include/stm32l4-hal-driver/stm32l4xx_ll_adc.h ****   *         (2) On STM32L4, parameter available only on ADC instance: ADC2.\n
1589:../system/include/stm32l4-hal-driver/stm32l4xx_ll_adc.h ****   *         (3) On STM32L4, parameter available only on ADC instance: ADC3.\n
1590:../system/include/stm32l4-hal-driver/stm32l4xx_ll_adc.h ****   *         (4) On STM32L4, parameter available only on ADC instances: ADC1, ADC3.\n
1591:../system/include/stm32l4-hal-driver/stm32l4xx_ll_adc.h ****   *         (5) On STM32L4, parameter available on devices with only 1 ADC instance.\n
1592:../system/include/stm32l4-hal-driver/stm32l4xx_ll_adc.h ****   *         (6) On STM32L4, parameter available on devices with several ADC instances.\n
1593:../system/include/stm32l4-hal-driver/stm32l4xx_ll_adc.h ****   *         (7) On STM32L4, fast channel (0.188 us for 12-bit resolution (ADC conversion rate up to
1594:../system/include/stm32l4-hal-driver/stm32l4xx_ll_adc.h ****   *             Other channels are slow channels (0.238 us for 12-bit resolution (ADC conversion ra
1595:../system/include/stm32l4-hal-driver/stm32l4xx_ll_adc.h ****   * @retval Value "0" if the channel corresponds to a parameter definition of a ADC external channe
1596:../system/include/stm32l4-hal-driver/stm32l4xx_ll_adc.h ****   *         Value "1" if the channel corresponds to a parameter definition of a ADC internal channe
1597:../system/include/stm32l4-hal-driver/stm32l4xx_ll_adc.h ****   */
1598:../system/include/stm32l4-hal-driver/stm32l4xx_ll_adc.h **** #define __LL_ADC_IS_CHANNEL_INTERNAL(__CHANNEL__)                              \
1599:../system/include/stm32l4-hal-driver/stm32l4xx_ll_adc.h ****   (((__CHANNEL__) & ADC_CHANNEL_ID_INTERNAL_CH_MASK) != 0UL)
1600:../system/include/stm32l4-hal-driver/stm32l4xx_ll_adc.h **** 
1601:../system/include/stm32l4-hal-driver/stm32l4xx_ll_adc.h **** /**
1602:../system/include/stm32l4-hal-driver/stm32l4xx_ll_adc.h ****   * @brief  Helper macro to convert a channel defined from parameter
1603:../system/include/stm32l4-hal-driver/stm32l4xx_ll_adc.h ****   *         definition of a ADC internal channel (LL_ADC_CHANNEL_VREFINT,
1604:../system/include/stm32l4-hal-driver/stm32l4xx_ll_adc.h ****   *         LL_ADC_CHANNEL_TEMPSENSOR, ...),
1605:../system/include/stm32l4-hal-driver/stm32l4xx_ll_adc.h ****   *         to its equivalent parameter definition of a ADC external channel
1606:../system/include/stm32l4-hal-driver/stm32l4xx_ll_adc.h ****   *         (LL_ADC_CHANNEL_1, LL_ADC_CHANNEL_2, ...).
1607:../system/include/stm32l4-hal-driver/stm32l4xx_ll_adc.h ****   * @note   The channel parameter can be, additionally to a value
1608:../system/include/stm32l4-hal-driver/stm32l4xx_ll_adc.h ****   *         defined from parameter definition of a ADC internal channel
1609:../system/include/stm32l4-hal-driver/stm32l4xx_ll_adc.h ****   *         (LL_ADC_CHANNEL_VREFINT, LL_ADC_CHANNEL_TEMPSENSOR, ...),
1610:../system/include/stm32l4-hal-driver/stm32l4xx_ll_adc.h ****   *         a value defined from parameter definition of
1611:../system/include/stm32l4-hal-driver/stm32l4xx_ll_adc.h ****   *         ADC external channel (LL_ADC_CHANNEL_1, LL_ADC_CHANNEL_2, ...)
1612:../system/include/stm32l4-hal-driver/stm32l4xx_ll_adc.h ****   *         or a value from functions where a channel number is returned
1613:../system/include/stm32l4-hal-driver/stm32l4xx_ll_adc.h ****   *         from ADC registers.
1614:../system/include/stm32l4-hal-driver/stm32l4xx_ll_adc.h ****   * @param  __CHANNEL__ This parameter can be one of the following values:
1615:../system/include/stm32l4-hal-driver/stm32l4xx_ll_adc.h ****   *         @arg @ref LL_ADC_CHANNEL_0
1616:../system/include/stm32l4-hal-driver/stm32l4xx_ll_adc.h ****   *         @arg @ref LL_ADC_CHANNEL_1            (7)
1617:../system/include/stm32l4-hal-driver/stm32l4xx_ll_adc.h ****   *         @arg @ref LL_ADC_CHANNEL_2            (7)
1618:../system/include/stm32l4-hal-driver/stm32l4xx_ll_adc.h ****   *         @arg @ref LL_ADC_CHANNEL_3            (7)
1619:../system/include/stm32l4-hal-driver/stm32l4xx_ll_adc.h ****   *         @arg @ref LL_ADC_CHANNEL_4            (7)
1620:../system/include/stm32l4-hal-driver/stm32l4xx_ll_adc.h ****   *         @arg @ref LL_ADC_CHANNEL_5            (7)
1621:../system/include/stm32l4-hal-driver/stm32l4xx_ll_adc.h ****   *         @arg @ref LL_ADC_CHANNEL_6
1622:../system/include/stm32l4-hal-driver/stm32l4xx_ll_adc.h ****   *         @arg @ref LL_ADC_CHANNEL_7
1623:../system/include/stm32l4-hal-driver/stm32l4xx_ll_adc.h ****   *         @arg @ref LL_ADC_CHANNEL_8
1624:../system/include/stm32l4-hal-driver/stm32l4xx_ll_adc.h ****   *         @arg @ref LL_ADC_CHANNEL_9
1625:../system/include/stm32l4-hal-driver/stm32l4xx_ll_adc.h ****   *         @arg @ref LL_ADC_CHANNEL_10
1626:../system/include/stm32l4-hal-driver/stm32l4xx_ll_adc.h ****   *         @arg @ref LL_ADC_CHANNEL_11
1627:../system/include/stm32l4-hal-driver/stm32l4xx_ll_adc.h ****   *         @arg @ref LL_ADC_CHANNEL_12
1628:../system/include/stm32l4-hal-driver/stm32l4xx_ll_adc.h ****   *         @arg @ref LL_ADC_CHANNEL_13
1629:../system/include/stm32l4-hal-driver/stm32l4xx_ll_adc.h ****   *         @arg @ref LL_ADC_CHANNEL_14
1630:../system/include/stm32l4-hal-driver/stm32l4xx_ll_adc.h ****   *         @arg @ref LL_ADC_CHANNEL_15
1631:../system/include/stm32l4-hal-driver/stm32l4xx_ll_adc.h ****   *         @arg @ref LL_ADC_CHANNEL_16
1632:../system/include/stm32l4-hal-driver/stm32l4xx_ll_adc.h ****   *         @arg @ref LL_ADC_CHANNEL_17
1633:../system/include/stm32l4-hal-driver/stm32l4xx_ll_adc.h ****   *         @arg @ref LL_ADC_CHANNEL_18
1634:../system/include/stm32l4-hal-driver/stm32l4xx_ll_adc.h ****   *         @arg @ref LL_ADC_CHANNEL_VREFINT      (1)
1635:../system/include/stm32l4-hal-driver/stm32l4xx_ll_adc.h ****   *         @arg @ref LL_ADC_CHANNEL_TEMPSENSOR   (4)
1636:../system/include/stm32l4-hal-driver/stm32l4xx_ll_adc.h ****   *         @arg @ref LL_ADC_CHANNEL_VBAT         (4)
1637:../system/include/stm32l4-hal-driver/stm32l4xx_ll_adc.h ****   *         @arg @ref LL_ADC_CHANNEL_DAC1CH1         (5)
1638:../system/include/stm32l4-hal-driver/stm32l4xx_ll_adc.h ****   *         @arg @ref LL_ADC_CHANNEL_DAC1CH2         (5)
1639:../system/include/stm32l4-hal-driver/stm32l4xx_ll_adc.h ****   *         @arg @ref LL_ADC_CHANNEL_DAC1CH1_ADC2 (2)(6)
1640:../system/include/stm32l4-hal-driver/stm32l4xx_ll_adc.h ****   *         @arg @ref LL_ADC_CHANNEL_DAC1CH2_ADC2 (2)(6)
1641:../system/include/stm32l4-hal-driver/stm32l4xx_ll_adc.h ****   *         @arg @ref LL_ADC_CHANNEL_DAC1CH1_ADC3 (3)(6)
1642:../system/include/stm32l4-hal-driver/stm32l4xx_ll_adc.h ****   *         @arg @ref LL_ADC_CHANNEL_DAC1CH2_ADC3 (3)(6)
1643:../system/include/stm32l4-hal-driver/stm32l4xx_ll_adc.h ****   *
1644:../system/include/stm32l4-hal-driver/stm32l4xx_ll_adc.h ****   *         (1) On STM32L4, parameter available only on ADC instance: ADC1.\n
1645:../system/include/stm32l4-hal-driver/stm32l4xx_ll_adc.h ****   *         (2) On STM32L4, parameter available only on ADC instance: ADC2.\n
1646:../system/include/stm32l4-hal-driver/stm32l4xx_ll_adc.h ****   *         (3) On STM32L4, parameter available only on ADC instance: ADC3.\n
1647:../system/include/stm32l4-hal-driver/stm32l4xx_ll_adc.h ****   *         (4) On STM32L4, parameter available only on ADC instances: ADC1, ADC3.\n
1648:../system/include/stm32l4-hal-driver/stm32l4xx_ll_adc.h ****   *         (5) On STM32L4, parameter available on devices with only 1 ADC instance.\n
1649:../system/include/stm32l4-hal-driver/stm32l4xx_ll_adc.h ****   *         (6) On STM32L4, parameter available on devices with several ADC instances.\n
1650:../system/include/stm32l4-hal-driver/stm32l4xx_ll_adc.h ****   *         (7) On STM32L4, fast channel (0.188 us for 12-bit resolution (ADC conversion rate up to
1651:../system/include/stm32l4-hal-driver/stm32l4xx_ll_adc.h ****   *             Other channels are slow channels (0.238 us for 12-bit resolution (ADC conversion ra
1652:../system/include/stm32l4-hal-driver/stm32l4xx_ll_adc.h ****   * @retval Returned value can be one of the following values:
1653:../system/include/stm32l4-hal-driver/stm32l4xx_ll_adc.h ****   *         @arg @ref LL_ADC_CHANNEL_0
1654:../system/include/stm32l4-hal-driver/stm32l4xx_ll_adc.h ****   *         @arg @ref LL_ADC_CHANNEL_1
1655:../system/include/stm32l4-hal-driver/stm32l4xx_ll_adc.h ****   *         @arg @ref LL_ADC_CHANNEL_2
1656:../system/include/stm32l4-hal-driver/stm32l4xx_ll_adc.h ****   *         @arg @ref LL_ADC_CHANNEL_3
1657:../system/include/stm32l4-hal-driver/stm32l4xx_ll_adc.h ****   *         @arg @ref LL_ADC_CHANNEL_4
1658:../system/include/stm32l4-hal-driver/stm32l4xx_ll_adc.h ****   *         @arg @ref LL_ADC_CHANNEL_5
1659:../system/include/stm32l4-hal-driver/stm32l4xx_ll_adc.h ****   *         @arg @ref LL_ADC_CHANNEL_6
1660:../system/include/stm32l4-hal-driver/stm32l4xx_ll_adc.h ****   *         @arg @ref LL_ADC_CHANNEL_7
1661:../system/include/stm32l4-hal-driver/stm32l4xx_ll_adc.h ****   *         @arg @ref LL_ADC_CHANNEL_8
1662:../system/include/stm32l4-hal-driver/stm32l4xx_ll_adc.h ****   *         @arg @ref LL_ADC_CHANNEL_9
1663:../system/include/stm32l4-hal-driver/stm32l4xx_ll_adc.h ****   *         @arg @ref LL_ADC_CHANNEL_10
1664:../system/include/stm32l4-hal-driver/stm32l4xx_ll_adc.h ****   *         @arg @ref LL_ADC_CHANNEL_11
1665:../system/include/stm32l4-hal-driver/stm32l4xx_ll_adc.h ****   *         @arg @ref LL_ADC_CHANNEL_12
1666:../system/include/stm32l4-hal-driver/stm32l4xx_ll_adc.h ****   *         @arg @ref LL_ADC_CHANNEL_13
1667:../system/include/stm32l4-hal-driver/stm32l4xx_ll_adc.h ****   *         @arg @ref LL_ADC_CHANNEL_14
1668:../system/include/stm32l4-hal-driver/stm32l4xx_ll_adc.h ****   *         @arg @ref LL_ADC_CHANNEL_15
1669:../system/include/stm32l4-hal-driver/stm32l4xx_ll_adc.h ****   *         @arg @ref LL_ADC_CHANNEL_16
1670:../system/include/stm32l4-hal-driver/stm32l4xx_ll_adc.h ****   *         @arg @ref LL_ADC_CHANNEL_17
1671:../system/include/stm32l4-hal-driver/stm32l4xx_ll_adc.h ****   *         @arg @ref LL_ADC_CHANNEL_18
1672:../system/include/stm32l4-hal-driver/stm32l4xx_ll_adc.h ****   */
1673:../system/include/stm32l4-hal-driver/stm32l4xx_ll_adc.h **** #define __LL_ADC_CHANNEL_INTERNAL_TO_EXTERNAL(__CHANNEL__)                     \
1674:../system/include/stm32l4-hal-driver/stm32l4xx_ll_adc.h ****   ((__CHANNEL__) & ~ADC_CHANNEL_ID_INTERNAL_CH_MASK)
1675:../system/include/stm32l4-hal-driver/stm32l4xx_ll_adc.h **** 
1676:../system/include/stm32l4-hal-driver/stm32l4xx_ll_adc.h **** /**
1677:../system/include/stm32l4-hal-driver/stm32l4xx_ll_adc.h ****   * @brief  Helper macro to determine whether the internal channel
1678:../system/include/stm32l4-hal-driver/stm32l4xx_ll_adc.h ****   *         selected is available on the ADC instance selected.
1679:../system/include/stm32l4-hal-driver/stm32l4xx_ll_adc.h ****   * @note   The channel parameter must be a value defined from parameter
1680:../system/include/stm32l4-hal-driver/stm32l4xx_ll_adc.h ****   *         definition of a ADC internal channel (LL_ADC_CHANNEL_VREFINT,
1681:../system/include/stm32l4-hal-driver/stm32l4xx_ll_adc.h ****   *         LL_ADC_CHANNEL_TEMPSENSOR, ...),
1682:../system/include/stm32l4-hal-driver/stm32l4xx_ll_adc.h ****   *         must not be a value defined from parameter definition of
1683:../system/include/stm32l4-hal-driver/stm32l4xx_ll_adc.h ****   *         ADC external channel (LL_ADC_CHANNEL_1, LL_ADC_CHANNEL_2, ...)
1684:../system/include/stm32l4-hal-driver/stm32l4xx_ll_adc.h ****   *         or a value from functions where a channel number is
1685:../system/include/stm32l4-hal-driver/stm32l4xx_ll_adc.h ****   *         returned from ADC registers,
1686:../system/include/stm32l4-hal-driver/stm32l4xx_ll_adc.h ****   *         because internal and external channels share the same channel
1687:../system/include/stm32l4-hal-driver/stm32l4xx_ll_adc.h ****   *         number in ADC registers. The differentiation is made only with
1688:../system/include/stm32l4-hal-driver/stm32l4xx_ll_adc.h ****   *         parameters definitions of driver.
1689:../system/include/stm32l4-hal-driver/stm32l4xx_ll_adc.h ****   * @param  __ADC_INSTANCE__ ADC instance
1690:../system/include/stm32l4-hal-driver/stm32l4xx_ll_adc.h ****   * @param  __CHANNEL__ This parameter can be one of the following values:
1691:../system/include/stm32l4-hal-driver/stm32l4xx_ll_adc.h ****   *         @arg @ref LL_ADC_CHANNEL_VREFINT      (1)
1692:../system/include/stm32l4-hal-driver/stm32l4xx_ll_adc.h ****   *         @arg @ref LL_ADC_CHANNEL_TEMPSENSOR   (4)
1693:../system/include/stm32l4-hal-driver/stm32l4xx_ll_adc.h ****   *         @arg @ref LL_ADC_CHANNEL_VBAT         (4)
1694:../system/include/stm32l4-hal-driver/stm32l4xx_ll_adc.h ****   *         @arg @ref LL_ADC_CHANNEL_DAC1CH1         (5)
1695:../system/include/stm32l4-hal-driver/stm32l4xx_ll_adc.h ****   *         @arg @ref LL_ADC_CHANNEL_DAC1CH2         (5)
1696:../system/include/stm32l4-hal-driver/stm32l4xx_ll_adc.h ****   *         @arg @ref LL_ADC_CHANNEL_DAC1CH1_ADC2 (2)(6)
1697:../system/include/stm32l4-hal-driver/stm32l4xx_ll_adc.h ****   *         @arg @ref LL_ADC_CHANNEL_DAC1CH2_ADC2 (2)(6)
1698:../system/include/stm32l4-hal-driver/stm32l4xx_ll_adc.h ****   *         @arg @ref LL_ADC_CHANNEL_DAC1CH1_ADC3 (3)(6)
1699:../system/include/stm32l4-hal-driver/stm32l4xx_ll_adc.h ****   *         @arg @ref LL_ADC_CHANNEL_DAC1CH2_ADC3 (3)(6)
1700:../system/include/stm32l4-hal-driver/stm32l4xx_ll_adc.h ****   *
1701:../system/include/stm32l4-hal-driver/stm32l4xx_ll_adc.h ****   *         (1) On STM32L4, parameter available only on ADC instance: ADC1.\n
1702:../system/include/stm32l4-hal-driver/stm32l4xx_ll_adc.h ****   *         (2) On STM32L4, parameter available only on ADC instance: ADC2.\n
1703:../system/include/stm32l4-hal-driver/stm32l4xx_ll_adc.h ****   *         (3) On STM32L4, parameter available only on ADC instance: ADC3.\n
1704:../system/include/stm32l4-hal-driver/stm32l4xx_ll_adc.h ****   *         (4) On STM32L4, parameter available only on ADC instances: ADC1, ADC3.\n
1705:../system/include/stm32l4-hal-driver/stm32l4xx_ll_adc.h ****   *         (5) On STM32L4, parameter available on devices with only 1 ADC instance.\n
1706:../system/include/stm32l4-hal-driver/stm32l4xx_ll_adc.h ****   *         (6) On STM32L4, parameter available on devices with several ADC instances.
1707:../system/include/stm32l4-hal-driver/stm32l4xx_ll_adc.h ****   * @retval Value "0" if the internal channel selected is not available on the ADC instance selecte
1708:../system/include/stm32l4-hal-driver/stm32l4xx_ll_adc.h ****   *         Value "1" if the internal channel selected is available on the ADC instance selected.
1709:../system/include/stm32l4-hal-driver/stm32l4xx_ll_adc.h ****   */
1710:../system/include/stm32l4-hal-driver/stm32l4xx_ll_adc.h **** #if defined (ADC1) && defined (ADC2) && defined (ADC3)
1711:../system/include/stm32l4-hal-driver/stm32l4xx_ll_adc.h **** #define __LL_ADC_IS_CHANNEL_INTERNAL_AVAILABLE(__ADC_INSTANCE__, __CHANNEL__)  \
1712:../system/include/stm32l4-hal-driver/stm32l4xx_ll_adc.h ****   (((__ADC_INSTANCE__) == ADC1) ?                                              \
1713:../system/include/stm32l4-hal-driver/stm32l4xx_ll_adc.h ****    (                                                                           \
1714:../system/include/stm32l4-hal-driver/stm32l4xx_ll_adc.h ****     ((__CHANNEL__) == LL_ADC_CHANNEL_VREFINT)    ||                            \
1715:../system/include/stm32l4-hal-driver/stm32l4xx_ll_adc.h ****     ((__CHANNEL__) == LL_ADC_CHANNEL_TEMPSENSOR) ||                            \
1716:../system/include/stm32l4-hal-driver/stm32l4xx_ll_adc.h ****     ((__CHANNEL__) == LL_ADC_CHANNEL_VBAT)                                     \
1717:../system/include/stm32l4-hal-driver/stm32l4xx_ll_adc.h ****    )                                                                           \
1718:../system/include/stm32l4-hal-driver/stm32l4xx_ll_adc.h ****    :                                                                           \
1719:../system/include/stm32l4-hal-driver/stm32l4xx_ll_adc.h ****    ((__ADC_INSTANCE__) == ADC2) ?                                              \
1720:../system/include/stm32l4-hal-driver/stm32l4xx_ll_adc.h ****     (                                                                          \
1721:../system/include/stm32l4-hal-driver/stm32l4xx_ll_adc.h ****      ((__CHANNEL__) == LL_ADC_CHANNEL_VREFINT)      ||                         \
1722:../system/include/stm32l4-hal-driver/stm32l4xx_ll_adc.h ****      ((__CHANNEL__) == LL_ADC_CHANNEL_DAC1CH1_ADC2) ||                         \
1723:../system/include/stm32l4-hal-driver/stm32l4xx_ll_adc.h ****      ((__CHANNEL__) == LL_ADC_CHANNEL_DAC1CH2_ADC2)                            \
1724:../system/include/stm32l4-hal-driver/stm32l4xx_ll_adc.h ****     )                                                                          \
1725:../system/include/stm32l4-hal-driver/stm32l4xx_ll_adc.h ****     :                                                                          \
1726:../system/include/stm32l4-hal-driver/stm32l4xx_ll_adc.h ****     ((__ADC_INSTANCE__) == ADC3) ?                                             \
1727:../system/include/stm32l4-hal-driver/stm32l4xx_ll_adc.h ****      (                                                                         \
1728:../system/include/stm32l4-hal-driver/stm32l4xx_ll_adc.h ****       ((__CHANNEL__) == LL_ADC_CHANNEL_VREFINT)      ||                        \
1729:../system/include/stm32l4-hal-driver/stm32l4xx_ll_adc.h ****       ((__CHANNEL__) == LL_ADC_CHANNEL_TEMPSENSOR)   ||                        \
1730:../system/include/stm32l4-hal-driver/stm32l4xx_ll_adc.h ****       ((__CHANNEL__) == LL_ADC_CHANNEL_VBAT)         ||                        \
1731:../system/include/stm32l4-hal-driver/stm32l4xx_ll_adc.h ****       ((__CHANNEL__) == LL_ADC_CHANNEL_DAC1CH1_ADC3) ||                        \
1732:../system/include/stm32l4-hal-driver/stm32l4xx_ll_adc.h ****       ((__CHANNEL__) == LL_ADC_CHANNEL_DAC1CH2_ADC3)                           \
1733:../system/include/stm32l4-hal-driver/stm32l4xx_ll_adc.h ****      )                                                                         \
1734:../system/include/stm32l4-hal-driver/stm32l4xx_ll_adc.h ****      :                                                                         \
1735:../system/include/stm32l4-hal-driver/stm32l4xx_ll_adc.h ****      (0UL)                                                                     \
1736:../system/include/stm32l4-hal-driver/stm32l4xx_ll_adc.h ****   )
1737:../system/include/stm32l4-hal-driver/stm32l4xx_ll_adc.h **** #elif defined (ADC1) && defined (ADC2)
1738:../system/include/stm32l4-hal-driver/stm32l4xx_ll_adc.h **** #define __LL_ADC_IS_CHANNEL_INTERNAL_AVAILABLE(__ADC_INSTANCE__, __CHANNEL__)  \
1739:../system/include/stm32l4-hal-driver/stm32l4xx_ll_adc.h ****   (((__ADC_INSTANCE__) == ADC1) ?                                              \
1740:../system/include/stm32l4-hal-driver/stm32l4xx_ll_adc.h ****    (                                                                           \
1741:../system/include/stm32l4-hal-driver/stm32l4xx_ll_adc.h ****     ((__CHANNEL__) == LL_ADC_CHANNEL_VREFINT)    ||                            \
1742:../system/include/stm32l4-hal-driver/stm32l4xx_ll_adc.h ****     ((__CHANNEL__) == LL_ADC_CHANNEL_TEMPSENSOR) ||                            \
1743:../system/include/stm32l4-hal-driver/stm32l4xx_ll_adc.h ****     ((__CHANNEL__) == LL_ADC_CHANNEL_VBAT)                                     \
1744:../system/include/stm32l4-hal-driver/stm32l4xx_ll_adc.h ****    )                                                                           \
1745:../system/include/stm32l4-hal-driver/stm32l4xx_ll_adc.h ****    :                                                                           \
1746:../system/include/stm32l4-hal-driver/stm32l4xx_ll_adc.h ****    ((__ADC_INSTANCE__) == ADC2) ?                                              \
1747:../system/include/stm32l4-hal-driver/stm32l4xx_ll_adc.h ****     (                                                                          \
1748:../system/include/stm32l4-hal-driver/stm32l4xx_ll_adc.h ****      ((__CHANNEL__) == LL_ADC_CHANNEL_VREFINT)      ||                         \
1749:../system/include/stm32l4-hal-driver/stm32l4xx_ll_adc.h ****      ((__CHANNEL__) == LL_ADC_CHANNEL_DAC1CH1_ADC2) ||                         \
1750:../system/include/stm32l4-hal-driver/stm32l4xx_ll_adc.h ****      ((__CHANNEL__) == LL_ADC_CHANNEL_DAC1CH2_ADC2)                            \
1751:../system/include/stm32l4-hal-driver/stm32l4xx_ll_adc.h ****     )                                                                          \
1752:../system/include/stm32l4-hal-driver/stm32l4xx_ll_adc.h ****     :                                                                          \
1753:../system/include/stm32l4-hal-driver/stm32l4xx_ll_adc.h ****     (0UL)                                                                      \
1754:../system/include/stm32l4-hal-driver/stm32l4xx_ll_adc.h ****   )
1755:../system/include/stm32l4-hal-driver/stm32l4xx_ll_adc.h **** #elif defined (ADC1)
1756:../system/include/stm32l4-hal-driver/stm32l4xx_ll_adc.h **** #define __LL_ADC_IS_CHANNEL_INTERNAL_AVAILABLE(__ADC_INSTANCE__, __CHANNEL__)  \
1757:../system/include/stm32l4-hal-driver/stm32l4xx_ll_adc.h ****   (                                                                            \
1758:../system/include/stm32l4-hal-driver/stm32l4xx_ll_adc.h ****     ((__CHANNEL__) == LL_ADC_CHANNEL_VREFINT)    ||                            \
1759:../system/include/stm32l4-hal-driver/stm32l4xx_ll_adc.h ****     ((__CHANNEL__) == LL_ADC_CHANNEL_TEMPSENSOR) ||                            \
1760:../system/include/stm32l4-hal-driver/stm32l4xx_ll_adc.h ****     ((__CHANNEL__) == LL_ADC_CHANNEL_VBAT)       ||                            \
1761:../system/include/stm32l4-hal-driver/stm32l4xx_ll_adc.h ****     ((__CHANNEL__) == LL_ADC_CHANNEL_DAC1CH1)    ||                            \
1762:../system/include/stm32l4-hal-driver/stm32l4xx_ll_adc.h ****     ((__CHANNEL__) == LL_ADC_CHANNEL_DAC1CH2)                                  \
1763:../system/include/stm32l4-hal-driver/stm32l4xx_ll_adc.h ****   )
1764:../system/include/stm32l4-hal-driver/stm32l4xx_ll_adc.h **** #endif /* defined (ADC1) && defined (ADC2) && defined (ADC3) */
1765:../system/include/stm32l4-hal-driver/stm32l4xx_ll_adc.h **** 
1766:../system/include/stm32l4-hal-driver/stm32l4xx_ll_adc.h **** /**
1767:../system/include/stm32l4-hal-driver/stm32l4xx_ll_adc.h ****   * @brief  Helper macro to define ADC analog watchdog parameter:
1768:../system/include/stm32l4-hal-driver/stm32l4xx_ll_adc.h ****   *         define a single channel to monitor with analog watchdog
1769:../system/include/stm32l4-hal-driver/stm32l4xx_ll_adc.h ****   *         from sequencer channel and groups definition.
1770:../system/include/stm32l4-hal-driver/stm32l4xx_ll_adc.h ****   * @note   To be used with function @ref LL_ADC_SetAnalogWDMonitChannels().
1771:../system/include/stm32l4-hal-driver/stm32l4xx_ll_adc.h ****   *         Example:
1772:../system/include/stm32l4-hal-driver/stm32l4xx_ll_adc.h ****   *           LL_ADC_SetAnalogWDMonitChannels(
1773:../system/include/stm32l4-hal-driver/stm32l4xx_ll_adc.h ****   *             ADC1, LL_ADC_AWD1,
1774:../system/include/stm32l4-hal-driver/stm32l4xx_ll_adc.h ****   *             __LL_ADC_ANALOGWD_CHANNEL_GROUP(LL_ADC_CHANNEL4, LL_ADC_GROUP_REGULAR))
1775:../system/include/stm32l4-hal-driver/stm32l4xx_ll_adc.h ****   * @param  __CHANNEL__ This parameter can be one of the following values:
1776:../system/include/stm32l4-hal-driver/stm32l4xx_ll_adc.h ****   *         @arg @ref LL_ADC_CHANNEL_0
1777:../system/include/stm32l4-hal-driver/stm32l4xx_ll_adc.h ****   *         @arg @ref LL_ADC_CHANNEL_1            (7)
1778:../system/include/stm32l4-hal-driver/stm32l4xx_ll_adc.h ****   *         @arg @ref LL_ADC_CHANNEL_2            (7)
1779:../system/include/stm32l4-hal-driver/stm32l4xx_ll_adc.h ****   *         @arg @ref LL_ADC_CHANNEL_3            (7)
1780:../system/include/stm32l4-hal-driver/stm32l4xx_ll_adc.h ****   *         @arg @ref LL_ADC_CHANNEL_4            (7)
1781:../system/include/stm32l4-hal-driver/stm32l4xx_ll_adc.h ****   *         @arg @ref LL_ADC_CHANNEL_5            (7)
1782:../system/include/stm32l4-hal-driver/stm32l4xx_ll_adc.h ****   *         @arg @ref LL_ADC_CHANNEL_6
1783:../system/include/stm32l4-hal-driver/stm32l4xx_ll_adc.h ****   *         @arg @ref LL_ADC_CHANNEL_7
1784:../system/include/stm32l4-hal-driver/stm32l4xx_ll_adc.h ****   *         @arg @ref LL_ADC_CHANNEL_8
1785:../system/include/stm32l4-hal-driver/stm32l4xx_ll_adc.h ****   *         @arg @ref LL_ADC_CHANNEL_9
1786:../system/include/stm32l4-hal-driver/stm32l4xx_ll_adc.h ****   *         @arg @ref LL_ADC_CHANNEL_10
1787:../system/include/stm32l4-hal-driver/stm32l4xx_ll_adc.h ****   *         @arg @ref LL_ADC_CHANNEL_11
1788:../system/include/stm32l4-hal-driver/stm32l4xx_ll_adc.h ****   *         @arg @ref LL_ADC_CHANNEL_12
1789:../system/include/stm32l4-hal-driver/stm32l4xx_ll_adc.h ****   *         @arg @ref LL_ADC_CHANNEL_13
1790:../system/include/stm32l4-hal-driver/stm32l4xx_ll_adc.h ****   *         @arg @ref LL_ADC_CHANNEL_14
1791:../system/include/stm32l4-hal-driver/stm32l4xx_ll_adc.h ****   *         @arg @ref LL_ADC_CHANNEL_15
1792:../system/include/stm32l4-hal-driver/stm32l4xx_ll_adc.h ****   *         @arg @ref LL_ADC_CHANNEL_16
1793:../system/include/stm32l4-hal-driver/stm32l4xx_ll_adc.h ****   *         @arg @ref LL_ADC_CHANNEL_17
1794:../system/include/stm32l4-hal-driver/stm32l4xx_ll_adc.h ****   *         @arg @ref LL_ADC_CHANNEL_18
1795:../system/include/stm32l4-hal-driver/stm32l4xx_ll_adc.h ****   *         @arg @ref LL_ADC_CHANNEL_VREFINT      (1)
1796:../system/include/stm32l4-hal-driver/stm32l4xx_ll_adc.h ****   *         @arg @ref LL_ADC_CHANNEL_TEMPSENSOR   (4)
1797:../system/include/stm32l4-hal-driver/stm32l4xx_ll_adc.h ****   *         @arg @ref LL_ADC_CHANNEL_VBAT         (4)
1798:../system/include/stm32l4-hal-driver/stm32l4xx_ll_adc.h ****   *         @arg @ref LL_ADC_CHANNEL_DAC1CH1         (5)
1799:../system/include/stm32l4-hal-driver/stm32l4xx_ll_adc.h ****   *         @arg @ref LL_ADC_CHANNEL_DAC1CH2         (5)
1800:../system/include/stm32l4-hal-driver/stm32l4xx_ll_adc.h ****   *         @arg @ref LL_ADC_CHANNEL_DAC1CH1_ADC2 (2)(6)
1801:../system/include/stm32l4-hal-driver/stm32l4xx_ll_adc.h ****   *         @arg @ref LL_ADC_CHANNEL_DAC1CH2_ADC2 (2)(6)
1802:../system/include/stm32l4-hal-driver/stm32l4xx_ll_adc.h ****   *         @arg @ref LL_ADC_CHANNEL_DAC1CH1_ADC3 (3)(6)
1803:../system/include/stm32l4-hal-driver/stm32l4xx_ll_adc.h ****   *         @arg @ref LL_ADC_CHANNEL_DAC1CH2_ADC3 (3)(6)
1804:../system/include/stm32l4-hal-driver/stm32l4xx_ll_adc.h ****   *
1805:../system/include/stm32l4-hal-driver/stm32l4xx_ll_adc.h ****   *         (1) On STM32L4, parameter available only on ADC instance: ADC1.\n
1806:../system/include/stm32l4-hal-driver/stm32l4xx_ll_adc.h ****   *         (2) On STM32L4, parameter available only on ADC instance: ADC2.\n
1807:../system/include/stm32l4-hal-driver/stm32l4xx_ll_adc.h ****   *         (3) On STM32L4, parameter available only on ADC instance: ADC3.\n
1808:../system/include/stm32l4-hal-driver/stm32l4xx_ll_adc.h ****   *         (4) On STM32L4, parameter available only on ADC instances: ADC1, ADC3.\n
1809:../system/include/stm32l4-hal-driver/stm32l4xx_ll_adc.h ****   *         (5) On STM32L4, parameter available on devices with only 1 ADC instance.\n
1810:../system/include/stm32l4-hal-driver/stm32l4xx_ll_adc.h ****   *         (6) On STM32L4, parameter available on devices with several ADC instances.\n
1811:../system/include/stm32l4-hal-driver/stm32l4xx_ll_adc.h ****   *         (7) On STM32L4, fast channel (0.188 us for 12-bit resolution (ADC conversion rate up to
1812:../system/include/stm32l4-hal-driver/stm32l4xx_ll_adc.h ****   *             Other channels are slow channels (0.238 us for 12-bit resolution (ADC conversion ra
1813:../system/include/stm32l4-hal-driver/stm32l4xx_ll_adc.h ****   *         (1, 2, 3, 4) For ADC channel read back from ADC register,
1814:../system/include/stm32l4-hal-driver/stm32l4xx_ll_adc.h ****   *                      comparison with internal channel parameter to be done
1815:../system/include/stm32l4-hal-driver/stm32l4xx_ll_adc.h ****   *                      using helper macro @ref __LL_ADC_CHANNEL_INTERNAL_TO_EXTERNAL().
1816:../system/include/stm32l4-hal-driver/stm32l4xx_ll_adc.h ****   * @param  __GROUP__ This parameter can be one of the following values:
1817:../system/include/stm32l4-hal-driver/stm32l4xx_ll_adc.h ****   *         @arg @ref LL_ADC_GROUP_REGULAR
1818:../system/include/stm32l4-hal-driver/stm32l4xx_ll_adc.h ****   *         @arg @ref LL_ADC_GROUP_INJECTED
1819:../system/include/stm32l4-hal-driver/stm32l4xx_ll_adc.h ****   *         @arg @ref LL_ADC_GROUP_REGULAR_INJECTED
1820:../system/include/stm32l4-hal-driver/stm32l4xx_ll_adc.h ****   * @retval Returned value can be one of the following values:
1821:../system/include/stm32l4-hal-driver/stm32l4xx_ll_adc.h ****   *         @arg @ref LL_ADC_AWD_DISABLE
1822:../system/include/stm32l4-hal-driver/stm32l4xx_ll_adc.h ****   *         @arg @ref LL_ADC_AWD_ALL_CHANNELS_REG        (0)
1823:../system/include/stm32l4-hal-driver/stm32l4xx_ll_adc.h ****   *         @arg @ref LL_ADC_AWD_ALL_CHANNELS_INJ        (0)
1824:../system/include/stm32l4-hal-driver/stm32l4xx_ll_adc.h ****   *         @arg @ref LL_ADC_AWD_ALL_CHANNELS_REG_INJ
1825:../system/include/stm32l4-hal-driver/stm32l4xx_ll_adc.h ****   *         @arg @ref LL_ADC_AWD_CHANNEL_0_REG           (0)
1826:../system/include/stm32l4-hal-driver/stm32l4xx_ll_adc.h ****   *         @arg @ref LL_ADC_AWD_CHANNEL_0_INJ           (0)
1827:../system/include/stm32l4-hal-driver/stm32l4xx_ll_adc.h ****   *         @arg @ref LL_ADC_AWD_CHANNEL_0_REG_INJ
1828:../system/include/stm32l4-hal-driver/stm32l4xx_ll_adc.h ****   *         @arg @ref LL_ADC_AWD_CHANNEL_1_REG           (0)
1829:../system/include/stm32l4-hal-driver/stm32l4xx_ll_adc.h ****   *         @arg @ref LL_ADC_AWD_CHANNEL_1_INJ           (0)
1830:../system/include/stm32l4-hal-driver/stm32l4xx_ll_adc.h ****   *         @arg @ref LL_ADC_AWD_CHANNEL_1_REG_INJ
1831:../system/include/stm32l4-hal-driver/stm32l4xx_ll_adc.h ****   *         @arg @ref LL_ADC_AWD_CHANNEL_2_REG           (0)
1832:../system/include/stm32l4-hal-driver/stm32l4xx_ll_adc.h ****   *         @arg @ref LL_ADC_AWD_CHANNEL_2_INJ           (0)
1833:../system/include/stm32l4-hal-driver/stm32l4xx_ll_adc.h ****   *         @arg @ref LL_ADC_AWD_CHANNEL_2_REG_INJ
1834:../system/include/stm32l4-hal-driver/stm32l4xx_ll_adc.h ****   *         @arg @ref LL_ADC_AWD_CHANNEL_3_REG           (0)
1835:../system/include/stm32l4-hal-driver/stm32l4xx_ll_adc.h ****   *         @arg @ref LL_ADC_AWD_CHANNEL_3_INJ           (0)
1836:../system/include/stm32l4-hal-driver/stm32l4xx_ll_adc.h ****   *         @arg @ref LL_ADC_AWD_CHANNEL_3_REG_INJ
1837:../system/include/stm32l4-hal-driver/stm32l4xx_ll_adc.h ****   *         @arg @ref LL_ADC_AWD_CHANNEL_4_REG           (0)
1838:../system/include/stm32l4-hal-driver/stm32l4xx_ll_adc.h ****   *         @arg @ref LL_ADC_AWD_CHANNEL_4_INJ           (0)
