   1              		.cpu cortex-m4
   2              		.eabi_attribute 27, 1
   3              		.eabi_attribute 28, 1
   4              		.eabi_attribute 20, 1
   5              		.eabi_attribute 21, 1
   6              		.eabi_attribute 23, 3
   7              		.eabi_attribute 24, 1
   8              		.eabi_attribute 25, 1
   9              		.eabi_attribute 26, 1
  10              		.eabi_attribute 30, 1
  11              		.eabi_attribute 34, 1
  12              		.eabi_attribute 18, 4
  13              		.file	"stm32l4xx_ll_exti.c"
  14              		.text
  15              	.Ltext0:
  16              		.cfi_sections	.debug_frame
  17              		.section	.text.LL_EXTI_DeInit,"ax",%progbits
  18              		.align	1
  19              		.global	LL_EXTI_DeInit
  20              		.syntax unified
  21              		.thumb
  22              		.thumb_func
  23              		.fpu fpv4-sp-d16
  25              	LL_EXTI_DeInit:
  26              	.LFB164:
  27              		.file 1 "../system/src/stm32l4-hal-driver/stm32l4xx_ll_exti.c"
   1:../system/src/stm32l4-hal-driver/stm32l4xx_ll_exti.c **** /**
   2:../system/src/stm32l4-hal-driver/stm32l4xx_ll_exti.c ****   ******************************************************************************
   3:../system/src/stm32l4-hal-driver/stm32l4xx_ll_exti.c ****   * @file    stm32l4xx_ll_exti.c
   4:../system/src/stm32l4-hal-driver/stm32l4xx_ll_exti.c ****   * @author  MCD Application Team
   5:../system/src/stm32l4-hal-driver/stm32l4xx_ll_exti.c ****   * @brief   EXTI LL module driver.
   6:../system/src/stm32l4-hal-driver/stm32l4xx_ll_exti.c ****   ******************************************************************************
   7:../system/src/stm32l4-hal-driver/stm32l4xx_ll_exti.c ****   * @attention
   8:../system/src/stm32l4-hal-driver/stm32l4xx_ll_exti.c ****   *
   9:../system/src/stm32l4-hal-driver/stm32l4xx_ll_exti.c ****   * <h2><center>&copy; Copyright (c) 2017 STMicroelectronics.
  10:../system/src/stm32l4-hal-driver/stm32l4xx_ll_exti.c ****   * All rights reserved.</center></h2>
  11:../system/src/stm32l4-hal-driver/stm32l4xx_ll_exti.c ****   *
  12:../system/src/stm32l4-hal-driver/stm32l4xx_ll_exti.c ****   * This software component is licensed by ST under BSD 3-Clause license,
  13:../system/src/stm32l4-hal-driver/stm32l4xx_ll_exti.c ****   * the "License"; You may not use this file except in compliance with the
  14:../system/src/stm32l4-hal-driver/stm32l4xx_ll_exti.c ****   * License. You may obtain a copy of the License at:
  15:../system/src/stm32l4-hal-driver/stm32l4xx_ll_exti.c ****   *                        opensource.org/licenses/BSD-3-Clause
  16:../system/src/stm32l4-hal-driver/stm32l4xx_ll_exti.c ****   *
  17:../system/src/stm32l4-hal-driver/stm32l4xx_ll_exti.c ****   ******************************************************************************
  18:../system/src/stm32l4-hal-driver/stm32l4xx_ll_exti.c ****   */
  19:../system/src/stm32l4-hal-driver/stm32l4xx_ll_exti.c **** #if defined(USE_FULL_LL_DRIVER)
  20:../system/src/stm32l4-hal-driver/stm32l4xx_ll_exti.c **** 
  21:../system/src/stm32l4-hal-driver/stm32l4xx_ll_exti.c **** /* Includes ------------------------------------------------------------------*/
  22:../system/src/stm32l4-hal-driver/stm32l4xx_ll_exti.c **** #include "stm32l4xx_ll_exti.h"
  23:../system/src/stm32l4-hal-driver/stm32l4xx_ll_exti.c **** #ifdef  USE_FULL_ASSERT
  24:../system/src/stm32l4-hal-driver/stm32l4xx_ll_exti.c **** #include "stm32_assert.h"
  25:../system/src/stm32l4-hal-driver/stm32l4xx_ll_exti.c **** #else
  26:../system/src/stm32l4-hal-driver/stm32l4xx_ll_exti.c **** #define assert_param(expr) ((void)0U)
  27:../system/src/stm32l4-hal-driver/stm32l4xx_ll_exti.c **** #endif
  28:../system/src/stm32l4-hal-driver/stm32l4xx_ll_exti.c **** 
  29:../system/src/stm32l4-hal-driver/stm32l4xx_ll_exti.c **** /** @addtogroup STM32L4xx_LL_Driver
  30:../system/src/stm32l4-hal-driver/stm32l4xx_ll_exti.c ****   * @{
  31:../system/src/stm32l4-hal-driver/stm32l4xx_ll_exti.c ****   */
  32:../system/src/stm32l4-hal-driver/stm32l4xx_ll_exti.c **** 
  33:../system/src/stm32l4-hal-driver/stm32l4xx_ll_exti.c **** #if defined (EXTI)
  34:../system/src/stm32l4-hal-driver/stm32l4xx_ll_exti.c **** 
  35:../system/src/stm32l4-hal-driver/stm32l4xx_ll_exti.c **** /** @defgroup EXTI_LL EXTI
  36:../system/src/stm32l4-hal-driver/stm32l4xx_ll_exti.c ****   * @{
  37:../system/src/stm32l4-hal-driver/stm32l4xx_ll_exti.c ****   */
  38:../system/src/stm32l4-hal-driver/stm32l4xx_ll_exti.c **** 
  39:../system/src/stm32l4-hal-driver/stm32l4xx_ll_exti.c **** /* Private types -------------------------------------------------------------*/
  40:../system/src/stm32l4-hal-driver/stm32l4xx_ll_exti.c **** /* Private variables ---------------------------------------------------------*/
  41:../system/src/stm32l4-hal-driver/stm32l4xx_ll_exti.c **** /* Private constants ---------------------------------------------------------*/
  42:../system/src/stm32l4-hal-driver/stm32l4xx_ll_exti.c **** /* Private macros ------------------------------------------------------------*/
  43:../system/src/stm32l4-hal-driver/stm32l4xx_ll_exti.c **** /** @addtogroup EXTI_LL_Private_Macros
  44:../system/src/stm32l4-hal-driver/stm32l4xx_ll_exti.c ****   * @{
  45:../system/src/stm32l4-hal-driver/stm32l4xx_ll_exti.c ****   */
  46:../system/src/stm32l4-hal-driver/stm32l4xx_ll_exti.c **** 
  47:../system/src/stm32l4-hal-driver/stm32l4xx_ll_exti.c **** #define IS_LL_EXTI_LINE_0_31(__VALUE__)              (((__VALUE__) & ~LL_EXTI_LINE_ALL_0_31) == 0x0
  48:../system/src/stm32l4-hal-driver/stm32l4xx_ll_exti.c **** #define IS_LL_EXTI_LINE_32_63(__VALUE__)             (((__VALUE__) & ~LL_EXTI_LINE_ALL_32_63) == 0x
  49:../system/src/stm32l4-hal-driver/stm32l4xx_ll_exti.c **** 
  50:../system/src/stm32l4-hal-driver/stm32l4xx_ll_exti.c **** #define IS_LL_EXTI_MODE(__VALUE__)                   (((__VALUE__) == LL_EXTI_MODE_IT)            \
  51:../system/src/stm32l4-hal-driver/stm32l4xx_ll_exti.c ****                                                    || ((__VALUE__) == LL_EXTI_MODE_EVENT)         \
  52:../system/src/stm32l4-hal-driver/stm32l4xx_ll_exti.c ****                                                    || ((__VALUE__) == LL_EXTI_MODE_IT_EVENT))
  53:../system/src/stm32l4-hal-driver/stm32l4xx_ll_exti.c **** 
  54:../system/src/stm32l4-hal-driver/stm32l4xx_ll_exti.c **** 
  55:../system/src/stm32l4-hal-driver/stm32l4xx_ll_exti.c **** #define IS_LL_EXTI_TRIGGER(__VALUE__)                (((__VALUE__) == LL_EXTI_TRIGGER_NONE)       \
  56:../system/src/stm32l4-hal-driver/stm32l4xx_ll_exti.c ****                                                    || ((__VALUE__) == LL_EXTI_TRIGGER_RISING)     \
  57:../system/src/stm32l4-hal-driver/stm32l4xx_ll_exti.c ****                                                    || ((__VALUE__) == LL_EXTI_TRIGGER_FALLING)    \
  58:../system/src/stm32l4-hal-driver/stm32l4xx_ll_exti.c ****                                                    || ((__VALUE__) == LL_EXTI_TRIGGER_RISING_FALLIN
  59:../system/src/stm32l4-hal-driver/stm32l4xx_ll_exti.c **** 
  60:../system/src/stm32l4-hal-driver/stm32l4xx_ll_exti.c **** /**
  61:../system/src/stm32l4-hal-driver/stm32l4xx_ll_exti.c ****   * @}
  62:../system/src/stm32l4-hal-driver/stm32l4xx_ll_exti.c ****   */
  63:../system/src/stm32l4-hal-driver/stm32l4xx_ll_exti.c **** 
  64:../system/src/stm32l4-hal-driver/stm32l4xx_ll_exti.c **** /* Private function prototypes -----------------------------------------------*/
  65:../system/src/stm32l4-hal-driver/stm32l4xx_ll_exti.c **** 
  66:../system/src/stm32l4-hal-driver/stm32l4xx_ll_exti.c **** /* Exported functions --------------------------------------------------------*/
  67:../system/src/stm32l4-hal-driver/stm32l4xx_ll_exti.c **** /** @addtogroup EXTI_LL_Exported_Functions
  68:../system/src/stm32l4-hal-driver/stm32l4xx_ll_exti.c ****   * @{
  69:../system/src/stm32l4-hal-driver/stm32l4xx_ll_exti.c ****   */
  70:../system/src/stm32l4-hal-driver/stm32l4xx_ll_exti.c **** 
  71:../system/src/stm32l4-hal-driver/stm32l4xx_ll_exti.c **** /** @addtogroup EXTI_LL_EF_Init
  72:../system/src/stm32l4-hal-driver/stm32l4xx_ll_exti.c ****   * @{
  73:../system/src/stm32l4-hal-driver/stm32l4xx_ll_exti.c ****   */
  74:../system/src/stm32l4-hal-driver/stm32l4xx_ll_exti.c **** 
  75:../system/src/stm32l4-hal-driver/stm32l4xx_ll_exti.c **** /**
  76:../system/src/stm32l4-hal-driver/stm32l4xx_ll_exti.c ****   * @brief  De-initialize the EXTI registers to their default reset values.
  77:../system/src/stm32l4-hal-driver/stm32l4xx_ll_exti.c ****   * @retval An ErrorStatus enumeration value:
  78:../system/src/stm32l4-hal-driver/stm32l4xx_ll_exti.c ****   *          - 0x00: EXTI registers are de-initialized
  79:../system/src/stm32l4-hal-driver/stm32l4xx_ll_exti.c ****   */
  80:../system/src/stm32l4-hal-driver/stm32l4xx_ll_exti.c **** uint32_t LL_EXTI_DeInit(void)
  81:../system/src/stm32l4-hal-driver/stm32l4xx_ll_exti.c **** {
  28              		.loc 1 81 0
  29              		.cfi_startproc
  30              		@ args = 0, pretend = 0, frame = 0
  31              		@ frame_needed = 0, uses_anonymous_args = 0
  32              		@ link register save eliminated.
  82:../system/src/stm32l4-hal-driver/stm32l4xx_ll_exti.c ****   /* Interrupt mask register set to default reset values */
  83:../system/src/stm32l4-hal-driver/stm32l4xx_ll_exti.c ****   LL_EXTI_WriteReg(IMR1,   0xFF820000U);
  33              		.loc 1 83 0
  34 0000 094B     		ldr	r3, .L2
  35 0002 0A4A     		ldr	r2, .L2+4
  36 0004 1A60     		str	r2, [r3]
  84:../system/src/stm32l4-hal-driver/stm32l4xx_ll_exti.c ****   /* Event mask register set to default reset values */
  85:../system/src/stm32l4-hal-driver/stm32l4xx_ll_exti.c ****   LL_EXTI_WriteReg(EMR1,   0x00000000U);
  37              		.loc 1 85 0
  38 0006 0020     		movs	r0, #0
  39 0008 5860     		str	r0, [r3, #4]
  86:../system/src/stm32l4-hal-driver/stm32l4xx_ll_exti.c ****   /* Rising Trigger selection register set to default reset values */
  87:../system/src/stm32l4-hal-driver/stm32l4xx_ll_exti.c ****   LL_EXTI_WriteReg(RTSR1,  0x00000000U);
  40              		.loc 1 87 0
  41 000a 9860     		str	r0, [r3, #8]
  88:../system/src/stm32l4-hal-driver/stm32l4xx_ll_exti.c ****   /* Falling Trigger selection register set to default reset values */
  89:../system/src/stm32l4-hal-driver/stm32l4xx_ll_exti.c ****   LL_EXTI_WriteReg(FTSR1,  0x00000000U);
  42              		.loc 1 89 0
  43 000c D860     		str	r0, [r3, #12]
  90:../system/src/stm32l4-hal-driver/stm32l4xx_ll_exti.c ****   /* Software interrupt event register set to default reset values */
  91:../system/src/stm32l4-hal-driver/stm32l4xx_ll_exti.c ****   LL_EXTI_WriteReg(SWIER1, 0x00000000U);
  44              		.loc 1 91 0
  45 000e 1861     		str	r0, [r3, #16]
  92:../system/src/stm32l4-hal-driver/stm32l4xx_ll_exti.c ****   /* Pending register clear */
  93:../system/src/stm32l4-hal-driver/stm32l4xx_ll_exti.c ****   LL_EXTI_WriteReg(PR1,    0x007DFFFFU);
  46              		.loc 1 93 0
  47 0010 074A     		ldr	r2, .L2+8
  48 0012 5A61     		str	r2, [r3, #20]
  94:../system/src/stm32l4-hal-driver/stm32l4xx_ll_exti.c **** 
  95:../system/src/stm32l4-hal-driver/stm32l4xx_ll_exti.c ****   /* Interrupt mask register 2 set to default reset values */
  96:../system/src/stm32l4-hal-driver/stm32l4xx_ll_exti.c **** #if defined(LL_EXTI_LINE_40)
  97:../system/src/stm32l4-hal-driver/stm32l4xx_ll_exti.c ****   LL_EXTI_WriteReg(IMR2,        0x00000187U);
  98:../system/src/stm32l4-hal-driver/stm32l4xx_ll_exti.c **** #else
  99:../system/src/stm32l4-hal-driver/stm32l4xx_ll_exti.c ****   LL_EXTI_WriteReg(IMR2,        0x00000087U);
  49              		.loc 1 99 0
  50 0014 8722     		movs	r2, #135
  51 0016 1A62     		str	r2, [r3, #32]
 100:../system/src/stm32l4-hal-driver/stm32l4xx_ll_exti.c **** #endif
 101:../system/src/stm32l4-hal-driver/stm32l4xx_ll_exti.c ****   /* Event mask register 2 set to default reset values */
 102:../system/src/stm32l4-hal-driver/stm32l4xx_ll_exti.c ****   LL_EXTI_WriteReg(EMR2,        0x00000000U);
  52              		.loc 1 102 0
  53 0018 5862     		str	r0, [r3, #36]
 103:../system/src/stm32l4-hal-driver/stm32l4xx_ll_exti.c ****   /* Rising Trigger selection register 2 set to default reset values */
 104:../system/src/stm32l4-hal-driver/stm32l4xx_ll_exti.c ****   LL_EXTI_WriteReg(RTSR2,       0x00000000U);
  54              		.loc 1 104 0
  55 001a 9862     		str	r0, [r3, #40]
 105:../system/src/stm32l4-hal-driver/stm32l4xx_ll_exti.c ****   /* Falling Trigger selection register 2 set to default reset values */
 106:../system/src/stm32l4-hal-driver/stm32l4xx_ll_exti.c ****   LL_EXTI_WriteReg(FTSR2,       0x00000000U);
  56              		.loc 1 106 0
  57 001c D862     		str	r0, [r3, #44]
 107:../system/src/stm32l4-hal-driver/stm32l4xx_ll_exti.c ****   /* Software interrupt event register 2 set to default reset values */
 108:../system/src/stm32l4-hal-driver/stm32l4xx_ll_exti.c ****   LL_EXTI_WriteReg(SWIER2,      0x00000000U);
  58              		.loc 1 108 0
  59 001e 1863     		str	r0, [r3, #48]
 109:../system/src/stm32l4-hal-driver/stm32l4xx_ll_exti.c ****   /* Pending register 2 clear */
 110:../system/src/stm32l4-hal-driver/stm32l4xx_ll_exti.c ****   LL_EXTI_WriteReg(PR2,         0x00000078U);
  60              		.loc 1 110 0
  61 0020 7822     		movs	r2, #120
  62 0022 5A63     		str	r2, [r3, #52]
 111:../system/src/stm32l4-hal-driver/stm32l4xx_ll_exti.c **** 
 112:../system/src/stm32l4-hal-driver/stm32l4xx_ll_exti.c ****   return 0x00u;
 113:../system/src/stm32l4-hal-driver/stm32l4xx_ll_exti.c **** }
  63              		.loc 1 113 0
  64 0024 7047     		bx	lr
  65              	.L3:
  66 0026 00BF     		.align	2
  67              	.L2:
  68 0028 00040140 		.word	1073808384
  69 002c 000082FF 		.word	-8257536
  70 0030 FFFF7D00 		.word	8257535
  71              		.cfi_endproc
  72              	.LFE164:
  74              		.section	.text.LL_EXTI_Init,"ax",%progbits
  75              		.align	1
  76              		.global	LL_EXTI_Init
  77              		.syntax unified
  78              		.thumb
  79              		.thumb_func
  80              		.fpu fpv4-sp-d16
  82              	LL_EXTI_Init:
  83              	.LFB165:
 114:../system/src/stm32l4-hal-driver/stm32l4xx_ll_exti.c **** 
 115:../system/src/stm32l4-hal-driver/stm32l4xx_ll_exti.c **** /**
 116:../system/src/stm32l4-hal-driver/stm32l4xx_ll_exti.c ****   * @brief  Initialize the EXTI registers according to the specified parameters in EXTI_InitStruct.
 117:../system/src/stm32l4-hal-driver/stm32l4xx_ll_exti.c ****   * @param  EXTI_InitStruct pointer to a @ref LL_EXTI_InitTypeDef structure.
 118:../system/src/stm32l4-hal-driver/stm32l4xx_ll_exti.c ****   * @retval An ErrorStatus enumeration value:
 119:../system/src/stm32l4-hal-driver/stm32l4xx_ll_exti.c ****   *          - 0x00: EXTI registers are initialized
 120:../system/src/stm32l4-hal-driver/stm32l4xx_ll_exti.c ****   *          - any other calue : wrong configuration
 121:../system/src/stm32l4-hal-driver/stm32l4xx_ll_exti.c ****   */
 122:../system/src/stm32l4-hal-driver/stm32l4xx_ll_exti.c **** uint32_t LL_EXTI_Init(LL_EXTI_InitTypeDef *EXTI_InitStruct)
 123:../system/src/stm32l4-hal-driver/stm32l4xx_ll_exti.c **** {
  84              		.loc 1 123 0
  85              		.cfi_startproc
  86              		@ args = 0, pretend = 0, frame = 0
  87              		@ frame_needed = 0, uses_anonymous_args = 0
  88              		@ link register save eliminated.
  89              	.LVL0:
  90 0000 0346     		mov	r3, r0
  91              	.LVL1:
 124:../system/src/stm32l4-hal-driver/stm32l4xx_ll_exti.c ****   uint32_t status = 0x00u;
 125:../system/src/stm32l4-hal-driver/stm32l4xx_ll_exti.c **** 
 126:../system/src/stm32l4-hal-driver/stm32l4xx_ll_exti.c ****   /* Check the parameters */
 127:../system/src/stm32l4-hal-driver/stm32l4xx_ll_exti.c ****   assert_param(IS_LL_EXTI_LINE_0_31(EXTI_InitStruct->Line_0_31));
 128:../system/src/stm32l4-hal-driver/stm32l4xx_ll_exti.c ****   assert_param(IS_LL_EXTI_LINE_32_63(EXTI_InitStruct->Line_32_63));
 129:../system/src/stm32l4-hal-driver/stm32l4xx_ll_exti.c ****   assert_param(IS_FUNCTIONAL_STATE(EXTI_InitStruct->LineCommand));
 130:../system/src/stm32l4-hal-driver/stm32l4xx_ll_exti.c ****   assert_param(IS_LL_EXTI_MODE(EXTI_InitStruct->Mode));
 131:../system/src/stm32l4-hal-driver/stm32l4xx_ll_exti.c **** 
 132:../system/src/stm32l4-hal-driver/stm32l4xx_ll_exti.c ****   /* ENABLE LineCommand */
 133:../system/src/stm32l4-hal-driver/stm32l4xx_ll_exti.c ****   if (EXTI_InitStruct->LineCommand != DISABLE)
  92              		.loc 1 133 0
  93 0002 027A     		ldrb	r2, [r0, #8]	@ zero_extendqisi2
  94 0004 002A     		cmp	r2, #0
  95 0006 00F0A980 		beq	.L5
 123:../system/src/stm32l4-hal-driver/stm32l4xx_ll_exti.c ****   uint32_t status = 0x00u;
  96              		.loc 1 123 0
  97 000a 10B4     		push	{r4}
  98              		.cfi_def_cfa_offset 4
  99              		.cfi_offset 4, -4
 134:../system/src/stm32l4-hal-driver/stm32l4xx_ll_exti.c ****   {
 135:../system/src/stm32l4-hal-driver/stm32l4xx_ll_exti.c ****     assert_param(IS_LL_EXTI_TRIGGER(EXTI_InitStruct->Trigger));
 136:../system/src/stm32l4-hal-driver/stm32l4xx_ll_exti.c **** 
 137:../system/src/stm32l4-hal-driver/stm32l4xx_ll_exti.c ****     /* Configure EXTI Lines in range from 0 to 31 */
 138:../system/src/stm32l4-hal-driver/stm32l4xx_ll_exti.c ****     if (EXTI_InitStruct->Line_0_31 != LL_EXTI_LINE_NONE)
 100              		.loc 1 138 0
 101 000c 0068     		ldr	r0, [r0]
 102              	.LVL2:
 103 000e 0028     		cmp	r0, #0
 104 0010 3BD0     		beq	.L6
 139:../system/src/stm32l4-hal-driver/stm32l4xx_ll_exti.c ****     {
 140:../system/src/stm32l4-hal-driver/stm32l4xx_ll_exti.c ****       switch (EXTI_InitStruct->Mode)
 105              		.loc 1 140 0
 106 0012 5A7A     		ldrb	r2, [r3, #9]	@ zero_extendqisi2
 107 0014 012A     		cmp	r2, #1
 108 0016 19D0     		beq	.L8
 109 0018 1AB1     		cbz	r2, .L9
 110 001a 022A     		cmp	r2, #2
 111 001c 21D0     		beq	.L10
 141:../system/src/stm32l4-hal-driver/stm32l4xx_ll_exti.c ****       {
 142:../system/src/stm32l4-hal-driver/stm32l4xx_ll_exti.c ****         case LL_EXTI_MODE_IT:
 143:../system/src/stm32l4-hal-driver/stm32l4xx_ll_exti.c ****           /* First Disable Event on provided Lines */
 144:../system/src/stm32l4-hal-driver/stm32l4xx_ll_exti.c ****           LL_EXTI_DisableEvent_0_31(EXTI_InitStruct->Line_0_31);
 145:../system/src/stm32l4-hal-driver/stm32l4xx_ll_exti.c ****           /* Then Enable IT on provided Lines */
 146:../system/src/stm32l4-hal-driver/stm32l4xx_ll_exti.c ****           LL_EXTI_EnableIT_0_31(EXTI_InitStruct->Line_0_31);
 147:../system/src/stm32l4-hal-driver/stm32l4xx_ll_exti.c ****           break;
 148:../system/src/stm32l4-hal-driver/stm32l4xx_ll_exti.c ****         case LL_EXTI_MODE_EVENT:
 149:../system/src/stm32l4-hal-driver/stm32l4xx_ll_exti.c ****           /* First Disable IT on provided Lines */
 150:../system/src/stm32l4-hal-driver/stm32l4xx_ll_exti.c ****           LL_EXTI_DisableIT_0_31(EXTI_InitStruct->Line_0_31);
 151:../system/src/stm32l4-hal-driver/stm32l4xx_ll_exti.c ****           /* Then Enable Event on provided Lines */
 152:../system/src/stm32l4-hal-driver/stm32l4xx_ll_exti.c ****           LL_EXTI_EnableEvent_0_31(EXTI_InitStruct->Line_0_31);
 153:../system/src/stm32l4-hal-driver/stm32l4xx_ll_exti.c ****           break;
 154:../system/src/stm32l4-hal-driver/stm32l4xx_ll_exti.c ****         case LL_EXTI_MODE_IT_EVENT:
 155:../system/src/stm32l4-hal-driver/stm32l4xx_ll_exti.c ****           /* Directly Enable IT & Event on provided Lines */
 156:../system/src/stm32l4-hal-driver/stm32l4xx_ll_exti.c ****           LL_EXTI_EnableIT_0_31(EXTI_InitStruct->Line_0_31);
 157:../system/src/stm32l4-hal-driver/stm32l4xx_ll_exti.c ****           LL_EXTI_EnableEvent_0_31(EXTI_InitStruct->Line_0_31);
 158:../system/src/stm32l4-hal-driver/stm32l4xx_ll_exti.c ****           break;
 159:../system/src/stm32l4-hal-driver/stm32l4xx_ll_exti.c ****         default:
 160:../system/src/stm32l4-hal-driver/stm32l4xx_ll_exti.c ****           status = 0x01u;
 112              		.loc 1 160 0
 113 001e 0120     		movs	r0, #1
 114 0020 09E0     		b	.L7
 115              	.L9:
 116              	.LVL3:
 117              	.LBB58:
 118              	.LBB59:
 119              		.file 2 "../system/include/stm32l4-hal-driver/stm32l4xx_ll_exti.h"
   1:../system/include/stm32l4-hal-driver/stm32l4xx_ll_exti.h **** /**
   2:../system/include/stm32l4-hal-driver/stm32l4xx_ll_exti.h ****   ******************************************************************************
   3:../system/include/stm32l4-hal-driver/stm32l4xx_ll_exti.h ****   * @file    stm32l4xx_ll_exti.h
   4:../system/include/stm32l4-hal-driver/stm32l4xx_ll_exti.h ****   * @author  MCD Application Team
   5:../system/include/stm32l4-hal-driver/stm32l4xx_ll_exti.h ****   * @brief   Header file of EXTI LL module.
   6:../system/include/stm32l4-hal-driver/stm32l4xx_ll_exti.h ****   ******************************************************************************
   7:../system/include/stm32l4-hal-driver/stm32l4xx_ll_exti.h ****   * @attention
   8:../system/include/stm32l4-hal-driver/stm32l4xx_ll_exti.h ****   *
   9:../system/include/stm32l4-hal-driver/stm32l4xx_ll_exti.h ****   * <h2><center>&copy; Copyright (c) 2017 STMicroelectronics.
  10:../system/include/stm32l4-hal-driver/stm32l4xx_ll_exti.h ****   * All rights reserved.</center></h2>
  11:../system/include/stm32l4-hal-driver/stm32l4xx_ll_exti.h ****   *
  12:../system/include/stm32l4-hal-driver/stm32l4xx_ll_exti.h ****   * This software component is licensed by ST under BSD 3-Clause license,
  13:../system/include/stm32l4-hal-driver/stm32l4xx_ll_exti.h ****   * the "License"; You may not use this file except in compliance with the
  14:../system/include/stm32l4-hal-driver/stm32l4xx_ll_exti.h ****   * License. You may obtain a copy of the License at:
  15:../system/include/stm32l4-hal-driver/stm32l4xx_ll_exti.h ****   *                        opensource.org/licenses/BSD-3-Clause
  16:../system/include/stm32l4-hal-driver/stm32l4xx_ll_exti.h ****   *
  17:../system/include/stm32l4-hal-driver/stm32l4xx_ll_exti.h ****   ******************************************************************************
  18:../system/include/stm32l4-hal-driver/stm32l4xx_ll_exti.h ****   */
  19:../system/include/stm32l4-hal-driver/stm32l4xx_ll_exti.h **** 
  20:../system/include/stm32l4-hal-driver/stm32l4xx_ll_exti.h **** /* Define to prevent recursive inclusion -------------------------------------*/
  21:../system/include/stm32l4-hal-driver/stm32l4xx_ll_exti.h **** #ifndef STM32L4xx_LL_EXTI_H
  22:../system/include/stm32l4-hal-driver/stm32l4xx_ll_exti.h **** #define STM32L4xx_LL_EXTI_H
  23:../system/include/stm32l4-hal-driver/stm32l4xx_ll_exti.h **** 
  24:../system/include/stm32l4-hal-driver/stm32l4xx_ll_exti.h **** #ifdef __cplusplus
  25:../system/include/stm32l4-hal-driver/stm32l4xx_ll_exti.h **** extern "C" {
  26:../system/include/stm32l4-hal-driver/stm32l4xx_ll_exti.h **** #endif
  27:../system/include/stm32l4-hal-driver/stm32l4xx_ll_exti.h **** 
  28:../system/include/stm32l4-hal-driver/stm32l4xx_ll_exti.h **** /* Includes ------------------------------------------------------------------*/
  29:../system/include/stm32l4-hal-driver/stm32l4xx_ll_exti.h **** #include "stm32l4xx.h"
  30:../system/include/stm32l4-hal-driver/stm32l4xx_ll_exti.h **** 
  31:../system/include/stm32l4-hal-driver/stm32l4xx_ll_exti.h **** /** @addtogroup STM32L4xx_LL_Driver
  32:../system/include/stm32l4-hal-driver/stm32l4xx_ll_exti.h ****   * @{
  33:../system/include/stm32l4-hal-driver/stm32l4xx_ll_exti.h ****   */
  34:../system/include/stm32l4-hal-driver/stm32l4xx_ll_exti.h **** 
  35:../system/include/stm32l4-hal-driver/stm32l4xx_ll_exti.h **** #if defined (EXTI)
  36:../system/include/stm32l4-hal-driver/stm32l4xx_ll_exti.h **** 
  37:../system/include/stm32l4-hal-driver/stm32l4xx_ll_exti.h **** /** @defgroup EXTI_LL EXTI
  38:../system/include/stm32l4-hal-driver/stm32l4xx_ll_exti.h ****   * @{
  39:../system/include/stm32l4-hal-driver/stm32l4xx_ll_exti.h ****   */
  40:../system/include/stm32l4-hal-driver/stm32l4xx_ll_exti.h **** 
  41:../system/include/stm32l4-hal-driver/stm32l4xx_ll_exti.h **** /* Private types -------------------------------------------------------------*/
  42:../system/include/stm32l4-hal-driver/stm32l4xx_ll_exti.h **** /* Private variables ---------------------------------------------------------*/
  43:../system/include/stm32l4-hal-driver/stm32l4xx_ll_exti.h **** /* Private constants ---------------------------------------------------------*/
  44:../system/include/stm32l4-hal-driver/stm32l4xx_ll_exti.h **** /* Private Macros ------------------------------------------------------------*/
  45:../system/include/stm32l4-hal-driver/stm32l4xx_ll_exti.h **** #if defined(USE_FULL_LL_DRIVER)
  46:../system/include/stm32l4-hal-driver/stm32l4xx_ll_exti.h **** /** @defgroup EXTI_LL_Private_Macros EXTI Private Macros
  47:../system/include/stm32l4-hal-driver/stm32l4xx_ll_exti.h ****   * @{
  48:../system/include/stm32l4-hal-driver/stm32l4xx_ll_exti.h ****   */
  49:../system/include/stm32l4-hal-driver/stm32l4xx_ll_exti.h **** /**
  50:../system/include/stm32l4-hal-driver/stm32l4xx_ll_exti.h ****   * @}
  51:../system/include/stm32l4-hal-driver/stm32l4xx_ll_exti.h ****   */
  52:../system/include/stm32l4-hal-driver/stm32l4xx_ll_exti.h **** #endif /*USE_FULL_LL_DRIVER*/
  53:../system/include/stm32l4-hal-driver/stm32l4xx_ll_exti.h **** /* Exported types ------------------------------------------------------------*/
  54:../system/include/stm32l4-hal-driver/stm32l4xx_ll_exti.h **** #if defined(USE_FULL_LL_DRIVER)
  55:../system/include/stm32l4-hal-driver/stm32l4xx_ll_exti.h **** /** @defgroup EXTI_LL_ES_INIT EXTI Exported Init structure
  56:../system/include/stm32l4-hal-driver/stm32l4xx_ll_exti.h ****   * @{
  57:../system/include/stm32l4-hal-driver/stm32l4xx_ll_exti.h ****   */
  58:../system/include/stm32l4-hal-driver/stm32l4xx_ll_exti.h **** typedef struct
  59:../system/include/stm32l4-hal-driver/stm32l4xx_ll_exti.h **** {
  60:../system/include/stm32l4-hal-driver/stm32l4xx_ll_exti.h **** 
  61:../system/include/stm32l4-hal-driver/stm32l4xx_ll_exti.h ****   uint32_t Line_0_31;           /*!< Specifies the EXTI lines to be enabled or disabled for Lines i
  62:../system/include/stm32l4-hal-driver/stm32l4xx_ll_exti.h ****                                      This parameter can be any combination of @ref EXTI_LL_EC_LINE 
  63:../system/include/stm32l4-hal-driver/stm32l4xx_ll_exti.h **** 
  64:../system/include/stm32l4-hal-driver/stm32l4xx_ll_exti.h ****   uint32_t Line_32_63;          /*!< Specifies the EXTI lines to be enabled or disabled for Lines i
  65:../system/include/stm32l4-hal-driver/stm32l4xx_ll_exti.h ****                                      This parameter can be any combination of @ref EXTI_LL_EC_LINE 
  66:../system/include/stm32l4-hal-driver/stm32l4xx_ll_exti.h **** 
  67:../system/include/stm32l4-hal-driver/stm32l4xx_ll_exti.h ****   FunctionalState LineCommand;  /*!< Specifies the new state of the selected EXTI lines.
  68:../system/include/stm32l4-hal-driver/stm32l4xx_ll_exti.h ****                                      This parameter can be set either to ENABLE or DISABLE */
  69:../system/include/stm32l4-hal-driver/stm32l4xx_ll_exti.h **** 
  70:../system/include/stm32l4-hal-driver/stm32l4xx_ll_exti.h ****   uint8_t Mode;                 /*!< Specifies the mode for the EXTI lines.
  71:../system/include/stm32l4-hal-driver/stm32l4xx_ll_exti.h ****                                      This parameter can be a value of @ref EXTI_LL_EC_MODE. */
  72:../system/include/stm32l4-hal-driver/stm32l4xx_ll_exti.h **** 
  73:../system/include/stm32l4-hal-driver/stm32l4xx_ll_exti.h ****   uint8_t Trigger;              /*!< Specifies the trigger signal active edge for the EXTI lines.
  74:../system/include/stm32l4-hal-driver/stm32l4xx_ll_exti.h ****                                      This parameter can be a value of @ref EXTI_LL_EC_TRIGGER. */
  75:../system/include/stm32l4-hal-driver/stm32l4xx_ll_exti.h **** } LL_EXTI_InitTypeDef;
  76:../system/include/stm32l4-hal-driver/stm32l4xx_ll_exti.h **** 
  77:../system/include/stm32l4-hal-driver/stm32l4xx_ll_exti.h **** /**
  78:../system/include/stm32l4-hal-driver/stm32l4xx_ll_exti.h ****   * @}
  79:../system/include/stm32l4-hal-driver/stm32l4xx_ll_exti.h ****   */
  80:../system/include/stm32l4-hal-driver/stm32l4xx_ll_exti.h **** #endif /*USE_FULL_LL_DRIVER*/
  81:../system/include/stm32l4-hal-driver/stm32l4xx_ll_exti.h **** 
  82:../system/include/stm32l4-hal-driver/stm32l4xx_ll_exti.h **** /* Exported constants --------------------------------------------------------*/
  83:../system/include/stm32l4-hal-driver/stm32l4xx_ll_exti.h **** /** @defgroup EXTI_LL_Exported_Constants EXTI Exported Constants
  84:../system/include/stm32l4-hal-driver/stm32l4xx_ll_exti.h ****   * @{
  85:../system/include/stm32l4-hal-driver/stm32l4xx_ll_exti.h ****   */
  86:../system/include/stm32l4-hal-driver/stm32l4xx_ll_exti.h **** 
  87:../system/include/stm32l4-hal-driver/stm32l4xx_ll_exti.h **** /** @defgroup EXTI_LL_EC_LINE LINE
  88:../system/include/stm32l4-hal-driver/stm32l4xx_ll_exti.h ****   * @{
  89:../system/include/stm32l4-hal-driver/stm32l4xx_ll_exti.h ****   */
  90:../system/include/stm32l4-hal-driver/stm32l4xx_ll_exti.h **** #define LL_EXTI_LINE_0                 EXTI_IMR1_IM0           /*!< Extended line 0 */
  91:../system/include/stm32l4-hal-driver/stm32l4xx_ll_exti.h **** #define LL_EXTI_LINE_1                 EXTI_IMR1_IM1           /*!< Extended line 1 */
  92:../system/include/stm32l4-hal-driver/stm32l4xx_ll_exti.h **** #define LL_EXTI_LINE_2                 EXTI_IMR1_IM2           /*!< Extended line 2 */
  93:../system/include/stm32l4-hal-driver/stm32l4xx_ll_exti.h **** #define LL_EXTI_LINE_3                 EXTI_IMR1_IM3           /*!< Extended line 3 */
  94:../system/include/stm32l4-hal-driver/stm32l4xx_ll_exti.h **** #define LL_EXTI_LINE_4                 EXTI_IMR1_IM4           /*!< Extended line 4 */
  95:../system/include/stm32l4-hal-driver/stm32l4xx_ll_exti.h **** #define LL_EXTI_LINE_5                 EXTI_IMR1_IM5           /*!< Extended line 5 */
  96:../system/include/stm32l4-hal-driver/stm32l4xx_ll_exti.h **** #define LL_EXTI_LINE_6                 EXTI_IMR1_IM6           /*!< Extended line 6 */
  97:../system/include/stm32l4-hal-driver/stm32l4xx_ll_exti.h **** #define LL_EXTI_LINE_7                 EXTI_IMR1_IM7           /*!< Extended line 7 */
  98:../system/include/stm32l4-hal-driver/stm32l4xx_ll_exti.h **** #define LL_EXTI_LINE_8                 EXTI_IMR1_IM8           /*!< Extended line 8 */
  99:../system/include/stm32l4-hal-driver/stm32l4xx_ll_exti.h **** #define LL_EXTI_LINE_9                 EXTI_IMR1_IM9           /*!< Extended line 9 */
 100:../system/include/stm32l4-hal-driver/stm32l4xx_ll_exti.h **** #define LL_EXTI_LINE_10                EXTI_IMR1_IM10          /*!< Extended line 10 */
 101:../system/include/stm32l4-hal-driver/stm32l4xx_ll_exti.h **** #define LL_EXTI_LINE_11                EXTI_IMR1_IM11          /*!< Extended line 11 */
 102:../system/include/stm32l4-hal-driver/stm32l4xx_ll_exti.h **** #define LL_EXTI_LINE_12                EXTI_IMR1_IM12          /*!< Extended line 12 */
 103:../system/include/stm32l4-hal-driver/stm32l4xx_ll_exti.h **** #define LL_EXTI_LINE_13                EXTI_IMR1_IM13          /*!< Extended line 13 */
 104:../system/include/stm32l4-hal-driver/stm32l4xx_ll_exti.h **** #define LL_EXTI_LINE_14                EXTI_IMR1_IM14          /*!< Extended line 14 */
 105:../system/include/stm32l4-hal-driver/stm32l4xx_ll_exti.h **** #define LL_EXTI_LINE_15                EXTI_IMR1_IM15          /*!< Extended line 15 */
 106:../system/include/stm32l4-hal-driver/stm32l4xx_ll_exti.h **** #if defined(EXTI_IMR1_IM16)
 107:../system/include/stm32l4-hal-driver/stm32l4xx_ll_exti.h **** #define LL_EXTI_LINE_16                EXTI_IMR1_IM16          /*!< Extended line 16 */
 108:../system/include/stm32l4-hal-driver/stm32l4xx_ll_exti.h **** #endif
 109:../system/include/stm32l4-hal-driver/stm32l4xx_ll_exti.h **** #define LL_EXTI_LINE_17                EXTI_IMR1_IM17          /*!< Extended line 17 */
 110:../system/include/stm32l4-hal-driver/stm32l4xx_ll_exti.h **** #if defined(EXTI_IMR1_IM18)
 111:../system/include/stm32l4-hal-driver/stm32l4xx_ll_exti.h **** #define LL_EXTI_LINE_18                EXTI_IMR1_IM18          /*!< Extended line 18 */
 112:../system/include/stm32l4-hal-driver/stm32l4xx_ll_exti.h **** #endif
 113:../system/include/stm32l4-hal-driver/stm32l4xx_ll_exti.h **** #define LL_EXTI_LINE_19                EXTI_IMR1_IM19          /*!< Extended line 19 */
 114:../system/include/stm32l4-hal-driver/stm32l4xx_ll_exti.h **** #if defined(EXTI_IMR1_IM20)
 115:../system/include/stm32l4-hal-driver/stm32l4xx_ll_exti.h **** #define LL_EXTI_LINE_20                EXTI_IMR1_IM20          /*!< Extended line 20 */
 116:../system/include/stm32l4-hal-driver/stm32l4xx_ll_exti.h **** #endif
 117:../system/include/stm32l4-hal-driver/stm32l4xx_ll_exti.h **** #if defined(EXTI_IMR1_IM21)
 118:../system/include/stm32l4-hal-driver/stm32l4xx_ll_exti.h **** #define LL_EXTI_LINE_21                EXTI_IMR1_IM21          /*!< Extended line 21 */
 119:../system/include/stm32l4-hal-driver/stm32l4xx_ll_exti.h **** #endif
 120:../system/include/stm32l4-hal-driver/stm32l4xx_ll_exti.h **** #if defined(EXTI_IMR1_IM22)
 121:../system/include/stm32l4-hal-driver/stm32l4xx_ll_exti.h **** #define LL_EXTI_LINE_22                EXTI_IMR1_IM22          /*!< Extended line 22 */
 122:../system/include/stm32l4-hal-driver/stm32l4xx_ll_exti.h **** #endif
 123:../system/include/stm32l4-hal-driver/stm32l4xx_ll_exti.h **** #define LL_EXTI_LINE_23                EXTI_IMR1_IM23          /*!< Extended line 23 */
 124:../system/include/stm32l4-hal-driver/stm32l4xx_ll_exti.h **** #if defined(EXTI_IMR1_IM24)
 125:../system/include/stm32l4-hal-driver/stm32l4xx_ll_exti.h **** #define LL_EXTI_LINE_24                EXTI_IMR1_IM24          /*!< Extended line 24 */
 126:../system/include/stm32l4-hal-driver/stm32l4xx_ll_exti.h **** #endif
 127:../system/include/stm32l4-hal-driver/stm32l4xx_ll_exti.h **** #if defined(EXTI_IMR1_IM25)
 128:../system/include/stm32l4-hal-driver/stm32l4xx_ll_exti.h **** #define LL_EXTI_LINE_25                EXTI_IMR1_IM25          /*!< Extended line 25 */
 129:../system/include/stm32l4-hal-driver/stm32l4xx_ll_exti.h **** #endif
 130:../system/include/stm32l4-hal-driver/stm32l4xx_ll_exti.h **** #if defined(EXTI_IMR1_IM26)
 131:../system/include/stm32l4-hal-driver/stm32l4xx_ll_exti.h **** #define LL_EXTI_LINE_26                EXTI_IMR1_IM26          /*!< Extended line 26 */
 132:../system/include/stm32l4-hal-driver/stm32l4xx_ll_exti.h **** #endif
 133:../system/include/stm32l4-hal-driver/stm32l4xx_ll_exti.h **** #if defined(EXTI_IMR1_IM27)
 134:../system/include/stm32l4-hal-driver/stm32l4xx_ll_exti.h **** #define LL_EXTI_LINE_27                EXTI_IMR1_IM27          /*!< Extended line 27 */
 135:../system/include/stm32l4-hal-driver/stm32l4xx_ll_exti.h **** #endif
 136:../system/include/stm32l4-hal-driver/stm32l4xx_ll_exti.h **** #if defined(EXTI_IMR1_IM28)
 137:../system/include/stm32l4-hal-driver/stm32l4xx_ll_exti.h **** #define LL_EXTI_LINE_28                EXTI_IMR1_IM28          /*!< Extended line 28 */
 138:../system/include/stm32l4-hal-driver/stm32l4xx_ll_exti.h **** #endif
 139:../system/include/stm32l4-hal-driver/stm32l4xx_ll_exti.h **** #if defined(EXTI_IMR1_IM29)
 140:../system/include/stm32l4-hal-driver/stm32l4xx_ll_exti.h **** #define LL_EXTI_LINE_29                EXTI_IMR1_IM29          /*!< Extended line 29 */
 141:../system/include/stm32l4-hal-driver/stm32l4xx_ll_exti.h **** #endif
 142:../system/include/stm32l4-hal-driver/stm32l4xx_ll_exti.h **** #if defined(EXTI_IMR1_IM30)
 143:../system/include/stm32l4-hal-driver/stm32l4xx_ll_exti.h **** #define LL_EXTI_LINE_30                EXTI_IMR1_IM30          /*!< Extended line 30 */
 144:../system/include/stm32l4-hal-driver/stm32l4xx_ll_exti.h **** #endif
 145:../system/include/stm32l4-hal-driver/stm32l4xx_ll_exti.h **** #if defined(EXTI_IMR1_IM31)
 146:../system/include/stm32l4-hal-driver/stm32l4xx_ll_exti.h **** #define LL_EXTI_LINE_31                EXTI_IMR1_IM31          /*!< Extended line 31 */
 147:../system/include/stm32l4-hal-driver/stm32l4xx_ll_exti.h **** #endif
 148:../system/include/stm32l4-hal-driver/stm32l4xx_ll_exti.h **** #define LL_EXTI_LINE_ALL_0_31          EXTI_IMR1_IM            /*!< All Extended line not reserved*
 149:../system/include/stm32l4-hal-driver/stm32l4xx_ll_exti.h **** 
 150:../system/include/stm32l4-hal-driver/stm32l4xx_ll_exti.h **** #define LL_EXTI_LINE_32                EXTI_IMR2_IM32          /*!< Extended line 32 */
 151:../system/include/stm32l4-hal-driver/stm32l4xx_ll_exti.h **** #if defined(EXTI_IMR2_IM33)
 152:../system/include/stm32l4-hal-driver/stm32l4xx_ll_exti.h **** #define LL_EXTI_LINE_33                EXTI_IMR2_IM33          /*!< Extended line 33 */
 153:../system/include/stm32l4-hal-driver/stm32l4xx_ll_exti.h **** #endif
 154:../system/include/stm32l4-hal-driver/stm32l4xx_ll_exti.h **** #if defined(EXTI_IMR2_IM34)
 155:../system/include/stm32l4-hal-driver/stm32l4xx_ll_exti.h **** #define LL_EXTI_LINE_34                EXTI_IMR2_IM34          /*!< Extended line 34 */
 156:../system/include/stm32l4-hal-driver/stm32l4xx_ll_exti.h **** #endif
 157:../system/include/stm32l4-hal-driver/stm32l4xx_ll_exti.h **** #if defined(EXTI_IMR2_IM35)
 158:../system/include/stm32l4-hal-driver/stm32l4xx_ll_exti.h **** #define LL_EXTI_LINE_35                EXTI_IMR2_IM35          /*!< Extended line 35 */
 159:../system/include/stm32l4-hal-driver/stm32l4xx_ll_exti.h **** #endif
 160:../system/include/stm32l4-hal-driver/stm32l4xx_ll_exti.h **** #if defined(EXTI_IMR2_IM36)
 161:../system/include/stm32l4-hal-driver/stm32l4xx_ll_exti.h **** #define LL_EXTI_LINE_36                EXTI_IMR2_IM36          /*!< Extended line 36 */
 162:../system/include/stm32l4-hal-driver/stm32l4xx_ll_exti.h **** #endif
 163:../system/include/stm32l4-hal-driver/stm32l4xx_ll_exti.h **** #if defined(EXTI_IMR2_IM37)
 164:../system/include/stm32l4-hal-driver/stm32l4xx_ll_exti.h **** #define LL_EXTI_LINE_37                EXTI_IMR2_IM37          /*!< Extended line 37 */
 165:../system/include/stm32l4-hal-driver/stm32l4xx_ll_exti.h **** #endif
 166:../system/include/stm32l4-hal-driver/stm32l4xx_ll_exti.h **** #if defined(EXTI_IMR2_IM38)
 167:../system/include/stm32l4-hal-driver/stm32l4xx_ll_exti.h **** #define LL_EXTI_LINE_38                EXTI_IMR2_IM38          /*!< Extended line 38 */
 168:../system/include/stm32l4-hal-driver/stm32l4xx_ll_exti.h **** #endif
 169:../system/include/stm32l4-hal-driver/stm32l4xx_ll_exti.h **** #if defined(EXTI_IMR2_IM39)
 170:../system/include/stm32l4-hal-driver/stm32l4xx_ll_exti.h **** #define LL_EXTI_LINE_39                EXTI_IMR2_IM39          /*!< Extended line 39 */
 171:../system/include/stm32l4-hal-driver/stm32l4xx_ll_exti.h **** #endif
 172:../system/include/stm32l4-hal-driver/stm32l4xx_ll_exti.h **** #if defined(EXTI_IMR2_IM40)
 173:../system/include/stm32l4-hal-driver/stm32l4xx_ll_exti.h **** #define LL_EXTI_LINE_40                EXTI_IMR2_IM40          /*!< Extended line 40 */
 174:../system/include/stm32l4-hal-driver/stm32l4xx_ll_exti.h **** #endif
 175:../system/include/stm32l4-hal-driver/stm32l4xx_ll_exti.h **** #define LL_EXTI_LINE_ALL_32_63         EXTI_IMR2_IM            /*!< All Extended line not reserved*
 176:../system/include/stm32l4-hal-driver/stm32l4xx_ll_exti.h **** 
 177:../system/include/stm32l4-hal-driver/stm32l4xx_ll_exti.h **** 
 178:../system/include/stm32l4-hal-driver/stm32l4xx_ll_exti.h **** #define LL_EXTI_LINE_ALL               (0xFFFFFFFFU)  /*!< All Extended line */
 179:../system/include/stm32l4-hal-driver/stm32l4xx_ll_exti.h **** 
 180:../system/include/stm32l4-hal-driver/stm32l4xx_ll_exti.h **** #if defined(USE_FULL_LL_DRIVER)
 181:../system/include/stm32l4-hal-driver/stm32l4xx_ll_exti.h **** #define LL_EXTI_LINE_NONE              (0x00000000U)  /*!< None Extended line */
 182:../system/include/stm32l4-hal-driver/stm32l4xx_ll_exti.h **** #endif /*USE_FULL_LL_DRIVER*/
 183:../system/include/stm32l4-hal-driver/stm32l4xx_ll_exti.h **** 
 184:../system/include/stm32l4-hal-driver/stm32l4xx_ll_exti.h **** /**
 185:../system/include/stm32l4-hal-driver/stm32l4xx_ll_exti.h ****   * @}
 186:../system/include/stm32l4-hal-driver/stm32l4xx_ll_exti.h ****   */
 187:../system/include/stm32l4-hal-driver/stm32l4xx_ll_exti.h **** 
 188:../system/include/stm32l4-hal-driver/stm32l4xx_ll_exti.h **** 
 189:../system/include/stm32l4-hal-driver/stm32l4xx_ll_exti.h **** #if defined(USE_FULL_LL_DRIVER)
 190:../system/include/stm32l4-hal-driver/stm32l4xx_ll_exti.h **** 
 191:../system/include/stm32l4-hal-driver/stm32l4xx_ll_exti.h **** /** @defgroup EXTI_LL_EC_MODE Mode
 192:../system/include/stm32l4-hal-driver/stm32l4xx_ll_exti.h ****   * @{
 193:../system/include/stm32l4-hal-driver/stm32l4xx_ll_exti.h ****   */
 194:../system/include/stm32l4-hal-driver/stm32l4xx_ll_exti.h **** #define LL_EXTI_MODE_IT                 ((uint8_t)0x00U) /*!< Interrupt Mode */
 195:../system/include/stm32l4-hal-driver/stm32l4xx_ll_exti.h **** #define LL_EXTI_MODE_EVENT              ((uint8_t)0x01U) /*!< Event Mode */
 196:../system/include/stm32l4-hal-driver/stm32l4xx_ll_exti.h **** #define LL_EXTI_MODE_IT_EVENT           ((uint8_t)0x02U) /*!< Interrupt & Event Mode */
 197:../system/include/stm32l4-hal-driver/stm32l4xx_ll_exti.h **** /**
 198:../system/include/stm32l4-hal-driver/stm32l4xx_ll_exti.h ****   * @}
 199:../system/include/stm32l4-hal-driver/stm32l4xx_ll_exti.h ****   */
 200:../system/include/stm32l4-hal-driver/stm32l4xx_ll_exti.h **** 
 201:../system/include/stm32l4-hal-driver/stm32l4xx_ll_exti.h **** /** @defgroup EXTI_LL_EC_TRIGGER Edge Trigger
 202:../system/include/stm32l4-hal-driver/stm32l4xx_ll_exti.h ****   * @{
 203:../system/include/stm32l4-hal-driver/stm32l4xx_ll_exti.h ****   */
 204:../system/include/stm32l4-hal-driver/stm32l4xx_ll_exti.h **** #define LL_EXTI_TRIGGER_NONE            ((uint8_t)0x00U) /*!< No Trigger Mode */
 205:../system/include/stm32l4-hal-driver/stm32l4xx_ll_exti.h **** #define LL_EXTI_TRIGGER_RISING          ((uint8_t)0x01U) /*!< Trigger Rising Mode */
 206:../system/include/stm32l4-hal-driver/stm32l4xx_ll_exti.h **** #define LL_EXTI_TRIGGER_FALLING         ((uint8_t)0x02U) /*!< Trigger Falling Mode */
 207:../system/include/stm32l4-hal-driver/stm32l4xx_ll_exti.h **** #define LL_EXTI_TRIGGER_RISING_FALLING  ((uint8_t)0x03U) /*!< Trigger Rising & Falling Mode */
 208:../system/include/stm32l4-hal-driver/stm32l4xx_ll_exti.h **** 
 209:../system/include/stm32l4-hal-driver/stm32l4xx_ll_exti.h **** /**
 210:../system/include/stm32l4-hal-driver/stm32l4xx_ll_exti.h ****   * @}
 211:../system/include/stm32l4-hal-driver/stm32l4xx_ll_exti.h ****   */
 212:../system/include/stm32l4-hal-driver/stm32l4xx_ll_exti.h **** 
 213:../system/include/stm32l4-hal-driver/stm32l4xx_ll_exti.h **** 
 214:../system/include/stm32l4-hal-driver/stm32l4xx_ll_exti.h **** #endif /*USE_FULL_LL_DRIVER*/
 215:../system/include/stm32l4-hal-driver/stm32l4xx_ll_exti.h **** 
 216:../system/include/stm32l4-hal-driver/stm32l4xx_ll_exti.h **** 
 217:../system/include/stm32l4-hal-driver/stm32l4xx_ll_exti.h **** /**
 218:../system/include/stm32l4-hal-driver/stm32l4xx_ll_exti.h ****   * @}
 219:../system/include/stm32l4-hal-driver/stm32l4xx_ll_exti.h ****   */
 220:../system/include/stm32l4-hal-driver/stm32l4xx_ll_exti.h **** 
 221:../system/include/stm32l4-hal-driver/stm32l4xx_ll_exti.h **** /* Exported macro ------------------------------------------------------------*/
 222:../system/include/stm32l4-hal-driver/stm32l4xx_ll_exti.h **** /** @defgroup EXTI_LL_Exported_Macros EXTI Exported Macros
 223:../system/include/stm32l4-hal-driver/stm32l4xx_ll_exti.h ****   * @{
 224:../system/include/stm32l4-hal-driver/stm32l4xx_ll_exti.h ****   */
 225:../system/include/stm32l4-hal-driver/stm32l4xx_ll_exti.h **** 
 226:../system/include/stm32l4-hal-driver/stm32l4xx_ll_exti.h **** /** @defgroup EXTI_LL_EM_WRITE_READ Common Write and read registers Macros
 227:../system/include/stm32l4-hal-driver/stm32l4xx_ll_exti.h ****   * @{
 228:../system/include/stm32l4-hal-driver/stm32l4xx_ll_exti.h ****   */
 229:../system/include/stm32l4-hal-driver/stm32l4xx_ll_exti.h **** 
 230:../system/include/stm32l4-hal-driver/stm32l4xx_ll_exti.h **** /**
 231:../system/include/stm32l4-hal-driver/stm32l4xx_ll_exti.h ****   * @brief  Write a value in EXTI register
 232:../system/include/stm32l4-hal-driver/stm32l4xx_ll_exti.h ****   * @param  __REG__ Register to be written
 233:../system/include/stm32l4-hal-driver/stm32l4xx_ll_exti.h ****   * @param  __VALUE__ Value to be written in the register
 234:../system/include/stm32l4-hal-driver/stm32l4xx_ll_exti.h ****   * @retval None
 235:../system/include/stm32l4-hal-driver/stm32l4xx_ll_exti.h ****   */
 236:../system/include/stm32l4-hal-driver/stm32l4xx_ll_exti.h **** #define LL_EXTI_WriteReg(__REG__, __VALUE__) WRITE_REG(EXTI->__REG__, (__VALUE__))
 237:../system/include/stm32l4-hal-driver/stm32l4xx_ll_exti.h **** 
 238:../system/include/stm32l4-hal-driver/stm32l4xx_ll_exti.h **** /**
 239:../system/include/stm32l4-hal-driver/stm32l4xx_ll_exti.h ****   * @brief  Read a value in EXTI register
 240:../system/include/stm32l4-hal-driver/stm32l4xx_ll_exti.h ****   * @param  __REG__ Register to be read
 241:../system/include/stm32l4-hal-driver/stm32l4xx_ll_exti.h ****   * @retval Register value
 242:../system/include/stm32l4-hal-driver/stm32l4xx_ll_exti.h ****   */
 243:../system/include/stm32l4-hal-driver/stm32l4xx_ll_exti.h **** #define LL_EXTI_ReadReg(__REG__) READ_REG(EXTI->__REG__)
 244:../system/include/stm32l4-hal-driver/stm32l4xx_ll_exti.h **** /**
 245:../system/include/stm32l4-hal-driver/stm32l4xx_ll_exti.h ****   * @}
 246:../system/include/stm32l4-hal-driver/stm32l4xx_ll_exti.h ****   */
 247:../system/include/stm32l4-hal-driver/stm32l4xx_ll_exti.h **** 
 248:../system/include/stm32l4-hal-driver/stm32l4xx_ll_exti.h **** 
 249:../system/include/stm32l4-hal-driver/stm32l4xx_ll_exti.h **** /**
 250:../system/include/stm32l4-hal-driver/stm32l4xx_ll_exti.h ****   * @}
 251:../system/include/stm32l4-hal-driver/stm32l4xx_ll_exti.h ****   */
 252:../system/include/stm32l4-hal-driver/stm32l4xx_ll_exti.h **** 
 253:../system/include/stm32l4-hal-driver/stm32l4xx_ll_exti.h **** 
 254:../system/include/stm32l4-hal-driver/stm32l4xx_ll_exti.h **** 
 255:../system/include/stm32l4-hal-driver/stm32l4xx_ll_exti.h **** /* Exported functions --------------------------------------------------------*/
 256:../system/include/stm32l4-hal-driver/stm32l4xx_ll_exti.h **** /** @defgroup EXTI_LL_Exported_Functions EXTI Exported Functions
 257:../system/include/stm32l4-hal-driver/stm32l4xx_ll_exti.h ****  * @{
 258:../system/include/stm32l4-hal-driver/stm32l4xx_ll_exti.h ****  */
 259:../system/include/stm32l4-hal-driver/stm32l4xx_ll_exti.h **** /** @defgroup EXTI_LL_EF_IT_Management IT_Management
 260:../system/include/stm32l4-hal-driver/stm32l4xx_ll_exti.h ****   * @{
 261:../system/include/stm32l4-hal-driver/stm32l4xx_ll_exti.h ****   */
 262:../system/include/stm32l4-hal-driver/stm32l4xx_ll_exti.h **** 
 263:../system/include/stm32l4-hal-driver/stm32l4xx_ll_exti.h **** /**
 264:../system/include/stm32l4-hal-driver/stm32l4xx_ll_exti.h ****   * @brief  Enable ExtiLine Interrupt request for Lines in range 0 to 31
 265:../system/include/stm32l4-hal-driver/stm32l4xx_ll_exti.h ****   * @note The reset value for the direct or internal lines (see RM)
 266:../system/include/stm32l4-hal-driver/stm32l4xx_ll_exti.h ****   *       is set to 1 in order to enable the interrupt by default.
 267:../system/include/stm32l4-hal-driver/stm32l4xx_ll_exti.h ****   *       Bits are set automatically at Power on.
 268:../system/include/stm32l4-hal-driver/stm32l4xx_ll_exti.h ****   * @rmtoll IMR1         IMx           LL_EXTI_EnableIT_0_31
 269:../system/include/stm32l4-hal-driver/stm32l4xx_ll_exti.h ****   * @param  ExtiLine This parameter can be one of the following values:
 270:../system/include/stm32l4-hal-driver/stm32l4xx_ll_exti.h ****   *         @arg @ref LL_EXTI_LINE_0
 271:../system/include/stm32l4-hal-driver/stm32l4xx_ll_exti.h ****   *         @arg @ref LL_EXTI_LINE_1
 272:../system/include/stm32l4-hal-driver/stm32l4xx_ll_exti.h ****   *         @arg @ref LL_EXTI_LINE_2
 273:../system/include/stm32l4-hal-driver/stm32l4xx_ll_exti.h ****   *         @arg @ref LL_EXTI_LINE_3
 274:../system/include/stm32l4-hal-driver/stm32l4xx_ll_exti.h ****   *         @arg @ref LL_EXTI_LINE_4
 275:../system/include/stm32l4-hal-driver/stm32l4xx_ll_exti.h ****   *         @arg @ref LL_EXTI_LINE_5
 276:../system/include/stm32l4-hal-driver/stm32l4xx_ll_exti.h ****   *         @arg @ref LL_EXTI_LINE_6
 277:../system/include/stm32l4-hal-driver/stm32l4xx_ll_exti.h ****   *         @arg @ref LL_EXTI_LINE_7
 278:../system/include/stm32l4-hal-driver/stm32l4xx_ll_exti.h ****   *         @arg @ref LL_EXTI_LINE_8
 279:../system/include/stm32l4-hal-driver/stm32l4xx_ll_exti.h ****   *         @arg @ref LL_EXTI_LINE_9
 280:../system/include/stm32l4-hal-driver/stm32l4xx_ll_exti.h ****   *         @arg @ref LL_EXTI_LINE_10
 281:../system/include/stm32l4-hal-driver/stm32l4xx_ll_exti.h ****   *         @arg @ref LL_EXTI_LINE_11
 282:../system/include/stm32l4-hal-driver/stm32l4xx_ll_exti.h ****   *         @arg @ref LL_EXTI_LINE_12
 283:../system/include/stm32l4-hal-driver/stm32l4xx_ll_exti.h ****   *         @arg @ref LL_EXTI_LINE_13
 284:../system/include/stm32l4-hal-driver/stm32l4xx_ll_exti.h ****   *         @arg @ref LL_EXTI_LINE_14
 285:../system/include/stm32l4-hal-driver/stm32l4xx_ll_exti.h ****   *         @arg @ref LL_EXTI_LINE_15
 286:../system/include/stm32l4-hal-driver/stm32l4xx_ll_exti.h ****   *         @arg @ref LL_EXTI_LINE_16
 287:../system/include/stm32l4-hal-driver/stm32l4xx_ll_exti.h ****   *         @arg @ref LL_EXTI_LINE_17
 288:../system/include/stm32l4-hal-driver/stm32l4xx_ll_exti.h ****   *         @arg @ref LL_EXTI_LINE_18
 289:../system/include/stm32l4-hal-driver/stm32l4xx_ll_exti.h ****   *         @arg @ref LL_EXTI_LINE_19
 290:../system/include/stm32l4-hal-driver/stm32l4xx_ll_exti.h ****   *         @arg @ref LL_EXTI_LINE_20
 291:../system/include/stm32l4-hal-driver/stm32l4xx_ll_exti.h ****   *         @arg @ref LL_EXTI_LINE_21
 292:../system/include/stm32l4-hal-driver/stm32l4xx_ll_exti.h ****   *         @arg @ref LL_EXTI_LINE_22
 293:../system/include/stm32l4-hal-driver/stm32l4xx_ll_exti.h ****   *         @arg @ref LL_EXTI_LINE_23
 294:../system/include/stm32l4-hal-driver/stm32l4xx_ll_exti.h ****   *         @arg @ref LL_EXTI_LINE_24
 295:../system/include/stm32l4-hal-driver/stm32l4xx_ll_exti.h ****   *         @arg @ref LL_EXTI_LINE_25
 296:../system/include/stm32l4-hal-driver/stm32l4xx_ll_exti.h ****   *         @arg @ref LL_EXTI_LINE_26
 297:../system/include/stm32l4-hal-driver/stm32l4xx_ll_exti.h ****   *         @arg @ref LL_EXTI_LINE_27
 298:../system/include/stm32l4-hal-driver/stm32l4xx_ll_exti.h ****   *         @arg @ref LL_EXTI_LINE_28
 299:../system/include/stm32l4-hal-driver/stm32l4xx_ll_exti.h ****   *         @arg @ref LL_EXTI_LINE_29
 300:../system/include/stm32l4-hal-driver/stm32l4xx_ll_exti.h ****   *         @arg @ref LL_EXTI_LINE_30
 301:../system/include/stm32l4-hal-driver/stm32l4xx_ll_exti.h ****   *         @arg @ref LL_EXTI_LINE_31
 302:../system/include/stm32l4-hal-driver/stm32l4xx_ll_exti.h ****   *         @arg @ref LL_EXTI_LINE_ALL_0_31
 303:../system/include/stm32l4-hal-driver/stm32l4xx_ll_exti.h ****   * @note   Please check each device line mapping for EXTI Line availability
 304:../system/include/stm32l4-hal-driver/stm32l4xx_ll_exti.h ****   * @retval None
 305:../system/include/stm32l4-hal-driver/stm32l4xx_ll_exti.h ****   */
 306:../system/include/stm32l4-hal-driver/stm32l4xx_ll_exti.h **** __STATIC_INLINE void LL_EXTI_EnableIT_0_31(uint32_t ExtiLine)
 307:../system/include/stm32l4-hal-driver/stm32l4xx_ll_exti.h **** {
 308:../system/include/stm32l4-hal-driver/stm32l4xx_ll_exti.h ****   SET_BIT(EXTI->IMR1, ExtiLine);
 309:../system/include/stm32l4-hal-driver/stm32l4xx_ll_exti.h **** }
 310:../system/include/stm32l4-hal-driver/stm32l4xx_ll_exti.h **** /**
 311:../system/include/stm32l4-hal-driver/stm32l4xx_ll_exti.h ****   * @brief  Enable ExtiLine Interrupt request for Lines in range 32 to 63
 312:../system/include/stm32l4-hal-driver/stm32l4xx_ll_exti.h ****   * @note The reset value for the direct lines (lines from 32 to 34, line
 313:../system/include/stm32l4-hal-driver/stm32l4xx_ll_exti.h ****   *       39) is set to 1 in order to enable the interrupt by default.
 314:../system/include/stm32l4-hal-driver/stm32l4xx_ll_exti.h ****   *       Bits are set automatically at Power on.
 315:../system/include/stm32l4-hal-driver/stm32l4xx_ll_exti.h ****   * @rmtoll IMR2         IMx           LL_EXTI_EnableIT_32_63
 316:../system/include/stm32l4-hal-driver/stm32l4xx_ll_exti.h ****   * @param  ExtiLine This parameter can be one of the following values:
 317:../system/include/stm32l4-hal-driver/stm32l4xx_ll_exti.h ****   *         @arg @ref LL_EXTI_LINE_32
 318:../system/include/stm32l4-hal-driver/stm32l4xx_ll_exti.h ****   *         @arg @ref LL_EXTI_LINE_33
 319:../system/include/stm32l4-hal-driver/stm32l4xx_ll_exti.h ****   *         @arg @ref LL_EXTI_LINE_34(*)
 320:../system/include/stm32l4-hal-driver/stm32l4xx_ll_exti.h ****   *         @arg @ref LL_EXTI_LINE_35
 321:../system/include/stm32l4-hal-driver/stm32l4xx_ll_exti.h ****   *         @arg @ref LL_EXTI_LINE_36
 322:../system/include/stm32l4-hal-driver/stm32l4xx_ll_exti.h ****   *         @arg @ref LL_EXTI_LINE_37
 323:../system/include/stm32l4-hal-driver/stm32l4xx_ll_exti.h ****   *         @arg @ref LL_EXTI_LINE_38
 324:../system/include/stm32l4-hal-driver/stm32l4xx_ll_exti.h ****   *         @arg @ref LL_EXTI_LINE_39(*)
 325:../system/include/stm32l4-hal-driver/stm32l4xx_ll_exti.h ****   *         @arg @ref LL_EXTI_LINE_40(*)
 326:../system/include/stm32l4-hal-driver/stm32l4xx_ll_exti.h ****   *         @arg @ref LL_EXTI_LINE_ALL_32_63
 327:../system/include/stm32l4-hal-driver/stm32l4xx_ll_exti.h ****   * @note   (*): Available in some devices
 328:../system/include/stm32l4-hal-driver/stm32l4xx_ll_exti.h ****   * @retval None
 329:../system/include/stm32l4-hal-driver/stm32l4xx_ll_exti.h ****   */
 330:../system/include/stm32l4-hal-driver/stm32l4xx_ll_exti.h **** __STATIC_INLINE void LL_EXTI_EnableIT_32_63(uint32_t ExtiLine)
 331:../system/include/stm32l4-hal-driver/stm32l4xx_ll_exti.h **** {
 332:../system/include/stm32l4-hal-driver/stm32l4xx_ll_exti.h ****   SET_BIT(EXTI->IMR2, ExtiLine);
 333:../system/include/stm32l4-hal-driver/stm32l4xx_ll_exti.h **** }
 334:../system/include/stm32l4-hal-driver/stm32l4xx_ll_exti.h **** 
 335:../system/include/stm32l4-hal-driver/stm32l4xx_ll_exti.h **** /**
 336:../system/include/stm32l4-hal-driver/stm32l4xx_ll_exti.h ****   * @brief  Disable ExtiLine Interrupt request for Lines in range 0 to 31
 337:../system/include/stm32l4-hal-driver/stm32l4xx_ll_exti.h ****   * @note The reset value for the direct or internal lines (see RM)
 338:../system/include/stm32l4-hal-driver/stm32l4xx_ll_exti.h ****   *       is set to 1 in order to enable the interrupt by default.
 339:../system/include/stm32l4-hal-driver/stm32l4xx_ll_exti.h ****   *       Bits are set automatically at Power on.
 340:../system/include/stm32l4-hal-driver/stm32l4xx_ll_exti.h ****   * @rmtoll IMR1         IMx           LL_EXTI_DisableIT_0_31
 341:../system/include/stm32l4-hal-driver/stm32l4xx_ll_exti.h ****   * @param  ExtiLine This parameter can be one of the following values:
 342:../system/include/stm32l4-hal-driver/stm32l4xx_ll_exti.h ****   *         @arg @ref LL_EXTI_LINE_0
 343:../system/include/stm32l4-hal-driver/stm32l4xx_ll_exti.h ****   *         @arg @ref LL_EXTI_LINE_1
 344:../system/include/stm32l4-hal-driver/stm32l4xx_ll_exti.h ****   *         @arg @ref LL_EXTI_LINE_2
 345:../system/include/stm32l4-hal-driver/stm32l4xx_ll_exti.h ****   *         @arg @ref LL_EXTI_LINE_3
 346:../system/include/stm32l4-hal-driver/stm32l4xx_ll_exti.h ****   *         @arg @ref LL_EXTI_LINE_4
 347:../system/include/stm32l4-hal-driver/stm32l4xx_ll_exti.h ****   *         @arg @ref LL_EXTI_LINE_5
 348:../system/include/stm32l4-hal-driver/stm32l4xx_ll_exti.h ****   *         @arg @ref LL_EXTI_LINE_6
 349:../system/include/stm32l4-hal-driver/stm32l4xx_ll_exti.h ****   *         @arg @ref LL_EXTI_LINE_7
 350:../system/include/stm32l4-hal-driver/stm32l4xx_ll_exti.h ****   *         @arg @ref LL_EXTI_LINE_8
 351:../system/include/stm32l4-hal-driver/stm32l4xx_ll_exti.h ****   *         @arg @ref LL_EXTI_LINE_9
 352:../system/include/stm32l4-hal-driver/stm32l4xx_ll_exti.h ****   *         @arg @ref LL_EXTI_LINE_10
 353:../system/include/stm32l4-hal-driver/stm32l4xx_ll_exti.h ****   *         @arg @ref LL_EXTI_LINE_11
 354:../system/include/stm32l4-hal-driver/stm32l4xx_ll_exti.h ****   *         @arg @ref LL_EXTI_LINE_12
 355:../system/include/stm32l4-hal-driver/stm32l4xx_ll_exti.h ****   *         @arg @ref LL_EXTI_LINE_13
 356:../system/include/stm32l4-hal-driver/stm32l4xx_ll_exti.h ****   *         @arg @ref LL_EXTI_LINE_14
 357:../system/include/stm32l4-hal-driver/stm32l4xx_ll_exti.h ****   *         @arg @ref LL_EXTI_LINE_15
 358:../system/include/stm32l4-hal-driver/stm32l4xx_ll_exti.h ****   *         @arg @ref LL_EXTI_LINE_16
 359:../system/include/stm32l4-hal-driver/stm32l4xx_ll_exti.h ****   *         @arg @ref LL_EXTI_LINE_17
 360:../system/include/stm32l4-hal-driver/stm32l4xx_ll_exti.h ****   *         @arg @ref LL_EXTI_LINE_18
 361:../system/include/stm32l4-hal-driver/stm32l4xx_ll_exti.h ****   *         @arg @ref LL_EXTI_LINE_19
 362:../system/include/stm32l4-hal-driver/stm32l4xx_ll_exti.h ****   *         @arg @ref LL_EXTI_LINE_20
 363:../system/include/stm32l4-hal-driver/stm32l4xx_ll_exti.h ****   *         @arg @ref LL_EXTI_LINE_21
 364:../system/include/stm32l4-hal-driver/stm32l4xx_ll_exti.h ****   *         @arg @ref LL_EXTI_LINE_22
 365:../system/include/stm32l4-hal-driver/stm32l4xx_ll_exti.h ****   *         @arg @ref LL_EXTI_LINE_23
 366:../system/include/stm32l4-hal-driver/stm32l4xx_ll_exti.h ****   *         @arg @ref LL_EXTI_LINE_24
 367:../system/include/stm32l4-hal-driver/stm32l4xx_ll_exti.h ****   *         @arg @ref LL_EXTI_LINE_25
 368:../system/include/stm32l4-hal-driver/stm32l4xx_ll_exti.h ****   *         @arg @ref LL_EXTI_LINE_26
 369:../system/include/stm32l4-hal-driver/stm32l4xx_ll_exti.h ****   *         @arg @ref LL_EXTI_LINE_27
 370:../system/include/stm32l4-hal-driver/stm32l4xx_ll_exti.h ****   *         @arg @ref LL_EXTI_LINE_28
 371:../system/include/stm32l4-hal-driver/stm32l4xx_ll_exti.h ****   *         @arg @ref LL_EXTI_LINE_29
 372:../system/include/stm32l4-hal-driver/stm32l4xx_ll_exti.h ****   *         @arg @ref LL_EXTI_LINE_30
 373:../system/include/stm32l4-hal-driver/stm32l4xx_ll_exti.h ****   *         @arg @ref LL_EXTI_LINE_31
 374:../system/include/stm32l4-hal-driver/stm32l4xx_ll_exti.h ****   *         @arg @ref LL_EXTI_LINE_ALL_0_31
 375:../system/include/stm32l4-hal-driver/stm32l4xx_ll_exti.h ****   * @note   Please check each device line mapping for EXTI Line availability
 376:../system/include/stm32l4-hal-driver/stm32l4xx_ll_exti.h ****   * @retval None
 377:../system/include/stm32l4-hal-driver/stm32l4xx_ll_exti.h ****   */
 378:../system/include/stm32l4-hal-driver/stm32l4xx_ll_exti.h **** __STATIC_INLINE void LL_EXTI_DisableIT_0_31(uint32_t ExtiLine)
 379:../system/include/stm32l4-hal-driver/stm32l4xx_ll_exti.h **** {
 380:../system/include/stm32l4-hal-driver/stm32l4xx_ll_exti.h ****   CLEAR_BIT(EXTI->IMR1, ExtiLine);
 381:../system/include/stm32l4-hal-driver/stm32l4xx_ll_exti.h **** }
 382:../system/include/stm32l4-hal-driver/stm32l4xx_ll_exti.h **** 
 383:../system/include/stm32l4-hal-driver/stm32l4xx_ll_exti.h **** /**
 384:../system/include/stm32l4-hal-driver/stm32l4xx_ll_exti.h ****   * @brief  Disable ExtiLine Interrupt request for Lines in range 32 to 63
 385:../system/include/stm32l4-hal-driver/stm32l4xx_ll_exti.h ****   * @note The reset value for the direct lines (lines from 32 to 34, line
 386:../system/include/stm32l4-hal-driver/stm32l4xx_ll_exti.h ****   *       39) is set to 1 in order to enable the interrupt by default.
 387:../system/include/stm32l4-hal-driver/stm32l4xx_ll_exti.h ****   *       Bits are set automatically at Power on.
 388:../system/include/stm32l4-hal-driver/stm32l4xx_ll_exti.h ****   * @rmtoll IMR2         IMx           LL_EXTI_DisableIT_32_63
 389:../system/include/stm32l4-hal-driver/stm32l4xx_ll_exti.h ****   * @param  ExtiLine This parameter can be one of the following values:
 390:../system/include/stm32l4-hal-driver/stm32l4xx_ll_exti.h ****   *         @arg @ref LL_EXTI_LINE_32
 391:../system/include/stm32l4-hal-driver/stm32l4xx_ll_exti.h ****   *         @arg @ref LL_EXTI_LINE_33
 392:../system/include/stm32l4-hal-driver/stm32l4xx_ll_exti.h ****   *         @arg @ref LL_EXTI_LINE_34(*)
 393:../system/include/stm32l4-hal-driver/stm32l4xx_ll_exti.h ****   *         @arg @ref LL_EXTI_LINE_35
 394:../system/include/stm32l4-hal-driver/stm32l4xx_ll_exti.h ****   *         @arg @ref LL_EXTI_LINE_36
 395:../system/include/stm32l4-hal-driver/stm32l4xx_ll_exti.h ****   *         @arg @ref LL_EXTI_LINE_37
 396:../system/include/stm32l4-hal-driver/stm32l4xx_ll_exti.h ****   *         @arg @ref LL_EXTI_LINE_38
 397:../system/include/stm32l4-hal-driver/stm32l4xx_ll_exti.h ****   *         @arg @ref LL_EXTI_LINE_39(*)
 398:../system/include/stm32l4-hal-driver/stm32l4xx_ll_exti.h ****   *         @arg @ref LL_EXTI_LINE_40(*)
 399:../system/include/stm32l4-hal-driver/stm32l4xx_ll_exti.h ****   *         @arg @ref LL_EXTI_LINE_ALL_32_63
 400:../system/include/stm32l4-hal-driver/stm32l4xx_ll_exti.h ****   * @note   (*): Available in some devices
 401:../system/include/stm32l4-hal-driver/stm32l4xx_ll_exti.h ****   * @retval None
 402:../system/include/stm32l4-hal-driver/stm32l4xx_ll_exti.h ****   */
 403:../system/include/stm32l4-hal-driver/stm32l4xx_ll_exti.h **** __STATIC_INLINE void LL_EXTI_DisableIT_32_63(uint32_t ExtiLine)
 404:../system/include/stm32l4-hal-driver/stm32l4xx_ll_exti.h **** {
 405:../system/include/stm32l4-hal-driver/stm32l4xx_ll_exti.h ****   CLEAR_BIT(EXTI->IMR2, ExtiLine);
 406:../system/include/stm32l4-hal-driver/stm32l4xx_ll_exti.h **** }
 407:../system/include/stm32l4-hal-driver/stm32l4xx_ll_exti.h **** 
 408:../system/include/stm32l4-hal-driver/stm32l4xx_ll_exti.h **** /**
 409:../system/include/stm32l4-hal-driver/stm32l4xx_ll_exti.h ****   * @brief  Indicate if ExtiLine Interrupt request is enabled for Lines in range 0 to 31
 410:../system/include/stm32l4-hal-driver/stm32l4xx_ll_exti.h ****   * @note The reset value for the direct or internal lines (see RM)
 411:../system/include/stm32l4-hal-driver/stm32l4xx_ll_exti.h ****   *       is set to 1 in order to enable the interrupt by default.
 412:../system/include/stm32l4-hal-driver/stm32l4xx_ll_exti.h ****   *       Bits are set automatically at Power on.
 413:../system/include/stm32l4-hal-driver/stm32l4xx_ll_exti.h ****   * @rmtoll IMR1         IMx           LL_EXTI_IsEnabledIT_0_31
 414:../system/include/stm32l4-hal-driver/stm32l4xx_ll_exti.h ****   * @param  ExtiLine This parameter can be one of the following values:
 415:../system/include/stm32l4-hal-driver/stm32l4xx_ll_exti.h ****   *         @arg @ref LL_EXTI_LINE_0
 416:../system/include/stm32l4-hal-driver/stm32l4xx_ll_exti.h ****   *         @arg @ref LL_EXTI_LINE_1
 417:../system/include/stm32l4-hal-driver/stm32l4xx_ll_exti.h ****   *         @arg @ref LL_EXTI_LINE_2
 418:../system/include/stm32l4-hal-driver/stm32l4xx_ll_exti.h ****   *         @arg @ref LL_EXTI_LINE_3
 419:../system/include/stm32l4-hal-driver/stm32l4xx_ll_exti.h ****   *         @arg @ref LL_EXTI_LINE_4
 420:../system/include/stm32l4-hal-driver/stm32l4xx_ll_exti.h ****   *         @arg @ref LL_EXTI_LINE_5
 421:../system/include/stm32l4-hal-driver/stm32l4xx_ll_exti.h ****   *         @arg @ref LL_EXTI_LINE_6
 422:../system/include/stm32l4-hal-driver/stm32l4xx_ll_exti.h ****   *         @arg @ref LL_EXTI_LINE_7
 423:../system/include/stm32l4-hal-driver/stm32l4xx_ll_exti.h ****   *         @arg @ref LL_EXTI_LINE_8
 424:../system/include/stm32l4-hal-driver/stm32l4xx_ll_exti.h ****   *         @arg @ref LL_EXTI_LINE_9
 425:../system/include/stm32l4-hal-driver/stm32l4xx_ll_exti.h ****   *         @arg @ref LL_EXTI_LINE_10
 426:../system/include/stm32l4-hal-driver/stm32l4xx_ll_exti.h ****   *         @arg @ref LL_EXTI_LINE_11
 427:../system/include/stm32l4-hal-driver/stm32l4xx_ll_exti.h ****   *         @arg @ref LL_EXTI_LINE_12
 428:../system/include/stm32l4-hal-driver/stm32l4xx_ll_exti.h ****   *         @arg @ref LL_EXTI_LINE_13
 429:../system/include/stm32l4-hal-driver/stm32l4xx_ll_exti.h ****   *         @arg @ref LL_EXTI_LINE_14
 430:../system/include/stm32l4-hal-driver/stm32l4xx_ll_exti.h ****   *         @arg @ref LL_EXTI_LINE_15
 431:../system/include/stm32l4-hal-driver/stm32l4xx_ll_exti.h ****   *         @arg @ref LL_EXTI_LINE_16
 432:../system/include/stm32l4-hal-driver/stm32l4xx_ll_exti.h ****   *         @arg @ref LL_EXTI_LINE_17
 433:../system/include/stm32l4-hal-driver/stm32l4xx_ll_exti.h ****   *         @arg @ref LL_EXTI_LINE_18
 434:../system/include/stm32l4-hal-driver/stm32l4xx_ll_exti.h ****   *         @arg @ref LL_EXTI_LINE_19
 435:../system/include/stm32l4-hal-driver/stm32l4xx_ll_exti.h ****   *         @arg @ref LL_EXTI_LINE_20
 436:../system/include/stm32l4-hal-driver/stm32l4xx_ll_exti.h ****   *         @arg @ref LL_EXTI_LINE_21
 437:../system/include/stm32l4-hal-driver/stm32l4xx_ll_exti.h ****   *         @arg @ref LL_EXTI_LINE_22
 438:../system/include/stm32l4-hal-driver/stm32l4xx_ll_exti.h ****   *         @arg @ref LL_EXTI_LINE_23
 439:../system/include/stm32l4-hal-driver/stm32l4xx_ll_exti.h ****   *         @arg @ref LL_EXTI_LINE_24
 440:../system/include/stm32l4-hal-driver/stm32l4xx_ll_exti.h ****   *         @arg @ref LL_EXTI_LINE_25
 441:../system/include/stm32l4-hal-driver/stm32l4xx_ll_exti.h ****   *         @arg @ref LL_EXTI_LINE_26
 442:../system/include/stm32l4-hal-driver/stm32l4xx_ll_exti.h ****   *         @arg @ref LL_EXTI_LINE_27
 443:../system/include/stm32l4-hal-driver/stm32l4xx_ll_exti.h ****   *         @arg @ref LL_EXTI_LINE_28
 444:../system/include/stm32l4-hal-driver/stm32l4xx_ll_exti.h ****   *         @arg @ref LL_EXTI_LINE_29
 445:../system/include/stm32l4-hal-driver/stm32l4xx_ll_exti.h ****   *         @arg @ref LL_EXTI_LINE_30
 446:../system/include/stm32l4-hal-driver/stm32l4xx_ll_exti.h ****   *         @arg @ref LL_EXTI_LINE_31
 447:../system/include/stm32l4-hal-driver/stm32l4xx_ll_exti.h ****   *         @arg @ref LL_EXTI_LINE_ALL_0_31
 448:../system/include/stm32l4-hal-driver/stm32l4xx_ll_exti.h ****   * @note   Please check each device line mapping for EXTI Line availability
 449:../system/include/stm32l4-hal-driver/stm32l4xx_ll_exti.h ****   * @retval State of bit (1 or 0).
 450:../system/include/stm32l4-hal-driver/stm32l4xx_ll_exti.h ****   */
 451:../system/include/stm32l4-hal-driver/stm32l4xx_ll_exti.h **** __STATIC_INLINE uint32_t LL_EXTI_IsEnabledIT_0_31(uint32_t ExtiLine)
 452:../system/include/stm32l4-hal-driver/stm32l4xx_ll_exti.h **** {
 453:../system/include/stm32l4-hal-driver/stm32l4xx_ll_exti.h ****   return ((READ_BIT(EXTI->IMR1, ExtiLine) == (ExtiLine)) ? 1UL : 0UL);
 454:../system/include/stm32l4-hal-driver/stm32l4xx_ll_exti.h **** }
 455:../system/include/stm32l4-hal-driver/stm32l4xx_ll_exti.h **** 
 456:../system/include/stm32l4-hal-driver/stm32l4xx_ll_exti.h **** /**
 457:../system/include/stm32l4-hal-driver/stm32l4xx_ll_exti.h ****   * @brief  Indicate if ExtiLine Interrupt request is enabled for Lines in range 32 to 63
 458:../system/include/stm32l4-hal-driver/stm32l4xx_ll_exti.h ****   * @note The reset value for the direct lines (lines from 32 to 34, line
 459:../system/include/stm32l4-hal-driver/stm32l4xx_ll_exti.h ****   *       39) is set to 1 in order to enable the interrupt by default.
 460:../system/include/stm32l4-hal-driver/stm32l4xx_ll_exti.h ****   *       Bits are set automatically at Power on.
 461:../system/include/stm32l4-hal-driver/stm32l4xx_ll_exti.h ****   * @rmtoll IMR2         IMx           LL_EXTI_IsEnabledIT_32_63
 462:../system/include/stm32l4-hal-driver/stm32l4xx_ll_exti.h ****   * @param  ExtiLine This parameter can be one of the following values:
 463:../system/include/stm32l4-hal-driver/stm32l4xx_ll_exti.h ****   *         @arg @ref LL_EXTI_LINE_32
 464:../system/include/stm32l4-hal-driver/stm32l4xx_ll_exti.h ****   *         @arg @ref LL_EXTI_LINE_33
 465:../system/include/stm32l4-hal-driver/stm32l4xx_ll_exti.h ****   *         @arg @ref LL_EXTI_LINE_34(*)
 466:../system/include/stm32l4-hal-driver/stm32l4xx_ll_exti.h ****   *         @arg @ref LL_EXTI_LINE_35
 467:../system/include/stm32l4-hal-driver/stm32l4xx_ll_exti.h ****   *         @arg @ref LL_EXTI_LINE_36
 468:../system/include/stm32l4-hal-driver/stm32l4xx_ll_exti.h ****   *         @arg @ref LL_EXTI_LINE_37
 469:../system/include/stm32l4-hal-driver/stm32l4xx_ll_exti.h ****   *         @arg @ref LL_EXTI_LINE_38
 470:../system/include/stm32l4-hal-driver/stm32l4xx_ll_exti.h ****   *         @arg @ref LL_EXTI_LINE_39(*)
 471:../system/include/stm32l4-hal-driver/stm32l4xx_ll_exti.h ****   *         @arg @ref LL_EXTI_LINE_40(*)
 472:../system/include/stm32l4-hal-driver/stm32l4xx_ll_exti.h ****   *         @arg @ref LL_EXTI_LINE_ALL_32_63
 473:../system/include/stm32l4-hal-driver/stm32l4xx_ll_exti.h ****   * @note   (*): Available in some devices
 474:../system/include/stm32l4-hal-driver/stm32l4xx_ll_exti.h ****   * @retval State of bit (1 or 0).
 475:../system/include/stm32l4-hal-driver/stm32l4xx_ll_exti.h ****   */
 476:../system/include/stm32l4-hal-driver/stm32l4xx_ll_exti.h **** __STATIC_INLINE uint32_t LL_EXTI_IsEnabledIT_32_63(uint32_t ExtiLine)
 477:../system/include/stm32l4-hal-driver/stm32l4xx_ll_exti.h **** {
 478:../system/include/stm32l4-hal-driver/stm32l4xx_ll_exti.h ****   return ((READ_BIT(EXTI->IMR2, ExtiLine) == (ExtiLine)) ? 1UL : 0UL);
 479:../system/include/stm32l4-hal-driver/stm32l4xx_ll_exti.h **** }
 480:../system/include/stm32l4-hal-driver/stm32l4xx_ll_exti.h **** 
 481:../system/include/stm32l4-hal-driver/stm32l4xx_ll_exti.h **** /**
 482:../system/include/stm32l4-hal-driver/stm32l4xx_ll_exti.h ****   * @}
 483:../system/include/stm32l4-hal-driver/stm32l4xx_ll_exti.h ****   */
 484:../system/include/stm32l4-hal-driver/stm32l4xx_ll_exti.h **** 
 485:../system/include/stm32l4-hal-driver/stm32l4xx_ll_exti.h **** /** @defgroup EXTI_LL_EF_Event_Management Event_Management
 486:../system/include/stm32l4-hal-driver/stm32l4xx_ll_exti.h ****   * @{
 487:../system/include/stm32l4-hal-driver/stm32l4xx_ll_exti.h ****   */
 488:../system/include/stm32l4-hal-driver/stm32l4xx_ll_exti.h **** 
 489:../system/include/stm32l4-hal-driver/stm32l4xx_ll_exti.h **** /**
 490:../system/include/stm32l4-hal-driver/stm32l4xx_ll_exti.h ****   * @brief  Enable ExtiLine Event request for Lines in range 0 to 31
 491:../system/include/stm32l4-hal-driver/stm32l4xx_ll_exti.h ****   * @rmtoll EMR1         EMx           LL_EXTI_EnableEvent_0_31
 492:../system/include/stm32l4-hal-driver/stm32l4xx_ll_exti.h ****   * @param  ExtiLine This parameter can be one of the following values:
 493:../system/include/stm32l4-hal-driver/stm32l4xx_ll_exti.h ****   *         @arg @ref LL_EXTI_LINE_0
 494:../system/include/stm32l4-hal-driver/stm32l4xx_ll_exti.h ****   *         @arg @ref LL_EXTI_LINE_1
 495:../system/include/stm32l4-hal-driver/stm32l4xx_ll_exti.h ****   *         @arg @ref LL_EXTI_LINE_2
 496:../system/include/stm32l4-hal-driver/stm32l4xx_ll_exti.h ****   *         @arg @ref LL_EXTI_LINE_3
 497:../system/include/stm32l4-hal-driver/stm32l4xx_ll_exti.h ****   *         @arg @ref LL_EXTI_LINE_4
 498:../system/include/stm32l4-hal-driver/stm32l4xx_ll_exti.h ****   *         @arg @ref LL_EXTI_LINE_5
 499:../system/include/stm32l4-hal-driver/stm32l4xx_ll_exti.h ****   *         @arg @ref LL_EXTI_LINE_6
 500:../system/include/stm32l4-hal-driver/stm32l4xx_ll_exti.h ****   *         @arg @ref LL_EXTI_LINE_7
 501:../system/include/stm32l4-hal-driver/stm32l4xx_ll_exti.h ****   *         @arg @ref LL_EXTI_LINE_8
 502:../system/include/stm32l4-hal-driver/stm32l4xx_ll_exti.h ****   *         @arg @ref LL_EXTI_LINE_9
 503:../system/include/stm32l4-hal-driver/stm32l4xx_ll_exti.h ****   *         @arg @ref LL_EXTI_LINE_10
 504:../system/include/stm32l4-hal-driver/stm32l4xx_ll_exti.h ****   *         @arg @ref LL_EXTI_LINE_11
 505:../system/include/stm32l4-hal-driver/stm32l4xx_ll_exti.h ****   *         @arg @ref LL_EXTI_LINE_12
 506:../system/include/stm32l4-hal-driver/stm32l4xx_ll_exti.h ****   *         @arg @ref LL_EXTI_LINE_13
 507:../system/include/stm32l4-hal-driver/stm32l4xx_ll_exti.h ****   *         @arg @ref LL_EXTI_LINE_14
 508:../system/include/stm32l4-hal-driver/stm32l4xx_ll_exti.h ****   *         @arg @ref LL_EXTI_LINE_15
 509:../system/include/stm32l4-hal-driver/stm32l4xx_ll_exti.h ****   *         @arg @ref LL_EXTI_LINE_16
 510:../system/include/stm32l4-hal-driver/stm32l4xx_ll_exti.h ****   *         @arg @ref LL_EXTI_LINE_17
 511:../system/include/stm32l4-hal-driver/stm32l4xx_ll_exti.h ****   *         @arg @ref LL_EXTI_LINE_18
 512:../system/include/stm32l4-hal-driver/stm32l4xx_ll_exti.h ****   *         @arg @ref LL_EXTI_LINE_19
 513:../system/include/stm32l4-hal-driver/stm32l4xx_ll_exti.h ****   *         @arg @ref LL_EXTI_LINE_20
 514:../system/include/stm32l4-hal-driver/stm32l4xx_ll_exti.h ****   *         @arg @ref LL_EXTI_LINE_21
 515:../system/include/stm32l4-hal-driver/stm32l4xx_ll_exti.h ****   *         @arg @ref LL_EXTI_LINE_22
 516:../system/include/stm32l4-hal-driver/stm32l4xx_ll_exti.h ****   *         @arg @ref LL_EXTI_LINE_23
 517:../system/include/stm32l4-hal-driver/stm32l4xx_ll_exti.h ****   *         @arg @ref LL_EXTI_LINE_24
 518:../system/include/stm32l4-hal-driver/stm32l4xx_ll_exti.h ****   *         @arg @ref LL_EXTI_LINE_25
 519:../system/include/stm32l4-hal-driver/stm32l4xx_ll_exti.h ****   *         @arg @ref LL_EXTI_LINE_26
 520:../system/include/stm32l4-hal-driver/stm32l4xx_ll_exti.h ****   *         @arg @ref LL_EXTI_LINE_27
 521:../system/include/stm32l4-hal-driver/stm32l4xx_ll_exti.h ****   *         @arg @ref LL_EXTI_LINE_28
 522:../system/include/stm32l4-hal-driver/stm32l4xx_ll_exti.h ****   *         @arg @ref LL_EXTI_LINE_29
 523:../system/include/stm32l4-hal-driver/stm32l4xx_ll_exti.h ****   *         @arg @ref LL_EXTI_LINE_30
 524:../system/include/stm32l4-hal-driver/stm32l4xx_ll_exti.h ****   *         @arg @ref LL_EXTI_LINE_31
 525:../system/include/stm32l4-hal-driver/stm32l4xx_ll_exti.h ****   *         @arg @ref LL_EXTI_LINE_ALL_0_31
 526:../system/include/stm32l4-hal-driver/stm32l4xx_ll_exti.h ****   * @note   Please check each device line mapping for EXTI Line availability
 527:../system/include/stm32l4-hal-driver/stm32l4xx_ll_exti.h ****   * @retval None
 528:../system/include/stm32l4-hal-driver/stm32l4xx_ll_exti.h ****   */
 529:../system/include/stm32l4-hal-driver/stm32l4xx_ll_exti.h **** __STATIC_INLINE void LL_EXTI_EnableEvent_0_31(uint32_t ExtiLine)
 530:../system/include/stm32l4-hal-driver/stm32l4xx_ll_exti.h **** {
 531:../system/include/stm32l4-hal-driver/stm32l4xx_ll_exti.h ****   SET_BIT(EXTI->EMR1, ExtiLine);
 532:../system/include/stm32l4-hal-driver/stm32l4xx_ll_exti.h **** 
 533:../system/include/stm32l4-hal-driver/stm32l4xx_ll_exti.h **** }
 534:../system/include/stm32l4-hal-driver/stm32l4xx_ll_exti.h **** 
 535:../system/include/stm32l4-hal-driver/stm32l4xx_ll_exti.h **** /**
 536:../system/include/stm32l4-hal-driver/stm32l4xx_ll_exti.h ****   * @brief  Enable ExtiLine Event request for Lines in range 32 to 63
 537:../system/include/stm32l4-hal-driver/stm32l4xx_ll_exti.h ****   * @rmtoll EMR2         EMx           LL_EXTI_EnableEvent_32_63
 538:../system/include/stm32l4-hal-driver/stm32l4xx_ll_exti.h ****   * @param  ExtiLine This parameter can be a combination of the following values:
 539:../system/include/stm32l4-hal-driver/stm32l4xx_ll_exti.h ****   *         @arg @ref LL_EXTI_LINE_32
 540:../system/include/stm32l4-hal-driver/stm32l4xx_ll_exti.h ****   *         @arg @ref LL_EXTI_LINE_33
 541:../system/include/stm32l4-hal-driver/stm32l4xx_ll_exti.h ****   *         @arg @ref LL_EXTI_LINE_34(*)
 542:../system/include/stm32l4-hal-driver/stm32l4xx_ll_exti.h ****   *         @arg @ref LL_EXTI_LINE_35
 543:../system/include/stm32l4-hal-driver/stm32l4xx_ll_exti.h ****   *         @arg @ref LL_EXTI_LINE_36
 544:../system/include/stm32l4-hal-driver/stm32l4xx_ll_exti.h ****   *         @arg @ref LL_EXTI_LINE_37
 545:../system/include/stm32l4-hal-driver/stm32l4xx_ll_exti.h ****   *         @arg @ref LL_EXTI_LINE_38
 546:../system/include/stm32l4-hal-driver/stm32l4xx_ll_exti.h ****   *         @arg @ref LL_EXTI_LINE_39(*)
 547:../system/include/stm32l4-hal-driver/stm32l4xx_ll_exti.h ****   *         @arg @ref LL_EXTI_LINE_40(*)
 548:../system/include/stm32l4-hal-driver/stm32l4xx_ll_exti.h ****   *         @arg @ref LL_EXTI_LINE_ALL_32_63
 549:../system/include/stm32l4-hal-driver/stm32l4xx_ll_exti.h ****   * @note   (*): Available in some devices
 550:../system/include/stm32l4-hal-driver/stm32l4xx_ll_exti.h ****   * @retval None
 551:../system/include/stm32l4-hal-driver/stm32l4xx_ll_exti.h ****   */
 552:../system/include/stm32l4-hal-driver/stm32l4xx_ll_exti.h **** __STATIC_INLINE void LL_EXTI_EnableEvent_32_63(uint32_t ExtiLine)
 553:../system/include/stm32l4-hal-driver/stm32l4xx_ll_exti.h **** {
 554:../system/include/stm32l4-hal-driver/stm32l4xx_ll_exti.h ****   SET_BIT(EXTI->EMR2, ExtiLine);
 555:../system/include/stm32l4-hal-driver/stm32l4xx_ll_exti.h **** }
 556:../system/include/stm32l4-hal-driver/stm32l4xx_ll_exti.h **** 
 557:../system/include/stm32l4-hal-driver/stm32l4xx_ll_exti.h **** /**
 558:../system/include/stm32l4-hal-driver/stm32l4xx_ll_exti.h ****   * @brief  Disable ExtiLine Event request for Lines in range 0 to 31
 559:../system/include/stm32l4-hal-driver/stm32l4xx_ll_exti.h ****   * @rmtoll EMR1         EMx           LL_EXTI_DisableEvent_0_31
 560:../system/include/stm32l4-hal-driver/stm32l4xx_ll_exti.h ****   * @param  ExtiLine This parameter can be one of the following values:
 561:../system/include/stm32l4-hal-driver/stm32l4xx_ll_exti.h ****   *         @arg @ref LL_EXTI_LINE_0
 562:../system/include/stm32l4-hal-driver/stm32l4xx_ll_exti.h ****   *         @arg @ref LL_EXTI_LINE_1
 563:../system/include/stm32l4-hal-driver/stm32l4xx_ll_exti.h ****   *         @arg @ref LL_EXTI_LINE_2
 564:../system/include/stm32l4-hal-driver/stm32l4xx_ll_exti.h ****   *         @arg @ref LL_EXTI_LINE_3
 565:../system/include/stm32l4-hal-driver/stm32l4xx_ll_exti.h ****   *         @arg @ref LL_EXTI_LINE_4
 566:../system/include/stm32l4-hal-driver/stm32l4xx_ll_exti.h ****   *         @arg @ref LL_EXTI_LINE_5
 567:../system/include/stm32l4-hal-driver/stm32l4xx_ll_exti.h ****   *         @arg @ref LL_EXTI_LINE_6
 568:../system/include/stm32l4-hal-driver/stm32l4xx_ll_exti.h ****   *         @arg @ref LL_EXTI_LINE_7
 569:../system/include/stm32l4-hal-driver/stm32l4xx_ll_exti.h ****   *         @arg @ref LL_EXTI_LINE_8
 570:../system/include/stm32l4-hal-driver/stm32l4xx_ll_exti.h ****   *         @arg @ref LL_EXTI_LINE_9
 571:../system/include/stm32l4-hal-driver/stm32l4xx_ll_exti.h ****   *         @arg @ref LL_EXTI_LINE_10
 572:../system/include/stm32l4-hal-driver/stm32l4xx_ll_exti.h ****   *         @arg @ref LL_EXTI_LINE_11
 573:../system/include/stm32l4-hal-driver/stm32l4xx_ll_exti.h ****   *         @arg @ref LL_EXTI_LINE_12
 574:../system/include/stm32l4-hal-driver/stm32l4xx_ll_exti.h ****   *         @arg @ref LL_EXTI_LINE_13
 575:../system/include/stm32l4-hal-driver/stm32l4xx_ll_exti.h ****   *         @arg @ref LL_EXTI_LINE_14
 576:../system/include/stm32l4-hal-driver/stm32l4xx_ll_exti.h ****   *         @arg @ref LL_EXTI_LINE_15
 577:../system/include/stm32l4-hal-driver/stm32l4xx_ll_exti.h ****   *         @arg @ref LL_EXTI_LINE_16
 578:../system/include/stm32l4-hal-driver/stm32l4xx_ll_exti.h ****   *         @arg @ref LL_EXTI_LINE_17
 579:../system/include/stm32l4-hal-driver/stm32l4xx_ll_exti.h ****   *         @arg @ref LL_EXTI_LINE_18
 580:../system/include/stm32l4-hal-driver/stm32l4xx_ll_exti.h ****   *         @arg @ref LL_EXTI_LINE_19
 581:../system/include/stm32l4-hal-driver/stm32l4xx_ll_exti.h ****   *         @arg @ref LL_EXTI_LINE_20
 582:../system/include/stm32l4-hal-driver/stm32l4xx_ll_exti.h ****   *         @arg @ref LL_EXTI_LINE_21
 583:../system/include/stm32l4-hal-driver/stm32l4xx_ll_exti.h ****   *         @arg @ref LL_EXTI_LINE_22
 584:../system/include/stm32l4-hal-driver/stm32l4xx_ll_exti.h ****   *         @arg @ref LL_EXTI_LINE_23
 585:../system/include/stm32l4-hal-driver/stm32l4xx_ll_exti.h ****   *         @arg @ref LL_EXTI_LINE_24
 586:../system/include/stm32l4-hal-driver/stm32l4xx_ll_exti.h ****   *         @arg @ref LL_EXTI_LINE_25
 587:../system/include/stm32l4-hal-driver/stm32l4xx_ll_exti.h ****   *         @arg @ref LL_EXTI_LINE_26
 588:../system/include/stm32l4-hal-driver/stm32l4xx_ll_exti.h ****   *         @arg @ref LL_EXTI_LINE_27
 589:../system/include/stm32l4-hal-driver/stm32l4xx_ll_exti.h ****   *         @arg @ref LL_EXTI_LINE_28
 590:../system/include/stm32l4-hal-driver/stm32l4xx_ll_exti.h ****   *         @arg @ref LL_EXTI_LINE_29
 591:../system/include/stm32l4-hal-driver/stm32l4xx_ll_exti.h ****   *         @arg @ref LL_EXTI_LINE_30
 592:../system/include/stm32l4-hal-driver/stm32l4xx_ll_exti.h ****   *         @arg @ref LL_EXTI_LINE_31
 593:../system/include/stm32l4-hal-driver/stm32l4xx_ll_exti.h ****   *         @arg @ref LL_EXTI_LINE_ALL_0_31
 594:../system/include/stm32l4-hal-driver/stm32l4xx_ll_exti.h ****   * @note   Please check each device line mapping for EXTI Line availability
 595:../system/include/stm32l4-hal-driver/stm32l4xx_ll_exti.h ****   * @retval None
 596:../system/include/stm32l4-hal-driver/stm32l4xx_ll_exti.h ****   */
 597:../system/include/stm32l4-hal-driver/stm32l4xx_ll_exti.h **** __STATIC_INLINE void LL_EXTI_DisableEvent_0_31(uint32_t ExtiLine)
 598:../system/include/stm32l4-hal-driver/stm32l4xx_ll_exti.h **** {
 599:../system/include/stm32l4-hal-driver/stm32l4xx_ll_exti.h ****   CLEAR_BIT(EXTI->EMR1, ExtiLine);
 120              		.loc 2 599 0
 121 0022 5A4A     		ldr	r2, .L36
 122 0024 5168     		ldr	r1, [r2, #4]
 123 0026 21EA0000 		bic	r0, r1, r0
 124              	.LVL4:
 125 002a 5060     		str	r0, [r2, #4]
 126              	.LVL5:
 127              	.LBE59:
 128              	.LBE58:
 146:../system/src/stm32l4-hal-driver/stm32l4xx_ll_exti.c ****           break;
 129              		.loc 1 146 0
 130 002c 1968     		ldr	r1, [r3]
 131              	.LVL6:
 132              	.LBB60:
 133              	.LBB61:
 308:../system/include/stm32l4-hal-driver/stm32l4xx_ll_exti.h **** }
 134              		.loc 2 308 0
 135 002e 1068     		ldr	r0, [r2]
 136 0030 0143     		orrs	r1, r1, r0
 137              	.LVL7:
 138 0032 1160     		str	r1, [r2]
 139              	.LVL8:
 140              	.LBE61:
 141              	.LBE60:
 124:../system/src/stm32l4-hal-driver/stm32l4xx_ll_exti.c **** 
 142              		.loc 1 124 0
 143 0034 0020     		movs	r0, #0
 144              	.L7:
 145              	.LVL9:
 161:../system/src/stm32l4-hal-driver/stm32l4xx_ll_exti.c ****           break;
 162:../system/src/stm32l4-hal-driver/stm32l4xx_ll_exti.c ****       }
 163:../system/src/stm32l4-hal-driver/stm32l4xx_ll_exti.c ****       if (EXTI_InitStruct->Trigger != LL_EXTI_TRIGGER_NONE)
 146              		.loc 1 163 0
 147 0036 9A7A     		ldrb	r2, [r3, #10]	@ zero_extendqisi2
 148 0038 3AB3     		cbz	r2, .L6
 164:../system/src/stm32l4-hal-driver/stm32l4xx_ll_exti.c ****       {
 165:../system/src/stm32l4-hal-driver/stm32l4xx_ll_exti.c ****         switch (EXTI_InitStruct->Trigger)
 149              		.loc 1 165 0
 150 003a 022A     		cmp	r2, #2
 151 003c 31D0     		beq	.L12
 152 003e 032A     		cmp	r2, #3
 153 0040 3AD0     		beq	.L13
 154 0042 012A     		cmp	r2, #1
 155 0044 17D0     		beq	.L34
 166:../system/src/stm32l4-hal-driver/stm32l4xx_ll_exti.c ****         {
 167:../system/src/stm32l4-hal-driver/stm32l4xx_ll_exti.c ****           case LL_EXTI_TRIGGER_RISING:
 168:../system/src/stm32l4-hal-driver/stm32l4xx_ll_exti.c ****             /* First Disable Falling Trigger on provided Lines */
 169:../system/src/stm32l4-hal-driver/stm32l4xx_ll_exti.c ****             LL_EXTI_DisableFallingTrig_0_31(EXTI_InitStruct->Line_0_31);
 170:../system/src/stm32l4-hal-driver/stm32l4xx_ll_exti.c ****             /* Then Enable Rising Trigger on provided Lines */
 171:../system/src/stm32l4-hal-driver/stm32l4xx_ll_exti.c ****             LL_EXTI_EnableRisingTrig_0_31(EXTI_InitStruct->Line_0_31);
 172:../system/src/stm32l4-hal-driver/stm32l4xx_ll_exti.c ****             break;
 173:../system/src/stm32l4-hal-driver/stm32l4xx_ll_exti.c ****           case LL_EXTI_TRIGGER_FALLING:
 174:../system/src/stm32l4-hal-driver/stm32l4xx_ll_exti.c ****             /* First Disable Rising Trigger on provided Lines */
 175:../system/src/stm32l4-hal-driver/stm32l4xx_ll_exti.c ****             LL_EXTI_DisableRisingTrig_0_31(EXTI_InitStruct->Line_0_31);
 176:../system/src/stm32l4-hal-driver/stm32l4xx_ll_exti.c ****             /* Then Enable Falling Trigger on provided Lines */
 177:../system/src/stm32l4-hal-driver/stm32l4xx_ll_exti.c ****             LL_EXTI_EnableFallingTrig_0_31(EXTI_InitStruct->Line_0_31);
 178:../system/src/stm32l4-hal-driver/stm32l4xx_ll_exti.c ****             break;
 179:../system/src/stm32l4-hal-driver/stm32l4xx_ll_exti.c ****           case LL_EXTI_TRIGGER_RISING_FALLING:
 180:../system/src/stm32l4-hal-driver/stm32l4xx_ll_exti.c ****             LL_EXTI_EnableRisingTrig_0_31(EXTI_InitStruct->Line_0_31);
 181:../system/src/stm32l4-hal-driver/stm32l4xx_ll_exti.c ****             LL_EXTI_EnableFallingTrig_0_31(EXTI_InitStruct->Line_0_31);
 182:../system/src/stm32l4-hal-driver/stm32l4xx_ll_exti.c ****             break;
 183:../system/src/stm32l4-hal-driver/stm32l4xx_ll_exti.c ****           default:
 184:../system/src/stm32l4-hal-driver/stm32l4xx_ll_exti.c ****             status |= 0x02u;
 156              		.loc 1 184 0
 157 0046 40F00200 		orr	r0, r0, #2
 158              	.LVL10:
 185:../system/src/stm32l4-hal-driver/stm32l4xx_ll_exti.c ****             break;
 159              		.loc 1 185 0
 160 004a 1EE0     		b	.L6
 161              	.LVL11:
 162              	.L8:
 163              	.LBB62:
 164              	.LBB63:
 380:../system/include/stm32l4-hal-driver/stm32l4xx_ll_exti.h **** }
 165              		.loc 2 380 0
 166 004c 4F4A     		ldr	r2, .L36
 167 004e 1168     		ldr	r1, [r2]
 168 0050 21EA0000 		bic	r0, r1, r0
 169              	.LVL12:
 170 0054 1060     		str	r0, [r2]
 171              	.LVL13:
 172              	.LBE63:
 173              	.LBE62:
 152:../system/src/stm32l4-hal-driver/stm32l4xx_ll_exti.c ****           break;
 174              		.loc 1 152 0
 175 0056 1968     		ldr	r1, [r3]
 176              	.LVL14:
 177              	.LBB64:
 178              	.LBB65:
 531:../system/include/stm32l4-hal-driver/stm32l4xx_ll_exti.h **** 
 179              		.loc 2 531 0
 180 0058 5068     		ldr	r0, [r2, #4]
 181 005a 0143     		orrs	r1, r1, r0
 182              	.LVL15:
 183 005c 5160     		str	r1, [r2, #4]
 184              	.LVL16:
 185              	.LBE65:
 186              	.LBE64:
 124:../system/src/stm32l4-hal-driver/stm32l4xx_ll_exti.c **** 
 187              		.loc 1 124 0
 188 005e 0020     		movs	r0, #0
 189 0060 E9E7     		b	.L7
 190              	.L10:
 191              	.LVL17:
 192              	.LBB66:
 193              	.LBB67:
 308:../system/include/stm32l4-hal-driver/stm32l4xx_ll_exti.h **** }
 194              		.loc 2 308 0
 195 0062 4A4A     		ldr	r2, .L36
 196 0064 1168     		ldr	r1, [r2]
 197 0066 0843     		orrs	r0, r0, r1
 198              	.LVL18:
 199 0068 1060     		str	r0, [r2]
 200              	.LVL19:
 201              	.LBE67:
 202              	.LBE66:
 157:../system/src/stm32l4-hal-driver/stm32l4xx_ll_exti.c ****           break;
 203              		.loc 1 157 0
 204 006a 1968     		ldr	r1, [r3]
 205              	.LVL20:
 206              	.LBB68:
 207              	.LBB69:
 531:../system/include/stm32l4-hal-driver/stm32l4xx_ll_exti.h **** 
 208              		.loc 2 531 0
 209 006c 5068     		ldr	r0, [r2, #4]
 210 006e 0143     		orrs	r1, r1, r0
 211              	.LVL21:
 212 0070 5160     		str	r1, [r2, #4]
 213              	.LVL22:
 214              	.LBE69:
 215              	.LBE68:
 124:../system/src/stm32l4-hal-driver/stm32l4xx_ll_exti.c **** 
 216              		.loc 1 124 0
 217 0072 0020     		movs	r0, #0
 218 0074 DFE7     		b	.L7
 219              	.LVL23:
 220              	.L34:
 169:../system/src/stm32l4-hal-driver/stm32l4xx_ll_exti.c ****             /* Then Enable Rising Trigger on provided Lines */
 221              		.loc 1 169 0
 222 0076 1C68     		ldr	r4, [r3]
 223              	.LVL24:
 224              	.LBB70:
 225              	.LBB71:
 600:../system/include/stm32l4-hal-driver/stm32l4xx_ll_exti.h **** }
 601:../system/include/stm32l4-hal-driver/stm32l4xx_ll_exti.h **** 
 602:../system/include/stm32l4-hal-driver/stm32l4xx_ll_exti.h **** /**
 603:../system/include/stm32l4-hal-driver/stm32l4xx_ll_exti.h ****   * @brief  Disable ExtiLine Event request for Lines in range 32 to 63
 604:../system/include/stm32l4-hal-driver/stm32l4xx_ll_exti.h ****   * @rmtoll EMR2         EMx           LL_EXTI_DisableEvent_32_63
 605:../system/include/stm32l4-hal-driver/stm32l4xx_ll_exti.h ****   * @param  ExtiLine This parameter can be a combination of the following values:
 606:../system/include/stm32l4-hal-driver/stm32l4xx_ll_exti.h ****   *         @arg @ref LL_EXTI_LINE_32
 607:../system/include/stm32l4-hal-driver/stm32l4xx_ll_exti.h ****   *         @arg @ref LL_EXTI_LINE_33
 608:../system/include/stm32l4-hal-driver/stm32l4xx_ll_exti.h ****   *         @arg @ref LL_EXTI_LINE_34(*)
 609:../system/include/stm32l4-hal-driver/stm32l4xx_ll_exti.h ****   *         @arg @ref LL_EXTI_LINE_35
 610:../system/include/stm32l4-hal-driver/stm32l4xx_ll_exti.h ****   *         @arg @ref LL_EXTI_LINE_36
 611:../system/include/stm32l4-hal-driver/stm32l4xx_ll_exti.h ****   *         @arg @ref LL_EXTI_LINE_37
 612:../system/include/stm32l4-hal-driver/stm32l4xx_ll_exti.h ****   *         @arg @ref LL_EXTI_LINE_38
 613:../system/include/stm32l4-hal-driver/stm32l4xx_ll_exti.h ****   *         @arg @ref LL_EXTI_LINE_39(*)
 614:../system/include/stm32l4-hal-driver/stm32l4xx_ll_exti.h ****   *         @arg @ref LL_EXTI_LINE_40(*)
 615:../system/include/stm32l4-hal-driver/stm32l4xx_ll_exti.h ****   *         @arg @ref LL_EXTI_LINE_ALL_32_63
 616:../system/include/stm32l4-hal-driver/stm32l4xx_ll_exti.h ****   * @note   (*): Available in some devices
 617:../system/include/stm32l4-hal-driver/stm32l4xx_ll_exti.h ****   * @retval None
 618:../system/include/stm32l4-hal-driver/stm32l4xx_ll_exti.h ****   */
 619:../system/include/stm32l4-hal-driver/stm32l4xx_ll_exti.h **** __STATIC_INLINE void LL_EXTI_DisableEvent_32_63(uint32_t ExtiLine)
 620:../system/include/stm32l4-hal-driver/stm32l4xx_ll_exti.h **** {
 621:../system/include/stm32l4-hal-driver/stm32l4xx_ll_exti.h ****   CLEAR_BIT(EXTI->EMR2, ExtiLine);
 622:../system/include/stm32l4-hal-driver/stm32l4xx_ll_exti.h **** }
 623:../system/include/stm32l4-hal-driver/stm32l4xx_ll_exti.h **** 
 624:../system/include/stm32l4-hal-driver/stm32l4xx_ll_exti.h **** /**
 625:../system/include/stm32l4-hal-driver/stm32l4xx_ll_exti.h ****   * @brief  Indicate if ExtiLine Event request is enabled for Lines in range 0 to 31
 626:../system/include/stm32l4-hal-driver/stm32l4xx_ll_exti.h ****   * @rmtoll EMR1         EMx           LL_EXTI_IsEnabledEvent_0_31
 627:../system/include/stm32l4-hal-driver/stm32l4xx_ll_exti.h ****   * @param  ExtiLine This parameter can be one of the following values:
 628:../system/include/stm32l4-hal-driver/stm32l4xx_ll_exti.h ****   *         @arg @ref LL_EXTI_LINE_0
 629:../system/include/stm32l4-hal-driver/stm32l4xx_ll_exti.h ****   *         @arg @ref LL_EXTI_LINE_1
 630:../system/include/stm32l4-hal-driver/stm32l4xx_ll_exti.h ****   *         @arg @ref LL_EXTI_LINE_2
 631:../system/include/stm32l4-hal-driver/stm32l4xx_ll_exti.h ****   *         @arg @ref LL_EXTI_LINE_3
 632:../system/include/stm32l4-hal-driver/stm32l4xx_ll_exti.h ****   *         @arg @ref LL_EXTI_LINE_4
 633:../system/include/stm32l4-hal-driver/stm32l4xx_ll_exti.h ****   *         @arg @ref LL_EXTI_LINE_5
 634:../system/include/stm32l4-hal-driver/stm32l4xx_ll_exti.h ****   *         @arg @ref LL_EXTI_LINE_6
 635:../system/include/stm32l4-hal-driver/stm32l4xx_ll_exti.h ****   *         @arg @ref LL_EXTI_LINE_7
 636:../system/include/stm32l4-hal-driver/stm32l4xx_ll_exti.h ****   *         @arg @ref LL_EXTI_LINE_8
 637:../system/include/stm32l4-hal-driver/stm32l4xx_ll_exti.h ****   *         @arg @ref LL_EXTI_LINE_9
 638:../system/include/stm32l4-hal-driver/stm32l4xx_ll_exti.h ****   *         @arg @ref LL_EXTI_LINE_10
 639:../system/include/stm32l4-hal-driver/stm32l4xx_ll_exti.h ****   *         @arg @ref LL_EXTI_LINE_11
 640:../system/include/stm32l4-hal-driver/stm32l4xx_ll_exti.h ****   *         @arg @ref LL_EXTI_LINE_12
 641:../system/include/stm32l4-hal-driver/stm32l4xx_ll_exti.h ****   *         @arg @ref LL_EXTI_LINE_13
 642:../system/include/stm32l4-hal-driver/stm32l4xx_ll_exti.h ****   *         @arg @ref LL_EXTI_LINE_14
 643:../system/include/stm32l4-hal-driver/stm32l4xx_ll_exti.h ****   *         @arg @ref LL_EXTI_LINE_15
 644:../system/include/stm32l4-hal-driver/stm32l4xx_ll_exti.h ****   *         @arg @ref LL_EXTI_LINE_16
 645:../system/include/stm32l4-hal-driver/stm32l4xx_ll_exti.h ****   *         @arg @ref LL_EXTI_LINE_17
 646:../system/include/stm32l4-hal-driver/stm32l4xx_ll_exti.h ****   *         @arg @ref LL_EXTI_LINE_18
 647:../system/include/stm32l4-hal-driver/stm32l4xx_ll_exti.h ****   *         @arg @ref LL_EXTI_LINE_19
 648:../system/include/stm32l4-hal-driver/stm32l4xx_ll_exti.h ****   *         @arg @ref LL_EXTI_LINE_20
 649:../system/include/stm32l4-hal-driver/stm32l4xx_ll_exti.h ****   *         @arg @ref LL_EXTI_LINE_21
 650:../system/include/stm32l4-hal-driver/stm32l4xx_ll_exti.h ****   *         @arg @ref LL_EXTI_LINE_22
 651:../system/include/stm32l4-hal-driver/stm32l4xx_ll_exti.h ****   *         @arg @ref LL_EXTI_LINE_23
 652:../system/include/stm32l4-hal-driver/stm32l4xx_ll_exti.h ****   *         @arg @ref LL_EXTI_LINE_24
 653:../system/include/stm32l4-hal-driver/stm32l4xx_ll_exti.h ****   *         @arg @ref LL_EXTI_LINE_25
 654:../system/include/stm32l4-hal-driver/stm32l4xx_ll_exti.h ****   *         @arg @ref LL_EXTI_LINE_26
 655:../system/include/stm32l4-hal-driver/stm32l4xx_ll_exti.h ****   *         @arg @ref LL_EXTI_LINE_27
 656:../system/include/stm32l4-hal-driver/stm32l4xx_ll_exti.h ****   *         @arg @ref LL_EXTI_LINE_28
 657:../system/include/stm32l4-hal-driver/stm32l4xx_ll_exti.h ****   *         @arg @ref LL_EXTI_LINE_29
 658:../system/include/stm32l4-hal-driver/stm32l4xx_ll_exti.h ****   *         @arg @ref LL_EXTI_LINE_30
 659:../system/include/stm32l4-hal-driver/stm32l4xx_ll_exti.h ****   *         @arg @ref LL_EXTI_LINE_31
 660:../system/include/stm32l4-hal-driver/stm32l4xx_ll_exti.h ****   *         @arg @ref LL_EXTI_LINE_ALL_0_31
 661:../system/include/stm32l4-hal-driver/stm32l4xx_ll_exti.h ****   * @note   Please check each device line mapping for EXTI Line availability
 662:../system/include/stm32l4-hal-driver/stm32l4xx_ll_exti.h ****   * @retval State of bit (1 or 0).
 663:../system/include/stm32l4-hal-driver/stm32l4xx_ll_exti.h ****   */
 664:../system/include/stm32l4-hal-driver/stm32l4xx_ll_exti.h **** __STATIC_INLINE uint32_t LL_EXTI_IsEnabledEvent_0_31(uint32_t ExtiLine)
 665:../system/include/stm32l4-hal-driver/stm32l4xx_ll_exti.h **** {
 666:../system/include/stm32l4-hal-driver/stm32l4xx_ll_exti.h ****   return ((READ_BIT(EXTI->EMR1, ExtiLine) == (ExtiLine)) ? 1UL : 0UL);
 667:../system/include/stm32l4-hal-driver/stm32l4xx_ll_exti.h **** 
 668:../system/include/stm32l4-hal-driver/stm32l4xx_ll_exti.h **** }
 669:../system/include/stm32l4-hal-driver/stm32l4xx_ll_exti.h **** 
 670:../system/include/stm32l4-hal-driver/stm32l4xx_ll_exti.h **** /**
 671:../system/include/stm32l4-hal-driver/stm32l4xx_ll_exti.h ****   * @brief  Indicate if ExtiLine Event request is enabled for Lines in range 32 to 63
 672:../system/include/stm32l4-hal-driver/stm32l4xx_ll_exti.h ****   * @rmtoll EMR2         EMx           LL_EXTI_IsEnabledEvent_32_63
 673:../system/include/stm32l4-hal-driver/stm32l4xx_ll_exti.h ****   * @param  ExtiLine This parameter can be a combination of the following values:
 674:../system/include/stm32l4-hal-driver/stm32l4xx_ll_exti.h ****   *         @arg @ref LL_EXTI_LINE_32
 675:../system/include/stm32l4-hal-driver/stm32l4xx_ll_exti.h ****   *         @arg @ref LL_EXTI_LINE_33
 676:../system/include/stm32l4-hal-driver/stm32l4xx_ll_exti.h ****   *         @arg @ref LL_EXTI_LINE_34(*)
 677:../system/include/stm32l4-hal-driver/stm32l4xx_ll_exti.h ****   *         @arg @ref LL_EXTI_LINE_35
 678:../system/include/stm32l4-hal-driver/stm32l4xx_ll_exti.h ****   *         @arg @ref LL_EXTI_LINE_36
 679:../system/include/stm32l4-hal-driver/stm32l4xx_ll_exti.h ****   *         @arg @ref LL_EXTI_LINE_37
 680:../system/include/stm32l4-hal-driver/stm32l4xx_ll_exti.h ****   *         @arg @ref LL_EXTI_LINE_38
 681:../system/include/stm32l4-hal-driver/stm32l4xx_ll_exti.h ****   *         @arg @ref LL_EXTI_LINE_39(*)
 682:../system/include/stm32l4-hal-driver/stm32l4xx_ll_exti.h ****   *         @arg @ref LL_EXTI_LINE_40(*)
 683:../system/include/stm32l4-hal-driver/stm32l4xx_ll_exti.h ****   *         @arg @ref LL_EXTI_LINE_ALL_32_63
 684:../system/include/stm32l4-hal-driver/stm32l4xx_ll_exti.h ****   * @note   (*): Available in some devices
 685:../system/include/stm32l4-hal-driver/stm32l4xx_ll_exti.h ****   * @retval State of bit (1 or 0).
 686:../system/include/stm32l4-hal-driver/stm32l4xx_ll_exti.h ****   */
 687:../system/include/stm32l4-hal-driver/stm32l4xx_ll_exti.h **** __STATIC_INLINE uint32_t LL_EXTI_IsEnabledEvent_32_63(uint32_t ExtiLine)
 688:../system/include/stm32l4-hal-driver/stm32l4xx_ll_exti.h **** {
 689:../system/include/stm32l4-hal-driver/stm32l4xx_ll_exti.h ****   return ((READ_BIT(EXTI->EMR2, ExtiLine) == (ExtiLine)) ? 1UL : 0UL);
 690:../system/include/stm32l4-hal-driver/stm32l4xx_ll_exti.h **** }
 691:../system/include/stm32l4-hal-driver/stm32l4xx_ll_exti.h **** 
 692:../system/include/stm32l4-hal-driver/stm32l4xx_ll_exti.h **** /**
 693:../system/include/stm32l4-hal-driver/stm32l4xx_ll_exti.h ****   * @}
 694:../system/include/stm32l4-hal-driver/stm32l4xx_ll_exti.h ****   */
 695:../system/include/stm32l4-hal-driver/stm32l4xx_ll_exti.h **** 
 696:../system/include/stm32l4-hal-driver/stm32l4xx_ll_exti.h **** /** @defgroup EXTI_LL_EF_Rising_Trigger_Management Rising_Trigger_Management
 697:../system/include/stm32l4-hal-driver/stm32l4xx_ll_exti.h ****   * @{
 698:../system/include/stm32l4-hal-driver/stm32l4xx_ll_exti.h ****   */
 699:../system/include/stm32l4-hal-driver/stm32l4xx_ll_exti.h **** 
 700:../system/include/stm32l4-hal-driver/stm32l4xx_ll_exti.h **** /**
 701:../system/include/stm32l4-hal-driver/stm32l4xx_ll_exti.h ****   * @brief  Enable ExtiLine Rising Edge Trigger for Lines in range 0 to 31
 702:../system/include/stm32l4-hal-driver/stm32l4xx_ll_exti.h ****   * @note The configurable wakeup lines are edge-triggered. No glitch must be
 703:../system/include/stm32l4-hal-driver/stm32l4xx_ll_exti.h ****   *       generated on these lines. If a rising edge on a configurable interrupt
 704:../system/include/stm32l4-hal-driver/stm32l4xx_ll_exti.h ****   *       line occurs during a write operation in the EXTI_RTSR register, the
 705:../system/include/stm32l4-hal-driver/stm32l4xx_ll_exti.h ****   *       pending bit is not set.
 706:../system/include/stm32l4-hal-driver/stm32l4xx_ll_exti.h ****   *       Rising and falling edge triggers can be set for
 707:../system/include/stm32l4-hal-driver/stm32l4xx_ll_exti.h ****   *       the same interrupt line. In this case, both generate a trigger
 708:../system/include/stm32l4-hal-driver/stm32l4xx_ll_exti.h ****   *       condition.
 709:../system/include/stm32l4-hal-driver/stm32l4xx_ll_exti.h ****   * @rmtoll RTSR1        RTx           LL_EXTI_EnableRisingTrig_0_31
 710:../system/include/stm32l4-hal-driver/stm32l4xx_ll_exti.h ****   * @param  ExtiLine This parameter can be a combination of the following values:
 711:../system/include/stm32l4-hal-driver/stm32l4xx_ll_exti.h ****   *         @arg @ref LL_EXTI_LINE_0
 712:../system/include/stm32l4-hal-driver/stm32l4xx_ll_exti.h ****   *         @arg @ref LL_EXTI_LINE_1
 713:../system/include/stm32l4-hal-driver/stm32l4xx_ll_exti.h ****   *         @arg @ref LL_EXTI_LINE_2
 714:../system/include/stm32l4-hal-driver/stm32l4xx_ll_exti.h ****   *         @arg @ref LL_EXTI_LINE_3
 715:../system/include/stm32l4-hal-driver/stm32l4xx_ll_exti.h ****   *         @arg @ref LL_EXTI_LINE_4
 716:../system/include/stm32l4-hal-driver/stm32l4xx_ll_exti.h ****   *         @arg @ref LL_EXTI_LINE_5
 717:../system/include/stm32l4-hal-driver/stm32l4xx_ll_exti.h ****   *         @arg @ref LL_EXTI_LINE_6
 718:../system/include/stm32l4-hal-driver/stm32l4xx_ll_exti.h ****   *         @arg @ref LL_EXTI_LINE_7
 719:../system/include/stm32l4-hal-driver/stm32l4xx_ll_exti.h ****   *         @arg @ref LL_EXTI_LINE_8
 720:../system/include/stm32l4-hal-driver/stm32l4xx_ll_exti.h ****   *         @arg @ref LL_EXTI_LINE_9
 721:../system/include/stm32l4-hal-driver/stm32l4xx_ll_exti.h ****   *         @arg @ref LL_EXTI_LINE_10
 722:../system/include/stm32l4-hal-driver/stm32l4xx_ll_exti.h ****   *         @arg @ref LL_EXTI_LINE_11
 723:../system/include/stm32l4-hal-driver/stm32l4xx_ll_exti.h ****   *         @arg @ref LL_EXTI_LINE_12
 724:../system/include/stm32l4-hal-driver/stm32l4xx_ll_exti.h ****   *         @arg @ref LL_EXTI_LINE_13
 725:../system/include/stm32l4-hal-driver/stm32l4xx_ll_exti.h ****   *         @arg @ref LL_EXTI_LINE_14
 726:../system/include/stm32l4-hal-driver/stm32l4xx_ll_exti.h ****   *         @arg @ref LL_EXTI_LINE_15
 727:../system/include/stm32l4-hal-driver/stm32l4xx_ll_exti.h ****   *         @arg @ref LL_EXTI_LINE_16
 728:../system/include/stm32l4-hal-driver/stm32l4xx_ll_exti.h ****   *         @arg @ref LL_EXTI_LINE_18
 729:../system/include/stm32l4-hal-driver/stm32l4xx_ll_exti.h ****   *         @arg @ref LL_EXTI_LINE_19
 730:../system/include/stm32l4-hal-driver/stm32l4xx_ll_exti.h ****   *         @arg @ref LL_EXTI_LINE_20
 731:../system/include/stm32l4-hal-driver/stm32l4xx_ll_exti.h ****   *         @arg @ref LL_EXTI_LINE_21
 732:../system/include/stm32l4-hal-driver/stm32l4xx_ll_exti.h ****   *         @arg @ref LL_EXTI_LINE_22
 733:../system/include/stm32l4-hal-driver/stm32l4xx_ll_exti.h ****   *         @arg @ref LL_EXTI_LINE_29
 734:../system/include/stm32l4-hal-driver/stm32l4xx_ll_exti.h ****   *         @arg @ref LL_EXTI_LINE_30
 735:../system/include/stm32l4-hal-driver/stm32l4xx_ll_exti.h ****   *         @arg @ref LL_EXTI_LINE_31
 736:../system/include/stm32l4-hal-driver/stm32l4xx_ll_exti.h ****   * @note   Please check each device line mapping for EXTI Line availability
 737:../system/include/stm32l4-hal-driver/stm32l4xx_ll_exti.h ****   * @retval None
 738:../system/include/stm32l4-hal-driver/stm32l4xx_ll_exti.h ****   */
 739:../system/include/stm32l4-hal-driver/stm32l4xx_ll_exti.h **** __STATIC_INLINE void LL_EXTI_EnableRisingTrig_0_31(uint32_t ExtiLine)
 740:../system/include/stm32l4-hal-driver/stm32l4xx_ll_exti.h **** {
 741:../system/include/stm32l4-hal-driver/stm32l4xx_ll_exti.h ****   SET_BIT(EXTI->RTSR1, ExtiLine);
 742:../system/include/stm32l4-hal-driver/stm32l4xx_ll_exti.h **** 
 743:../system/include/stm32l4-hal-driver/stm32l4xx_ll_exti.h **** }
 744:../system/include/stm32l4-hal-driver/stm32l4xx_ll_exti.h **** 
 745:../system/include/stm32l4-hal-driver/stm32l4xx_ll_exti.h **** /**
 746:../system/include/stm32l4-hal-driver/stm32l4xx_ll_exti.h ****   * @brief  Enable ExtiLine Rising Edge Trigger for Lines in range 32 to 63
 747:../system/include/stm32l4-hal-driver/stm32l4xx_ll_exti.h ****   * @note The configurable wakeup lines are edge-triggered. No glitch must be
 748:../system/include/stm32l4-hal-driver/stm32l4xx_ll_exti.h ****   *       generated on these lines. If a rising edge on a configurable interrupt
 749:../system/include/stm32l4-hal-driver/stm32l4xx_ll_exti.h ****   *       line occurs during a write operation in the EXTI_RTSR register, the
 750:../system/include/stm32l4-hal-driver/stm32l4xx_ll_exti.h ****   *       pending bit is not set.Rising and falling edge triggers can be set for
 751:../system/include/stm32l4-hal-driver/stm32l4xx_ll_exti.h ****   *       the same interrupt line. In this case, both generate a trigger
 752:../system/include/stm32l4-hal-driver/stm32l4xx_ll_exti.h ****   *       condition.
 753:../system/include/stm32l4-hal-driver/stm32l4xx_ll_exti.h ****   * @rmtoll RTSR2        RTx           LL_EXTI_EnableRisingTrig_32_63
 754:../system/include/stm32l4-hal-driver/stm32l4xx_ll_exti.h ****   * @param  ExtiLine This parameter can be a combination of the following values:
 755:../system/include/stm32l4-hal-driver/stm32l4xx_ll_exti.h ****   *         @arg @ref LL_EXTI_LINE_35
 756:../system/include/stm32l4-hal-driver/stm32l4xx_ll_exti.h ****   *         @arg @ref LL_EXTI_LINE_36
 757:../system/include/stm32l4-hal-driver/stm32l4xx_ll_exti.h ****   *         @arg @ref LL_EXTI_LINE_37
 758:../system/include/stm32l4-hal-driver/stm32l4xx_ll_exti.h ****   *         @arg @ref LL_EXTI_LINE_38
 759:../system/include/stm32l4-hal-driver/stm32l4xx_ll_exti.h ****   * @retval None
 760:../system/include/stm32l4-hal-driver/stm32l4xx_ll_exti.h ****   */
 761:../system/include/stm32l4-hal-driver/stm32l4xx_ll_exti.h **** __STATIC_INLINE void LL_EXTI_EnableRisingTrig_32_63(uint32_t ExtiLine)
 762:../system/include/stm32l4-hal-driver/stm32l4xx_ll_exti.h **** {
 763:../system/include/stm32l4-hal-driver/stm32l4xx_ll_exti.h ****   SET_BIT(EXTI->RTSR2, ExtiLine);
 764:../system/include/stm32l4-hal-driver/stm32l4xx_ll_exti.h **** }
 765:../system/include/stm32l4-hal-driver/stm32l4xx_ll_exti.h **** 
 766:../system/include/stm32l4-hal-driver/stm32l4xx_ll_exti.h **** /**
 767:../system/include/stm32l4-hal-driver/stm32l4xx_ll_exti.h ****   * @brief  Disable ExtiLine Rising Edge Trigger for Lines in range 0 to 31
 768:../system/include/stm32l4-hal-driver/stm32l4xx_ll_exti.h ****   * @note The configurable wakeup lines are edge-triggered. No glitch must be
 769:../system/include/stm32l4-hal-driver/stm32l4xx_ll_exti.h ****   *       generated on these lines. If a rising edge on a configurable interrupt
 770:../system/include/stm32l4-hal-driver/stm32l4xx_ll_exti.h ****   *       line occurs during a write operation in the EXTI_RTSR register, the
 771:../system/include/stm32l4-hal-driver/stm32l4xx_ll_exti.h ****   *       pending bit is not set.
 772:../system/include/stm32l4-hal-driver/stm32l4xx_ll_exti.h ****   *       Rising and falling edge triggers can be set for
 773:../system/include/stm32l4-hal-driver/stm32l4xx_ll_exti.h ****   *       the same interrupt line. In this case, both generate a trigger
 774:../system/include/stm32l4-hal-driver/stm32l4xx_ll_exti.h ****   *       condition.
 775:../system/include/stm32l4-hal-driver/stm32l4xx_ll_exti.h ****   * @rmtoll RTSR1        RTx           LL_EXTI_DisableRisingTrig_0_31
 776:../system/include/stm32l4-hal-driver/stm32l4xx_ll_exti.h ****   * @param  ExtiLine This parameter can be a combination of the following values:
 777:../system/include/stm32l4-hal-driver/stm32l4xx_ll_exti.h ****   *         @arg @ref LL_EXTI_LINE_0
 778:../system/include/stm32l4-hal-driver/stm32l4xx_ll_exti.h ****   *         @arg @ref LL_EXTI_LINE_1
 779:../system/include/stm32l4-hal-driver/stm32l4xx_ll_exti.h ****   *         @arg @ref LL_EXTI_LINE_2
 780:../system/include/stm32l4-hal-driver/stm32l4xx_ll_exti.h ****   *         @arg @ref LL_EXTI_LINE_3
 781:../system/include/stm32l4-hal-driver/stm32l4xx_ll_exti.h ****   *         @arg @ref LL_EXTI_LINE_4
 782:../system/include/stm32l4-hal-driver/stm32l4xx_ll_exti.h ****   *         @arg @ref LL_EXTI_LINE_5
 783:../system/include/stm32l4-hal-driver/stm32l4xx_ll_exti.h ****   *         @arg @ref LL_EXTI_LINE_6
 784:../system/include/stm32l4-hal-driver/stm32l4xx_ll_exti.h ****   *         @arg @ref LL_EXTI_LINE_7
 785:../system/include/stm32l4-hal-driver/stm32l4xx_ll_exti.h ****   *         @arg @ref LL_EXTI_LINE_8
 786:../system/include/stm32l4-hal-driver/stm32l4xx_ll_exti.h ****   *         @arg @ref LL_EXTI_LINE_9
 787:../system/include/stm32l4-hal-driver/stm32l4xx_ll_exti.h ****   *         @arg @ref LL_EXTI_LINE_10
 788:../system/include/stm32l4-hal-driver/stm32l4xx_ll_exti.h ****   *         @arg @ref LL_EXTI_LINE_11
 789:../system/include/stm32l4-hal-driver/stm32l4xx_ll_exti.h ****   *         @arg @ref LL_EXTI_LINE_12
 790:../system/include/stm32l4-hal-driver/stm32l4xx_ll_exti.h ****   *         @arg @ref LL_EXTI_LINE_13
 791:../system/include/stm32l4-hal-driver/stm32l4xx_ll_exti.h ****   *         @arg @ref LL_EXTI_LINE_14
 792:../system/include/stm32l4-hal-driver/stm32l4xx_ll_exti.h ****   *         @arg @ref LL_EXTI_LINE_15
 793:../system/include/stm32l4-hal-driver/stm32l4xx_ll_exti.h ****   *         @arg @ref LL_EXTI_LINE_16
 794:../system/include/stm32l4-hal-driver/stm32l4xx_ll_exti.h ****   *         @arg @ref LL_EXTI_LINE_18
 795:../system/include/stm32l4-hal-driver/stm32l4xx_ll_exti.h ****   *         @arg @ref LL_EXTI_LINE_19
 796:../system/include/stm32l4-hal-driver/stm32l4xx_ll_exti.h ****   *         @arg @ref LL_EXTI_LINE_20
 797:../system/include/stm32l4-hal-driver/stm32l4xx_ll_exti.h ****   *         @arg @ref LL_EXTI_LINE_21
 798:../system/include/stm32l4-hal-driver/stm32l4xx_ll_exti.h ****   *         @arg @ref LL_EXTI_LINE_22
 799:../system/include/stm32l4-hal-driver/stm32l4xx_ll_exti.h ****   *         @arg @ref LL_EXTI_LINE_29
 800:../system/include/stm32l4-hal-driver/stm32l4xx_ll_exti.h ****   *         @arg @ref LL_EXTI_LINE_30
 801:../system/include/stm32l4-hal-driver/stm32l4xx_ll_exti.h ****   *         @arg @ref LL_EXTI_LINE_31
 802:../system/include/stm32l4-hal-driver/stm32l4xx_ll_exti.h ****   * @note   Please check each device line mapping for EXTI Line availability
 803:../system/include/stm32l4-hal-driver/stm32l4xx_ll_exti.h ****   * @retval None
 804:../system/include/stm32l4-hal-driver/stm32l4xx_ll_exti.h ****   */
 805:../system/include/stm32l4-hal-driver/stm32l4xx_ll_exti.h **** __STATIC_INLINE void LL_EXTI_DisableRisingTrig_0_31(uint32_t ExtiLine)
 806:../system/include/stm32l4-hal-driver/stm32l4xx_ll_exti.h **** {
 807:../system/include/stm32l4-hal-driver/stm32l4xx_ll_exti.h ****   CLEAR_BIT(EXTI->RTSR1, ExtiLine);
 808:../system/include/stm32l4-hal-driver/stm32l4xx_ll_exti.h **** 
 809:../system/include/stm32l4-hal-driver/stm32l4xx_ll_exti.h **** }
 810:../system/include/stm32l4-hal-driver/stm32l4xx_ll_exti.h **** 
 811:../system/include/stm32l4-hal-driver/stm32l4xx_ll_exti.h **** /**
 812:../system/include/stm32l4-hal-driver/stm32l4xx_ll_exti.h ****   * @brief  Disable ExtiLine Rising Edge Trigger for Lines in range 32 to 63
 813:../system/include/stm32l4-hal-driver/stm32l4xx_ll_exti.h ****   * @note The configurable wakeup lines are edge-triggered. No glitch must be
 814:../system/include/stm32l4-hal-driver/stm32l4xx_ll_exti.h ****   *       generated on these lines. If a rising edge on a configurable interrupt
 815:../system/include/stm32l4-hal-driver/stm32l4xx_ll_exti.h ****   *       line occurs during a write operation in the EXTI_RTSR register, the
 816:../system/include/stm32l4-hal-driver/stm32l4xx_ll_exti.h ****   *       pending bit is not set.
 817:../system/include/stm32l4-hal-driver/stm32l4xx_ll_exti.h ****   *       Rising and falling edge triggers can be set for
 818:../system/include/stm32l4-hal-driver/stm32l4xx_ll_exti.h ****   *       the same interrupt line. In this case, both generate a trigger
 819:../system/include/stm32l4-hal-driver/stm32l4xx_ll_exti.h ****   *       condition.
 820:../system/include/stm32l4-hal-driver/stm32l4xx_ll_exti.h ****   * @rmtoll RTSR2        RTx           LL_EXTI_DisableRisingTrig_32_63
 821:../system/include/stm32l4-hal-driver/stm32l4xx_ll_exti.h ****   * @param  ExtiLine This parameter can be a combination of the following values:
 822:../system/include/stm32l4-hal-driver/stm32l4xx_ll_exti.h ****   *         @arg @ref LL_EXTI_LINE_35
 823:../system/include/stm32l4-hal-driver/stm32l4xx_ll_exti.h ****   *         @arg @ref LL_EXTI_LINE_36
 824:../system/include/stm32l4-hal-driver/stm32l4xx_ll_exti.h ****   *         @arg @ref LL_EXTI_LINE_37
 825:../system/include/stm32l4-hal-driver/stm32l4xx_ll_exti.h ****   *         @arg @ref LL_EXTI_LINE_38
 826:../system/include/stm32l4-hal-driver/stm32l4xx_ll_exti.h ****   * @retval None
 827:../system/include/stm32l4-hal-driver/stm32l4xx_ll_exti.h ****   */
 828:../system/include/stm32l4-hal-driver/stm32l4xx_ll_exti.h **** __STATIC_INLINE void LL_EXTI_DisableRisingTrig_32_63(uint32_t ExtiLine)
 829:../system/include/stm32l4-hal-driver/stm32l4xx_ll_exti.h **** {
 830:../system/include/stm32l4-hal-driver/stm32l4xx_ll_exti.h ****   CLEAR_BIT(EXTI->RTSR2, ExtiLine);
 831:../system/include/stm32l4-hal-driver/stm32l4xx_ll_exti.h **** }
 832:../system/include/stm32l4-hal-driver/stm32l4xx_ll_exti.h **** 
 833:../system/include/stm32l4-hal-driver/stm32l4xx_ll_exti.h **** /**
 834:../system/include/stm32l4-hal-driver/stm32l4xx_ll_exti.h ****   * @brief  Check if rising edge trigger is enabled for Lines in range 0 to 31
 835:../system/include/stm32l4-hal-driver/stm32l4xx_ll_exti.h ****   * @rmtoll RTSR1        RTx           LL_EXTI_IsEnabledRisingTrig_0_31
 836:../system/include/stm32l4-hal-driver/stm32l4xx_ll_exti.h ****   * @param  ExtiLine This parameter can be a combination of the following values:
 837:../system/include/stm32l4-hal-driver/stm32l4xx_ll_exti.h ****   *         @arg @ref LL_EXTI_LINE_0
 838:../system/include/stm32l4-hal-driver/stm32l4xx_ll_exti.h ****   *         @arg @ref LL_EXTI_LINE_1
 839:../system/include/stm32l4-hal-driver/stm32l4xx_ll_exti.h ****   *         @arg @ref LL_EXTI_LINE_2
 840:../system/include/stm32l4-hal-driver/stm32l4xx_ll_exti.h ****   *         @arg @ref LL_EXTI_LINE_3
 841:../system/include/stm32l4-hal-driver/stm32l4xx_ll_exti.h ****   *         @arg @ref LL_EXTI_LINE_4
 842:../system/include/stm32l4-hal-driver/stm32l4xx_ll_exti.h ****   *         @arg @ref LL_EXTI_LINE_5
 843:../system/include/stm32l4-hal-driver/stm32l4xx_ll_exti.h ****   *         @arg @ref LL_EXTI_LINE_6
 844:../system/include/stm32l4-hal-driver/stm32l4xx_ll_exti.h ****   *         @arg @ref LL_EXTI_LINE_7
 845:../system/include/stm32l4-hal-driver/stm32l4xx_ll_exti.h ****   *         @arg @ref LL_EXTI_LINE_8
 846:../system/include/stm32l4-hal-driver/stm32l4xx_ll_exti.h ****   *         @arg @ref LL_EXTI_LINE_9
 847:../system/include/stm32l4-hal-driver/stm32l4xx_ll_exti.h ****   *         @arg @ref LL_EXTI_LINE_10
 848:../system/include/stm32l4-hal-driver/stm32l4xx_ll_exti.h ****   *         @arg @ref LL_EXTI_LINE_11
 849:../system/include/stm32l4-hal-driver/stm32l4xx_ll_exti.h ****   *         @arg @ref LL_EXTI_LINE_12
 850:../system/include/stm32l4-hal-driver/stm32l4xx_ll_exti.h ****   *         @arg @ref LL_EXTI_LINE_13
 851:../system/include/stm32l4-hal-driver/stm32l4xx_ll_exti.h ****   *         @arg @ref LL_EXTI_LINE_14
 852:../system/include/stm32l4-hal-driver/stm32l4xx_ll_exti.h ****   *         @arg @ref LL_EXTI_LINE_15
 853:../system/include/stm32l4-hal-driver/stm32l4xx_ll_exti.h ****   *         @arg @ref LL_EXTI_LINE_16
 854:../system/include/stm32l4-hal-driver/stm32l4xx_ll_exti.h ****   *         @arg @ref LL_EXTI_LINE_18
 855:../system/include/stm32l4-hal-driver/stm32l4xx_ll_exti.h ****   *         @arg @ref LL_EXTI_LINE_19
 856:../system/include/stm32l4-hal-driver/stm32l4xx_ll_exti.h ****   *         @arg @ref LL_EXTI_LINE_20
 857:../system/include/stm32l4-hal-driver/stm32l4xx_ll_exti.h ****   *         @arg @ref LL_EXTI_LINE_21
 858:../system/include/stm32l4-hal-driver/stm32l4xx_ll_exti.h ****   *         @arg @ref LL_EXTI_LINE_22
 859:../system/include/stm32l4-hal-driver/stm32l4xx_ll_exti.h ****   *         @arg @ref LL_EXTI_LINE_29
 860:../system/include/stm32l4-hal-driver/stm32l4xx_ll_exti.h ****   *         @arg @ref LL_EXTI_LINE_30
 861:../system/include/stm32l4-hal-driver/stm32l4xx_ll_exti.h ****   *         @arg @ref LL_EXTI_LINE_31
 862:../system/include/stm32l4-hal-driver/stm32l4xx_ll_exti.h ****   * @note   Please check each device line mapping for EXTI Line availability
 863:../system/include/stm32l4-hal-driver/stm32l4xx_ll_exti.h ****   * @retval State of bit (1 or 0).
 864:../system/include/stm32l4-hal-driver/stm32l4xx_ll_exti.h ****   */
 865:../system/include/stm32l4-hal-driver/stm32l4xx_ll_exti.h **** __STATIC_INLINE uint32_t LL_EXTI_IsEnabledRisingTrig_0_31(uint32_t ExtiLine)
 866:../system/include/stm32l4-hal-driver/stm32l4xx_ll_exti.h **** {
 867:../system/include/stm32l4-hal-driver/stm32l4xx_ll_exti.h ****   return ((READ_BIT(EXTI->RTSR1, ExtiLine) == (ExtiLine)) ? 1UL : 0UL);
 868:../system/include/stm32l4-hal-driver/stm32l4xx_ll_exti.h **** }
 869:../system/include/stm32l4-hal-driver/stm32l4xx_ll_exti.h **** 
 870:../system/include/stm32l4-hal-driver/stm32l4xx_ll_exti.h **** /**
 871:../system/include/stm32l4-hal-driver/stm32l4xx_ll_exti.h ****   * @brief  Check if rising edge trigger is enabled for Lines in range 32 to 63
 872:../system/include/stm32l4-hal-driver/stm32l4xx_ll_exti.h ****   * @rmtoll RTSR2        RTx           LL_EXTI_IsEnabledRisingTrig_32_63
 873:../system/include/stm32l4-hal-driver/stm32l4xx_ll_exti.h ****   * @param  ExtiLine This parameter can be a combination of the following values:
 874:../system/include/stm32l4-hal-driver/stm32l4xx_ll_exti.h ****   *         @arg @ref LL_EXTI_LINE_35
 875:../system/include/stm32l4-hal-driver/stm32l4xx_ll_exti.h ****   *         @arg @ref LL_EXTI_LINE_36
 876:../system/include/stm32l4-hal-driver/stm32l4xx_ll_exti.h ****   *         @arg @ref LL_EXTI_LINE_37
 877:../system/include/stm32l4-hal-driver/stm32l4xx_ll_exti.h ****   *         @arg @ref LL_EXTI_LINE_38
 878:../system/include/stm32l4-hal-driver/stm32l4xx_ll_exti.h ****   * @retval State of bit (1 or 0).
 879:../system/include/stm32l4-hal-driver/stm32l4xx_ll_exti.h ****   */
 880:../system/include/stm32l4-hal-driver/stm32l4xx_ll_exti.h **** __STATIC_INLINE uint32_t LL_EXTI_IsEnabledRisingTrig_32_63(uint32_t ExtiLine)
 881:../system/include/stm32l4-hal-driver/stm32l4xx_ll_exti.h **** {
 882:../system/include/stm32l4-hal-driver/stm32l4xx_ll_exti.h ****   return ((READ_BIT(EXTI->RTSR2, ExtiLine) == (ExtiLine)) ? 1UL : 0UL);
 883:../system/include/stm32l4-hal-driver/stm32l4xx_ll_exti.h **** }
 884:../system/include/stm32l4-hal-driver/stm32l4xx_ll_exti.h **** 
 885:../system/include/stm32l4-hal-driver/stm32l4xx_ll_exti.h **** /**
 886:../system/include/stm32l4-hal-driver/stm32l4xx_ll_exti.h ****   * @}
 887:../system/include/stm32l4-hal-driver/stm32l4xx_ll_exti.h ****   */
 888:../system/include/stm32l4-hal-driver/stm32l4xx_ll_exti.h **** 
 889:../system/include/stm32l4-hal-driver/stm32l4xx_ll_exti.h **** /** @defgroup EXTI_LL_EF_Falling_Trigger_Management Falling_Trigger_Management
 890:../system/include/stm32l4-hal-driver/stm32l4xx_ll_exti.h ****   * @{
 891:../system/include/stm32l4-hal-driver/stm32l4xx_ll_exti.h ****   */
 892:../system/include/stm32l4-hal-driver/stm32l4xx_ll_exti.h **** 
 893:../system/include/stm32l4-hal-driver/stm32l4xx_ll_exti.h **** /**
 894:../system/include/stm32l4-hal-driver/stm32l4xx_ll_exti.h ****   * @brief  Enable ExtiLine Falling Edge Trigger for Lines in range 0 to 31
 895:../system/include/stm32l4-hal-driver/stm32l4xx_ll_exti.h ****   * @note The configurable wakeup lines are edge-triggered. No glitch must be
 896:../system/include/stm32l4-hal-driver/stm32l4xx_ll_exti.h ****   *       generated on these lines. If a falling edge on a configurable interrupt
 897:../system/include/stm32l4-hal-driver/stm32l4xx_ll_exti.h ****   *       line occurs during a write operation in the EXTI_FTSR register, the
 898:../system/include/stm32l4-hal-driver/stm32l4xx_ll_exti.h ****   *       pending bit is not set.
 899:../system/include/stm32l4-hal-driver/stm32l4xx_ll_exti.h ****   *       Rising and falling edge triggers can be set for
 900:../system/include/stm32l4-hal-driver/stm32l4xx_ll_exti.h ****   *       the same interrupt line. In this case, both generate a trigger
 901:../system/include/stm32l4-hal-driver/stm32l4xx_ll_exti.h ****   *       condition.
 902:../system/include/stm32l4-hal-driver/stm32l4xx_ll_exti.h ****   * @rmtoll FTSR1        FTx           LL_EXTI_EnableFallingTrig_0_31
 903:../system/include/stm32l4-hal-driver/stm32l4xx_ll_exti.h ****   * @param  ExtiLine This parameter can be a combination of the following values:
 904:../system/include/stm32l4-hal-driver/stm32l4xx_ll_exti.h ****   *         @arg @ref LL_EXTI_LINE_0
 905:../system/include/stm32l4-hal-driver/stm32l4xx_ll_exti.h ****   *         @arg @ref LL_EXTI_LINE_1
 906:../system/include/stm32l4-hal-driver/stm32l4xx_ll_exti.h ****   *         @arg @ref LL_EXTI_LINE_2
 907:../system/include/stm32l4-hal-driver/stm32l4xx_ll_exti.h ****   *         @arg @ref LL_EXTI_LINE_3
 908:../system/include/stm32l4-hal-driver/stm32l4xx_ll_exti.h ****   *         @arg @ref LL_EXTI_LINE_4
 909:../system/include/stm32l4-hal-driver/stm32l4xx_ll_exti.h ****   *         @arg @ref LL_EXTI_LINE_5
 910:../system/include/stm32l4-hal-driver/stm32l4xx_ll_exti.h ****   *         @arg @ref LL_EXTI_LINE_6
 911:../system/include/stm32l4-hal-driver/stm32l4xx_ll_exti.h ****   *         @arg @ref LL_EXTI_LINE_7
 912:../system/include/stm32l4-hal-driver/stm32l4xx_ll_exti.h ****   *         @arg @ref LL_EXTI_LINE_8
 913:../system/include/stm32l4-hal-driver/stm32l4xx_ll_exti.h ****   *         @arg @ref LL_EXTI_LINE_9
 914:../system/include/stm32l4-hal-driver/stm32l4xx_ll_exti.h ****   *         @arg @ref LL_EXTI_LINE_10
 915:../system/include/stm32l4-hal-driver/stm32l4xx_ll_exti.h ****   *         @arg @ref LL_EXTI_LINE_11
 916:../system/include/stm32l4-hal-driver/stm32l4xx_ll_exti.h ****   *         @arg @ref LL_EXTI_LINE_12
 917:../system/include/stm32l4-hal-driver/stm32l4xx_ll_exti.h ****   *         @arg @ref LL_EXTI_LINE_13
 918:../system/include/stm32l4-hal-driver/stm32l4xx_ll_exti.h ****   *         @arg @ref LL_EXTI_LINE_14
 919:../system/include/stm32l4-hal-driver/stm32l4xx_ll_exti.h ****   *         @arg @ref LL_EXTI_LINE_15
 920:../system/include/stm32l4-hal-driver/stm32l4xx_ll_exti.h ****   *         @arg @ref LL_EXTI_LINE_16
 921:../system/include/stm32l4-hal-driver/stm32l4xx_ll_exti.h ****   *         @arg @ref LL_EXTI_LINE_18
 922:../system/include/stm32l4-hal-driver/stm32l4xx_ll_exti.h ****   *         @arg @ref LL_EXTI_LINE_19
 923:../system/include/stm32l4-hal-driver/stm32l4xx_ll_exti.h ****   *         @arg @ref LL_EXTI_LINE_20
 924:../system/include/stm32l4-hal-driver/stm32l4xx_ll_exti.h ****   *         @arg @ref LL_EXTI_LINE_21
 925:../system/include/stm32l4-hal-driver/stm32l4xx_ll_exti.h ****   *         @arg @ref LL_EXTI_LINE_22
 926:../system/include/stm32l4-hal-driver/stm32l4xx_ll_exti.h ****   *         @arg @ref LL_EXTI_LINE_29
 927:../system/include/stm32l4-hal-driver/stm32l4xx_ll_exti.h ****   *         @arg @ref LL_EXTI_LINE_30
 928:../system/include/stm32l4-hal-driver/stm32l4xx_ll_exti.h ****   *         @arg @ref LL_EXTI_LINE_31
 929:../system/include/stm32l4-hal-driver/stm32l4xx_ll_exti.h ****   * @note   Please check each device line mapping for EXTI Line availability
 930:../system/include/stm32l4-hal-driver/stm32l4xx_ll_exti.h ****   * @retval None
 931:../system/include/stm32l4-hal-driver/stm32l4xx_ll_exti.h ****   */
 932:../system/include/stm32l4-hal-driver/stm32l4xx_ll_exti.h **** __STATIC_INLINE void LL_EXTI_EnableFallingTrig_0_31(uint32_t ExtiLine)
 933:../system/include/stm32l4-hal-driver/stm32l4xx_ll_exti.h **** {
 934:../system/include/stm32l4-hal-driver/stm32l4xx_ll_exti.h ****   SET_BIT(EXTI->FTSR1, ExtiLine);
 935:../system/include/stm32l4-hal-driver/stm32l4xx_ll_exti.h **** }
 936:../system/include/stm32l4-hal-driver/stm32l4xx_ll_exti.h **** 
 937:../system/include/stm32l4-hal-driver/stm32l4xx_ll_exti.h **** /**
 938:../system/include/stm32l4-hal-driver/stm32l4xx_ll_exti.h ****   * @brief  Enable ExtiLine Falling Edge Trigger for Lines in range 32 to 63
 939:../system/include/stm32l4-hal-driver/stm32l4xx_ll_exti.h ****   * @note The configurable wakeup lines are edge-triggered. No glitch must be
 940:../system/include/stm32l4-hal-driver/stm32l4xx_ll_exti.h ****   *       generated on these lines. If a Falling edge on a configurable interrupt
 941:../system/include/stm32l4-hal-driver/stm32l4xx_ll_exti.h ****   *       line occurs during a write operation in the EXTI_FTSR register, the
 942:../system/include/stm32l4-hal-driver/stm32l4xx_ll_exti.h ****   *       pending bit is not set.
 943:../system/include/stm32l4-hal-driver/stm32l4xx_ll_exti.h ****   *       Rising and falling edge triggers can be set for
 944:../system/include/stm32l4-hal-driver/stm32l4xx_ll_exti.h ****   *       the same interrupt line. In this case, both generate a trigger
 945:../system/include/stm32l4-hal-driver/stm32l4xx_ll_exti.h ****   *       condition.
 946:../system/include/stm32l4-hal-driver/stm32l4xx_ll_exti.h ****   * @rmtoll FTSR2        FTx           LL_EXTI_EnableFallingTrig_32_63
 947:../system/include/stm32l4-hal-driver/stm32l4xx_ll_exti.h ****   * @param  ExtiLine This parameter can be a combination of the following values:
 948:../system/include/stm32l4-hal-driver/stm32l4xx_ll_exti.h ****   *         @arg @ref LL_EXTI_LINE_35
 949:../system/include/stm32l4-hal-driver/stm32l4xx_ll_exti.h ****   *         @arg @ref LL_EXTI_LINE_36
 950:../system/include/stm32l4-hal-driver/stm32l4xx_ll_exti.h ****   *         @arg @ref LL_EXTI_LINE_37
 951:../system/include/stm32l4-hal-driver/stm32l4xx_ll_exti.h ****   *         @arg @ref LL_EXTI_LINE_38
 952:../system/include/stm32l4-hal-driver/stm32l4xx_ll_exti.h ****   * @retval None
 953:../system/include/stm32l4-hal-driver/stm32l4xx_ll_exti.h ****   */
 954:../system/include/stm32l4-hal-driver/stm32l4xx_ll_exti.h **** __STATIC_INLINE void LL_EXTI_EnableFallingTrig_32_63(uint32_t ExtiLine)
 955:../system/include/stm32l4-hal-driver/stm32l4xx_ll_exti.h **** {
 956:../system/include/stm32l4-hal-driver/stm32l4xx_ll_exti.h ****   SET_BIT(EXTI->FTSR2, ExtiLine);
 957:../system/include/stm32l4-hal-driver/stm32l4xx_ll_exti.h **** }
 958:../system/include/stm32l4-hal-driver/stm32l4xx_ll_exti.h **** 
 959:../system/include/stm32l4-hal-driver/stm32l4xx_ll_exti.h **** /**
 960:../system/include/stm32l4-hal-driver/stm32l4xx_ll_exti.h ****   * @brief  Disable ExtiLine Falling Edge Trigger for Lines in range 0 to 31
 961:../system/include/stm32l4-hal-driver/stm32l4xx_ll_exti.h ****   * @note The configurable wakeup lines are edge-triggered. No glitch must be
 962:../system/include/stm32l4-hal-driver/stm32l4xx_ll_exti.h ****   *       generated on these lines. If a Falling edge on a configurable interrupt
 963:../system/include/stm32l4-hal-driver/stm32l4xx_ll_exti.h ****   *       line occurs during a write operation in the EXTI_FTSR register, the
 964:../system/include/stm32l4-hal-driver/stm32l4xx_ll_exti.h ****   *       pending bit is not set.
 965:../system/include/stm32l4-hal-driver/stm32l4xx_ll_exti.h ****   *       Rising and falling edge triggers can be set for the same interrupt line.
 966:../system/include/stm32l4-hal-driver/stm32l4xx_ll_exti.h ****   *       In this case, both generate a trigger condition.
 967:../system/include/stm32l4-hal-driver/stm32l4xx_ll_exti.h ****   * @rmtoll FTSR1        FTx           LL_EXTI_DisableFallingTrig_0_31
 968:../system/include/stm32l4-hal-driver/stm32l4xx_ll_exti.h ****   * @param  ExtiLine This parameter can be a combination of the following values:
 969:../system/include/stm32l4-hal-driver/stm32l4xx_ll_exti.h ****   *         @arg @ref LL_EXTI_LINE_0
 970:../system/include/stm32l4-hal-driver/stm32l4xx_ll_exti.h ****   *         @arg @ref LL_EXTI_LINE_1
 971:../system/include/stm32l4-hal-driver/stm32l4xx_ll_exti.h ****   *         @arg @ref LL_EXTI_LINE_2
 972:../system/include/stm32l4-hal-driver/stm32l4xx_ll_exti.h ****   *         @arg @ref LL_EXTI_LINE_3
 973:../system/include/stm32l4-hal-driver/stm32l4xx_ll_exti.h ****   *         @arg @ref LL_EXTI_LINE_4
 974:../system/include/stm32l4-hal-driver/stm32l4xx_ll_exti.h ****   *         @arg @ref LL_EXTI_LINE_5
 975:../system/include/stm32l4-hal-driver/stm32l4xx_ll_exti.h ****   *         @arg @ref LL_EXTI_LINE_6
 976:../system/include/stm32l4-hal-driver/stm32l4xx_ll_exti.h ****   *         @arg @ref LL_EXTI_LINE_7
 977:../system/include/stm32l4-hal-driver/stm32l4xx_ll_exti.h ****   *         @arg @ref LL_EXTI_LINE_8
 978:../system/include/stm32l4-hal-driver/stm32l4xx_ll_exti.h ****   *         @arg @ref LL_EXTI_LINE_9
 979:../system/include/stm32l4-hal-driver/stm32l4xx_ll_exti.h ****   *         @arg @ref LL_EXTI_LINE_10
 980:../system/include/stm32l4-hal-driver/stm32l4xx_ll_exti.h ****   *         @arg @ref LL_EXTI_LINE_11
 981:../system/include/stm32l4-hal-driver/stm32l4xx_ll_exti.h ****   *         @arg @ref LL_EXTI_LINE_12
 982:../system/include/stm32l4-hal-driver/stm32l4xx_ll_exti.h ****   *         @arg @ref LL_EXTI_LINE_13
 983:../system/include/stm32l4-hal-driver/stm32l4xx_ll_exti.h ****   *         @arg @ref LL_EXTI_LINE_14
 984:../system/include/stm32l4-hal-driver/stm32l4xx_ll_exti.h ****   *         @arg @ref LL_EXTI_LINE_15
 985:../system/include/stm32l4-hal-driver/stm32l4xx_ll_exti.h ****   *         @arg @ref LL_EXTI_LINE_16
 986:../system/include/stm32l4-hal-driver/stm32l4xx_ll_exti.h ****   *         @arg @ref LL_EXTI_LINE_18
 987:../system/include/stm32l4-hal-driver/stm32l4xx_ll_exti.h ****   *         @arg @ref LL_EXTI_LINE_19
 988:../system/include/stm32l4-hal-driver/stm32l4xx_ll_exti.h ****   *         @arg @ref LL_EXTI_LINE_20
 989:../system/include/stm32l4-hal-driver/stm32l4xx_ll_exti.h ****   *         @arg @ref LL_EXTI_LINE_21
 990:../system/include/stm32l4-hal-driver/stm32l4xx_ll_exti.h ****   *         @arg @ref LL_EXTI_LINE_22
 991:../system/include/stm32l4-hal-driver/stm32l4xx_ll_exti.h ****   *         @arg @ref LL_EXTI_LINE_29
 992:../system/include/stm32l4-hal-driver/stm32l4xx_ll_exti.h ****   *         @arg @ref LL_EXTI_LINE_30
 993:../system/include/stm32l4-hal-driver/stm32l4xx_ll_exti.h ****   *         @arg @ref LL_EXTI_LINE_31
 994:../system/include/stm32l4-hal-driver/stm32l4xx_ll_exti.h ****   * @note   Please check each device line mapping for EXTI Line availability
 995:../system/include/stm32l4-hal-driver/stm32l4xx_ll_exti.h ****   * @retval None
 996:../system/include/stm32l4-hal-driver/stm32l4xx_ll_exti.h ****   */
 997:../system/include/stm32l4-hal-driver/stm32l4xx_ll_exti.h **** __STATIC_INLINE void LL_EXTI_DisableFallingTrig_0_31(uint32_t ExtiLine)
 998:../system/include/stm32l4-hal-driver/stm32l4xx_ll_exti.h **** {
 999:../system/include/stm32l4-hal-driver/stm32l4xx_ll_exti.h ****   CLEAR_BIT(EXTI->FTSR1, ExtiLine);
 226              		.loc 2 999 0
 227 0078 444A     		ldr	r2, .L36
 228 007a D168     		ldr	r1, [r2, #12]
 229 007c 21EA0401 		bic	r1, r1, r4
 230 0080 D160     		str	r1, [r2, #12]
 231              	.LVL25:
 232              	.LBE71:
 233              	.LBE70:
 171:../system/src/stm32l4-hal-driver/stm32l4xx_ll_exti.c ****             break;
 234              		.loc 1 171 0
 235 0082 1968     		ldr	r1, [r3]
 236              	.LVL26:
 237              	.LBB72:
 238              	.LBB73:
 741:../system/include/stm32l4-hal-driver/stm32l4xx_ll_exti.h **** 
 239              		.loc 2 741 0
 240 0084 9468     		ldr	r4, [r2, #8]
 241 0086 2143     		orrs	r1, r1, r4
 242              	.LVL27:
 243 0088 9160     		str	r1, [r2, #8]
 244              	.LVL28:
 245              	.L6:
 246              	.LBE73:
 247              	.LBE72:
 186:../system/src/stm32l4-hal-driver/stm32l4xx_ll_exti.c ****         }
 187:../system/src/stm32l4-hal-driver/stm32l4xx_ll_exti.c ****       }
 188:../system/src/stm32l4-hal-driver/stm32l4xx_ll_exti.c ****     }
 189:../system/src/stm32l4-hal-driver/stm32l4xx_ll_exti.c ****     /* Configure EXTI Lines in range from 32 to 63 */
 190:../system/src/stm32l4-hal-driver/stm32l4xx_ll_exti.c ****     if (EXTI_InitStruct->Line_32_63 != LL_EXTI_LINE_NONE)
 248              		.loc 1 190 0
 249 008a 5A68     		ldr	r2, [r3, #4]
 250 008c 002A     		cmp	r2, #0
 251 008e 2FD0     		beq	.L4
 191:../system/src/stm32l4-hal-driver/stm32l4xx_ll_exti.c ****     {
 192:../system/src/stm32l4-hal-driver/stm32l4xx_ll_exti.c ****       switch (EXTI_InitStruct->Mode)
 252              		.loc 1 192 0
 253 0090 597A     		ldrb	r1, [r3, #9]	@ zero_extendqisi2
 254 0092 0129     		cmp	r1, #1
 255 0094 2FD0     		beq	.L17
 256 0096 C9B1     		cbz	r1, .L18
 257 0098 0229     		cmp	r1, #2
 258 009a 36D0     		beq	.L19
 193:../system/src/stm32l4-hal-driver/stm32l4xx_ll_exti.c ****       {
 194:../system/src/stm32l4-hal-driver/stm32l4xx_ll_exti.c ****         case LL_EXTI_MODE_IT:
 195:../system/src/stm32l4-hal-driver/stm32l4xx_ll_exti.c ****           /* First Disable Event on provided Lines */
 196:../system/src/stm32l4-hal-driver/stm32l4xx_ll_exti.c ****           LL_EXTI_DisableEvent_32_63(EXTI_InitStruct->Line_32_63);
 197:../system/src/stm32l4-hal-driver/stm32l4xx_ll_exti.c ****           /* Then Enable IT on provided Lines */
 198:../system/src/stm32l4-hal-driver/stm32l4xx_ll_exti.c ****           LL_EXTI_EnableIT_32_63(EXTI_InitStruct->Line_32_63);
 199:../system/src/stm32l4-hal-driver/stm32l4xx_ll_exti.c ****           break;
 200:../system/src/stm32l4-hal-driver/stm32l4xx_ll_exti.c ****         case LL_EXTI_MODE_EVENT:
 201:../system/src/stm32l4-hal-driver/stm32l4xx_ll_exti.c ****           /* First Disable IT on provided Lines */
 202:../system/src/stm32l4-hal-driver/stm32l4xx_ll_exti.c ****           LL_EXTI_DisableIT_32_63(EXTI_InitStruct->Line_32_63);
 203:../system/src/stm32l4-hal-driver/stm32l4xx_ll_exti.c ****           /* Then Enable Event on provided Lines */
 204:../system/src/stm32l4-hal-driver/stm32l4xx_ll_exti.c ****           LL_EXTI_EnableEvent_32_63(EXTI_InitStruct->Line_32_63);
 205:../system/src/stm32l4-hal-driver/stm32l4xx_ll_exti.c ****           break;
 206:../system/src/stm32l4-hal-driver/stm32l4xx_ll_exti.c ****         case LL_EXTI_MODE_IT_EVENT:
 207:../system/src/stm32l4-hal-driver/stm32l4xx_ll_exti.c ****           /* Directly Enable IT & Event on provided Lines */
 208:../system/src/stm32l4-hal-driver/stm32l4xx_ll_exti.c ****           LL_EXTI_EnableIT_32_63(EXTI_InitStruct->Line_32_63);
 209:../system/src/stm32l4-hal-driver/stm32l4xx_ll_exti.c ****           LL_EXTI_EnableEvent_32_63(EXTI_InitStruct->Line_32_63);
 210:../system/src/stm32l4-hal-driver/stm32l4xx_ll_exti.c ****           break;
 211:../system/src/stm32l4-hal-driver/stm32l4xx_ll_exti.c ****         default:
 212:../system/src/stm32l4-hal-driver/stm32l4xx_ll_exti.c ****           status |= 0x04u;
 259              		.loc 1 212 0
 260 009c 40F00400 		orr	r0, r0, #4
 261              	.LVL29:
 213:../system/src/stm32l4-hal-driver/stm32l4xx_ll_exti.c ****           break;
 262              		.loc 1 213 0
 263 00a0 1DE0     		b	.L20
 264              	.L12:
 175:../system/src/stm32l4-hal-driver/stm32l4xx_ll_exti.c ****             /* Then Enable Falling Trigger on provided Lines */
 265              		.loc 1 175 0
 266 00a2 1C68     		ldr	r4, [r3]
 267              	.LVL30:
 268              	.LBB74:
 269              	.LBB75:
 807:../system/include/stm32l4-hal-driver/stm32l4xx_ll_exti.h **** 
 270              		.loc 2 807 0
 271 00a4 394A     		ldr	r2, .L36
 272 00a6 9168     		ldr	r1, [r2, #8]
 273 00a8 21EA0401 		bic	r1, r1, r4
 274 00ac 9160     		str	r1, [r2, #8]
 275              	.LVL31:
 276              	.LBE75:
 277              	.LBE74:
 177:../system/src/stm32l4-hal-driver/stm32l4xx_ll_exti.c ****             break;
 278              		.loc 1 177 0
 279 00ae 1968     		ldr	r1, [r3]
 280              	.LVL32:
 281              	.LBB76:
 282              	.LBB77:
 934:../system/include/stm32l4-hal-driver/stm32l4xx_ll_exti.h **** }
 283              		.loc 2 934 0
 284 00b0 D468     		ldr	r4, [r2, #12]
 285 00b2 2143     		orrs	r1, r1, r4
 286              	.LVL33:
 287 00b4 D160     		str	r1, [r2, #12]
 288              	.LVL34:
 289 00b6 E8E7     		b	.L6
 290              	.L13:
 291              	.LBE77:
 292              	.LBE76:
 180:../system/src/stm32l4-hal-driver/stm32l4xx_ll_exti.c ****             LL_EXTI_EnableFallingTrig_0_31(EXTI_InitStruct->Line_0_31);
 293              		.loc 1 180 0
 294 00b8 1968     		ldr	r1, [r3]
 295              	.LVL35:
 296              	.LBB78:
 297              	.LBB79:
 741:../system/include/stm32l4-hal-driver/stm32l4xx_ll_exti.h **** 
 298              		.loc 2 741 0
 299 00ba 344A     		ldr	r2, .L36
 300 00bc 9468     		ldr	r4, [r2, #8]
 301 00be 2143     		orrs	r1, r1, r4
 302              	.LVL36:
 303 00c0 9160     		str	r1, [r2, #8]
 304              	.LVL37:
 305              	.LBE79:
 306              	.LBE78:
 181:../system/src/stm32l4-hal-driver/stm32l4xx_ll_exti.c ****             break;
 307              		.loc 1 181 0
 308 00c2 1968     		ldr	r1, [r3]
 309              	.LVL38:
 310              	.LBB80:
 311              	.LBB81:
 934:../system/include/stm32l4-hal-driver/stm32l4xx_ll_exti.h **** }
 312              		.loc 2 934 0
 313 00c4 D468     		ldr	r4, [r2, #12]
 314 00c6 2143     		orrs	r1, r1, r4
 315              	.LVL39:
 316 00c8 D160     		str	r1, [r2, #12]
 317              	.LVL40:
 318 00ca DEE7     		b	.L6
 319              	.L18:
 320              	.LVL41:
 321              	.LBE81:
 322              	.LBE80:
 323              	.LBB82:
 324              	.LBB83:
 621:../system/include/stm32l4-hal-driver/stm32l4xx_ll_exti.h **** }
 325              		.loc 2 621 0
 326 00cc 2F49     		ldr	r1, .L36
 327 00ce 4C6A     		ldr	r4, [r1, #36]
 328 00d0 24EA0202 		bic	r2, r4, r2
 329              	.LVL42:
 330 00d4 4A62     		str	r2, [r1, #36]
 331              	.LVL43:
 332              	.LBE83:
 333              	.LBE82:
 198:../system/src/stm32l4-hal-driver/stm32l4xx_ll_exti.c ****           break;
 334              		.loc 1 198 0
 335 00d6 5A68     		ldr	r2, [r3, #4]
 336              	.LVL44:
 337              	.LBB84:
 338              	.LBB85:
 332:../system/include/stm32l4-hal-driver/stm32l4xx_ll_exti.h **** }
 339              		.loc 2 332 0
 340 00d8 0C6A     		ldr	r4, [r1, #32]
 341 00da 2243     		orrs	r2, r2, r4
 342              	.LVL45:
 343 00dc 0A62     		str	r2, [r1, #32]
 344              	.LVL46:
 345              	.L20:
 346              	.LBE85:
 347              	.LBE84:
 214:../system/src/stm32l4-hal-driver/stm32l4xx_ll_exti.c ****       }
 215:../system/src/stm32l4-hal-driver/stm32l4xx_ll_exti.c ****       if (EXTI_InitStruct->Trigger != LL_EXTI_TRIGGER_NONE)
 348              		.loc 1 215 0
 349 00de 9A7A     		ldrb	r2, [r3, #10]	@ zero_extendqisi2
 350 00e0 32B1     		cbz	r2, .L4
 216:../system/src/stm32l4-hal-driver/stm32l4xx_ll_exti.c ****       {
 217:../system/src/stm32l4-hal-driver/stm32l4xx_ll_exti.c ****         switch (EXTI_InitStruct->Trigger)
 351              		.loc 1 217 0
 352 00e2 022A     		cmp	r2, #2
 353 00e4 25D0     		beq	.L21
 354 00e6 032A     		cmp	r2, #3
 355 00e8 2ED0     		beq	.L22
 356 00ea 012A     		cmp	r2, #1
 357 00ec 16D0     		beq	.L35
 218:../system/src/stm32l4-hal-driver/stm32l4xx_ll_exti.c ****         {
 219:../system/src/stm32l4-hal-driver/stm32l4xx_ll_exti.c ****           case LL_EXTI_TRIGGER_RISING:
 220:../system/src/stm32l4-hal-driver/stm32l4xx_ll_exti.c ****             /* First Disable Falling Trigger on provided Lines */
 221:../system/src/stm32l4-hal-driver/stm32l4xx_ll_exti.c ****             LL_EXTI_DisableFallingTrig_32_63(EXTI_InitStruct->Line_32_63);
 222:../system/src/stm32l4-hal-driver/stm32l4xx_ll_exti.c ****             /* Then Enable IT on provided Lines */
 223:../system/src/stm32l4-hal-driver/stm32l4xx_ll_exti.c ****             LL_EXTI_EnableRisingTrig_32_63(EXTI_InitStruct->Line_32_63);
 224:../system/src/stm32l4-hal-driver/stm32l4xx_ll_exti.c ****             break;
 225:../system/src/stm32l4-hal-driver/stm32l4xx_ll_exti.c ****           case LL_EXTI_TRIGGER_FALLING:
 226:../system/src/stm32l4-hal-driver/stm32l4xx_ll_exti.c ****             /* First Disable Rising Trigger on provided Lines */
 227:../system/src/stm32l4-hal-driver/stm32l4xx_ll_exti.c ****             LL_EXTI_DisableRisingTrig_32_63(EXTI_InitStruct->Line_32_63);
 228:../system/src/stm32l4-hal-driver/stm32l4xx_ll_exti.c ****             /* Then Enable Falling Trigger on provided Lines */
 229:../system/src/stm32l4-hal-driver/stm32l4xx_ll_exti.c ****             LL_EXTI_EnableFallingTrig_32_63(EXTI_InitStruct->Line_32_63);
 230:../system/src/stm32l4-hal-driver/stm32l4xx_ll_exti.c ****             break;
 231:../system/src/stm32l4-hal-driver/stm32l4xx_ll_exti.c ****           case LL_EXTI_TRIGGER_RISING_FALLING:
 232:../system/src/stm32l4-hal-driver/stm32l4xx_ll_exti.c ****             LL_EXTI_EnableRisingTrig_32_63(EXTI_InitStruct->Line_32_63);
 233:../system/src/stm32l4-hal-driver/stm32l4xx_ll_exti.c ****             LL_EXTI_EnableFallingTrig_32_63(EXTI_InitStruct->Line_32_63);
 234:../system/src/stm32l4-hal-driver/stm32l4xx_ll_exti.c ****             break;
 235:../system/src/stm32l4-hal-driver/stm32l4xx_ll_exti.c ****           default:
 236:../system/src/stm32l4-hal-driver/stm32l4xx_ll_exti.c ****             status = ERROR;
 358              		.loc 1 236 0
 359 00ee 0120     		movs	r0, #1
 360              	.LVL47:
 361              	.L4:
 237:../system/src/stm32l4-hal-driver/stm32l4xx_ll_exti.c ****             break;
 238:../system/src/stm32l4-hal-driver/stm32l4xx_ll_exti.c ****         }
 239:../system/src/stm32l4-hal-driver/stm32l4xx_ll_exti.c ****       }
 240:../system/src/stm32l4-hal-driver/stm32l4xx_ll_exti.c ****     }
 241:../system/src/stm32l4-hal-driver/stm32l4xx_ll_exti.c ****   }
 242:../system/src/stm32l4-hal-driver/stm32l4xx_ll_exti.c ****   /* DISABLE LineCommand */
 243:../system/src/stm32l4-hal-driver/stm32l4xx_ll_exti.c ****   else
 244:../system/src/stm32l4-hal-driver/stm32l4xx_ll_exti.c ****   {
 245:../system/src/stm32l4-hal-driver/stm32l4xx_ll_exti.c ****     /* De-configure EXTI Lines in range from 0 to 31 */
 246:../system/src/stm32l4-hal-driver/stm32l4xx_ll_exti.c ****     LL_EXTI_DisableIT_0_31(EXTI_InitStruct->Line_0_31);
 247:../system/src/stm32l4-hal-driver/stm32l4xx_ll_exti.c ****     LL_EXTI_DisableEvent_0_31(EXTI_InitStruct->Line_0_31);
 248:../system/src/stm32l4-hal-driver/stm32l4xx_ll_exti.c ****     /* De-configure EXTI Lines in range from 32 to 63 */
 249:../system/src/stm32l4-hal-driver/stm32l4xx_ll_exti.c ****     LL_EXTI_DisableIT_32_63(EXTI_InitStruct->Line_32_63);
 250:../system/src/stm32l4-hal-driver/stm32l4xx_ll_exti.c ****     LL_EXTI_DisableEvent_32_63(EXTI_InitStruct->Line_32_63);
 251:../system/src/stm32l4-hal-driver/stm32l4xx_ll_exti.c ****   }
 252:../system/src/stm32l4-hal-driver/stm32l4xx_ll_exti.c **** 
 253:../system/src/stm32l4-hal-driver/stm32l4xx_ll_exti.c ****   return status;
 254:../system/src/stm32l4-hal-driver/stm32l4xx_ll_exti.c **** }
 362              		.loc 1 254 0
 363 00f0 5DF8044B 		ldr	r4, [sp], #4
 364              		.cfi_remember_state
 365              		.cfi_restore 4
 366              		.cfi_def_cfa_offset 0
 367 00f4 7047     		bx	lr
 368              	.LVL48:
 369              	.L17:
 370              		.cfi_restore_state
 371              	.LBB86:
 372              	.LBB87:
 405:../system/include/stm32l4-hal-driver/stm32l4xx_ll_exti.h **** }
 373              		.loc 2 405 0
 374 00f6 2549     		ldr	r1, .L36
 375 00f8 0C6A     		ldr	r4, [r1, #32]
 376 00fa 24EA0202 		bic	r2, r4, r2
 377              	.LVL49:
 378 00fe 0A62     		str	r2, [r1, #32]
 379              	.LVL50:
 380              	.LBE87:
 381              	.LBE86:
 204:../system/src/stm32l4-hal-driver/stm32l4xx_ll_exti.c ****           break;
 382              		.loc 1 204 0
 383 0100 5A68     		ldr	r2, [r3, #4]
 384              	.LVL51:
 385              	.LBB88:
 386              	.LBB89:
 554:../system/include/stm32l4-hal-driver/stm32l4xx_ll_exti.h **** }
 387              		.loc 2 554 0
 388 0102 4C6A     		ldr	r4, [r1, #36]
 389 0104 2243     		orrs	r2, r2, r4
 390              	.LVL52:
 391 0106 4A62     		str	r2, [r1, #36]
 392              	.LVL53:
 393 0108 E9E7     		b	.L20
 394              	.L19:
 395              	.LVL54:
 396              	.LBE89:
 397              	.LBE88:
 398              	.LBB90:
 399              	.LBB91:
 332:../system/include/stm32l4-hal-driver/stm32l4xx_ll_exti.h **** }
 400              		.loc 2 332 0
 401 010a 2049     		ldr	r1, .L36
 402 010c 0C6A     		ldr	r4, [r1, #32]
 403 010e 2243     		orrs	r2, r2, r4
 404              	.LVL55:
 405 0110 0A62     		str	r2, [r1, #32]
 406              	.LVL56:
 407              	.LBE91:
 408              	.LBE90:
 209:../system/src/stm32l4-hal-driver/stm32l4xx_ll_exti.c ****           break;
 409              		.loc 1 209 0
 410 0112 5A68     		ldr	r2, [r3, #4]
 411              	.LVL57:
 412              	.LBB92:
 413              	.LBB93:
 554:../system/include/stm32l4-hal-driver/stm32l4xx_ll_exti.h **** }
 414              		.loc 2 554 0
 415 0114 4C6A     		ldr	r4, [r1, #36]
 416 0116 2243     		orrs	r2, r2, r4
 417              	.LVL58:
 418 0118 4A62     		str	r2, [r1, #36]
 419              	.LVL59:
 420 011a E0E7     		b	.L20
 421              	.L35:
 422              	.LBE93:
 423              	.LBE92:
 221:../system/src/stm32l4-hal-driver/stm32l4xx_ll_exti.c ****             /* Then Enable IT on provided Lines */
 424              		.loc 1 221 0
 425 011c 5C68     		ldr	r4, [r3, #4]
 426              	.LVL60:
 427              	.LBB94:
 428              	.LBB95:
1000:../system/include/stm32l4-hal-driver/stm32l4xx_ll_exti.h **** }
1001:../system/include/stm32l4-hal-driver/stm32l4xx_ll_exti.h **** 
1002:../system/include/stm32l4-hal-driver/stm32l4xx_ll_exti.h **** /**
1003:../system/include/stm32l4-hal-driver/stm32l4xx_ll_exti.h ****   * @brief  Disable ExtiLine Falling Edge Trigger for Lines in range 32 to 63
1004:../system/include/stm32l4-hal-driver/stm32l4xx_ll_exti.h ****   * @note The configurable wakeup lines are edge-triggered. No glitch must be
1005:../system/include/stm32l4-hal-driver/stm32l4xx_ll_exti.h ****   *       generated on these lines. If a Falling edge on a configurable interrupt
1006:../system/include/stm32l4-hal-driver/stm32l4xx_ll_exti.h ****   *       line occurs during a write operation in the EXTI_FTSR register, the
1007:../system/include/stm32l4-hal-driver/stm32l4xx_ll_exti.h ****   *       pending bit is not set.
1008:../system/include/stm32l4-hal-driver/stm32l4xx_ll_exti.h ****   *       Rising and falling edge triggers can be set for the same interrupt line.
1009:../system/include/stm32l4-hal-driver/stm32l4xx_ll_exti.h ****   *       In this case, both generate a trigger condition.
1010:../system/include/stm32l4-hal-driver/stm32l4xx_ll_exti.h ****   * @rmtoll FTSR2        FTx           LL_EXTI_DisableFallingTrig_32_63
1011:../system/include/stm32l4-hal-driver/stm32l4xx_ll_exti.h ****   * @param  ExtiLine This parameter can be a combination of the following values:
1012:../system/include/stm32l4-hal-driver/stm32l4xx_ll_exti.h ****   *         @arg @ref LL_EXTI_LINE_35
1013:../system/include/stm32l4-hal-driver/stm32l4xx_ll_exti.h ****   *         @arg @ref LL_EXTI_LINE_36
1014:../system/include/stm32l4-hal-driver/stm32l4xx_ll_exti.h ****   *         @arg @ref LL_EXTI_LINE_37
1015:../system/include/stm32l4-hal-driver/stm32l4xx_ll_exti.h ****   *         @arg @ref LL_EXTI_LINE_38
1016:../system/include/stm32l4-hal-driver/stm32l4xx_ll_exti.h ****   * @retval None
1017:../system/include/stm32l4-hal-driver/stm32l4xx_ll_exti.h ****   */
1018:../system/include/stm32l4-hal-driver/stm32l4xx_ll_exti.h **** __STATIC_INLINE void LL_EXTI_DisableFallingTrig_32_63(uint32_t ExtiLine)
1019:../system/include/stm32l4-hal-driver/stm32l4xx_ll_exti.h **** {
1020:../system/include/stm32l4-hal-driver/stm32l4xx_ll_exti.h ****   CLEAR_BIT(EXTI->FTSR2, ExtiLine);
 429              		.loc 2 1020 0
 430 011e 1B4A     		ldr	r2, .L36
 431 0120 D16A     		ldr	r1, [r2, #44]
 432 0122 21EA0401 		bic	r1, r1, r4
 433 0126 D162     		str	r1, [r2, #44]
 434              	.LVL61:
 435              	.LBE95:
 436              	.LBE94:
 223:../system/src/stm32l4-hal-driver/stm32l4xx_ll_exti.c ****             break;
 437              		.loc 1 223 0
 438 0128 5B68     		ldr	r3, [r3, #4]
 439              	.LVL62:
 440              	.LBB96:
 441              	.LBB97:
 763:../system/include/stm32l4-hal-driver/stm32l4xx_ll_exti.h **** }
 442              		.loc 2 763 0
 443 012a 916A     		ldr	r1, [r2, #40]
 444 012c 0B43     		orrs	r3, r3, r1
 445              	.LVL63:
 446 012e 9362     		str	r3, [r2, #40]
 447              	.LVL64:
 448 0130 DEE7     		b	.L4
 449              	.LVL65:
 450              	.L21:
 451              	.LBE97:
 452              	.LBE96:
 227:../system/src/stm32l4-hal-driver/stm32l4xx_ll_exti.c ****             /* Then Enable Falling Trigger on provided Lines */
 453              		.loc 1 227 0
 454 0132 5C68     		ldr	r4, [r3, #4]
 455              	.LVL66:
 456              	.LBB98:
 457              	.LBB99:
 830:../system/include/stm32l4-hal-driver/stm32l4xx_ll_exti.h **** }
 458              		.loc 2 830 0
 459 0134 154A     		ldr	r2, .L36
 460 0136 916A     		ldr	r1, [r2, #40]
 461 0138 21EA0401 		bic	r1, r1, r4
 462 013c 9162     		str	r1, [r2, #40]
 463              	.LVL67:
 464              	.LBE99:
 465              	.LBE98:
 229:../system/src/stm32l4-hal-driver/stm32l4xx_ll_exti.c ****             break;
 466              		.loc 1 229 0
 467 013e 5B68     		ldr	r3, [r3, #4]
 468              	.LVL68:
 469              	.LBB100:
 470              	.LBB101:
 956:../system/include/stm32l4-hal-driver/stm32l4xx_ll_exti.h **** }
 471              		.loc 2 956 0
 472 0140 D16A     		ldr	r1, [r2, #44]
 473 0142 0B43     		orrs	r3, r3, r1
 474              	.LVL69:
 475 0144 D362     		str	r3, [r2, #44]
 476              	.LVL70:
 477 0146 D3E7     		b	.L4
 478              	.LVL71:
 479              	.L22:
 480              	.LBE101:
 481              	.LBE100:
 232:../system/src/stm32l4-hal-driver/stm32l4xx_ll_exti.c ****             LL_EXTI_EnableFallingTrig_32_63(EXTI_InitStruct->Line_32_63);
 482              		.loc 1 232 0
 483 0148 5968     		ldr	r1, [r3, #4]
 484              	.LVL72:
 485              	.LBB102:
 486              	.LBB103:
 763:../system/include/stm32l4-hal-driver/stm32l4xx_ll_exti.h **** }
 487              		.loc 2 763 0
 488 014a 104A     		ldr	r2, .L36
 489 014c 946A     		ldr	r4, [r2, #40]
 490 014e 2143     		orrs	r1, r1, r4
 491              	.LVL73:
 492 0150 9162     		str	r1, [r2, #40]
 493              	.LVL74:
 494              	.LBE103:
 495              	.LBE102:
 233:../system/src/stm32l4-hal-driver/stm32l4xx_ll_exti.c ****             break;
 496              		.loc 1 233 0
 497 0152 5B68     		ldr	r3, [r3, #4]
 498              	.LVL75:
 499              	.LBB104:
 500              	.LBB105:
 956:../system/include/stm32l4-hal-driver/stm32l4xx_ll_exti.h **** }
 501              		.loc 2 956 0
 502 0154 D16A     		ldr	r1, [r2, #44]
 503 0156 0B43     		orrs	r3, r3, r1
 504              	.LVL76:
 505 0158 D362     		str	r3, [r2, #44]
 506              	.LVL77:
 507 015a C9E7     		b	.L4
 508              	.LVL78:
 509              	.L5:
 510              		.cfi_def_cfa_offset 0
 511              		.cfi_restore 4
 512              	.LBE105:
 513              	.LBE104:
 246:../system/src/stm32l4-hal-driver/stm32l4xx_ll_exti.c ****     LL_EXTI_DisableEvent_0_31(EXTI_InitStruct->Line_0_31);
 514              		.loc 1 246 0
 515 015c 0068     		ldr	r0, [r0]
 516              	.LVL79:
 517              	.LBB106:
 518              	.LBB107:
 380:../system/include/stm32l4-hal-driver/stm32l4xx_ll_exti.h **** }
 519              		.loc 2 380 0
 520 015e 0B4A     		ldr	r2, .L36
 521 0160 1168     		ldr	r1, [r2]
 522 0162 21EA0001 		bic	r1, r1, r0
 523 0166 1160     		str	r1, [r2]
 524              	.LVL80:
 525              	.LBE107:
 526              	.LBE106:
 247:../system/src/stm32l4-hal-driver/stm32l4xx_ll_exti.c ****     /* De-configure EXTI Lines in range from 32 to 63 */
 527              		.loc 1 247 0
 528 0168 1868     		ldr	r0, [r3]
 529              	.LVL81:
 530              	.LBB108:
 531              	.LBB109:
 599:../system/include/stm32l4-hal-driver/stm32l4xx_ll_exti.h **** }
 532              		.loc 2 599 0
 533 016a 5168     		ldr	r1, [r2, #4]
 534 016c 21EA0001 		bic	r1, r1, r0
 535 0170 5160     		str	r1, [r2, #4]
 536              	.LVL82:
 537              	.LBE109:
 538              	.LBE108:
 249:../system/src/stm32l4-hal-driver/stm32l4xx_ll_exti.c ****     LL_EXTI_DisableEvent_32_63(EXTI_InitStruct->Line_32_63);
 539              		.loc 1 249 0
 540 0172 5868     		ldr	r0, [r3, #4]
 541              	.LVL83:
 542              	.LBB110:
 543              	.LBB111:
 405:../system/include/stm32l4-hal-driver/stm32l4xx_ll_exti.h **** }
 544              		.loc 2 405 0
 545 0174 116A     		ldr	r1, [r2, #32]
 546 0176 21EA0001 		bic	r1, r1, r0
 547 017a 1162     		str	r1, [r2, #32]
 548              	.LVL84:
 549              	.LBE111:
 550              	.LBE110:
 250:../system/src/stm32l4-hal-driver/stm32l4xx_ll_exti.c ****   }
 551              		.loc 1 250 0
 552 017c 5968     		ldr	r1, [r3, #4]
 553              	.LVL85:
 554              	.LBB112:
 555              	.LBB113:
 621:../system/include/stm32l4-hal-driver/stm32l4xx_ll_exti.h **** }
 556              		.loc 2 621 0
 557 017e 536A     		ldr	r3, [r2, #36]
 558              	.LVL86:
 559 0180 23EA0103 		bic	r3, r3, r1
 560 0184 5362     		str	r3, [r2, #36]
 561              	.LBE113:
 562              	.LBE112:
 124:../system/src/stm32l4-hal-driver/stm32l4xx_ll_exti.c **** 
 563              		.loc 1 124 0
 564 0186 0020     		movs	r0, #0
 565              		.loc 1 254 0
 566 0188 7047     		bx	lr
 567              	.L37:
 568 018a 00BF     		.align	2
 569              	.L36:
 570 018c 00040140 		.word	1073808384
 571              		.cfi_endproc
 572              	.LFE165:
 574              		.section	.text.LL_EXTI_StructInit,"ax",%progbits
 575              		.align	1
 576              		.global	LL_EXTI_StructInit
 577              		.syntax unified
 578              		.thumb
 579              		.thumb_func
 580              		.fpu fpv4-sp-d16
 582              	LL_EXTI_StructInit:
 583              	.LFB166:
 255:../system/src/stm32l4-hal-driver/stm32l4xx_ll_exti.c **** 
 256:../system/src/stm32l4-hal-driver/stm32l4xx_ll_exti.c **** /**
 257:../system/src/stm32l4-hal-driver/stm32l4xx_ll_exti.c ****   * @brief  Set each @ref LL_EXTI_InitTypeDef field to default value.
 258:../system/src/stm32l4-hal-driver/stm32l4xx_ll_exti.c ****   * @param  EXTI_InitStruct Pointer to a @ref LL_EXTI_InitTypeDef structure.
 259:../system/src/stm32l4-hal-driver/stm32l4xx_ll_exti.c ****   * @retval None
 260:../system/src/stm32l4-hal-driver/stm32l4xx_ll_exti.c ****   */
 261:../system/src/stm32l4-hal-driver/stm32l4xx_ll_exti.c **** void LL_EXTI_StructInit(LL_EXTI_InitTypeDef *EXTI_InitStruct)
 262:../system/src/stm32l4-hal-driver/stm32l4xx_ll_exti.c **** {
 584              		.loc 1 262 0
 585              		.cfi_startproc
 586              		@ args = 0, pretend = 0, frame = 0
 587              		@ frame_needed = 0, uses_anonymous_args = 0
 588              		@ link register save eliminated.
 589              	.LVL87:
 263:../system/src/stm32l4-hal-driver/stm32l4xx_ll_exti.c ****   EXTI_InitStruct->Line_0_31      = LL_EXTI_LINE_NONE;
 590              		.loc 1 263 0
 591 0000 0023     		movs	r3, #0
 592 0002 0360     		str	r3, [r0]
 264:../system/src/stm32l4-hal-driver/stm32l4xx_ll_exti.c ****   EXTI_InitStruct->Line_32_63     = LL_EXTI_LINE_NONE;
 593              		.loc 1 264 0
 594 0004 4360     		str	r3, [r0, #4]
 265:../system/src/stm32l4-hal-driver/stm32l4xx_ll_exti.c ****   EXTI_InitStruct->LineCommand    = DISABLE;
 595              		.loc 1 265 0
 596 0006 0372     		strb	r3, [r0, #8]
 266:../system/src/stm32l4-hal-driver/stm32l4xx_ll_exti.c ****   EXTI_InitStruct->Mode           = LL_EXTI_MODE_IT;
 597              		.loc 1 266 0
 598 0008 4372     		strb	r3, [r0, #9]
 267:../system/src/stm32l4-hal-driver/stm32l4xx_ll_exti.c ****   EXTI_InitStruct->Trigger        = LL_EXTI_TRIGGER_FALLING;
 599              		.loc 1 267 0
 600 000a 0223     		movs	r3, #2
 601 000c 8372     		strb	r3, [r0, #10]
 268:../system/src/stm32l4-hal-driver/stm32l4xx_ll_exti.c **** }
 602              		.loc 1 268 0
 603 000e 7047     		bx	lr
 604              		.cfi_endproc
 605              	.LFE166:
 607              		.text
 608              	.Letext0:
 609              		.file 3 "/usr/local/bin/gcc-arm-none-eabi-7-2018-q2-update/lib/gcc/arm-none-eabi/7.3.1/include/std
 610              		.file 4 "../system/include/cmsis/stm32l4xx/core_cm4.h"
 611              		.file 5 "../system/include/cmsis/stm32l4xx/device/system_stm32l4xx.h"
 612              		.file 6 "../system/include/cmsis/stm32l4xx/device/stm32l471xx.h"
 613              		.file 7 "../system/include/cmsis/stm32l4xx/device/stm32l4xx.h"
DEFINED SYMBOLS
                            *ABS*:0000000000000000 stm32l4xx_ll_exti.c
     /tmp/ccMg3Ri6.s:18     .text.LL_EXTI_DeInit:0000000000000000 $t
     /tmp/ccMg3Ri6.s:25     .text.LL_EXTI_DeInit:0000000000000000 LL_EXTI_DeInit
     /tmp/ccMg3Ri6.s:68     .text.LL_EXTI_DeInit:0000000000000028 $d
     /tmp/ccMg3Ri6.s:75     .text.LL_EXTI_Init:0000000000000000 $t
     /tmp/ccMg3Ri6.s:82     .text.LL_EXTI_Init:0000000000000000 LL_EXTI_Init
     /tmp/ccMg3Ri6.s:570    .text.LL_EXTI_Init:000000000000018c $d
     /tmp/ccMg3Ri6.s:575    .text.LL_EXTI_StructInit:0000000000000000 $t
     /tmp/ccMg3Ri6.s:582    .text.LL_EXTI_StructInit:0000000000000000 LL_EXTI_StructInit
                           .group:0000000000000000 wm4.0.95bc707da9dcffdc6c8c58936cbc8421
                           .group:0000000000000000 wm4.stm32l4xx.h.39.54a1fe1e096c7852edd649652f013a11
                           .group:0000000000000000 wm4.stm32l471xx.h.35.e78ad65c513105dda311dc495ac74d04
                           .group:0000000000000000 wm4.stdintgcc.h.29.6d480f4ba0f60596e88234283d42444f
                           .group:0000000000000000 wm4.cmsis_version.h.32.46e8eccfa2cfeaae11d008bb2823a3ed
                           .group:0000000000000000 wm4.core_cm4.h.66.e4ff136c4a17abc46741866f64f8e729
                           .group:0000000000000000 wm4.cmsis_gcc.h.26.b6144e50d34fc998dd4c2cfb6387cf91
                           .group:0000000000000000 wm4.core_cm4.h.174.fcddd62df80231752fa39eb9b61dadfe
                           .group:0000000000000000 wm4.mpu_armv7.h.32.4049752bb5792d4e15357775e9506cfc
                           .group:0000000000000000 wm4.stm32l471xx.h.423.ceac761476affad641a3347d7727acfd
                           .group:0000000000000000 wm4.stm32l4xx.h.197.fb1c68184133668ca24c44c29ba4361f
                           .group:0000000000000000 wm4.stm32l4xx_ll_exti.h.90.05bf035f32dac7fb04f8928624902acf

NO UNDEFINED SYMBOLS
