   1              		.cpu cortex-m4
   2              		.eabi_attribute 27, 1
   3              		.eabi_attribute 28, 1
   4              		.eabi_attribute 20, 1
   5              		.eabi_attribute 21, 1
   6              		.eabi_attribute 23, 3
   7              		.eabi_attribute 24, 1
   8              		.eabi_attribute 25, 1
   9              		.eabi_attribute 26, 1
  10              		.eabi_attribute 30, 1
  11              		.eabi_attribute 34, 1
  12              		.eabi_attribute 18, 4
  13              		.file	"stm32l4xx_hal_dac.c"
  14              		.text
  15              	.Ltext0:
  16              		.cfi_sections	.debug_frame
  17              		.section	.text.HAL_DAC_MspInit,"ax",%progbits
  18              		.align	1
  19              		.weak	HAL_DAC_MspInit
  20              		.syntax unified
  21              		.thumb
  22              		.thumb_func
  23              		.fpu fpv4-sp-d16
  25              	HAL_DAC_MspInit:
  26              	.LFB319:
  27              		.file 1 "../system/src/stm32l4-hal-driver/stm32l4xx_hal_dac.c"
   1:../system/src/stm32l4-hal-driver/stm32l4xx_hal_dac.c **** /**
   2:../system/src/stm32l4-hal-driver/stm32l4xx_hal_dac.c ****   ******************************************************************************
   3:../system/src/stm32l4-hal-driver/stm32l4xx_hal_dac.c ****   * @file    stm32l4xx_hal_dac.c
   4:../system/src/stm32l4-hal-driver/stm32l4xx_hal_dac.c ****   * @author  MCD Application Team
   5:../system/src/stm32l4-hal-driver/stm32l4xx_hal_dac.c ****   * @brief   DAC HAL module driver.
   6:../system/src/stm32l4-hal-driver/stm32l4xx_hal_dac.c ****   *         This file provides firmware functions to manage the following
   7:../system/src/stm32l4-hal-driver/stm32l4xx_hal_dac.c ****   *         functionalities of the Digital to Analog Converter (DAC) peripheral:
   8:../system/src/stm32l4-hal-driver/stm32l4xx_hal_dac.c ****   *           + Initialization and de-initialization functions
   9:../system/src/stm32l4-hal-driver/stm32l4xx_hal_dac.c ****   *           + IO operation functions
  10:../system/src/stm32l4-hal-driver/stm32l4xx_hal_dac.c ****   *           + Peripheral Control functions
  11:../system/src/stm32l4-hal-driver/stm32l4xx_hal_dac.c ****   *           + Peripheral State and Errors functions
  12:../system/src/stm32l4-hal-driver/stm32l4xx_hal_dac.c ****   *
  13:../system/src/stm32l4-hal-driver/stm32l4xx_hal_dac.c ****   *
  14:../system/src/stm32l4-hal-driver/stm32l4xx_hal_dac.c ****   @verbatim
  15:../system/src/stm32l4-hal-driver/stm32l4xx_hal_dac.c ****   ==============================================================================
  16:../system/src/stm32l4-hal-driver/stm32l4xx_hal_dac.c ****                       ##### DAC Peripheral features #####
  17:../system/src/stm32l4-hal-driver/stm32l4xx_hal_dac.c ****   ==============================================================================
  18:../system/src/stm32l4-hal-driver/stm32l4xx_hal_dac.c ****     [..]
  19:../system/src/stm32l4-hal-driver/stm32l4xx_hal_dac.c ****       *** DAC Channels ***
  20:../system/src/stm32l4-hal-driver/stm32l4xx_hal_dac.c ****       ====================
  21:../system/src/stm32l4-hal-driver/stm32l4xx_hal_dac.c ****     [..]
  22:../system/src/stm32l4-hal-driver/stm32l4xx_hal_dac.c ****     STM32L4 devices integrate one or two 12-bit Digital Analog Converters
  23:../system/src/stm32l4-hal-driver/stm32l4xx_hal_dac.c ****     (i.e. one or 2 channel(s))
  24:../system/src/stm32l4-hal-driver/stm32l4xx_hal_dac.c ****     1 channel : STM32L451xx STM32L452xx STM32L462xx
  25:../system/src/stm32l4-hal-driver/stm32l4xx_hal_dac.c ****     2 channels: STM32L431xx STM32L432xx STM32L433xx STM32L442xx STM32L443xx
  26:../system/src/stm32l4-hal-driver/stm32l4xx_hal_dac.c ****                 STM32L471xx STM32L475xx STM32L476xx STM32L485xx STM32L486xx STM32L496xx STM32L4A6xx
  27:../system/src/stm32l4-hal-driver/stm32l4xx_hal_dac.c ****                 STM32L4P5xx STM32L4Q5xx
  28:../system/src/stm32l4-hal-driver/stm32l4xx_hal_dac.c ****                 STM32L4R5xx STM32L4R7xx STM32L4R9xx STM32L4S5xx STM32L4S7xx STM32L4S9xx
  29:../system/src/stm32l4-hal-driver/stm32l4xx_hal_dac.c **** 
  30:../system/src/stm32l4-hal-driver/stm32l4xx_hal_dac.c ****     When 2 channels are available, the 2 converters (i.e. channel1 & channel2)
  31:../system/src/stm32l4-hal-driver/stm32l4xx_hal_dac.c ****     can be used independently or simultaneously (dual mode):
  32:../system/src/stm32l4-hal-driver/stm32l4xx_hal_dac.c ****       (#) DAC channel1 with DAC_OUT1 (PA4) as output or connected to on-chip
  33:../system/src/stm32l4-hal-driver/stm32l4xx_hal_dac.c ****           peripherals.
  34:../system/src/stm32l4-hal-driver/stm32l4xx_hal_dac.c ****       (#) Whenever present, DAC channel2 with DAC_OUT2 (PA5) as output
  35:../system/src/stm32l4-hal-driver/stm32l4xx_hal_dac.c ****           or connected to on-chip peripherals.
  36:../system/src/stm32l4-hal-driver/stm32l4xx_hal_dac.c **** 
  37:../system/src/stm32l4-hal-driver/stm32l4xx_hal_dac.c ****       *** DAC Triggers ***
  38:../system/src/stm32l4-hal-driver/stm32l4xx_hal_dac.c ****       ====================
  39:../system/src/stm32l4-hal-driver/stm32l4xx_hal_dac.c ****     [..]
  40:../system/src/stm32l4-hal-driver/stm32l4xx_hal_dac.c ****     Digital to Analog conversion can be non-triggered using DAC_TRIGGER_NONE
  41:../system/src/stm32l4-hal-driver/stm32l4xx_hal_dac.c ****     and DAC_OUT1/DAC_OUT2 is available once writing to DHRx register.
  42:../system/src/stm32l4-hal-driver/stm32l4xx_hal_dac.c ****     [..]
  43:../system/src/stm32l4-hal-driver/stm32l4xx_hal_dac.c ****     Digital to Analog conversion can be triggered by:
  44:../system/src/stm32l4-hal-driver/stm32l4xx_hal_dac.c ****       (#) External event: EXTI Line 9 (any GPIOx_PIN_9) using DAC_TRIGGER_EXT_IT9.
  45:../system/src/stm32l4-hal-driver/stm32l4xx_hal_dac.c ****           The used pin (GPIOx_PIN_9) must be configured in input mode.
  46:../system/src/stm32l4-hal-driver/stm32l4xx_hal_dac.c **** 
  47:../system/src/stm32l4-hal-driver/stm32l4xx_hal_dac.c ****       (#) Timers TRGO: TIM2, TIM3, TIM4, TIM5, TIM6 and TIM7
  48:../system/src/stm32l4-hal-driver/stm32l4xx_hal_dac.c ****           (DAC_TRIGGER_T2_TRGO, DAC_TRIGGER_T3_TRGO...)
  49:../system/src/stm32l4-hal-driver/stm32l4xx_hal_dac.c **** 
  50:../system/src/stm32l4-hal-driver/stm32l4xx_hal_dac.c ****       (#) Software using DAC_TRIGGER_SOFTWARE
  51:../system/src/stm32l4-hal-driver/stm32l4xx_hal_dac.c **** 
  52:../system/src/stm32l4-hal-driver/stm32l4xx_hal_dac.c ****       *** DAC Buffer mode feature ***
  53:../system/src/stm32l4-hal-driver/stm32l4xx_hal_dac.c ****       ===============================
  54:../system/src/stm32l4-hal-driver/stm32l4xx_hal_dac.c ****       [..]
  55:../system/src/stm32l4-hal-driver/stm32l4xx_hal_dac.c ****       Each DAC channel integrates an output buffer that can be used to
  56:../system/src/stm32l4-hal-driver/stm32l4xx_hal_dac.c ****       reduce the output impedance, and to drive external loads directly
  57:../system/src/stm32l4-hal-driver/stm32l4xx_hal_dac.c ****       without having to add an external operational amplifier.
  58:../system/src/stm32l4-hal-driver/stm32l4xx_hal_dac.c ****       To enable, the output buffer use
  59:../system/src/stm32l4-hal-driver/stm32l4xx_hal_dac.c ****       sConfig.DAC_OutputBuffer = DAC_OUTPUTBUFFER_ENABLE;
  60:../system/src/stm32l4-hal-driver/stm32l4xx_hal_dac.c ****       [..]
  61:../system/src/stm32l4-hal-driver/stm32l4xx_hal_dac.c ****       (@) Refer to the device datasheet for more details about output
  62:../system/src/stm32l4-hal-driver/stm32l4xx_hal_dac.c ****           impedance value with and without output buffer.
  63:../system/src/stm32l4-hal-driver/stm32l4xx_hal_dac.c **** 
  64:../system/src/stm32l4-hal-driver/stm32l4xx_hal_dac.c ****       *** DAC connect feature ***
  65:../system/src/stm32l4-hal-driver/stm32l4xx_hal_dac.c ****       ===============================
  66:../system/src/stm32l4-hal-driver/stm32l4xx_hal_dac.c ****       [..]
  67:../system/src/stm32l4-hal-driver/stm32l4xx_hal_dac.c ****       Each DAC channel can be connected internally.
  68:../system/src/stm32l4-hal-driver/stm32l4xx_hal_dac.c ****       To connect, use
  69:../system/src/stm32l4-hal-driver/stm32l4xx_hal_dac.c ****       sConfig.DAC_ConnectOnChipPeripheral = DAC_CHIPCONNECT_ENABLE;
  70:../system/src/stm32l4-hal-driver/stm32l4xx_hal_dac.c **** 
  71:../system/src/stm32l4-hal-driver/stm32l4xx_hal_dac.c ****       *** GPIO configurations guidelines ***
  72:../system/src/stm32l4-hal-driver/stm32l4xx_hal_dac.c ****       =====================
  73:../system/src/stm32l4-hal-driver/stm32l4xx_hal_dac.c ****       [..]
  74:../system/src/stm32l4-hal-driver/stm32l4xx_hal_dac.c ****       When a DAC channel is used (ex channel1 on PA4) and the other is not
  75:../system/src/stm32l4-hal-driver/stm32l4xx_hal_dac.c ****       (ex channel2 on PA5 is configured in Analog and disabled).
  76:../system/src/stm32l4-hal-driver/stm32l4xx_hal_dac.c ****       Channel1 may disturb channel2 as coupling effect.
  77:../system/src/stm32l4-hal-driver/stm32l4xx_hal_dac.c ****       Note that there is no coupling on channel2 as soon as channel2 is turned on.
  78:../system/src/stm32l4-hal-driver/stm32l4xx_hal_dac.c ****       Coupling on adjacent channel could be avoided as follows:
  79:../system/src/stm32l4-hal-driver/stm32l4xx_hal_dac.c ****       when unused PA5 is configured as INPUT PULL-UP or DOWN.
  80:../system/src/stm32l4-hal-driver/stm32l4xx_hal_dac.c ****       PA5 is configured in ANALOG just before it is turned on.
  81:../system/src/stm32l4-hal-driver/stm32l4xx_hal_dac.c **** 
  82:../system/src/stm32l4-hal-driver/stm32l4xx_hal_dac.c ****       *** DAC Sample and Hold feature ***
  83:../system/src/stm32l4-hal-driver/stm32l4xx_hal_dac.c ****       ========================
  84:../system/src/stm32l4-hal-driver/stm32l4xx_hal_dac.c ****       [..]
  85:../system/src/stm32l4-hal-driver/stm32l4xx_hal_dac.c ****       For each converter, 2 modes are supported: normal mode and
  86:../system/src/stm32l4-hal-driver/stm32l4xx_hal_dac.c ****       "sample and hold" mode (i.e. low power mode).
  87:../system/src/stm32l4-hal-driver/stm32l4xx_hal_dac.c ****       In the sample and hold mode, the DAC core converts data, then holds the
  88:../system/src/stm32l4-hal-driver/stm32l4xx_hal_dac.c ****       converted voltage on a capacitor. When not converting, the DAC cores and
  89:../system/src/stm32l4-hal-driver/stm32l4xx_hal_dac.c ****       buffer are completely turned off between samples and the DAC output is
  90:../system/src/stm32l4-hal-driver/stm32l4xx_hal_dac.c ****       tri-stated, therefore  reducing the overall power consumption. A new
  91:../system/src/stm32l4-hal-driver/stm32l4xx_hal_dac.c ****       stabilization period is needed before each new conversion.
  92:../system/src/stm32l4-hal-driver/stm32l4xx_hal_dac.c **** 
  93:../system/src/stm32l4-hal-driver/stm32l4xx_hal_dac.c ****       The sample and hold allow setting internal or external voltage @
  94:../system/src/stm32l4-hal-driver/stm32l4xx_hal_dac.c ****       low power consumption cost (output value can be at any given rate either
  95:../system/src/stm32l4-hal-driver/stm32l4xx_hal_dac.c ****       by CPU or DMA).
  96:../system/src/stm32l4-hal-driver/stm32l4xx_hal_dac.c **** 
  97:../system/src/stm32l4-hal-driver/stm32l4xx_hal_dac.c ****       The Sample and hold block and registers uses either LSI & run in
  98:../system/src/stm32l4-hal-driver/stm32l4xx_hal_dac.c ****       several power modes: run mode, sleep mode, low power run, low power sleep
  99:../system/src/stm32l4-hal-driver/stm32l4xx_hal_dac.c ****       mode & stop1 mode.
 100:../system/src/stm32l4-hal-driver/stm32l4xx_hal_dac.c **** 
 101:../system/src/stm32l4-hal-driver/stm32l4xx_hal_dac.c ****       Low power stop1 mode allows only static conversion.
 102:../system/src/stm32l4-hal-driver/stm32l4xx_hal_dac.c **** 
 103:../system/src/stm32l4-hal-driver/stm32l4xx_hal_dac.c ****       To enable Sample and Hold mode
 104:../system/src/stm32l4-hal-driver/stm32l4xx_hal_dac.c ****       Enable LSI using HAL_RCC_OscConfig with RCC_OSCILLATORTYPE_LSI &
 105:../system/src/stm32l4-hal-driver/stm32l4xx_hal_dac.c ****       RCC_LSI_ON parameters.
 106:../system/src/stm32l4-hal-driver/stm32l4xx_hal_dac.c **** 
 107:../system/src/stm32l4-hal-driver/stm32l4xx_hal_dac.c ****       Use DAC_InitStructure.DAC_SampleAndHold = DAC_SAMPLEANDHOLD_ENABLE;
 108:../system/src/stm32l4-hal-driver/stm32l4xx_hal_dac.c ****          & DAC_ChannelConfTypeDef.DAC_SampleAndHoldConfig.DAC_SampleTime,
 109:../system/src/stm32l4-hal-driver/stm32l4xx_hal_dac.c ****            DAC_HoldTime & DAC_RefreshTime;
 110:../system/src/stm32l4-hal-driver/stm32l4xx_hal_dac.c **** 
 111:../system/src/stm32l4-hal-driver/stm32l4xx_hal_dac.c ****        *** DAC calibration feature ***
 112:../system/src/stm32l4-hal-driver/stm32l4xx_hal_dac.c ****        ===================================
 113:../system/src/stm32l4-hal-driver/stm32l4xx_hal_dac.c ****       [..]
 114:../system/src/stm32l4-hal-driver/stm32l4xx_hal_dac.c ****        (#)  The 2 converters (channel1 & channel2) provide calibration capabilities.
 115:../system/src/stm32l4-hal-driver/stm32l4xx_hal_dac.c ****        (++) Calibration aims at correcting some offset of output buffer.
 116:../system/src/stm32l4-hal-driver/stm32l4xx_hal_dac.c ****        (++) The DAC uses either factory calibration settings OR user defined
 117:../system/src/stm32l4-hal-driver/stm32l4xx_hal_dac.c ****            calibration (trimming) settings (i.e. trimming mode).
 118:../system/src/stm32l4-hal-driver/stm32l4xx_hal_dac.c ****        (++) The user defined settings can be figured out using self calibration
 119:../system/src/stm32l4-hal-driver/stm32l4xx_hal_dac.c ****            handled by HAL_DACEx_SelfCalibrate.
 120:../system/src/stm32l4-hal-driver/stm32l4xx_hal_dac.c ****        (++) HAL_DACEx_SelfCalibrate:
 121:../system/src/stm32l4-hal-driver/stm32l4xx_hal_dac.c ****        (+++) Runs automatically the calibration.
 122:../system/src/stm32l4-hal-driver/stm32l4xx_hal_dac.c ****        (+++) Enables the user trimming mode
 123:../system/src/stm32l4-hal-driver/stm32l4xx_hal_dac.c ****        (+++) Updates a structure with trimming values with fresh calibration
 124:../system/src/stm32l4-hal-driver/stm32l4xx_hal_dac.c ****             results.
 125:../system/src/stm32l4-hal-driver/stm32l4xx_hal_dac.c ****             The user may store the calibration results for larger
 126:../system/src/stm32l4-hal-driver/stm32l4xx_hal_dac.c ****             (ex monitoring the trimming as a function of temperature
 127:../system/src/stm32l4-hal-driver/stm32l4xx_hal_dac.c ****             for instance)
 128:../system/src/stm32l4-hal-driver/stm32l4xx_hal_dac.c **** 
 129:../system/src/stm32l4-hal-driver/stm32l4xx_hal_dac.c ****        *** DAC wave generation feature ***
 130:../system/src/stm32l4-hal-driver/stm32l4xx_hal_dac.c ****        ===================================
 131:../system/src/stm32l4-hal-driver/stm32l4xx_hal_dac.c ****        [..]
 132:../system/src/stm32l4-hal-driver/stm32l4xx_hal_dac.c ****        Both DAC channels can be used to generate
 133:../system/src/stm32l4-hal-driver/stm32l4xx_hal_dac.c ****          (#) Noise wave
 134:../system/src/stm32l4-hal-driver/stm32l4xx_hal_dac.c ****          (#) Triangle wave
 135:../system/src/stm32l4-hal-driver/stm32l4xx_hal_dac.c **** 
 136:../system/src/stm32l4-hal-driver/stm32l4xx_hal_dac.c ****        *** DAC data format ***
 137:../system/src/stm32l4-hal-driver/stm32l4xx_hal_dac.c ****        =======================
 138:../system/src/stm32l4-hal-driver/stm32l4xx_hal_dac.c ****        [..]
 139:../system/src/stm32l4-hal-driver/stm32l4xx_hal_dac.c ****        The DAC data format can be:
 140:../system/src/stm32l4-hal-driver/stm32l4xx_hal_dac.c ****          (#) 8-bit right alignment using DAC_ALIGN_8B_R
 141:../system/src/stm32l4-hal-driver/stm32l4xx_hal_dac.c ****          (#) 12-bit left alignment using DAC_ALIGN_12B_L
 142:../system/src/stm32l4-hal-driver/stm32l4xx_hal_dac.c ****          (#) 12-bit right alignment using DAC_ALIGN_12B_R
 143:../system/src/stm32l4-hal-driver/stm32l4xx_hal_dac.c **** 
 144:../system/src/stm32l4-hal-driver/stm32l4xx_hal_dac.c ****        *** DAC data value to voltage correspondence ***
 145:../system/src/stm32l4-hal-driver/stm32l4xx_hal_dac.c ****        ================================================
 146:../system/src/stm32l4-hal-driver/stm32l4xx_hal_dac.c ****        [..]
 147:../system/src/stm32l4-hal-driver/stm32l4xx_hal_dac.c ****        The analog output voltage on each DAC channel pin is determined
 148:../system/src/stm32l4-hal-driver/stm32l4xx_hal_dac.c ****        by the following equation:
 149:../system/src/stm32l4-hal-driver/stm32l4xx_hal_dac.c ****        [..]
 150:../system/src/stm32l4-hal-driver/stm32l4xx_hal_dac.c ****        DAC_OUTx = VREF+ * DOR / 4095
 151:../system/src/stm32l4-hal-driver/stm32l4xx_hal_dac.c ****        (+) with  DOR is the Data Output Register
 152:../system/src/stm32l4-hal-driver/stm32l4xx_hal_dac.c ****        [..]
 153:../system/src/stm32l4-hal-driver/stm32l4xx_hal_dac.c ****           VEF+ is the input voltage reference (refer to the device datasheet)
 154:../system/src/stm32l4-hal-driver/stm32l4xx_hal_dac.c ****        [..]
 155:../system/src/stm32l4-hal-driver/stm32l4xx_hal_dac.c ****         e.g. To set DAC_OUT1 to 0.7V, use
 156:../system/src/stm32l4-hal-driver/stm32l4xx_hal_dac.c ****        (+) Assuming that VREF+ = 3.3V, DAC_OUT1 = (3.3 * 868) / 4095 = 0.7V
 157:../system/src/stm32l4-hal-driver/stm32l4xx_hal_dac.c **** 
 158:../system/src/stm32l4-hal-driver/stm32l4xx_hal_dac.c ****        *** DMA requests ***
 159:../system/src/stm32l4-hal-driver/stm32l4xx_hal_dac.c ****        =====================
 160:../system/src/stm32l4-hal-driver/stm32l4xx_hal_dac.c ****        [..]
 161:../system/src/stm32l4-hal-driver/stm32l4xx_hal_dac.c ****        A DMA1 request can be generated when an external trigger (but not a software trigger)
 162:../system/src/stm32l4-hal-driver/stm32l4xx_hal_dac.c ****        occurs if DMA1 requests are enabled using HAL_DAC_Start_DMA().
 163:../system/src/stm32l4-hal-driver/stm32l4xx_hal_dac.c ****        DMA requests are mapped as following:
 164:../system/src/stm32l4-hal-driver/stm32l4xx_hal_dac.c ****        (#) When DMAMUX is NOT present: 
 165:../system/src/stm32l4-hal-driver/stm32l4xx_hal_dac.c ****            DMA1 requests are mapped as following:
 166:../system/src/stm32l4-hal-driver/stm32l4xx_hal_dac.c ****              (+) DAC channel1 mapped on DMA1 request 6 / channel3
 167:../system/src/stm32l4-hal-driver/stm32l4xx_hal_dac.c ****              (+) DAC channel2 mapped on DMA1 request 5 / channel4
 168:../system/src/stm32l4-hal-driver/stm32l4xx_hal_dac.c ****            DMA2 requests are mapped as following:
 169:../system/src/stm32l4-hal-driver/stm32l4xx_hal_dac.c ****              (+) DAC channel1 mapped on DMA2 request 3 / channel4
 170:../system/src/stm32l4-hal-driver/stm32l4xx_hal_dac.c ****              (+) DAC channel2 mapped on DMA2 request 3 / channel5
 171:../system/src/stm32l4-hal-driver/stm32l4xx_hal_dac.c ****        (#) When DMAMUX is present: 
 172:../system/src/stm32l4-hal-driver/stm32l4xx_hal_dac.c ****              (+) DAC channel1 mapped on DMA1/DMA2 request 6 (can be any DMA channel)
 173:../system/src/stm32l4-hal-driver/stm32l4xx_hal_dac.c ****              (+) DAC channel2 mapped on DMA1/DMA2 request 7 (can be any DMA channel)
 174:../system/src/stm32l4-hal-driver/stm32l4xx_hal_dac.c **** 
 175:../system/src/stm32l4-hal-driver/stm32l4xx_hal_dac.c ****        *** High frequency interface mode ***
 176:../system/src/stm32l4-hal-driver/stm32l4xx_hal_dac.c ****        =====================================
 177:../system/src/stm32l4-hal-driver/stm32l4xx_hal_dac.c ****        [..]
 178:../system/src/stm32l4-hal-driver/stm32l4xx_hal_dac.c ****        The high frequency interface informs DAC instance about the bus frequency in use.
 179:../system/src/stm32l4-hal-driver/stm32l4xx_hal_dac.c ****        It is mandatory information for DAC (as internal timing of DAC is bus frequency dependent)
 180:../system/src/stm32l4-hal-driver/stm32l4xx_hal_dac.c ****        provided thanks to parameter DAC_HighFrequency handled in HAL_DAC_ConfigChannel () function.
 181:../system/src/stm32l4-hal-driver/stm32l4xx_hal_dac.c ****        Use of DAC_HIGH_FREQUENCY_INTERFACE_MODE_AUTOMATIC value of DAC_HighFrequency is recommended
 182:../system/src/stm32l4-hal-driver/stm32l4xx_hal_dac.c ****        function figured out the correct setting.
 183:../system/src/stm32l4-hal-driver/stm32l4xx_hal_dac.c ****        The high frequency mode is same for all converters of a same DAC instance. Either same
 184:../system/src/stm32l4-hal-driver/stm32l4xx_hal_dac.c ****        parameter DAC_HighFrequency is used for all DAC converters or again self
 185:../system/src/stm32l4-hal-driver/stm32l4xx_hal_dac.c ****        DAC_HIGH_FREQUENCY_INTERFACE_MODE_AUTOMATIC detection parameter.
 186:../system/src/stm32l4-hal-driver/stm32l4xx_hal_dac.c **** 
 187:../system/src/stm32l4-hal-driver/stm32l4xx_hal_dac.c ****      [..]
 188:../system/src/stm32l4-hal-driver/stm32l4xx_hal_dac.c ****     (@) For Dual mode and specific signal (Triangle and noise) generation please
 189:../system/src/stm32l4-hal-driver/stm32l4xx_hal_dac.c ****         refer to Extended Features Driver description
 190:../system/src/stm32l4-hal-driver/stm32l4xx_hal_dac.c **** 
 191:../system/src/stm32l4-hal-driver/stm32l4xx_hal_dac.c ****                       ##### How to use this driver #####
 192:../system/src/stm32l4-hal-driver/stm32l4xx_hal_dac.c ****   ==============================================================================
 193:../system/src/stm32l4-hal-driver/stm32l4xx_hal_dac.c ****     [..]
 194:../system/src/stm32l4-hal-driver/stm32l4xx_hal_dac.c ****       (+) DAC APB clock must be enabled to get write access to DAC
 195:../system/src/stm32l4-hal-driver/stm32l4xx_hal_dac.c ****           registers using HAL_DAC_Init()
 196:../system/src/stm32l4-hal-driver/stm32l4xx_hal_dac.c ****       (+) Configure DAC_OUTx (DAC_OUT1: PA4, DAC_OUT2: PA5) in analog mode.
 197:../system/src/stm32l4-hal-driver/stm32l4xx_hal_dac.c ****       (+) Configure the DAC channel using HAL_DAC_ConfigChannel() function.
 198:../system/src/stm32l4-hal-driver/stm32l4xx_hal_dac.c ****       (+) Enable the DAC channel using HAL_DAC_Start() or HAL_DAC_Start_DMA() functions.
 199:../system/src/stm32l4-hal-driver/stm32l4xx_hal_dac.c **** 
 200:../system/src/stm32l4-hal-driver/stm32l4xx_hal_dac.c ****      *** Calibration mode IO operation ***
 201:../system/src/stm32l4-hal-driver/stm32l4xx_hal_dac.c ****      ======================================
 202:../system/src/stm32l4-hal-driver/stm32l4xx_hal_dac.c ****      [..]
 203:../system/src/stm32l4-hal-driver/stm32l4xx_hal_dac.c ****        (+) Retrieve the factory trimming (calibration settings) using HAL_DACEx_GetTrimOffset()
 204:../system/src/stm32l4-hal-driver/stm32l4xx_hal_dac.c ****        (+) Run the calibration using HAL_DACEx_SelfCalibrate()
 205:../system/src/stm32l4-hal-driver/stm32l4xx_hal_dac.c ****        (+) Update the trimming while DAC running using HAL_DACEx_SetUserTrimming()
 206:../system/src/stm32l4-hal-driver/stm32l4xx_hal_dac.c **** 
 207:../system/src/stm32l4-hal-driver/stm32l4xx_hal_dac.c ****      *** Polling mode IO operation ***
 208:../system/src/stm32l4-hal-driver/stm32l4xx_hal_dac.c ****      =================================
 209:../system/src/stm32l4-hal-driver/stm32l4xx_hal_dac.c ****      [..]
 210:../system/src/stm32l4-hal-driver/stm32l4xx_hal_dac.c ****        (+) Start the DAC peripheral using HAL_DAC_Start()
 211:../system/src/stm32l4-hal-driver/stm32l4xx_hal_dac.c ****        (+) To read the DAC last data output value, use the HAL_DAC_GetValue() function.
 212:../system/src/stm32l4-hal-driver/stm32l4xx_hal_dac.c ****        (+) Stop the DAC peripheral using HAL_DAC_Stop()
 213:../system/src/stm32l4-hal-driver/stm32l4xx_hal_dac.c **** 
 214:../system/src/stm32l4-hal-driver/stm32l4xx_hal_dac.c ****      *** DMA mode IO operation ***
 215:../system/src/stm32l4-hal-driver/stm32l4xx_hal_dac.c ****      ==============================
 216:../system/src/stm32l4-hal-driver/stm32l4xx_hal_dac.c ****      [..]
 217:../system/src/stm32l4-hal-driver/stm32l4xx_hal_dac.c ****        (+) Start the DAC peripheral using HAL_DAC_Start_DMA(), at this stage the user specify the l
 218:../system/src/stm32l4-hal-driver/stm32l4xx_hal_dac.c ****            of data to be transferred at each end of conversion
 219:../system/src/stm32l4-hal-driver/stm32l4xx_hal_dac.c ****            First issued trigger will start the conversion of the value previously set by HAL_DAC_Se
 220:../system/src/stm32l4-hal-driver/stm32l4xx_hal_dac.c ****        (+) At the middle of data transfer HAL_DAC_ConvHalfCpltCallbackCh1() or HAL_DACEx_ConvHalfCp
 221:../system/src/stm32l4-hal-driver/stm32l4xx_hal_dac.c ****            function is executed and user can add his own code by customization of function pointer
 222:../system/src/stm32l4-hal-driver/stm32l4xx_hal_dac.c ****            HAL_DAC_ConvHalfCpltCallbackCh1() or HAL_DACEx_ConvHalfCpltCallbackCh2()
 223:../system/src/stm32l4-hal-driver/stm32l4xx_hal_dac.c ****        (+) At The end of data transfer HAL_DAC_ConvCpltCallbackCh1() or HAL_DACEx_ConvHalfCpltCallb
 224:../system/src/stm32l4-hal-driver/stm32l4xx_hal_dac.c ****            function is executed and user can add his own code by customization of function pointer
 225:../system/src/stm32l4-hal-driver/stm32l4xx_hal_dac.c ****            HAL_DAC_ConvCpltCallbackCh1() or HAL_DACEx_ConvHalfCpltCallbackCh2()
 226:../system/src/stm32l4-hal-driver/stm32l4xx_hal_dac.c ****        (+) In case of transfer Error, HAL_DAC_ErrorCallbackCh1() function is executed and user can
 227:../system/src/stm32l4-hal-driver/stm32l4xx_hal_dac.c ****             add his own code by customization of function pointer HAL_DAC_ErrorCallbackCh1
 228:../system/src/stm32l4-hal-driver/stm32l4xx_hal_dac.c ****        (+) In case of DMA underrun, DAC interruption triggers and execute internal function HAL_DAC
 229:../system/src/stm32l4-hal-driver/stm32l4xx_hal_dac.c ****            HAL_DAC_DMAUnderrunCallbackCh1() or HAL_DACEx_DMAUnderrunCallbackCh2()
 230:../system/src/stm32l4-hal-driver/stm32l4xx_hal_dac.c ****            function is executed and user can add his own code by customization of function pointer
 231:../system/src/stm32l4-hal-driver/stm32l4xx_hal_dac.c ****            HAL_DAC_DMAUnderrunCallbackCh1() or HAL_DACEx_DMAUnderrunCallbackCh2() and
 232:../system/src/stm32l4-hal-driver/stm32l4xx_hal_dac.c ****            add his own code by customization of function pointer HAL_DAC_ErrorCallbackCh1()
 233:../system/src/stm32l4-hal-driver/stm32l4xx_hal_dac.c ****        (+) Stop the DAC peripheral using HAL_DAC_Stop_DMA()
 234:../system/src/stm32l4-hal-driver/stm32l4xx_hal_dac.c **** 
 235:../system/src/stm32l4-hal-driver/stm32l4xx_hal_dac.c ****     *** Callback registration ***
 236:../system/src/stm32l4-hal-driver/stm32l4xx_hal_dac.c ****     =============================================
 237:../system/src/stm32l4-hal-driver/stm32l4xx_hal_dac.c ****     [..]
 238:../system/src/stm32l4-hal-driver/stm32l4xx_hal_dac.c ****       The compilation define  USE_HAL_DAC_REGISTER_CALLBACKS when set to 1
 239:../system/src/stm32l4-hal-driver/stm32l4xx_hal_dac.c ****       allows the user to configure dynamically the driver callbacks.
 240:../system/src/stm32l4-hal-driver/stm32l4xx_hal_dac.c **** 
 241:../system/src/stm32l4-hal-driver/stm32l4xx_hal_dac.c ****     Use Functions @ref HAL_DAC_RegisterCallback() to register a user callback,
 242:../system/src/stm32l4-hal-driver/stm32l4xx_hal_dac.c ****       it allows to register following callbacks:
 243:../system/src/stm32l4-hal-driver/stm32l4xx_hal_dac.c ****       (+) ConvCpltCallbackCh1     : callback when a half transfer is completed on Ch1.
 244:../system/src/stm32l4-hal-driver/stm32l4xx_hal_dac.c ****       (+) ConvHalfCpltCallbackCh1 : callback when a transfer is completed on Ch1.
 245:../system/src/stm32l4-hal-driver/stm32l4xx_hal_dac.c ****       (+) ErrorCallbackCh1        : callback when an error occurs on Ch1.
 246:../system/src/stm32l4-hal-driver/stm32l4xx_hal_dac.c ****       (+) DMAUnderrunCallbackCh1  : callback when an underrun error occurs on Ch1.
 247:../system/src/stm32l4-hal-driver/stm32l4xx_hal_dac.c ****       (+) ConvCpltCallbackCh2     : callback when a half transfer is completed on Ch2.
 248:../system/src/stm32l4-hal-driver/stm32l4xx_hal_dac.c ****       (+) ConvHalfCpltCallbackCh2 : callback when a transfer is completed on Ch2.
 249:../system/src/stm32l4-hal-driver/stm32l4xx_hal_dac.c ****       (+) ErrorCallbackCh2        : callback when an error occurs on Ch2.
 250:../system/src/stm32l4-hal-driver/stm32l4xx_hal_dac.c ****       (+) DMAUnderrunCallbackCh2  : callback when an underrun error occurs on Ch2.
 251:../system/src/stm32l4-hal-driver/stm32l4xx_hal_dac.c ****       (+) MspInitCallback         : DAC MspInit.
 252:../system/src/stm32l4-hal-driver/stm32l4xx_hal_dac.c ****       (+) MspDeInitCallback       : DAC MspdeInit.
 253:../system/src/stm32l4-hal-driver/stm32l4xx_hal_dac.c ****       This function takes as parameters the HAL peripheral handle, the Callback ID
 254:../system/src/stm32l4-hal-driver/stm32l4xx_hal_dac.c ****       and a pointer to the user callback function.
 255:../system/src/stm32l4-hal-driver/stm32l4xx_hal_dac.c **** 
 256:../system/src/stm32l4-hal-driver/stm32l4xx_hal_dac.c ****     Use function @ref HAL_DAC_UnRegisterCallback() to reset a callback to the default
 257:../system/src/stm32l4-hal-driver/stm32l4xx_hal_dac.c ****       weak (surcharged) function. It allows to reset following callbacks:
 258:../system/src/stm32l4-hal-driver/stm32l4xx_hal_dac.c ****       (+) ConvCpltCallbackCh1     : callback when a half transfer is completed on Ch1.
 259:../system/src/stm32l4-hal-driver/stm32l4xx_hal_dac.c ****       (+) ConvHalfCpltCallbackCh1 : callback when a transfer is completed on Ch1.
 260:../system/src/stm32l4-hal-driver/stm32l4xx_hal_dac.c ****       (+) ErrorCallbackCh1        : callback when an error occurs on Ch1.
 261:../system/src/stm32l4-hal-driver/stm32l4xx_hal_dac.c ****       (+) DMAUnderrunCallbackCh1  : callback when an underrun error occurs on Ch1.
 262:../system/src/stm32l4-hal-driver/stm32l4xx_hal_dac.c ****       (+) ConvCpltCallbackCh2     : callback when a half transfer is completed on Ch2.
 263:../system/src/stm32l4-hal-driver/stm32l4xx_hal_dac.c ****       (+) ConvHalfCpltCallbackCh2 : callback when a transfer is completed on Ch2.
 264:../system/src/stm32l4-hal-driver/stm32l4xx_hal_dac.c ****       (+) ErrorCallbackCh2        : callback when an error occurs on Ch2.
 265:../system/src/stm32l4-hal-driver/stm32l4xx_hal_dac.c ****       (+) DMAUnderrunCallbackCh2  : callback when an underrun error occurs on Ch2.
 266:../system/src/stm32l4-hal-driver/stm32l4xx_hal_dac.c ****       (+) MspInitCallback         : DAC MspInit.
 267:../system/src/stm32l4-hal-driver/stm32l4xx_hal_dac.c ****       (+) MspDeInitCallback       : DAC MspdeInit.
 268:../system/src/stm32l4-hal-driver/stm32l4xx_hal_dac.c ****       (+) All Callbacks
 269:../system/src/stm32l4-hal-driver/stm32l4xx_hal_dac.c ****       This function) takes as parameters the HAL peripheral handle and the Callback ID.
 270:../system/src/stm32l4-hal-driver/stm32l4xx_hal_dac.c **** 
 271:../system/src/stm32l4-hal-driver/stm32l4xx_hal_dac.c ****       By default, after the @ref HAL_DAC_Init and if the state is HAL_DAC_STATE_RESET
 272:../system/src/stm32l4-hal-driver/stm32l4xx_hal_dac.c ****       all callbacks are reset to the corresponding legacy weak (surcharged) functions.
 273:../system/src/stm32l4-hal-driver/stm32l4xx_hal_dac.c ****       Exception done for MspInit and MspDeInit callbacks that are respectively
 274:../system/src/stm32l4-hal-driver/stm32l4xx_hal_dac.c ****       reset to the legacy weak (surcharged) functions in the @ref HAL_DAC_Init
 275:../system/src/stm32l4-hal-driver/stm32l4xx_hal_dac.c ****       and @ref  HAL_DAC_DeInit only when these callbacks are null (not registered beforehand).
 276:../system/src/stm32l4-hal-driver/stm32l4xx_hal_dac.c ****       If not, MspInit or MspDeInit are not null, the @ref HAL_DAC_Init and @ref HAL_DAC_DeInit
 277:../system/src/stm32l4-hal-driver/stm32l4xx_hal_dac.c ****       keep and use the user MspInit/MspDeInit callbacks (registered beforehand)
 278:../system/src/stm32l4-hal-driver/stm32l4xx_hal_dac.c **** 
 279:../system/src/stm32l4-hal-driver/stm32l4xx_hal_dac.c ****       Callbacks can be registered/unregistered in READY state only.
 280:../system/src/stm32l4-hal-driver/stm32l4xx_hal_dac.c ****       Exception done for MspInit/MspDeInit callbacks that can be registered/unregistered
 281:../system/src/stm32l4-hal-driver/stm32l4xx_hal_dac.c ****       in READY or RESET state, thus registered (user) MspInit/DeInit callbacks can be used
 282:../system/src/stm32l4-hal-driver/stm32l4xx_hal_dac.c ****       during the Init/DeInit.
 283:../system/src/stm32l4-hal-driver/stm32l4xx_hal_dac.c ****       In that case first register the MspInit/MspDeInit user callbacks
 284:../system/src/stm32l4-hal-driver/stm32l4xx_hal_dac.c ****       using @ref HAL_DAC_RegisterCallback before calling @ref HAL_DAC_DeInit
 285:../system/src/stm32l4-hal-driver/stm32l4xx_hal_dac.c ****       or @ref HAL_DAC_Init function.
 286:../system/src/stm32l4-hal-driver/stm32l4xx_hal_dac.c **** 
 287:../system/src/stm32l4-hal-driver/stm32l4xx_hal_dac.c ****       When The compilation define USE_HAL_DAC_REGISTER_CALLBACKS is set to 0 or
 288:../system/src/stm32l4-hal-driver/stm32l4xx_hal_dac.c ****       not defined, the callback registering feature is not available
 289:../system/src/stm32l4-hal-driver/stm32l4xx_hal_dac.c ****       and weak (surcharged) callbacks are used.
 290:../system/src/stm32l4-hal-driver/stm32l4xx_hal_dac.c **** 
 291:../system/src/stm32l4-hal-driver/stm32l4xx_hal_dac.c ****      *** DAC HAL driver macros list ***
 292:../system/src/stm32l4-hal-driver/stm32l4xx_hal_dac.c ****      =============================================
 293:../system/src/stm32l4-hal-driver/stm32l4xx_hal_dac.c ****      [..]
 294:../system/src/stm32l4-hal-driver/stm32l4xx_hal_dac.c ****        Below the list of most used macros in DAC HAL driver.
 295:../system/src/stm32l4-hal-driver/stm32l4xx_hal_dac.c **** 
 296:../system/src/stm32l4-hal-driver/stm32l4xx_hal_dac.c ****       (+) __HAL_DAC_ENABLE : Enable the DAC peripheral
 297:../system/src/stm32l4-hal-driver/stm32l4xx_hal_dac.c ****       (+) __HAL_DAC_DISABLE : Disable the DAC peripheral
 298:../system/src/stm32l4-hal-driver/stm32l4xx_hal_dac.c ****       (+) __HAL_DAC_CLEAR_FLAG: Clear the DAC's pending flags
 299:../system/src/stm32l4-hal-driver/stm32l4xx_hal_dac.c ****       (+) __HAL_DAC_GET_FLAG: Get the selected DAC's flag status
 300:../system/src/stm32l4-hal-driver/stm32l4xx_hal_dac.c **** 
 301:../system/src/stm32l4-hal-driver/stm32l4xx_hal_dac.c ****      [..]
 302:../system/src/stm32l4-hal-driver/stm32l4xx_hal_dac.c ****       (@) You can refer to the DAC HAL driver header file for more useful macros
 303:../system/src/stm32l4-hal-driver/stm32l4xx_hal_dac.c **** 
 304:../system/src/stm32l4-hal-driver/stm32l4xx_hal_dac.c ****  @endverbatim
 305:../system/src/stm32l4-hal-driver/stm32l4xx_hal_dac.c ****   ******************************************************************************
 306:../system/src/stm32l4-hal-driver/stm32l4xx_hal_dac.c ****   * @attention
 307:../system/src/stm32l4-hal-driver/stm32l4xx_hal_dac.c ****   *
 308:../system/src/stm32l4-hal-driver/stm32l4xx_hal_dac.c ****   * <h2><center>&copy; Copyright (c) 2017 STMicroelectronics.
 309:../system/src/stm32l4-hal-driver/stm32l4xx_hal_dac.c ****   * All rights reserved.</center></h2>
 310:../system/src/stm32l4-hal-driver/stm32l4xx_hal_dac.c ****   *
 311:../system/src/stm32l4-hal-driver/stm32l4xx_hal_dac.c ****   * This software component is licensed by ST under BSD 3-Clause license,
 312:../system/src/stm32l4-hal-driver/stm32l4xx_hal_dac.c ****   * the "License"; You may not use this file except in compliance with the
 313:../system/src/stm32l4-hal-driver/stm32l4xx_hal_dac.c ****   * License. You may obtain a copy of the License at:
 314:../system/src/stm32l4-hal-driver/stm32l4xx_hal_dac.c ****   *                        opensource.org/licenses/BSD-3-Clause
 315:../system/src/stm32l4-hal-driver/stm32l4xx_hal_dac.c ****   *
 316:../system/src/stm32l4-hal-driver/stm32l4xx_hal_dac.c ****   ******************************************************************************
 317:../system/src/stm32l4-hal-driver/stm32l4xx_hal_dac.c ****   */
 318:../system/src/stm32l4-hal-driver/stm32l4xx_hal_dac.c **** 
 319:../system/src/stm32l4-hal-driver/stm32l4xx_hal_dac.c **** /* Includes ------------------------------------------------------------------*/
 320:../system/src/stm32l4-hal-driver/stm32l4xx_hal_dac.c **** #include "stm32l4xx_hal.h"
 321:../system/src/stm32l4-hal-driver/stm32l4xx_hal_dac.c **** 
 322:../system/src/stm32l4-hal-driver/stm32l4xx_hal_dac.c **** /** @addtogroup STM32L4xx_HAL_Driver
 323:../system/src/stm32l4-hal-driver/stm32l4xx_hal_dac.c ****   * @{
 324:../system/src/stm32l4-hal-driver/stm32l4xx_hal_dac.c ****   */
 325:../system/src/stm32l4-hal-driver/stm32l4xx_hal_dac.c **** 
 326:../system/src/stm32l4-hal-driver/stm32l4xx_hal_dac.c **** #ifdef HAL_DAC_MODULE_ENABLED
 327:../system/src/stm32l4-hal-driver/stm32l4xx_hal_dac.c **** #if defined(DAC1)
 328:../system/src/stm32l4-hal-driver/stm32l4xx_hal_dac.c **** 
 329:../system/src/stm32l4-hal-driver/stm32l4xx_hal_dac.c ****   /** @defgroup DAC DAC
 330:../system/src/stm32l4-hal-driver/stm32l4xx_hal_dac.c ****   * @brief DAC driver modules
 331:../system/src/stm32l4-hal-driver/stm32l4xx_hal_dac.c ****   * @{
 332:../system/src/stm32l4-hal-driver/stm32l4xx_hal_dac.c ****   */
 333:../system/src/stm32l4-hal-driver/stm32l4xx_hal_dac.c **** 
 334:../system/src/stm32l4-hal-driver/stm32l4xx_hal_dac.c **** /* Private typedef -----------------------------------------------------------*/
 335:../system/src/stm32l4-hal-driver/stm32l4xx_hal_dac.c **** /* Private define ------------------------------------------------------------*/
 336:../system/src/stm32l4-hal-driver/stm32l4xx_hal_dac.c **** /* Private constants ---------------------------------------------------------*/
 337:../system/src/stm32l4-hal-driver/stm32l4xx_hal_dac.c **** /** @addtogroup DAC_Private_Constants DAC Private Constants
 338:../system/src/stm32l4-hal-driver/stm32l4xx_hal_dac.c ****   * @{
 339:../system/src/stm32l4-hal-driver/stm32l4xx_hal_dac.c ****   */
 340:../system/src/stm32l4-hal-driver/stm32l4xx_hal_dac.c **** #define TIMEOUT_DAC_CALIBCONFIG        1U         /* 1   ms        */
 341:../system/src/stm32l4-hal-driver/stm32l4xx_hal_dac.c **** #define HFSEL_ENABLE_THRESHOLD_80MHZ   80000000U  /* 80 MHz        */
 342:../system/src/stm32l4-hal-driver/stm32l4xx_hal_dac.c **** 
 343:../system/src/stm32l4-hal-driver/stm32l4xx_hal_dac.c **** /**
 344:../system/src/stm32l4-hal-driver/stm32l4xx_hal_dac.c ****   * @}
 345:../system/src/stm32l4-hal-driver/stm32l4xx_hal_dac.c ****   */
 346:../system/src/stm32l4-hal-driver/stm32l4xx_hal_dac.c **** 
 347:../system/src/stm32l4-hal-driver/stm32l4xx_hal_dac.c **** /* Private macro -------------------------------------------------------------*/
 348:../system/src/stm32l4-hal-driver/stm32l4xx_hal_dac.c **** /* Private variables ---------------------------------------------------------*/
 349:../system/src/stm32l4-hal-driver/stm32l4xx_hal_dac.c **** /* Private function prototypes -----------------------------------------------*/
 350:../system/src/stm32l4-hal-driver/stm32l4xx_hal_dac.c **** /* Exported functions -------------------------------------------------------*/
 351:../system/src/stm32l4-hal-driver/stm32l4xx_hal_dac.c **** 
 352:../system/src/stm32l4-hal-driver/stm32l4xx_hal_dac.c **** /** @defgroup DAC_Exported_Functions DAC Exported Functions
 353:../system/src/stm32l4-hal-driver/stm32l4xx_hal_dac.c ****   * @{
 354:../system/src/stm32l4-hal-driver/stm32l4xx_hal_dac.c ****   */
 355:../system/src/stm32l4-hal-driver/stm32l4xx_hal_dac.c **** 
 356:../system/src/stm32l4-hal-driver/stm32l4xx_hal_dac.c **** /** @defgroup DAC_Exported_Functions_Group1 Initialization and de-initialization functions
 357:../system/src/stm32l4-hal-driver/stm32l4xx_hal_dac.c ****  *  @brief    Initialization and Configuration functions
 358:../system/src/stm32l4-hal-driver/stm32l4xx_hal_dac.c ****  *
 359:../system/src/stm32l4-hal-driver/stm32l4xx_hal_dac.c **** @verbatim
 360:../system/src/stm32l4-hal-driver/stm32l4xx_hal_dac.c ****   ==============================================================================
 361:../system/src/stm32l4-hal-driver/stm32l4xx_hal_dac.c ****               ##### Initialization and de-initialization functions #####
 362:../system/src/stm32l4-hal-driver/stm32l4xx_hal_dac.c ****   ==============================================================================
 363:../system/src/stm32l4-hal-driver/stm32l4xx_hal_dac.c ****     [..]  This section provides functions allowing to:
 364:../system/src/stm32l4-hal-driver/stm32l4xx_hal_dac.c ****       (+) Initialize and configure the DAC.
 365:../system/src/stm32l4-hal-driver/stm32l4xx_hal_dac.c ****       (+) De-initialize the DAC.
 366:../system/src/stm32l4-hal-driver/stm32l4xx_hal_dac.c **** 
 367:../system/src/stm32l4-hal-driver/stm32l4xx_hal_dac.c **** @endverbatim
 368:../system/src/stm32l4-hal-driver/stm32l4xx_hal_dac.c ****   * @{
 369:../system/src/stm32l4-hal-driver/stm32l4xx_hal_dac.c ****   */
 370:../system/src/stm32l4-hal-driver/stm32l4xx_hal_dac.c **** 
 371:../system/src/stm32l4-hal-driver/stm32l4xx_hal_dac.c **** /**
 372:../system/src/stm32l4-hal-driver/stm32l4xx_hal_dac.c ****   * @brief  Initialize the DAC peripheral according to the specified parameters
 373:../system/src/stm32l4-hal-driver/stm32l4xx_hal_dac.c ****   *         in the DAC_InitStruct and initialize the associated handle.
 374:../system/src/stm32l4-hal-driver/stm32l4xx_hal_dac.c ****   * @param  hdac pointer to a DAC_HandleTypeDef structure that contains
 375:../system/src/stm32l4-hal-driver/stm32l4xx_hal_dac.c ****   *         the configuration information for the specified DAC.
 376:../system/src/stm32l4-hal-driver/stm32l4xx_hal_dac.c ****   * @retval HAL status
 377:../system/src/stm32l4-hal-driver/stm32l4xx_hal_dac.c ****   */
 378:../system/src/stm32l4-hal-driver/stm32l4xx_hal_dac.c **** HAL_StatusTypeDef HAL_DAC_Init(DAC_HandleTypeDef *hdac)
 379:../system/src/stm32l4-hal-driver/stm32l4xx_hal_dac.c **** {
 380:../system/src/stm32l4-hal-driver/stm32l4xx_hal_dac.c ****   /* Check DAC handle */
 381:../system/src/stm32l4-hal-driver/stm32l4xx_hal_dac.c ****   if (hdac == NULL)
 382:../system/src/stm32l4-hal-driver/stm32l4xx_hal_dac.c ****   {
 383:../system/src/stm32l4-hal-driver/stm32l4xx_hal_dac.c ****      return HAL_ERROR;
 384:../system/src/stm32l4-hal-driver/stm32l4xx_hal_dac.c ****   }
 385:../system/src/stm32l4-hal-driver/stm32l4xx_hal_dac.c ****   /* Check the parameters */
 386:../system/src/stm32l4-hal-driver/stm32l4xx_hal_dac.c ****   assert_param(IS_DAC_ALL_INSTANCE(hdac->Instance));
 387:../system/src/stm32l4-hal-driver/stm32l4xx_hal_dac.c **** 
 388:../system/src/stm32l4-hal-driver/stm32l4xx_hal_dac.c ****   if (hdac->State == HAL_DAC_STATE_RESET)
 389:../system/src/stm32l4-hal-driver/stm32l4xx_hal_dac.c ****   {
 390:../system/src/stm32l4-hal-driver/stm32l4xx_hal_dac.c **** #if (USE_HAL_DAC_REGISTER_CALLBACKS == 1)
 391:../system/src/stm32l4-hal-driver/stm32l4xx_hal_dac.c ****     /* Init the DAC Callback settings */
 392:../system/src/stm32l4-hal-driver/stm32l4xx_hal_dac.c ****     hdac->ConvCpltCallbackCh1           = HAL_DAC_ConvCpltCallbackCh1;
 393:../system/src/stm32l4-hal-driver/stm32l4xx_hal_dac.c ****     hdac->ConvHalfCpltCallbackCh1       = HAL_DAC_ConvHalfCpltCallbackCh1;
 394:../system/src/stm32l4-hal-driver/stm32l4xx_hal_dac.c ****     hdac->ErrorCallbackCh1              = HAL_DAC_ErrorCallbackCh1;
 395:../system/src/stm32l4-hal-driver/stm32l4xx_hal_dac.c ****     hdac->DMAUnderrunCallbackCh1        = HAL_DAC_DMAUnderrunCallbackCh1;
 396:../system/src/stm32l4-hal-driver/stm32l4xx_hal_dac.c **** 
 397:../system/src/stm32l4-hal-driver/stm32l4xx_hal_dac.c **** #if defined (STM32L431xx) || defined (STM32L432xx) || defined (STM32L433xx) || defined (STM32L442xx
 398:../system/src/stm32l4-hal-driver/stm32l4xx_hal_dac.c ****     defined (STM32L471xx) || defined (STM32L475xx) || defined (STM32L476xx) || defined (STM32L485xx
 399:../system/src/stm32l4-hal-driver/stm32l4xx_hal_dac.c ****     defined (STM32L4P5xx) || defined (STM32L4Q5xx) || \
 400:../system/src/stm32l4-hal-driver/stm32l4xx_hal_dac.c ****     defined (STM32L4R5xx) || defined (STM32L4R7xx) || defined (STM32L4R9xx) || defined (STM32L4S5xx
 401:../system/src/stm32l4-hal-driver/stm32l4xx_hal_dac.c ****     hdac->ConvCpltCallbackCh2           = HAL_DACEx_ConvCpltCallbackCh2;
 402:../system/src/stm32l4-hal-driver/stm32l4xx_hal_dac.c ****     hdac->ConvHalfCpltCallbackCh2       = HAL_DACEx_ConvHalfCpltCallbackCh2;
 403:../system/src/stm32l4-hal-driver/stm32l4xx_hal_dac.c ****     hdac->ErrorCallbackCh2              = HAL_DACEx_ErrorCallbackCh2;
 404:../system/src/stm32l4-hal-driver/stm32l4xx_hal_dac.c ****     hdac->DMAUnderrunCallbackCh2        = HAL_DACEx_DMAUnderrunCallbackCh2;
 405:../system/src/stm32l4-hal-driver/stm32l4xx_hal_dac.c **** #endif  /* STM32L431xx STM32L432xx STM32L433xx STM32L442xx STM32L443xx                         */
 406:../system/src/stm32l4-hal-driver/stm32l4xx_hal_dac.c ****         /* STM32L471xx STM32L475xx STM32L476xx STM32L485xx STM32L486xx STM32L496xx STM32L4A6xx */
 407:../system/src/stm32l4-hal-driver/stm32l4xx_hal_dac.c ****         /* STM32L4P5xx STM32L4Q5xx                                                             */
 408:../system/src/stm32l4-hal-driver/stm32l4xx_hal_dac.c ****         /* STM32L4R5xx STM32L4R7xx STM32L4R9xx STM32L4S5xx STM32L4S7xx STM32L4S9xx             */
 409:../system/src/stm32l4-hal-driver/stm32l4xx_hal_dac.c ****     
 410:../system/src/stm32l4-hal-driver/stm32l4xx_hal_dac.c ****     if (hdac->MspInitCallback == NULL)
 411:../system/src/stm32l4-hal-driver/stm32l4xx_hal_dac.c ****     {
 412:../system/src/stm32l4-hal-driver/stm32l4xx_hal_dac.c ****       hdac->MspInitCallback             = HAL_DAC_MspInit;
 413:../system/src/stm32l4-hal-driver/stm32l4xx_hal_dac.c ****     }
 414:../system/src/stm32l4-hal-driver/stm32l4xx_hal_dac.c **** #endif /* USE_HAL_DAC_REGISTER_CALLBACKS */
 415:../system/src/stm32l4-hal-driver/stm32l4xx_hal_dac.c **** 
 416:../system/src/stm32l4-hal-driver/stm32l4xx_hal_dac.c ****     /* Allocate lock resource and initialize it */
 417:../system/src/stm32l4-hal-driver/stm32l4xx_hal_dac.c ****     hdac->Lock = HAL_UNLOCKED;
 418:../system/src/stm32l4-hal-driver/stm32l4xx_hal_dac.c **** 
 419:../system/src/stm32l4-hal-driver/stm32l4xx_hal_dac.c **** #if (USE_HAL_DAC_REGISTER_CALLBACKS == 1)
 420:../system/src/stm32l4-hal-driver/stm32l4xx_hal_dac.c ****     /* Init the low level hardware */
 421:../system/src/stm32l4-hal-driver/stm32l4xx_hal_dac.c ****     hdac->MspInitCallback(hdac);
 422:../system/src/stm32l4-hal-driver/stm32l4xx_hal_dac.c **** #else
 423:../system/src/stm32l4-hal-driver/stm32l4xx_hal_dac.c ****     /* Init the low level hardware */
 424:../system/src/stm32l4-hal-driver/stm32l4xx_hal_dac.c ****     HAL_DAC_MspInit(hdac);
 425:../system/src/stm32l4-hal-driver/stm32l4xx_hal_dac.c **** #endif /* USE_HAL_DAC_REGISTER_CALLBACKS */
 426:../system/src/stm32l4-hal-driver/stm32l4xx_hal_dac.c ****   }
 427:../system/src/stm32l4-hal-driver/stm32l4xx_hal_dac.c **** 
 428:../system/src/stm32l4-hal-driver/stm32l4xx_hal_dac.c ****   /* Initialize the DAC state*/
 429:../system/src/stm32l4-hal-driver/stm32l4xx_hal_dac.c ****   hdac->State = HAL_DAC_STATE_BUSY;
 430:../system/src/stm32l4-hal-driver/stm32l4xx_hal_dac.c **** 
 431:../system/src/stm32l4-hal-driver/stm32l4xx_hal_dac.c ****   /* Set DAC error code to none */
 432:../system/src/stm32l4-hal-driver/stm32l4xx_hal_dac.c ****   hdac->ErrorCode = HAL_DAC_ERROR_NONE;
 433:../system/src/stm32l4-hal-driver/stm32l4xx_hal_dac.c **** 
 434:../system/src/stm32l4-hal-driver/stm32l4xx_hal_dac.c ****   /* Initialize the DAC state*/
 435:../system/src/stm32l4-hal-driver/stm32l4xx_hal_dac.c ****   hdac->State = HAL_DAC_STATE_READY;
 436:../system/src/stm32l4-hal-driver/stm32l4xx_hal_dac.c **** 
 437:../system/src/stm32l4-hal-driver/stm32l4xx_hal_dac.c ****   /* Return function status */
 438:../system/src/stm32l4-hal-driver/stm32l4xx_hal_dac.c ****   return HAL_OK;
 439:../system/src/stm32l4-hal-driver/stm32l4xx_hal_dac.c **** }
 440:../system/src/stm32l4-hal-driver/stm32l4xx_hal_dac.c **** 
 441:../system/src/stm32l4-hal-driver/stm32l4xx_hal_dac.c **** /**
 442:../system/src/stm32l4-hal-driver/stm32l4xx_hal_dac.c ****   * @brief  Deinitialize the DAC peripheral registers to their default reset values.
 443:../system/src/stm32l4-hal-driver/stm32l4xx_hal_dac.c ****   * @param  hdac pointer to a DAC_HandleTypeDef structure that contains
 444:../system/src/stm32l4-hal-driver/stm32l4xx_hal_dac.c ****   *         the configuration information for the specified DAC.
 445:../system/src/stm32l4-hal-driver/stm32l4xx_hal_dac.c ****   * @retval HAL status
 446:../system/src/stm32l4-hal-driver/stm32l4xx_hal_dac.c ****   */
 447:../system/src/stm32l4-hal-driver/stm32l4xx_hal_dac.c **** HAL_StatusTypeDef HAL_DAC_DeInit(DAC_HandleTypeDef *hdac)
 448:../system/src/stm32l4-hal-driver/stm32l4xx_hal_dac.c **** {
 449:../system/src/stm32l4-hal-driver/stm32l4xx_hal_dac.c ****   /* Check DAC handle */
 450:../system/src/stm32l4-hal-driver/stm32l4xx_hal_dac.c ****   if (hdac == NULL)
 451:../system/src/stm32l4-hal-driver/stm32l4xx_hal_dac.c ****   {
 452:../system/src/stm32l4-hal-driver/stm32l4xx_hal_dac.c ****     return HAL_ERROR;
 453:../system/src/stm32l4-hal-driver/stm32l4xx_hal_dac.c ****   }
 454:../system/src/stm32l4-hal-driver/stm32l4xx_hal_dac.c **** 
 455:../system/src/stm32l4-hal-driver/stm32l4xx_hal_dac.c ****   /* Check the parameters */
 456:../system/src/stm32l4-hal-driver/stm32l4xx_hal_dac.c ****   assert_param(IS_DAC_ALL_INSTANCE(hdac->Instance));
 457:../system/src/stm32l4-hal-driver/stm32l4xx_hal_dac.c **** 
 458:../system/src/stm32l4-hal-driver/stm32l4xx_hal_dac.c ****   /* Change DAC state */
 459:../system/src/stm32l4-hal-driver/stm32l4xx_hal_dac.c ****   hdac->State = HAL_DAC_STATE_BUSY;
 460:../system/src/stm32l4-hal-driver/stm32l4xx_hal_dac.c **** 
 461:../system/src/stm32l4-hal-driver/stm32l4xx_hal_dac.c **** #if (USE_HAL_DAC_REGISTER_CALLBACKS == 1)
 462:../system/src/stm32l4-hal-driver/stm32l4xx_hal_dac.c ****   if (hdac->MspDeInitCallback == NULL)
 463:../system/src/stm32l4-hal-driver/stm32l4xx_hal_dac.c ****   {
 464:../system/src/stm32l4-hal-driver/stm32l4xx_hal_dac.c ****     hdac->MspDeInitCallback = HAL_DAC_MspDeInit;
 465:../system/src/stm32l4-hal-driver/stm32l4xx_hal_dac.c ****   }
 466:../system/src/stm32l4-hal-driver/stm32l4xx_hal_dac.c ****   /* DeInit the low level hardware */
 467:../system/src/stm32l4-hal-driver/stm32l4xx_hal_dac.c ****   hdac->MspDeInitCallback(hdac);
 468:../system/src/stm32l4-hal-driver/stm32l4xx_hal_dac.c **** #else
 469:../system/src/stm32l4-hal-driver/stm32l4xx_hal_dac.c ****   /* DeInit the low level hardware */
 470:../system/src/stm32l4-hal-driver/stm32l4xx_hal_dac.c ****   HAL_DAC_MspDeInit(hdac);
 471:../system/src/stm32l4-hal-driver/stm32l4xx_hal_dac.c **** #endif /* USE_HAL_DAC_REGISTER_CALLBACKS */
 472:../system/src/stm32l4-hal-driver/stm32l4xx_hal_dac.c **** 
 473:../system/src/stm32l4-hal-driver/stm32l4xx_hal_dac.c ****   /* Set DAC error code to none */
 474:../system/src/stm32l4-hal-driver/stm32l4xx_hal_dac.c ****   hdac->ErrorCode = HAL_DAC_ERROR_NONE;
 475:../system/src/stm32l4-hal-driver/stm32l4xx_hal_dac.c **** 
 476:../system/src/stm32l4-hal-driver/stm32l4xx_hal_dac.c ****   /* Change DAC state */
 477:../system/src/stm32l4-hal-driver/stm32l4xx_hal_dac.c ****   hdac->State = HAL_DAC_STATE_RESET;
 478:../system/src/stm32l4-hal-driver/stm32l4xx_hal_dac.c **** 
 479:../system/src/stm32l4-hal-driver/stm32l4xx_hal_dac.c ****   /* Release Lock */
 480:../system/src/stm32l4-hal-driver/stm32l4xx_hal_dac.c ****   __HAL_UNLOCK(hdac);
 481:../system/src/stm32l4-hal-driver/stm32l4xx_hal_dac.c **** 
 482:../system/src/stm32l4-hal-driver/stm32l4xx_hal_dac.c ****   /* Return function status */
 483:../system/src/stm32l4-hal-driver/stm32l4xx_hal_dac.c ****   return HAL_OK;
 484:../system/src/stm32l4-hal-driver/stm32l4xx_hal_dac.c **** }
 485:../system/src/stm32l4-hal-driver/stm32l4xx_hal_dac.c **** 
 486:../system/src/stm32l4-hal-driver/stm32l4xx_hal_dac.c **** /**
 487:../system/src/stm32l4-hal-driver/stm32l4xx_hal_dac.c ****   * @brief  Initialize the DAC MSP.
 488:../system/src/stm32l4-hal-driver/stm32l4xx_hal_dac.c ****   * @param  hdac pointer to a DAC_HandleTypeDef structure that contains
 489:../system/src/stm32l4-hal-driver/stm32l4xx_hal_dac.c ****   *         the configuration information for the specified DAC.
 490:../system/src/stm32l4-hal-driver/stm32l4xx_hal_dac.c ****   * @retval None
 491:../system/src/stm32l4-hal-driver/stm32l4xx_hal_dac.c ****   */
 492:../system/src/stm32l4-hal-driver/stm32l4xx_hal_dac.c **** __weak void HAL_DAC_MspInit(DAC_HandleTypeDef *hdac)
 493:../system/src/stm32l4-hal-driver/stm32l4xx_hal_dac.c **** {
  28              		.loc 1 493 0
  29              		.cfi_startproc
  30              		@ args = 0, pretend = 0, frame = 0
  31              		@ frame_needed = 0, uses_anonymous_args = 0
  32              		@ link register save eliminated.
  33              	.LVL0:
 494:../system/src/stm32l4-hal-driver/stm32l4xx_hal_dac.c ****   /* Prevent unused argument(s) compilation warning */
 495:../system/src/stm32l4-hal-driver/stm32l4xx_hal_dac.c ****   UNUSED(hdac);
 496:../system/src/stm32l4-hal-driver/stm32l4xx_hal_dac.c **** 
 497:../system/src/stm32l4-hal-driver/stm32l4xx_hal_dac.c ****   /* NOTE : This function should not be modified, when the callback is needed,
 498:../system/src/stm32l4-hal-driver/stm32l4xx_hal_dac.c ****             the HAL_DAC_MspInit could be implemented in the user file
 499:../system/src/stm32l4-hal-driver/stm32l4xx_hal_dac.c ****    */
 500:../system/src/stm32l4-hal-driver/stm32l4xx_hal_dac.c **** }
  34              		.loc 1 500 0
  35 0000 7047     		bx	lr
  36              		.cfi_endproc
  37              	.LFE319:
  39              		.section	.text.HAL_DAC_Init,"ax",%progbits
  40              		.align	1
  41              		.global	HAL_DAC_Init
  42              		.syntax unified
  43              		.thumb
  44              		.thumb_func
  45              		.fpu fpv4-sp-d16
  47              	HAL_DAC_Init:
  48              	.LFB317:
 379:../system/src/stm32l4-hal-driver/stm32l4xx_hal_dac.c ****   /* Check DAC handle */
  49              		.loc 1 379 0
  50              		.cfi_startproc
  51              		@ args = 0, pretend = 0, frame = 0
  52              		@ frame_needed = 0, uses_anonymous_args = 0
  53              	.LVL1:
 381:../system/src/stm32l4-hal-driver/stm32l4xx_hal_dac.c ****   {
  54              		.loc 1 381 0
  55 0000 70B1     		cbz	r0, .L5
 379:../system/src/stm32l4-hal-driver/stm32l4xx_hal_dac.c ****   /* Check DAC handle */
  56              		.loc 1 379 0
  57 0002 10B5     		push	{r4, lr}
  58              		.cfi_def_cfa_offset 8
  59              		.cfi_offset 4, -8
  60              		.cfi_offset 14, -4
  61 0004 0446     		mov	r4, r0
 388:../system/src/stm32l4-hal-driver/stm32l4xx_hal_dac.c ****   {
  62              		.loc 1 388 0
  63 0006 0379     		ldrb	r3, [r0, #4]	@ zero_extendqisi2
  64 0008 33B1     		cbz	r3, .L10
  65              	.LVL2:
  66              	.L4:
 429:../system/src/stm32l4-hal-driver/stm32l4xx_hal_dac.c **** 
  67              		.loc 1 429 0
  68 000a 0223     		movs	r3, #2
  69 000c 2371     		strb	r3, [r4, #4]
 432:../system/src/stm32l4-hal-driver/stm32l4xx_hal_dac.c **** 
  70              		.loc 1 432 0
  71 000e 0020     		movs	r0, #0
  72 0010 2061     		str	r0, [r4, #16]
 435:../system/src/stm32l4-hal-driver/stm32l4xx_hal_dac.c **** 
  73              		.loc 1 435 0
  74 0012 0123     		movs	r3, #1
  75 0014 2371     		strb	r3, [r4, #4]
 439:../system/src/stm32l4-hal-driver/stm32l4xx_hal_dac.c **** 
  76              		.loc 1 439 0
  77 0016 10BD     		pop	{r4, pc}
  78              	.LVL3:
  79              	.L10:
 417:../system/src/stm32l4-hal-driver/stm32l4xx_hal_dac.c **** 
  80              		.loc 1 417 0
  81 0018 4371     		strb	r3, [r0, #5]
 424:../system/src/stm32l4-hal-driver/stm32l4xx_hal_dac.c **** #endif /* USE_HAL_DAC_REGISTER_CALLBACKS */
  82              		.loc 1 424 0
  83 001a FFF7FEFF 		bl	HAL_DAC_MspInit
  84              	.LVL4:
  85 001e F4E7     		b	.L4
  86              	.LVL5:
  87              	.L5:
  88              		.cfi_def_cfa_offset 0
  89              		.cfi_restore 4
  90              		.cfi_restore 14
 383:../system/src/stm32l4-hal-driver/stm32l4xx_hal_dac.c ****   }
  91              		.loc 1 383 0
  92 0020 0120     		movs	r0, #1
  93              	.LVL6:
 439:../system/src/stm32l4-hal-driver/stm32l4xx_hal_dac.c **** 
  94              		.loc 1 439 0
  95 0022 7047     		bx	lr
  96              		.cfi_endproc
  97              	.LFE317:
  99              		.section	.text.HAL_DAC_MspDeInit,"ax",%progbits
 100              		.align	1
 101              		.weak	HAL_DAC_MspDeInit
 102              		.syntax unified
 103              		.thumb
 104              		.thumb_func
 105              		.fpu fpv4-sp-d16
 107              	HAL_DAC_MspDeInit:
 108              	.LFB320:
 501:../system/src/stm32l4-hal-driver/stm32l4xx_hal_dac.c **** 
 502:../system/src/stm32l4-hal-driver/stm32l4xx_hal_dac.c **** /**
 503:../system/src/stm32l4-hal-driver/stm32l4xx_hal_dac.c ****   * @brief  DeInitialize the DAC MSP.
 504:../system/src/stm32l4-hal-driver/stm32l4xx_hal_dac.c ****   * @param  hdac pointer to a DAC_HandleTypeDef structure that contains
 505:../system/src/stm32l4-hal-driver/stm32l4xx_hal_dac.c ****   *         the configuration information for the specified DAC.
 506:../system/src/stm32l4-hal-driver/stm32l4xx_hal_dac.c ****   * @retval None
 507:../system/src/stm32l4-hal-driver/stm32l4xx_hal_dac.c ****   */
 508:../system/src/stm32l4-hal-driver/stm32l4xx_hal_dac.c **** __weak void HAL_DAC_MspDeInit(DAC_HandleTypeDef *hdac)
 509:../system/src/stm32l4-hal-driver/stm32l4xx_hal_dac.c **** {
 109              		.loc 1 509 0
 110              		.cfi_startproc
 111              		@ args = 0, pretend = 0, frame = 0
 112              		@ frame_needed = 0, uses_anonymous_args = 0
 113              		@ link register save eliminated.
 114              	.LVL7:
 510:../system/src/stm32l4-hal-driver/stm32l4xx_hal_dac.c ****   /* Prevent unused argument(s) compilation warning */
 511:../system/src/stm32l4-hal-driver/stm32l4xx_hal_dac.c ****   UNUSED(hdac);
 512:../system/src/stm32l4-hal-driver/stm32l4xx_hal_dac.c **** 
 513:../system/src/stm32l4-hal-driver/stm32l4xx_hal_dac.c ****   /* NOTE : This function should not be modified, when the callback is needed,
 514:../system/src/stm32l4-hal-driver/stm32l4xx_hal_dac.c ****             the HAL_DAC_MspDeInit could be implemented in the user file
 515:../system/src/stm32l4-hal-driver/stm32l4xx_hal_dac.c ****    */
 516:../system/src/stm32l4-hal-driver/stm32l4xx_hal_dac.c **** }
 115              		.loc 1 516 0
 116 0000 7047     		bx	lr
 117              		.cfi_endproc
 118              	.LFE320:
 120              		.section	.text.HAL_DAC_DeInit,"ax",%progbits
 121              		.align	1
 122              		.global	HAL_DAC_DeInit
 123              		.syntax unified
 124              		.thumb
 125              		.thumb_func
 126              		.fpu fpv4-sp-d16
 128              	HAL_DAC_DeInit:
 129              	.LFB318:
 448:../system/src/stm32l4-hal-driver/stm32l4xx_hal_dac.c ****   /* Check DAC handle */
 130              		.loc 1 448 0
 131              		.cfi_startproc
 132              		@ args = 0, pretend = 0, frame = 0
 133              		@ frame_needed = 0, uses_anonymous_args = 0
 134              	.LVL8:
 450:../system/src/stm32l4-hal-driver/stm32l4xx_hal_dac.c ****   {
 135              		.loc 1 450 0
 136 0000 50B1     		cbz	r0, .L14
 448:../system/src/stm32l4-hal-driver/stm32l4xx_hal_dac.c ****   /* Check DAC handle */
 137              		.loc 1 448 0
 138 0002 10B5     		push	{r4, lr}
 139              		.cfi_def_cfa_offset 8
 140              		.cfi_offset 4, -8
 141              		.cfi_offset 14, -4
 142 0004 0446     		mov	r4, r0
 459:../system/src/stm32l4-hal-driver/stm32l4xx_hal_dac.c **** 
 143              		.loc 1 459 0
 144 0006 0223     		movs	r3, #2
 145 0008 0371     		strb	r3, [r0, #4]
 470:../system/src/stm32l4-hal-driver/stm32l4xx_hal_dac.c **** #endif /* USE_HAL_DAC_REGISTER_CALLBACKS */
 146              		.loc 1 470 0
 147 000a FFF7FEFF 		bl	HAL_DAC_MspDeInit
 148              	.LVL9:
 474:../system/src/stm32l4-hal-driver/stm32l4xx_hal_dac.c **** 
 149              		.loc 1 474 0
 150 000e 0020     		movs	r0, #0
 151 0010 2061     		str	r0, [r4, #16]
 477:../system/src/stm32l4-hal-driver/stm32l4xx_hal_dac.c **** 
 152              		.loc 1 477 0
 153 0012 2071     		strb	r0, [r4, #4]
 480:../system/src/stm32l4-hal-driver/stm32l4xx_hal_dac.c **** 
 154              		.loc 1 480 0
 155 0014 6071     		strb	r0, [r4, #5]
 484:../system/src/stm32l4-hal-driver/stm32l4xx_hal_dac.c **** 
 156              		.loc 1 484 0
 157 0016 10BD     		pop	{r4, pc}
 158              	.LVL10:
 159              	.L14:
 160              		.cfi_def_cfa_offset 0
 161              		.cfi_restore 4
 162              		.cfi_restore 14
 452:../system/src/stm32l4-hal-driver/stm32l4xx_hal_dac.c ****   }
 163              		.loc 1 452 0
 164 0018 0120     		movs	r0, #1
 165              	.LVL11:
 484:../system/src/stm32l4-hal-driver/stm32l4xx_hal_dac.c **** 
 166              		.loc 1 484 0
 167 001a 7047     		bx	lr
 168              		.cfi_endproc
 169              	.LFE318:
 171              		.section	.text.HAL_DAC_Start,"ax",%progbits
 172              		.align	1
 173              		.global	HAL_DAC_Start
 174              		.syntax unified
 175              		.thumb
 176              		.thumb_func
 177              		.fpu fpv4-sp-d16
 179              	HAL_DAC_Start:
 180              	.LFB321:
 517:../system/src/stm32l4-hal-driver/stm32l4xx_hal_dac.c **** 
 518:../system/src/stm32l4-hal-driver/stm32l4xx_hal_dac.c **** /**
 519:../system/src/stm32l4-hal-driver/stm32l4xx_hal_dac.c ****   * @}
 520:../system/src/stm32l4-hal-driver/stm32l4xx_hal_dac.c ****   */
 521:../system/src/stm32l4-hal-driver/stm32l4xx_hal_dac.c **** 
 522:../system/src/stm32l4-hal-driver/stm32l4xx_hal_dac.c **** /** @defgroup DAC_Exported_Functions_Group2 IO operation functions
 523:../system/src/stm32l4-hal-driver/stm32l4xx_hal_dac.c ****  *  @brief    IO operation functions
 524:../system/src/stm32l4-hal-driver/stm32l4xx_hal_dac.c ****  *
 525:../system/src/stm32l4-hal-driver/stm32l4xx_hal_dac.c **** @verbatim
 526:../system/src/stm32l4-hal-driver/stm32l4xx_hal_dac.c ****   ==============================================================================
 527:../system/src/stm32l4-hal-driver/stm32l4xx_hal_dac.c ****              ##### IO operation functions #####
 528:../system/src/stm32l4-hal-driver/stm32l4xx_hal_dac.c ****   ==============================================================================
 529:../system/src/stm32l4-hal-driver/stm32l4xx_hal_dac.c ****     [..]  This section provides functions allowing to:
 530:../system/src/stm32l4-hal-driver/stm32l4xx_hal_dac.c ****       (+) Start conversion.
 531:../system/src/stm32l4-hal-driver/stm32l4xx_hal_dac.c ****       (+) Stop conversion.
 532:../system/src/stm32l4-hal-driver/stm32l4xx_hal_dac.c ****       (+) Start conversion and enable DMA transfer.
 533:../system/src/stm32l4-hal-driver/stm32l4xx_hal_dac.c ****       (+) Stop conversion and disable DMA transfer.
 534:../system/src/stm32l4-hal-driver/stm32l4xx_hal_dac.c ****       (+) Get result of conversion.
 535:../system/src/stm32l4-hal-driver/stm32l4xx_hal_dac.c **** 
 536:../system/src/stm32l4-hal-driver/stm32l4xx_hal_dac.c **** @endverbatim
 537:../system/src/stm32l4-hal-driver/stm32l4xx_hal_dac.c ****   * @{
 538:../system/src/stm32l4-hal-driver/stm32l4xx_hal_dac.c ****   */
 539:../system/src/stm32l4-hal-driver/stm32l4xx_hal_dac.c **** 
 540:../system/src/stm32l4-hal-driver/stm32l4xx_hal_dac.c **** /**
 541:../system/src/stm32l4-hal-driver/stm32l4xx_hal_dac.c ****   * @brief  Enables DAC and starts conversion of channel.
 542:../system/src/stm32l4-hal-driver/stm32l4xx_hal_dac.c ****   * @param  hdac pointer to a DAC_HandleTypeDef structure that contains
 543:../system/src/stm32l4-hal-driver/stm32l4xx_hal_dac.c ****   *         the configuration information for the specified DAC.
 544:../system/src/stm32l4-hal-driver/stm32l4xx_hal_dac.c ****   * @param  Channel The selected DAC channel.
 545:../system/src/stm32l4-hal-driver/stm32l4xx_hal_dac.c ****   *          This parameter can be one of the following values:
 546:../system/src/stm32l4-hal-driver/stm32l4xx_hal_dac.c ****   *            @arg DAC_CHANNEL_1: DAC Channel1 selected
 547:../system/src/stm32l4-hal-driver/stm32l4xx_hal_dac.c ****   *            @arg DAC_CHANNEL_2: DAC Channel2 selected (when supported)
 548:../system/src/stm32l4-hal-driver/stm32l4xx_hal_dac.c ****   * @retval HAL status
 549:../system/src/stm32l4-hal-driver/stm32l4xx_hal_dac.c ****   */
 550:../system/src/stm32l4-hal-driver/stm32l4xx_hal_dac.c **** HAL_StatusTypeDef HAL_DAC_Start(DAC_HandleTypeDef *hdac, uint32_t Channel)
 551:../system/src/stm32l4-hal-driver/stm32l4xx_hal_dac.c **** {
 181              		.loc 1 551 0
 182              		.cfi_startproc
 183              		@ args = 0, pretend = 0, frame = 0
 184              		@ frame_needed = 0, uses_anonymous_args = 0
 185              		@ link register save eliminated.
 186              	.LVL12:
 552:../system/src/stm32l4-hal-driver/stm32l4xx_hal_dac.c ****   /* Check the parameters */
 553:../system/src/stm32l4-hal-driver/stm32l4xx_hal_dac.c ****   assert_param(IS_DAC_CHANNEL(Channel));
 554:../system/src/stm32l4-hal-driver/stm32l4xx_hal_dac.c **** 
 555:../system/src/stm32l4-hal-driver/stm32l4xx_hal_dac.c ****   /* Process locked */
 556:../system/src/stm32l4-hal-driver/stm32l4xx_hal_dac.c ****   __HAL_LOCK(hdac);
 187              		.loc 1 556 0
 188 0000 4379     		ldrb	r3, [r0, #5]	@ zero_extendqisi2
 189 0002 012B     		cmp	r3, #1
 190 0004 2AD0     		beq	.L23
 551:../system/src/stm32l4-hal-driver/stm32l4xx_hal_dac.c ****   /* Check the parameters */
 191              		.loc 1 551 0 discriminator 2
 192 0006 30B4     		push	{r4, r5}
 193              		.cfi_def_cfa_offset 8
 194              		.cfi_offset 4, -8
 195              		.cfi_offset 5, -4
 196              		.loc 1 556 0 discriminator 2
 197 0008 0123     		movs	r3, #1
 198 000a 4371     		strb	r3, [r0, #5]
 557:../system/src/stm32l4-hal-driver/stm32l4xx_hal_dac.c **** 
 558:../system/src/stm32l4-hal-driver/stm32l4xx_hal_dac.c ****   /* Change DAC state */
 559:../system/src/stm32l4-hal-driver/stm32l4xx_hal_dac.c ****   hdac->State = HAL_DAC_STATE_BUSY;
 199              		.loc 1 559 0 discriminator 2
 200 000c 0222     		movs	r2, #2
 201 000e 0271     		strb	r2, [r0, #4]
 560:../system/src/stm32l4-hal-driver/stm32l4xx_hal_dac.c **** 
 561:../system/src/stm32l4-hal-driver/stm32l4xx_hal_dac.c ****   /* Enable the Peripheral */
 562:../system/src/stm32l4-hal-driver/stm32l4xx_hal_dac.c ****   __HAL_DAC_ENABLE(hdac, Channel);
 202              		.loc 1 562 0 discriminator 2
 203 0010 0468     		ldr	r4, [r0]
 204 0012 2268     		ldr	r2, [r4]
 205 0014 01F01005 		and	r5, r1, #16
 206 0018 AB40     		lsls	r3, r3, r5
 207 001a 1343     		orrs	r3, r3, r2
 208 001c 2360     		str	r3, [r4]
 563:../system/src/stm32l4-hal-driver/stm32l4xx_hal_dac.c **** 
 564:../system/src/stm32l4-hal-driver/stm32l4xx_hal_dac.c **** #if defined (STM32L4P5xx) || defined (STM32L4Q5xx) || defined (STM32L4R5xx) || defined (STM32L4R7xx
 565:../system/src/stm32l4-hal-driver/stm32l4xx_hal_dac.c ****   if (Channel == DAC_CHANNEL_1)
 566:../system/src/stm32l4-hal-driver/stm32l4xx_hal_dac.c ****   {
 567:../system/src/stm32l4-hal-driver/stm32l4xx_hal_dac.c ****     /* Check if software trigger enabled */
 568:../system/src/stm32l4-hal-driver/stm32l4xx_hal_dac.c ****     if ((hdac->Instance->CR & (DAC_CR_TEN1 | DAC_CR_TSEL1)) == DAC_TRIGGER_SOFTWARE)
 569:../system/src/stm32l4-hal-driver/stm32l4xx_hal_dac.c ****     {
 570:../system/src/stm32l4-hal-driver/stm32l4xx_hal_dac.c ****       /* Enable the selected DAC software conversion */
 571:../system/src/stm32l4-hal-driver/stm32l4xx_hal_dac.c ****       SET_BIT(hdac->Instance->SWTRIGR, DAC_SWTRIGR_SWTRIG1);
 572:../system/src/stm32l4-hal-driver/stm32l4xx_hal_dac.c ****     }
 573:../system/src/stm32l4-hal-driver/stm32l4xx_hal_dac.c ****   }
 574:../system/src/stm32l4-hal-driver/stm32l4xx_hal_dac.c ****   else
 575:../system/src/stm32l4-hal-driver/stm32l4xx_hal_dac.c ****   {
 576:../system/src/stm32l4-hal-driver/stm32l4xx_hal_dac.c ****     /* Check if software trigger enabled */
 577:../system/src/stm32l4-hal-driver/stm32l4xx_hal_dac.c ****     if ((hdac->Instance->CR & (DAC_CR_TEN2 | DAC_CR_TSEL2)) == (DAC_TRIGGER_SOFTWARE << (Channel & 
 578:../system/src/stm32l4-hal-driver/stm32l4xx_hal_dac.c ****     {
 579:../system/src/stm32l4-hal-driver/stm32l4xx_hal_dac.c ****       /* Enable the selected DAC software conversion*/
 580:../system/src/stm32l4-hal-driver/stm32l4xx_hal_dac.c ****       SET_BIT(hdac->Instance->SWTRIGR, DAC_SWTRIGR_SWTRIG2);
 581:../system/src/stm32l4-hal-driver/stm32l4xx_hal_dac.c ****     }
 582:../system/src/stm32l4-hal-driver/stm32l4xx_hal_dac.c ****   }
 583:../system/src/stm32l4-hal-driver/stm32l4xx_hal_dac.c **** 
 584:../system/src/stm32l4-hal-driver/stm32l4xx_hal_dac.c **** #endif /* STM32L4P5xx STM32L4Q5xx STM32L4R5xx STM32L4R7xx STM32L4R9xx STM32L4S5xx STM32L4S7xx STM32
 585:../system/src/stm32l4-hal-driver/stm32l4xx_hal_dac.c **** 
 586:../system/src/stm32l4-hal-driver/stm32l4xx_hal_dac.c **** #if defined (STM32L431xx) || defined (STM32L432xx) || defined (STM32L433xx) || defined (STM32L442xx
 587:../system/src/stm32l4-hal-driver/stm32l4xx_hal_dac.c ****     defined (STM32L471xx) || defined (STM32L475xx) || defined (STM32L476xx) || defined (STM32L485xx
 588:../system/src/stm32l4-hal-driver/stm32l4xx_hal_dac.c ****   if(Channel == DAC_CHANNEL_1)
 209              		.loc 1 588 0 discriminator 2
 210 001e 89B9     		cbnz	r1, .L21
 589:../system/src/stm32l4-hal-driver/stm32l4xx_hal_dac.c ****   {
 590:../system/src/stm32l4-hal-driver/stm32l4xx_hal_dac.c ****     /* Check if software trigger enabled */
 591:../system/src/stm32l4-hal-driver/stm32l4xx_hal_dac.c ****     if ((hdac->Instance->CR & (DAC_CR_TEN1 | DAC_CR_TSEL1)) == DAC_CR_TEN1)
 211              		.loc 1 591 0
 212 0020 0268     		ldr	r2, [r0]
 213 0022 1368     		ldr	r3, [r2]
 214 0024 03F03C03 		and	r3, r3, #60
 215 0028 042B     		cmp	r3, #4
 216 002a 06D0     		beq	.L28
 217              	.L22:
 592:../system/src/stm32l4-hal-driver/stm32l4xx_hal_dac.c ****     {
 593:../system/src/stm32l4-hal-driver/stm32l4xx_hal_dac.c ****       /* Enable the selected DAC software conversion */
 594:../system/src/stm32l4-hal-driver/stm32l4xx_hal_dac.c ****       SET_BIT(hdac->Instance->SWTRIGR, DAC_SWTRIGR_SWTRIG1);
 595:../system/src/stm32l4-hal-driver/stm32l4xx_hal_dac.c ****     }
 596:../system/src/stm32l4-hal-driver/stm32l4xx_hal_dac.c ****   }
 597:../system/src/stm32l4-hal-driver/stm32l4xx_hal_dac.c ****   else
 598:../system/src/stm32l4-hal-driver/stm32l4xx_hal_dac.c ****   {
 599:../system/src/stm32l4-hal-driver/stm32l4xx_hal_dac.c ****     /* Check if software trigger enabled */
 600:../system/src/stm32l4-hal-driver/stm32l4xx_hal_dac.c ****     if ((hdac->Instance->CR & (DAC_CR_TEN2 | DAC_CR_TSEL2)) == DAC_CR_TEN2)
 601:../system/src/stm32l4-hal-driver/stm32l4xx_hal_dac.c ****     {
 602:../system/src/stm32l4-hal-driver/stm32l4xx_hal_dac.c ****       /* Enable the selected DAC software conversion*/
 603:../system/src/stm32l4-hal-driver/stm32l4xx_hal_dac.c ****       SET_BIT(hdac->Instance->SWTRIGR, DAC_SWTRIGR_SWTRIG2);
 604:../system/src/stm32l4-hal-driver/stm32l4xx_hal_dac.c ****     }
 605:../system/src/stm32l4-hal-driver/stm32l4xx_hal_dac.c ****   }
 606:../system/src/stm32l4-hal-driver/stm32l4xx_hal_dac.c **** #endif  /* STM32L431xx STM32L432xx STM32L433xx STM32L442xx STM32L443xx                         */
 607:../system/src/stm32l4-hal-driver/stm32l4xx_hal_dac.c ****         /* STM32L471xx STM32L475xx STM32L476xx STM32L485xx STM32L486xx STM32L496xx STM32L4A6xx */
 608:../system/src/stm32l4-hal-driver/stm32l4xx_hal_dac.c **** 
 609:../system/src/stm32l4-hal-driver/stm32l4xx_hal_dac.c **** 
 610:../system/src/stm32l4-hal-driver/stm32l4xx_hal_dac.c **** #if defined (STM32L451xx) || defined (STM32L452xx) || defined (STM32L462xx)
 611:../system/src/stm32l4-hal-driver/stm32l4xx_hal_dac.c ****   /* Check if software trigger enabled */
 612:../system/src/stm32l4-hal-driver/stm32l4xx_hal_dac.c ****   if((hdac->Instance->CR & (DAC_CR_TEN1 | DAC_CR_TSEL1)) == (DAC_CR_TEN1 | DAC_CR_TSEL1))
 613:../system/src/stm32l4-hal-driver/stm32l4xx_hal_dac.c ****   {
 614:../system/src/stm32l4-hal-driver/stm32l4xx_hal_dac.c ****     /* Enable the selected DAC software conversion */
 615:../system/src/stm32l4-hal-driver/stm32l4xx_hal_dac.c ****     SET_BIT(hdac->Instance->SWTRIGR, DAC_SWTRIGR_SWTRIG1);
 616:../system/src/stm32l4-hal-driver/stm32l4xx_hal_dac.c ****   }
 617:../system/src/stm32l4-hal-driver/stm32l4xx_hal_dac.c **** #endif /* STM32L451xx STM32L452xx STM32L462xx */
 618:../system/src/stm32l4-hal-driver/stm32l4xx_hal_dac.c ****   /* Change DAC state */
 619:../system/src/stm32l4-hal-driver/stm32l4xx_hal_dac.c ****   hdac->State = HAL_DAC_STATE_READY;
 218              		.loc 1 619 0
 219 002c 0123     		movs	r3, #1
 220 002e 0371     		strb	r3, [r0, #4]
 620:../system/src/stm32l4-hal-driver/stm32l4xx_hal_dac.c **** 
 621:../system/src/stm32l4-hal-driver/stm32l4xx_hal_dac.c ****   /* Process unlocked */
 622:../system/src/stm32l4-hal-driver/stm32l4xx_hal_dac.c ****   __HAL_UNLOCK(hdac);
 221              		.loc 1 622 0
 222 0030 0023     		movs	r3, #0
 223 0032 4371     		strb	r3, [r0, #5]
 623:../system/src/stm32l4-hal-driver/stm32l4xx_hal_dac.c **** 
 624:../system/src/stm32l4-hal-driver/stm32l4xx_hal_dac.c ****   /* Return function status */
 625:../system/src/stm32l4-hal-driver/stm32l4xx_hal_dac.c ****   return HAL_OK;
 224              		.loc 1 625 0
 225 0034 1846     		mov	r0, r3
 226              	.LVL13:
 626:../system/src/stm32l4-hal-driver/stm32l4xx_hal_dac.c **** }
 227              		.loc 1 626 0
 228 0036 30BC     		pop	{r4, r5}
 229              		.cfi_remember_state
 230              		.cfi_restore 5
 231              		.cfi_restore 4
 232              		.cfi_def_cfa_offset 0
 233 0038 7047     		bx	lr
 234              	.LVL14:
 235              	.L28:
 236              		.cfi_restore_state
 594:../system/src/stm32l4-hal-driver/stm32l4xx_hal_dac.c ****     }
 237              		.loc 1 594 0
 238 003a 5368     		ldr	r3, [r2, #4]
 239 003c 43F00103 		orr	r3, r3, #1
 240 0040 5360     		str	r3, [r2, #4]
 241 0042 F3E7     		b	.L22
 242              	.L21:
 600:../system/src/stm32l4-hal-driver/stm32l4xx_hal_dac.c ****     {
 243              		.loc 1 600 0
 244 0044 0268     		ldr	r2, [r0]
 245 0046 1368     		ldr	r3, [r2]
 246 0048 03F47013 		and	r3, r3, #3932160
 247 004c B3F5802F 		cmp	r3, #262144
 248 0050 ECD1     		bne	.L22
 603:../system/src/stm32l4-hal-driver/stm32l4xx_hal_dac.c ****     }
 249              		.loc 1 603 0
 250 0052 5368     		ldr	r3, [r2, #4]
 251 0054 43F00203 		orr	r3, r3, #2
 252 0058 5360     		str	r3, [r2, #4]
 253 005a E7E7     		b	.L22
 254              	.L23:
 255              		.cfi_def_cfa_offset 0
 256              		.cfi_restore 4
 257              		.cfi_restore 5
 556:../system/src/stm32l4-hal-driver/stm32l4xx_hal_dac.c **** 
 258              		.loc 1 556 0
 259 005c 0220     		movs	r0, #2
 260              	.LVL15:
 261              		.loc 1 626 0
 262 005e 7047     		bx	lr
 263              		.cfi_endproc
 264              	.LFE321:
 266              		.section	.text.HAL_DAC_Stop,"ax",%progbits
 267              		.align	1
 268              		.global	HAL_DAC_Stop
 269              		.syntax unified
 270              		.thumb
 271              		.thumb_func
 272              		.fpu fpv4-sp-d16
 274              	HAL_DAC_Stop:
 275              	.LFB322:
 627:../system/src/stm32l4-hal-driver/stm32l4xx_hal_dac.c **** 
 628:../system/src/stm32l4-hal-driver/stm32l4xx_hal_dac.c **** /**
 629:../system/src/stm32l4-hal-driver/stm32l4xx_hal_dac.c ****   * @brief  Disables DAC and stop conversion of channel.
 630:../system/src/stm32l4-hal-driver/stm32l4xx_hal_dac.c ****   * @param  hdac pointer to a DAC_HandleTypeDef structure that contains
 631:../system/src/stm32l4-hal-driver/stm32l4xx_hal_dac.c ****   *         the configuration information for the specified DAC.
 632:../system/src/stm32l4-hal-driver/stm32l4xx_hal_dac.c ****   * @param  Channel The selected DAC channel.
 633:../system/src/stm32l4-hal-driver/stm32l4xx_hal_dac.c ****   *          This parameter can be one of the following values:
 634:../system/src/stm32l4-hal-driver/stm32l4xx_hal_dac.c ****   *            @arg DAC_CHANNEL_1: DAC Channel1 selected
 635:../system/src/stm32l4-hal-driver/stm32l4xx_hal_dac.c ****   *            @arg DAC_CHANNEL_2: DAC Channel2 selected
 636:../system/src/stm32l4-hal-driver/stm32l4xx_hal_dac.c ****   * @retval HAL status
 637:../system/src/stm32l4-hal-driver/stm32l4xx_hal_dac.c ****   */
 638:../system/src/stm32l4-hal-driver/stm32l4xx_hal_dac.c **** HAL_StatusTypeDef HAL_DAC_Stop(DAC_HandleTypeDef *hdac, uint32_t Channel)
 639:../system/src/stm32l4-hal-driver/stm32l4xx_hal_dac.c **** {
 276              		.loc 1 639 0
 277              		.cfi_startproc
 278              		@ args = 0, pretend = 0, frame = 0
 279              		@ frame_needed = 0, uses_anonymous_args = 0
 280              		@ link register save eliminated.
 281              	.LVL16:
 282 0000 10B4     		push	{r4}
 283              		.cfi_def_cfa_offset 4
 284              		.cfi_offset 4, -4
 640:../system/src/stm32l4-hal-driver/stm32l4xx_hal_dac.c ****   /* Check the parameters */
 641:../system/src/stm32l4-hal-driver/stm32l4xx_hal_dac.c ****   assert_param(IS_DAC_CHANNEL(Channel));
 642:../system/src/stm32l4-hal-driver/stm32l4xx_hal_dac.c **** 
 643:../system/src/stm32l4-hal-driver/stm32l4xx_hal_dac.c ****   /* Disable the Peripheral */
 644:../system/src/stm32l4-hal-driver/stm32l4xx_hal_dac.c ****   __HAL_DAC_DISABLE(hdac, Channel);
 285              		.loc 1 644 0
 286 0002 0468     		ldr	r4, [r0]
 287 0004 2368     		ldr	r3, [r4]
 288 0006 01F01001 		and	r1, r1, #16
 289              	.LVL17:
 290 000a 0122     		movs	r2, #1
 291 000c 02FA01F1 		lsl	r1, r2, r1
 292 0010 23EA0103 		bic	r3, r3, r1
 293 0014 2360     		str	r3, [r4]
 645:../system/src/stm32l4-hal-driver/stm32l4xx_hal_dac.c **** 
 646:../system/src/stm32l4-hal-driver/stm32l4xx_hal_dac.c ****   /* Change DAC state */
 647:../system/src/stm32l4-hal-driver/stm32l4xx_hal_dac.c ****   hdac->State = HAL_DAC_STATE_READY;
 294              		.loc 1 647 0
 295 0016 0271     		strb	r2, [r0, #4]
 648:../system/src/stm32l4-hal-driver/stm32l4xx_hal_dac.c **** 
 649:../system/src/stm32l4-hal-driver/stm32l4xx_hal_dac.c ****   /* Return function status */
 650:../system/src/stm32l4-hal-driver/stm32l4xx_hal_dac.c ****   return HAL_OK;
 651:../system/src/stm32l4-hal-driver/stm32l4xx_hal_dac.c **** }
 296              		.loc 1 651 0
 297 0018 0020     		movs	r0, #0
 298              	.LVL18:
 299 001a 5DF8044B 		ldr	r4, [sp], #4
 300              		.cfi_restore 4
 301              		.cfi_def_cfa_offset 0
 302 001e 7047     		bx	lr
 303              		.cfi_endproc
 304              	.LFE322:
 306              		.section	.text.HAL_DAC_Start_DMA,"ax",%progbits
 307              		.align	1
 308              		.global	HAL_DAC_Start_DMA
 309              		.syntax unified
 310              		.thumb
 311              		.thumb_func
 312              		.fpu fpv4-sp-d16
 314              	HAL_DAC_Start_DMA:
 315              	.LFB323:
 652:../system/src/stm32l4-hal-driver/stm32l4xx_hal_dac.c **** 
 653:../system/src/stm32l4-hal-driver/stm32l4xx_hal_dac.c **** #if defined (STM32L451xx) || defined (STM32L452xx) || defined (STM32L462xx)
 654:../system/src/stm32l4-hal-driver/stm32l4xx_hal_dac.c **** /**
 655:../system/src/stm32l4-hal-driver/stm32l4xx_hal_dac.c ****   * @brief  Enables DAC and starts conversion of channel.
 656:../system/src/stm32l4-hal-driver/stm32l4xx_hal_dac.c ****   * @param  hdac pointer to a DAC_HandleTypeDef structure that contains
 657:../system/src/stm32l4-hal-driver/stm32l4xx_hal_dac.c ****   *         the configuration information for the specified DAC.
 658:../system/src/stm32l4-hal-driver/stm32l4xx_hal_dac.c ****   * @param  Channel The selected DAC channel.
 659:../system/src/stm32l4-hal-driver/stm32l4xx_hal_dac.c ****   *          This parameter can be one of the following values:
 660:../system/src/stm32l4-hal-driver/stm32l4xx_hal_dac.c ****   *            @arg DAC_CHANNEL_1: DAC Channel1 selected
 661:../system/src/stm32l4-hal-driver/stm32l4xx_hal_dac.c ****   * @param  pData The destination peripheral Buffer address.
 662:../system/src/stm32l4-hal-driver/stm32l4xx_hal_dac.c ****   * @param  Length The length of data to be transferred from memory to DAC peripheral
 663:../system/src/stm32l4-hal-driver/stm32l4xx_hal_dac.c ****   * @param  Alignment Specifies the data alignment for DAC channel.
 664:../system/src/stm32l4-hal-driver/stm32l4xx_hal_dac.c ****   *          This parameter can be one of the following values:
 665:../system/src/stm32l4-hal-driver/stm32l4xx_hal_dac.c ****   *            @arg DAC_ALIGN_8B_R: 8bit right data alignment selected
 666:../system/src/stm32l4-hal-driver/stm32l4xx_hal_dac.c ****   *            @arg DAC_ALIGN_12B_L: 12bit left data alignment selected
 667:../system/src/stm32l4-hal-driver/stm32l4xx_hal_dac.c ****   *            @arg DAC_ALIGN_12B_R: 12bit right data alignment selected
 668:../system/src/stm32l4-hal-driver/stm32l4xx_hal_dac.c ****   * @retval HAL status
 669:../system/src/stm32l4-hal-driver/stm32l4xx_hal_dac.c ****   */
 670:../system/src/stm32l4-hal-driver/stm32l4xx_hal_dac.c **** HAL_StatusTypeDef HAL_DAC_Start_DMA(DAC_HandleTypeDef *hdac, uint32_t Channel, uint32_t *pData, uin
 671:../system/src/stm32l4-hal-driver/stm32l4xx_hal_dac.c ****                                     uint32_t Alignment)
 672:../system/src/stm32l4-hal-driver/stm32l4xx_hal_dac.c **** {
 673:../system/src/stm32l4-hal-driver/stm32l4xx_hal_dac.c ****   HAL_StatusTypeDef status;
 674:../system/src/stm32l4-hal-driver/stm32l4xx_hal_dac.c ****   uint32_t tmpreg = 0U;
 675:../system/src/stm32l4-hal-driver/stm32l4xx_hal_dac.c **** 
 676:../system/src/stm32l4-hal-driver/stm32l4xx_hal_dac.c ****   /* Check the parameters */
 677:../system/src/stm32l4-hal-driver/stm32l4xx_hal_dac.c ****   assert_param(IS_DAC_CHANNEL(Channel));
 678:../system/src/stm32l4-hal-driver/stm32l4xx_hal_dac.c ****   assert_param(IS_DAC_ALIGN(Alignment));
 679:../system/src/stm32l4-hal-driver/stm32l4xx_hal_dac.c **** 
 680:../system/src/stm32l4-hal-driver/stm32l4xx_hal_dac.c ****   /* Process locked */
 681:../system/src/stm32l4-hal-driver/stm32l4xx_hal_dac.c ****   __HAL_LOCK(hdac);
 682:../system/src/stm32l4-hal-driver/stm32l4xx_hal_dac.c **** 
 683:../system/src/stm32l4-hal-driver/stm32l4xx_hal_dac.c ****   /* Change DAC state */
 684:../system/src/stm32l4-hal-driver/stm32l4xx_hal_dac.c ****   hdac->State = HAL_DAC_STATE_BUSY;
 685:../system/src/stm32l4-hal-driver/stm32l4xx_hal_dac.c **** 
 686:../system/src/stm32l4-hal-driver/stm32l4xx_hal_dac.c ****   /* Set the DMA transfer complete callback for channel1 */
 687:../system/src/stm32l4-hal-driver/stm32l4xx_hal_dac.c ****   hdac->DMA_Handle1->XferCpltCallback = DAC_DMAConvCpltCh1;
 688:../system/src/stm32l4-hal-driver/stm32l4xx_hal_dac.c **** 
 689:../system/src/stm32l4-hal-driver/stm32l4xx_hal_dac.c ****   /* Set the DMA half transfer complete callback for channel1 */
 690:../system/src/stm32l4-hal-driver/stm32l4xx_hal_dac.c ****   hdac->DMA_Handle1->XferHalfCpltCallback = DAC_DMAHalfConvCpltCh1;
 691:../system/src/stm32l4-hal-driver/stm32l4xx_hal_dac.c **** 
 692:../system/src/stm32l4-hal-driver/stm32l4xx_hal_dac.c ****   /* Set the DMA error callback for channel1 */
 693:../system/src/stm32l4-hal-driver/stm32l4xx_hal_dac.c ****   hdac->DMA_Handle1->XferErrorCallback = DAC_DMAErrorCh1;
 694:../system/src/stm32l4-hal-driver/stm32l4xx_hal_dac.c **** 
 695:../system/src/stm32l4-hal-driver/stm32l4xx_hal_dac.c ****   /* Enable the selected DAC channel1 DMA request */
 696:../system/src/stm32l4-hal-driver/stm32l4xx_hal_dac.c ****   SET_BIT(hdac->Instance->CR, DAC_CR_DMAEN1);
 697:../system/src/stm32l4-hal-driver/stm32l4xx_hal_dac.c **** 
 698:../system/src/stm32l4-hal-driver/stm32l4xx_hal_dac.c ****   /* Case of use of channel 1 */
 699:../system/src/stm32l4-hal-driver/stm32l4xx_hal_dac.c ****   switch (Alignment)
 700:../system/src/stm32l4-hal-driver/stm32l4xx_hal_dac.c ****   {
 701:../system/src/stm32l4-hal-driver/stm32l4xx_hal_dac.c ****     case DAC_ALIGN_12B_R:
 702:../system/src/stm32l4-hal-driver/stm32l4xx_hal_dac.c ****       /* Get DHR12R1 address */
 703:../system/src/stm32l4-hal-driver/stm32l4xx_hal_dac.c ****       tmpreg = (uint32_t)&hdac->Instance->DHR12R1;
 704:../system/src/stm32l4-hal-driver/stm32l4xx_hal_dac.c ****       break;
 705:../system/src/stm32l4-hal-driver/stm32l4xx_hal_dac.c ****     case DAC_ALIGN_12B_L:
 706:../system/src/stm32l4-hal-driver/stm32l4xx_hal_dac.c ****       /* Get DHR12L1 address */
 707:../system/src/stm32l4-hal-driver/stm32l4xx_hal_dac.c ****       tmpreg = (uint32_t)&hdac->Instance->DHR12L1;
 708:../system/src/stm32l4-hal-driver/stm32l4xx_hal_dac.c ****       break;
 709:../system/src/stm32l4-hal-driver/stm32l4xx_hal_dac.c ****     case DAC_ALIGN_8B_R:
 710:../system/src/stm32l4-hal-driver/stm32l4xx_hal_dac.c ****       /* Get DHR8R1 address */
 711:../system/src/stm32l4-hal-driver/stm32l4xx_hal_dac.c ****       tmpreg = (uint32_t)&hdac->Instance->DHR8R1;
 712:../system/src/stm32l4-hal-driver/stm32l4xx_hal_dac.c ****       break;
 713:../system/src/stm32l4-hal-driver/stm32l4xx_hal_dac.c ****     default:
 714:../system/src/stm32l4-hal-driver/stm32l4xx_hal_dac.c ****       break;
 715:../system/src/stm32l4-hal-driver/stm32l4xx_hal_dac.c ****   }
 716:../system/src/stm32l4-hal-driver/stm32l4xx_hal_dac.c **** 
 717:../system/src/stm32l4-hal-driver/stm32l4xx_hal_dac.c ****   /* Enable the DMA channel */
 718:../system/src/stm32l4-hal-driver/stm32l4xx_hal_dac.c ****   /* Enable the DAC DMA underrun interrupt */
 719:../system/src/stm32l4-hal-driver/stm32l4xx_hal_dac.c ****   __HAL_DAC_ENABLE_IT(hdac, DAC_IT_DMAUDR1);
 720:../system/src/stm32l4-hal-driver/stm32l4xx_hal_dac.c **** 
 721:../system/src/stm32l4-hal-driver/stm32l4xx_hal_dac.c ****   /* Enable the DMA channel */
 722:../system/src/stm32l4-hal-driver/stm32l4xx_hal_dac.c ****   status = HAL_DMA_Start_IT(hdac->DMA_Handle1, (uint32_t)pData, tmpreg, Length);
 723:../system/src/stm32l4-hal-driver/stm32l4xx_hal_dac.c **** 
 724:../system/src/stm32l4-hal-driver/stm32l4xx_hal_dac.c ****   /* Process Unlocked */
 725:../system/src/stm32l4-hal-driver/stm32l4xx_hal_dac.c ****   __HAL_UNLOCK(hdac);
 726:../system/src/stm32l4-hal-driver/stm32l4xx_hal_dac.c **** 
 727:../system/src/stm32l4-hal-driver/stm32l4xx_hal_dac.c ****   if (status == HAL_OK)
 728:../system/src/stm32l4-hal-driver/stm32l4xx_hal_dac.c ****   {
 729:../system/src/stm32l4-hal-driver/stm32l4xx_hal_dac.c ****     /* Enable the Peripheral */
 730:../system/src/stm32l4-hal-driver/stm32l4xx_hal_dac.c ****     __HAL_DAC_ENABLE(hdac, Channel);
 731:../system/src/stm32l4-hal-driver/stm32l4xx_hal_dac.c ****   }
 732:../system/src/stm32l4-hal-driver/stm32l4xx_hal_dac.c ****   else
 733:../system/src/stm32l4-hal-driver/stm32l4xx_hal_dac.c ****   {
 734:../system/src/stm32l4-hal-driver/stm32l4xx_hal_dac.c ****     hdac->ErrorCode |= HAL_DAC_ERROR_DMA;
 735:../system/src/stm32l4-hal-driver/stm32l4xx_hal_dac.c ****   }
 736:../system/src/stm32l4-hal-driver/stm32l4xx_hal_dac.c **** 
 737:../system/src/stm32l4-hal-driver/stm32l4xx_hal_dac.c ****   /* Return function status */
 738:../system/src/stm32l4-hal-driver/stm32l4xx_hal_dac.c ****   return status;
 739:../system/src/stm32l4-hal-driver/stm32l4xx_hal_dac.c **** }
 740:../system/src/stm32l4-hal-driver/stm32l4xx_hal_dac.c **** #endif /* STM32L451xx STM32L452xx STM32L462xx */
 741:../system/src/stm32l4-hal-driver/stm32l4xx_hal_dac.c **** 
 742:../system/src/stm32l4-hal-driver/stm32l4xx_hal_dac.c **** #if defined (STM32L431xx) || defined (STM32L432xx) || defined (STM32L433xx) || defined (STM32L442xx
 743:../system/src/stm32l4-hal-driver/stm32l4xx_hal_dac.c ****     defined (STM32L471xx) || defined (STM32L475xx) || defined (STM32L476xx) || defined (STM32L485xx
 744:../system/src/stm32l4-hal-driver/stm32l4xx_hal_dac.c ****     defined (STM32L4P5xx) || defined (STM32L4Q5xx) || \
 745:../system/src/stm32l4-hal-driver/stm32l4xx_hal_dac.c ****     defined (STM32L4R5xx) || defined (STM32L4R7xx) || defined (STM32L4R9xx) || defined (STM32L4S5xx
 746:../system/src/stm32l4-hal-driver/stm32l4xx_hal_dac.c **** 
 747:../system/src/stm32l4-hal-driver/stm32l4xx_hal_dac.c **** /**
 748:../system/src/stm32l4-hal-driver/stm32l4xx_hal_dac.c ****   * @brief  Enables DAC and starts conversion of channel.
 749:../system/src/stm32l4-hal-driver/stm32l4xx_hal_dac.c ****   * @param  hdac pointer to a DAC_HandleTypeDef structure that contains
 750:../system/src/stm32l4-hal-driver/stm32l4xx_hal_dac.c ****   *         the configuration information for the specified DAC.
 751:../system/src/stm32l4-hal-driver/stm32l4xx_hal_dac.c ****   * @param  Channel The selected DAC channel.
 752:../system/src/stm32l4-hal-driver/stm32l4xx_hal_dac.c ****   *          This parameter can be one of the following values:
 753:../system/src/stm32l4-hal-driver/stm32l4xx_hal_dac.c ****   *            @arg DAC_CHANNEL_1: DAC Channel1 selected
 754:../system/src/stm32l4-hal-driver/stm32l4xx_hal_dac.c ****   *            @arg DAC_CHANNEL_2: DAC Channel2 selected
 755:../system/src/stm32l4-hal-driver/stm32l4xx_hal_dac.c ****   * @param  pData The destination peripheral Buffer address.
 756:../system/src/stm32l4-hal-driver/stm32l4xx_hal_dac.c ****   * @param  Length The length of data to be transferred from memory to DAC peripheral
 757:../system/src/stm32l4-hal-driver/stm32l4xx_hal_dac.c ****   * @param  Alignment Specifies the data alignment for DAC channel.
 758:../system/src/stm32l4-hal-driver/stm32l4xx_hal_dac.c ****   *          This parameter can be one of the following values:
 759:../system/src/stm32l4-hal-driver/stm32l4xx_hal_dac.c ****   *            @arg DAC_ALIGN_8B_R: 8bit right data alignment selected
 760:../system/src/stm32l4-hal-driver/stm32l4xx_hal_dac.c ****   *            @arg DAC_ALIGN_12B_L: 12bit left data alignment selected
 761:../system/src/stm32l4-hal-driver/stm32l4xx_hal_dac.c ****   *            @arg DAC_ALIGN_12B_R: 12bit right data alignment selected
 762:../system/src/stm32l4-hal-driver/stm32l4xx_hal_dac.c ****   * @retval HAL status
 763:../system/src/stm32l4-hal-driver/stm32l4xx_hal_dac.c ****   */
 764:../system/src/stm32l4-hal-driver/stm32l4xx_hal_dac.c **** HAL_StatusTypeDef HAL_DAC_Start_DMA(DAC_HandleTypeDef *hdac, uint32_t Channel, uint32_t *pData, uin
 765:../system/src/stm32l4-hal-driver/stm32l4xx_hal_dac.c ****                                     uint32_t Alignment)
 766:../system/src/stm32l4-hal-driver/stm32l4xx_hal_dac.c **** {
 316              		.loc 1 766 0
 317              		.cfi_startproc
 318              		@ args = 4, pretend = 0, frame = 0
 319              		@ frame_needed = 0, uses_anonymous_args = 0
 320              	.LVL19:
 321 0000 F8B5     		push	{r3, r4, r5, r6, r7, lr}
 322              		.cfi_def_cfa_offset 24
 323              		.cfi_offset 3, -24
 324              		.cfi_offset 4, -20
 325              		.cfi_offset 5, -16
 326              		.cfi_offset 6, -12
 327              		.cfi_offset 7, -8
 328              		.cfi_offset 14, -4
 329 0002 069C     		ldr	r4, [sp, #24]
 330              	.LVL20:
 767:../system/src/stm32l4-hal-driver/stm32l4xx_hal_dac.c ****   HAL_StatusTypeDef status;
 768:../system/src/stm32l4-hal-driver/stm32l4xx_hal_dac.c ****   uint32_t tmpreg = 0U;
 769:../system/src/stm32l4-hal-driver/stm32l4xx_hal_dac.c **** 
 770:../system/src/stm32l4-hal-driver/stm32l4xx_hal_dac.c ****   /* Check the parameters */
 771:../system/src/stm32l4-hal-driver/stm32l4xx_hal_dac.c ****   assert_param(IS_DAC_CHANNEL(Channel));
 772:../system/src/stm32l4-hal-driver/stm32l4xx_hal_dac.c ****   assert_param(IS_DAC_ALIGN(Alignment));
 773:../system/src/stm32l4-hal-driver/stm32l4xx_hal_dac.c **** 
 774:../system/src/stm32l4-hal-driver/stm32l4xx_hal_dac.c ****   /* Process locked */
 775:../system/src/stm32l4-hal-driver/stm32l4xx_hal_dac.c ****   __HAL_LOCK(hdac);
 331              		.loc 1 775 0
 332 0004 4579     		ldrb	r5, [r0, #5]	@ zero_extendqisi2
 333 0006 012D     		cmp	r5, #1
 334 0008 6DD0     		beq	.L44
 335              		.loc 1 775 0 is_stmt 0 discriminator 2
 336 000a 0125     		movs	r5, #1
 337 000c 4571     		strb	r5, [r0, #5]
 776:../system/src/stm32l4-hal-driver/stm32l4xx_hal_dac.c **** 
 777:../system/src/stm32l4-hal-driver/stm32l4xx_hal_dac.c ****   /* Change DAC state */
 778:../system/src/stm32l4-hal-driver/stm32l4xx_hal_dac.c ****   hdac->State = HAL_DAC_STATE_BUSY;
 338              		.loc 1 778 0 is_stmt 1 discriminator 2
 339 000e 0225     		movs	r5, #2
 340 0010 0571     		strb	r5, [r0, #4]
 779:../system/src/stm32l4-hal-driver/stm32l4xx_hal_dac.c **** 
 780:../system/src/stm32l4-hal-driver/stm32l4xx_hal_dac.c ****   if (Channel == DAC_CHANNEL_1)
 341              		.loc 1 780 0 discriminator 2
 342 0012 0029     		cmp	r1, #0
 343 0014 34D1     		bne	.L33
 781:../system/src/stm32l4-hal-driver/stm32l4xx_hal_dac.c ****   {
 782:../system/src/stm32l4-hal-driver/stm32l4xx_hal_dac.c ****     /* Set the DMA transfer complete callback for channel1 */
 783:../system/src/stm32l4-hal-driver/stm32l4xx_hal_dac.c ****     hdac->DMA_Handle1->XferCpltCallback = DAC_DMAConvCpltCh1;
 344              		.loc 1 783 0
 345 0016 8568     		ldr	r5, [r0, #8]
 346 0018 344E     		ldr	r6, .L53
 347 001a EE62     		str	r6, [r5, #44]
 784:../system/src/stm32l4-hal-driver/stm32l4xx_hal_dac.c **** 
 785:../system/src/stm32l4-hal-driver/stm32l4xx_hal_dac.c ****     /* Set the DMA half transfer complete callback for channel1 */
 786:../system/src/stm32l4-hal-driver/stm32l4xx_hal_dac.c ****     hdac->DMA_Handle1->XferHalfCpltCallback = DAC_DMAHalfConvCpltCh1;
 348              		.loc 1 786 0
 349 001c 8568     		ldr	r5, [r0, #8]
 350 001e 344E     		ldr	r6, .L53+4
 351 0020 2E63     		str	r6, [r5, #48]
 787:../system/src/stm32l4-hal-driver/stm32l4xx_hal_dac.c **** 
 788:../system/src/stm32l4-hal-driver/stm32l4xx_hal_dac.c ****     /* Set the DMA error callback for channel1 */
 789:../system/src/stm32l4-hal-driver/stm32l4xx_hal_dac.c ****     hdac->DMA_Handle1->XferErrorCallback = DAC_DMAErrorCh1;
 352              		.loc 1 789 0
 353 0022 8568     		ldr	r5, [r0, #8]
 354 0024 334E     		ldr	r6, .L53+8
 355 0026 6E63     		str	r6, [r5, #52]
 790:../system/src/stm32l4-hal-driver/stm32l4xx_hal_dac.c **** 
 791:../system/src/stm32l4-hal-driver/stm32l4xx_hal_dac.c ****     /* Enable the selected DAC channel1 DMA request */
 792:../system/src/stm32l4-hal-driver/stm32l4xx_hal_dac.c ****     SET_BIT(hdac->Instance->CR, DAC_CR_DMAEN1);
 356              		.loc 1 792 0
 357 0028 0668     		ldr	r6, [r0]
 358 002a 3568     		ldr	r5, [r6]
 359 002c 45F48055 		orr	r5, r5, #4096
 360 0030 3560     		str	r5, [r6]
 793:../system/src/stm32l4-hal-driver/stm32l4xx_hal_dac.c **** 
 794:../system/src/stm32l4-hal-driver/stm32l4xx_hal_dac.c ****     /* Case of use of channel 1 */
 795:../system/src/stm32l4-hal-driver/stm32l4xx_hal_dac.c ****     switch (Alignment)
 361              		.loc 1 795 0
 362 0032 042C     		cmp	r4, #4
 363 0034 1ED0     		beq	.L35
 364 0036 082C     		cmp	r4, #8
 365 0038 1FD0     		beq	.L36
 366 003a 0CB1     		cbz	r4, .L50
 768:../system/src/stm32l4-hal-driver/stm32l4xx_hal_dac.c **** 
 367              		.loc 1 768 0
 368 003c 0D46     		mov	r5, r1
 369 003e 01E0     		b	.L34
 370              	.L50:
 796:../system/src/stm32l4-hal-driver/stm32l4xx_hal_dac.c ****     {
 797:../system/src/stm32l4-hal-driver/stm32l4xx_hal_dac.c ****       case DAC_ALIGN_12B_R:
 798:../system/src/stm32l4-hal-driver/stm32l4xx_hal_dac.c ****         /* Get DHR12R1 address */
 799:../system/src/stm32l4-hal-driver/stm32l4xx_hal_dac.c ****         tmpreg = (uint32_t)&hdac->Instance->DHR12R1;
 371              		.loc 1 799 0
 372 0040 0568     		ldr	r5, [r0]
 373 0042 0835     		adds	r5, r5, #8
 374              	.LVL21:
 375              	.L34:
 376 0044 1646     		mov	r6, r2
 377 0046 0F46     		mov	r7, r1
 378 0048 0446     		mov	r4, r0
 379              	.LVL22:
 800:../system/src/stm32l4-hal-driver/stm32l4xx_hal_dac.c ****         break;
 801:../system/src/stm32l4-hal-driver/stm32l4xx_hal_dac.c ****       case DAC_ALIGN_12B_L:
 802:../system/src/stm32l4-hal-driver/stm32l4xx_hal_dac.c ****         /* Get DHR12L1 address */
 803:../system/src/stm32l4-hal-driver/stm32l4xx_hal_dac.c ****         tmpreg = (uint32_t)&hdac->Instance->DHR12L1;
 804:../system/src/stm32l4-hal-driver/stm32l4xx_hal_dac.c ****         break;
 805:../system/src/stm32l4-hal-driver/stm32l4xx_hal_dac.c ****       case DAC_ALIGN_8B_R:
 806:../system/src/stm32l4-hal-driver/stm32l4xx_hal_dac.c ****         /* Get DHR8R1 address */
 807:../system/src/stm32l4-hal-driver/stm32l4xx_hal_dac.c ****         tmpreg = (uint32_t)&hdac->Instance->DHR8R1;
 808:../system/src/stm32l4-hal-driver/stm32l4xx_hal_dac.c ****         break;
 809:../system/src/stm32l4-hal-driver/stm32l4xx_hal_dac.c ****       default:
 810:../system/src/stm32l4-hal-driver/stm32l4xx_hal_dac.c ****         break;
 811:../system/src/stm32l4-hal-driver/stm32l4xx_hal_dac.c ****     }
 812:../system/src/stm32l4-hal-driver/stm32l4xx_hal_dac.c ****   }
 813:../system/src/stm32l4-hal-driver/stm32l4xx_hal_dac.c ****   else
 814:../system/src/stm32l4-hal-driver/stm32l4xx_hal_dac.c ****   {
 815:../system/src/stm32l4-hal-driver/stm32l4xx_hal_dac.c ****     /* Set the DMA transfer complete callback for channel2 */
 816:../system/src/stm32l4-hal-driver/stm32l4xx_hal_dac.c ****     hdac->DMA_Handle2->XferCpltCallback = DAC_DMAConvCpltCh2;
 817:../system/src/stm32l4-hal-driver/stm32l4xx_hal_dac.c **** 
 818:../system/src/stm32l4-hal-driver/stm32l4xx_hal_dac.c ****     /* Set the DMA half transfer complete callback for channel2 */
 819:../system/src/stm32l4-hal-driver/stm32l4xx_hal_dac.c ****     hdac->DMA_Handle2->XferHalfCpltCallback = DAC_DMAHalfConvCpltCh2;
 820:../system/src/stm32l4-hal-driver/stm32l4xx_hal_dac.c **** 
 821:../system/src/stm32l4-hal-driver/stm32l4xx_hal_dac.c ****     /* Set the DMA error callback for channel2 */
 822:../system/src/stm32l4-hal-driver/stm32l4xx_hal_dac.c ****     hdac->DMA_Handle2->XferErrorCallback = DAC_DMAErrorCh2;
 823:../system/src/stm32l4-hal-driver/stm32l4xx_hal_dac.c **** 
 824:../system/src/stm32l4-hal-driver/stm32l4xx_hal_dac.c ****     /* Enable the selected DAC channel2 DMA request */
 825:../system/src/stm32l4-hal-driver/stm32l4xx_hal_dac.c ****     SET_BIT(hdac->Instance->CR, DAC_CR_DMAEN2);
 826:../system/src/stm32l4-hal-driver/stm32l4xx_hal_dac.c **** 
 827:../system/src/stm32l4-hal-driver/stm32l4xx_hal_dac.c ****     /* Case of use of channel 2 */
 828:../system/src/stm32l4-hal-driver/stm32l4xx_hal_dac.c ****     switch (Alignment)
 829:../system/src/stm32l4-hal-driver/stm32l4xx_hal_dac.c ****     {
 830:../system/src/stm32l4-hal-driver/stm32l4xx_hal_dac.c ****       case DAC_ALIGN_12B_R:
 831:../system/src/stm32l4-hal-driver/stm32l4xx_hal_dac.c ****         /* Get DHR12R2 address */
 832:../system/src/stm32l4-hal-driver/stm32l4xx_hal_dac.c ****         tmpreg = (uint32_t)&hdac->Instance->DHR12R2;
 833:../system/src/stm32l4-hal-driver/stm32l4xx_hal_dac.c ****         break;
 834:../system/src/stm32l4-hal-driver/stm32l4xx_hal_dac.c ****       case DAC_ALIGN_12B_L:
 835:../system/src/stm32l4-hal-driver/stm32l4xx_hal_dac.c ****         /* Get DHR12L2 address */
 836:../system/src/stm32l4-hal-driver/stm32l4xx_hal_dac.c ****         tmpreg = (uint32_t)&hdac->Instance->DHR12L2;
 837:../system/src/stm32l4-hal-driver/stm32l4xx_hal_dac.c ****         break;
 838:../system/src/stm32l4-hal-driver/stm32l4xx_hal_dac.c ****       case DAC_ALIGN_8B_R:
 839:../system/src/stm32l4-hal-driver/stm32l4xx_hal_dac.c ****         /* Get DHR8R2 address */
 840:../system/src/stm32l4-hal-driver/stm32l4xx_hal_dac.c ****         tmpreg = (uint32_t)&hdac->Instance->DHR8R2;
 841:../system/src/stm32l4-hal-driver/stm32l4xx_hal_dac.c ****         break;
 842:../system/src/stm32l4-hal-driver/stm32l4xx_hal_dac.c ****       default:
 843:../system/src/stm32l4-hal-driver/stm32l4xx_hal_dac.c ****         break;
 844:../system/src/stm32l4-hal-driver/stm32l4xx_hal_dac.c ****     }
 845:../system/src/stm32l4-hal-driver/stm32l4xx_hal_dac.c ****   }
 846:../system/src/stm32l4-hal-driver/stm32l4xx_hal_dac.c **** 
 847:../system/src/stm32l4-hal-driver/stm32l4xx_hal_dac.c ****   /* Enable the DMA channel */
 848:../system/src/stm32l4-hal-driver/stm32l4xx_hal_dac.c ****   if (Channel == DAC_CHANNEL_1)
 380              		.loc 1 848 0
 381 004a 0029     		cmp	r1, #0
 382 004c 36D1     		bne	.L41
 849:../system/src/stm32l4-hal-driver/stm32l4xx_hal_dac.c ****   {
 850:../system/src/stm32l4-hal-driver/stm32l4xx_hal_dac.c ****     /* Enable the DAC DMA underrun interrupt */
 851:../system/src/stm32l4-hal-driver/stm32l4xx_hal_dac.c ****     __HAL_DAC_ENABLE_IT(hdac, DAC_IT_DMAUDR1);
 383              		.loc 1 851 0
 384 004e 0168     		ldr	r1, [r0]
 385              	.LVL23:
 386 0050 0A68     		ldr	r2, [r1]
 387              	.LVL24:
 388 0052 42F40052 		orr	r2, r2, #8192
 389 0056 0A60     		str	r2, [r1]
 852:../system/src/stm32l4-hal-driver/stm32l4xx_hal_dac.c **** 
 853:../system/src/stm32l4-hal-driver/stm32l4xx_hal_dac.c ****     /* Enable the DMA channel */
 854:../system/src/stm32l4-hal-driver/stm32l4xx_hal_dac.c ****     status = HAL_DMA_Start_IT(hdac->DMA_Handle1, (uint32_t)pData, tmpreg, Length);
 390              		.loc 1 854 0
 391 0058 2A46     		mov	r2, r5
 392 005a 3146     		mov	r1, r6
 393 005c 8068     		ldr	r0, [r0, #8]
 394              	.LVL25:
 395 005e FFF7FEFF 		bl	HAL_DMA_Start_IT
 396              	.LVL26:
 397              	.L42:
 855:../system/src/stm32l4-hal-driver/stm32l4xx_hal_dac.c ****   }
 856:../system/src/stm32l4-hal-driver/stm32l4xx_hal_dac.c ****   else
 857:../system/src/stm32l4-hal-driver/stm32l4xx_hal_dac.c ****   {
 858:../system/src/stm32l4-hal-driver/stm32l4xx_hal_dac.c ****     /* Enable the DAC DMA underrun interrupt */
 859:../system/src/stm32l4-hal-driver/stm32l4xx_hal_dac.c ****     __HAL_DAC_ENABLE_IT(hdac, DAC_IT_DMAUDR2);
 860:../system/src/stm32l4-hal-driver/stm32l4xx_hal_dac.c **** 
 861:../system/src/stm32l4-hal-driver/stm32l4xx_hal_dac.c ****     /* Enable the DMA channel */
 862:../system/src/stm32l4-hal-driver/stm32l4xx_hal_dac.c ****     status = HAL_DMA_Start_IT(hdac->DMA_Handle2, (uint32_t)pData, tmpreg, Length);
 863:../system/src/stm32l4-hal-driver/stm32l4xx_hal_dac.c ****   }
 864:../system/src/stm32l4-hal-driver/stm32l4xx_hal_dac.c **** 
 865:../system/src/stm32l4-hal-driver/stm32l4xx_hal_dac.c ****   /* Process Unlocked */
 866:../system/src/stm32l4-hal-driver/stm32l4xx_hal_dac.c ****   __HAL_UNLOCK(hdac);
 398              		.loc 1 866 0
 399 0062 0023     		movs	r3, #0
 400 0064 6371     		strb	r3, [r4, #5]
 867:../system/src/stm32l4-hal-driver/stm32l4xx_hal_dac.c **** 
 868:../system/src/stm32l4-hal-driver/stm32l4xx_hal_dac.c ****   if (status == HAL_OK)
 401              		.loc 1 868 0
 402 0066 0028     		cmp	r0, #0
 403 0068 33D0     		beq	.L51
 869:../system/src/stm32l4-hal-driver/stm32l4xx_hal_dac.c ****   {
 870:../system/src/stm32l4-hal-driver/stm32l4xx_hal_dac.c ****     /* Enable the Peripheral */
 871:../system/src/stm32l4-hal-driver/stm32l4xx_hal_dac.c ****     __HAL_DAC_ENABLE(hdac, Channel);
 872:../system/src/stm32l4-hal-driver/stm32l4xx_hal_dac.c ****   }
 873:../system/src/stm32l4-hal-driver/stm32l4xx_hal_dac.c ****   else
 874:../system/src/stm32l4-hal-driver/stm32l4xx_hal_dac.c ****   {
 875:../system/src/stm32l4-hal-driver/stm32l4xx_hal_dac.c ****     hdac->ErrorCode |= HAL_DAC_ERROR_DMA;
 404              		.loc 1 875 0
 405 006a 2369     		ldr	r3, [r4, #16]
 406 006c 43F00403 		orr	r3, r3, #4
 407 0070 2361     		str	r3, [r4, #16]
 408              	.LVL27:
 409              	.L32:
 876:../system/src/stm32l4-hal-driver/stm32l4xx_hal_dac.c ****   }
 877:../system/src/stm32l4-hal-driver/stm32l4xx_hal_dac.c **** 
 878:../system/src/stm32l4-hal-driver/stm32l4xx_hal_dac.c ****   /* Return function status */
 879:../system/src/stm32l4-hal-driver/stm32l4xx_hal_dac.c ****   return status;
 880:../system/src/stm32l4-hal-driver/stm32l4xx_hal_dac.c **** }
 410              		.loc 1 880 0
 411 0072 F8BD     		pop	{r3, r4, r5, r6, r7, pc}
 412              	.LVL28:
 413              	.L35:
 803:../system/src/stm32l4-hal-driver/stm32l4xx_hal_dac.c ****         break;
 414              		.loc 1 803 0
 415 0074 0568     		ldr	r5, [r0]
 416 0076 0C35     		adds	r5, r5, #12
 417              	.LVL29:
 804:../system/src/stm32l4-hal-driver/stm32l4xx_hal_dac.c ****       case DAC_ALIGN_8B_R:
 418              		.loc 1 804 0
 419 0078 E4E7     		b	.L34
 420              	.LVL30:
 421              	.L36:
 807:../system/src/stm32l4-hal-driver/stm32l4xx_hal_dac.c ****         break;
 422              		.loc 1 807 0
 423 007a 0568     		ldr	r5, [r0]
 424 007c 1035     		adds	r5, r5, #16
 425              	.LVL31:
 808:../system/src/stm32l4-hal-driver/stm32l4xx_hal_dac.c ****       default:
 426              		.loc 1 808 0
 427 007e E1E7     		b	.L34
 428              	.LVL32:
 429              	.L33:
 816:../system/src/stm32l4-hal-driver/stm32l4xx_hal_dac.c **** 
 430              		.loc 1 816 0
 431 0080 C568     		ldr	r5, [r0, #12]
 432 0082 1D4E     		ldr	r6, .L53+12
 433 0084 EE62     		str	r6, [r5, #44]
 819:../system/src/stm32l4-hal-driver/stm32l4xx_hal_dac.c **** 
 434              		.loc 1 819 0
 435 0086 C568     		ldr	r5, [r0, #12]
 436 0088 1C4E     		ldr	r6, .L53+16
 437 008a 2E63     		str	r6, [r5, #48]
 822:../system/src/stm32l4-hal-driver/stm32l4xx_hal_dac.c **** 
 438              		.loc 1 822 0
 439 008c C568     		ldr	r5, [r0, #12]
 440 008e 1C4E     		ldr	r6, .L53+20
 441 0090 6E63     		str	r6, [r5, #52]
 825:../system/src/stm32l4-hal-driver/stm32l4xx_hal_dac.c **** 
 442              		.loc 1 825 0
 443 0092 0668     		ldr	r6, [r0]
 444 0094 3568     		ldr	r5, [r6]
 445 0096 45F08055 		orr	r5, r5, #268435456
 446 009a 3560     		str	r5, [r6]
 828:../system/src/stm32l4-hal-driver/stm32l4xx_hal_dac.c ****     {
 447              		.loc 1 828 0
 448 009c 042C     		cmp	r4, #4
 449 009e 07D0     		beq	.L38
 450 00a0 082C     		cmp	r4, #8
 451 00a2 08D0     		beq	.L39
 452 00a4 0CB1     		cbz	r4, .L52
 768:../system/src/stm32l4-hal-driver/stm32l4xx_hal_dac.c **** 
 453              		.loc 1 768 0
 454 00a6 0025     		movs	r5, #0
 455 00a8 CCE7     		b	.L34
 456              	.L52:
 832:../system/src/stm32l4-hal-driver/stm32l4xx_hal_dac.c ****         break;
 457              		.loc 1 832 0
 458 00aa 0568     		ldr	r5, [r0]
 459 00ac 1435     		adds	r5, r5, #20
 460              	.LVL33:
 833:../system/src/stm32l4-hal-driver/stm32l4xx_hal_dac.c ****       case DAC_ALIGN_12B_L:
 461              		.loc 1 833 0
 462 00ae C9E7     		b	.L34
 463              	.LVL34:
 464              	.L38:
 836:../system/src/stm32l4-hal-driver/stm32l4xx_hal_dac.c ****         break;
 465              		.loc 1 836 0
 466 00b0 0568     		ldr	r5, [r0]
 467 00b2 1835     		adds	r5, r5, #24
 468              	.LVL35:
 837:../system/src/stm32l4-hal-driver/stm32l4xx_hal_dac.c ****       case DAC_ALIGN_8B_R:
 469              		.loc 1 837 0
 470 00b4 C6E7     		b	.L34
 471              	.LVL36:
 472              	.L39:
 840:../system/src/stm32l4-hal-driver/stm32l4xx_hal_dac.c ****         break;
 473              		.loc 1 840 0
 474 00b6 0568     		ldr	r5, [r0]
 475 00b8 1C35     		adds	r5, r5, #28
 476              	.LVL37:
 841:../system/src/stm32l4-hal-driver/stm32l4xx_hal_dac.c ****       default:
 477              		.loc 1 841 0
 478 00ba C3E7     		b	.L34
 479              	.L41:
 859:../system/src/stm32l4-hal-driver/stm32l4xx_hal_dac.c **** 
 480              		.loc 1 859 0
 481 00bc 0168     		ldr	r1, [r0]
 482              	.LVL38:
 483 00be 0A68     		ldr	r2, [r1]
 484              	.LVL39:
 485 00c0 42F00052 		orr	r2, r2, #536870912
 486 00c4 0A60     		str	r2, [r1]
 862:../system/src/stm32l4-hal-driver/stm32l4xx_hal_dac.c ****   }
 487              		.loc 1 862 0
 488 00c6 2A46     		mov	r2, r5
 489 00c8 3146     		mov	r1, r6
 490 00ca C068     		ldr	r0, [r0, #12]
 491              	.LVL40:
 492 00cc FFF7FEFF 		bl	HAL_DMA_Start_IT
 493              	.LVL41:
 494 00d0 C7E7     		b	.L42
 495              	.L51:
 871:../system/src/stm32l4-hal-driver/stm32l4xx_hal_dac.c ****   }
 496              		.loc 1 871 0
 497 00d2 2468     		ldr	r4, [r4]
 498              	.LVL42:
 499 00d4 2368     		ldr	r3, [r4]
 500 00d6 07F01001 		and	r1, r7, #16
 501 00da 0122     		movs	r2, #1
 502 00dc 02FA01F1 		lsl	r1, r2, r1
 503 00e0 1943     		orrs	r1, r1, r3
 504 00e2 2160     		str	r1, [r4]
 505 00e4 C5E7     		b	.L32
 506              	.LVL43:
 507              	.L44:
 775:../system/src/stm32l4-hal-driver/stm32l4xx_hal_dac.c **** 
 508              		.loc 1 775 0
 509 00e6 0220     		movs	r0, #2
 510              	.LVL44:
 511 00e8 C3E7     		b	.L32
 512              	.L54:
 513 00ea 00BF     		.align	2
 514              	.L53:
 515 00ec 00000000 		.word	DAC_DMAConvCpltCh1
 516 00f0 00000000 		.word	DAC_DMAHalfConvCpltCh1
 517 00f4 00000000 		.word	DAC_DMAErrorCh1
 518 00f8 00000000 		.word	DAC_DMAConvCpltCh2
 519 00fc 00000000 		.word	DAC_DMAHalfConvCpltCh2
 520 0100 00000000 		.word	DAC_DMAErrorCh2
 521              		.cfi_endproc
 522              	.LFE323:
 524              		.section	.text.HAL_DAC_Stop_DMA,"ax",%progbits
 525              		.align	1
 526              		.global	HAL_DAC_Stop_DMA
 527              		.syntax unified
 528              		.thumb
 529              		.thumb_func
 530              		.fpu fpv4-sp-d16
 532              	HAL_DAC_Stop_DMA:
 533              	.LFB324:
 881:../system/src/stm32l4-hal-driver/stm32l4xx_hal_dac.c **** #endif  /* STM32L431xx STM32L432xx STM32L433xx STM32L442xx STM32L443xx                         */
 882:../system/src/stm32l4-hal-driver/stm32l4xx_hal_dac.c ****         /* STM32L471xx STM32L475xx STM32L476xx STM32L485xx STM32L486xx STM32L496xx STM32L4A6xx */
 883:../system/src/stm32l4-hal-driver/stm32l4xx_hal_dac.c ****         /* STM32L4P5xx STM32L4Q5xx                                                             */
 884:../system/src/stm32l4-hal-driver/stm32l4xx_hal_dac.c ****         /* STM32L4R5xx STM32L4R7xx STM32L4R9xx STM32L4S5xx STM32L4S7xx STM32L4S9xx             */
 885:../system/src/stm32l4-hal-driver/stm32l4xx_hal_dac.c **** 
 886:../system/src/stm32l4-hal-driver/stm32l4xx_hal_dac.c **** /**
 887:../system/src/stm32l4-hal-driver/stm32l4xx_hal_dac.c ****   * @brief  Disables DAC and stop conversion of channel.
 888:../system/src/stm32l4-hal-driver/stm32l4xx_hal_dac.c ****   * @param  hdac pointer to a DAC_HandleTypeDef structure that contains
 889:../system/src/stm32l4-hal-driver/stm32l4xx_hal_dac.c ****   *         the configuration information for the specified DAC.
 890:../system/src/stm32l4-hal-driver/stm32l4xx_hal_dac.c ****   * @param  Channel The selected DAC channel.
 891:../system/src/stm32l4-hal-driver/stm32l4xx_hal_dac.c ****   *          This parameter can be one of the following values:
 892:../system/src/stm32l4-hal-driver/stm32l4xx_hal_dac.c ****   *            @arg DAC_CHANNEL_1: DAC Channel1 selected
 893:../system/src/stm32l4-hal-driver/stm32l4xx_hal_dac.c ****   *            @arg DAC_CHANNEL_2: DAC Channel2 selected
 894:../system/src/stm32l4-hal-driver/stm32l4xx_hal_dac.c ****   * @retval HAL status
 895:../system/src/stm32l4-hal-driver/stm32l4xx_hal_dac.c ****   */
 896:../system/src/stm32l4-hal-driver/stm32l4xx_hal_dac.c **** HAL_StatusTypeDef HAL_DAC_Stop_DMA(DAC_HandleTypeDef *hdac, uint32_t Channel)
 897:../system/src/stm32l4-hal-driver/stm32l4xx_hal_dac.c **** {
 534              		.loc 1 897 0
 535              		.cfi_startproc
 536              		@ args = 0, pretend = 0, frame = 0
 537              		@ frame_needed = 0, uses_anonymous_args = 0
 538              	.LVL45:
 539 0000 70B5     		push	{r4, r5, r6, lr}
 540              		.cfi_def_cfa_offset 16
 541              		.cfi_offset 4, -16
 542              		.cfi_offset 5, -12
 543              		.cfi_offset 6, -8
 544              		.cfi_offset 14, -4
 545 0002 0446     		mov	r4, r0
 898:../system/src/stm32l4-hal-driver/stm32l4xx_hal_dac.c ****   /* Check the parameters */
 899:../system/src/stm32l4-hal-driver/stm32l4xx_hal_dac.c ****   assert_param(IS_DAC_CHANNEL(Channel));
 900:../system/src/stm32l4-hal-driver/stm32l4xx_hal_dac.c **** 
 901:../system/src/stm32l4-hal-driver/stm32l4xx_hal_dac.c ****   /* Disable the selected DAC channel DMA request */
 902:../system/src/stm32l4-hal-driver/stm32l4xx_hal_dac.c ****   hdac->Instance->CR &= ~(DAC_CR_DMAEN1 << (Channel & 0x10UL));
 546              		.loc 1 902 0
 547 0004 0368     		ldr	r3, [r0]
 548 0006 1868     		ldr	r0, [r3]
 549              	.LVL46:
 550 0008 01F01006 		and	r6, r1, #16
 551 000c 4FF48055 		mov	r5, #4096
 552 0010 B540     		lsls	r5, r5, r6
 553 0012 20EA0500 		bic	r0, r0, r5
 554 0016 1860     		str	r0, [r3]
 903:../system/src/stm32l4-hal-driver/stm32l4xx_hal_dac.c **** 
 904:../system/src/stm32l4-hal-driver/stm32l4xx_hal_dac.c ****   /* Disable the Peripheral */
 905:../system/src/stm32l4-hal-driver/stm32l4xx_hal_dac.c ****   __HAL_DAC_DISABLE(hdac, Channel);
 555              		.loc 1 905 0
 556 0018 2068     		ldr	r0, [r4]
 557 001a 0368     		ldr	r3, [r0]
 558 001c 0122     		movs	r2, #1
 559 001e B240     		lsls	r2, r2, r6
 560 0020 23EA0203 		bic	r3, r3, r2
 561 0024 0360     		str	r3, [r0]
 906:../system/src/stm32l4-hal-driver/stm32l4xx_hal_dac.c **** 
 907:../system/src/stm32l4-hal-driver/stm32l4xx_hal_dac.c ****   /* Disable the DMA channel */
 908:../system/src/stm32l4-hal-driver/stm32l4xx_hal_dac.c **** #if defined (STM32L431xx) || defined (STM32L432xx) || defined (STM32L433xx) || defined (STM32L442xx
 909:../system/src/stm32l4-hal-driver/stm32l4xx_hal_dac.c ****     defined (STM32L471xx) || defined (STM32L475xx) || defined (STM32L476xx) || defined (STM32L485xx
 910:../system/src/stm32l4-hal-driver/stm32l4xx_hal_dac.c ****     defined (STM32L4P5xx) || defined (STM32L4Q5xx) || \
 911:../system/src/stm32l4-hal-driver/stm32l4xx_hal_dac.c ****     defined (STM32L4R5xx) || defined (STM32L4R7xx) || defined (STM32L4R9xx) || defined (STM32L4S5xx
 912:../system/src/stm32l4-hal-driver/stm32l4xx_hal_dac.c ****   /* Channel1 is used */
 913:../system/src/stm32l4-hal-driver/stm32l4xx_hal_dac.c ****   if (Channel == DAC_CHANNEL_1)
 562              		.loc 1 913 0
 563 0026 49B1     		cbz	r1, .L59
 914:../system/src/stm32l4-hal-driver/stm32l4xx_hal_dac.c ****   {
 915:../system/src/stm32l4-hal-driver/stm32l4xx_hal_dac.c ****     /* Disable the DMA channel */
 916:../system/src/stm32l4-hal-driver/stm32l4xx_hal_dac.c ****     (void)HAL_DMA_Abort(hdac->DMA_Handle1);
 917:../system/src/stm32l4-hal-driver/stm32l4xx_hal_dac.c **** 
 918:../system/src/stm32l4-hal-driver/stm32l4xx_hal_dac.c ****     /* Disable the DAC DMA underrun interrupt */
 919:../system/src/stm32l4-hal-driver/stm32l4xx_hal_dac.c ****     __HAL_DAC_DISABLE_IT(hdac, DAC_IT_DMAUDR1);
 920:../system/src/stm32l4-hal-driver/stm32l4xx_hal_dac.c ****   }
 921:../system/src/stm32l4-hal-driver/stm32l4xx_hal_dac.c ****   else /* Channel2 is used for */
 922:../system/src/stm32l4-hal-driver/stm32l4xx_hal_dac.c ****   {
 923:../system/src/stm32l4-hal-driver/stm32l4xx_hal_dac.c ****     /* Disable the DMA channel */
 924:../system/src/stm32l4-hal-driver/stm32l4xx_hal_dac.c ****     (void)HAL_DMA_Abort(hdac->DMA_Handle2);
 564              		.loc 1 924 0
 565 0028 E068     		ldr	r0, [r4, #12]
 566 002a FFF7FEFF 		bl	HAL_DMA_Abort
 567              	.LVL47:
 925:../system/src/stm32l4-hal-driver/stm32l4xx_hal_dac.c **** 
 926:../system/src/stm32l4-hal-driver/stm32l4xx_hal_dac.c ****     /* Disable the DAC DMA underrun interrupt */
 927:../system/src/stm32l4-hal-driver/stm32l4xx_hal_dac.c ****     __HAL_DAC_DISABLE_IT(hdac, DAC_IT_DMAUDR2);
 568              		.loc 1 927 0
 569 002e 2268     		ldr	r2, [r4]
 570 0030 1368     		ldr	r3, [r2]
 571 0032 23F00053 		bic	r3, r3, #536870912
 572 0036 1360     		str	r3, [r2]
 573              	.L57:
 928:../system/src/stm32l4-hal-driver/stm32l4xx_hal_dac.c ****   }
 929:../system/src/stm32l4-hal-driver/stm32l4xx_hal_dac.c **** #endif  /* STM32L431xx STM32L432xx STM32L433xx STM32L442xx STM32L443xx                         */
 930:../system/src/stm32l4-hal-driver/stm32l4xx_hal_dac.c ****         /* STM32L471xx STM32L475xx STM32L476xx STM32L485xx STM32L486xx STM32L496xx STM32L4A6xx */
 931:../system/src/stm32l4-hal-driver/stm32l4xx_hal_dac.c ****         /* STM32L4P5xx STM32L4Q5xx                                                             */
 932:../system/src/stm32l4-hal-driver/stm32l4xx_hal_dac.c ****         /* STM32L4R5xx STM32L4R7xx STM32L4R9xx STM32L4S5xx STM32L4S7xx STM32L4S9xx             */
 933:../system/src/stm32l4-hal-driver/stm32l4xx_hal_dac.c **** 
 934:../system/src/stm32l4-hal-driver/stm32l4xx_hal_dac.c **** #if defined (STM32L451xx) || defined (STM32L452xx) || defined (STM32L462xx)
 935:../system/src/stm32l4-hal-driver/stm32l4xx_hal_dac.c ****   /* Disable the DMA channel */
 936:../system/src/stm32l4-hal-driver/stm32l4xx_hal_dac.c ****   (void)HAL_DMA_Abort(hdac->DMA_Handle1);
 937:../system/src/stm32l4-hal-driver/stm32l4xx_hal_dac.c **** 
 938:../system/src/stm32l4-hal-driver/stm32l4xx_hal_dac.c ****   /* Disable the DAC DMA underrun interrupt */
 939:../system/src/stm32l4-hal-driver/stm32l4xx_hal_dac.c ****   __HAL_DAC_DISABLE_IT(hdac, DAC_IT_DMAUDR1);
 940:../system/src/stm32l4-hal-driver/stm32l4xx_hal_dac.c **** #endif /* STM32L451xx STM32L452xx STM32L462xx */
 941:../system/src/stm32l4-hal-driver/stm32l4xx_hal_dac.c **** 
 942:../system/src/stm32l4-hal-driver/stm32l4xx_hal_dac.c ****   /* Return function status */
 943:../system/src/stm32l4-hal-driver/stm32l4xx_hal_dac.c ****   return HAL_OK;
 944:../system/src/stm32l4-hal-driver/stm32l4xx_hal_dac.c **** }
 574              		.loc 1 944 0
 575 0038 0020     		movs	r0, #0
 576 003a 70BD     		pop	{r4, r5, r6, pc}
 577              	.LVL48:
 578              	.L59:
 916:../system/src/stm32l4-hal-driver/stm32l4xx_hal_dac.c **** 
 579              		.loc 1 916 0
 580 003c A068     		ldr	r0, [r4, #8]
 581 003e FFF7FEFF 		bl	HAL_DMA_Abort
 582              	.LVL49:
 919:../system/src/stm32l4-hal-driver/stm32l4xx_hal_dac.c ****   }
 583              		.loc 1 919 0
 584 0042 2268     		ldr	r2, [r4]
 585 0044 1368     		ldr	r3, [r2]
 586 0046 23F40053 		bic	r3, r3, #8192
 587 004a 1360     		str	r3, [r2]
 588 004c F4E7     		b	.L57
 589              		.cfi_endproc
 590              	.LFE324:
 592              		.section	.text.HAL_DAC_SetValue,"ax",%progbits
 593              		.align	1
 594              		.global	HAL_DAC_SetValue
 595              		.syntax unified
 596              		.thumb
 597              		.thumb_func
 598              		.fpu fpv4-sp-d16
 600              	HAL_DAC_SetValue:
 601              	.LFB326:
 945:../system/src/stm32l4-hal-driver/stm32l4xx_hal_dac.c **** 
 946:../system/src/stm32l4-hal-driver/stm32l4xx_hal_dac.c **** /* DAC channel 2 is available on top of DAC channel 1 in */
 947:../system/src/stm32l4-hal-driver/stm32l4xx_hal_dac.c **** /* STM32L431xx STM32L432xx STM32L433xx STM32L442xx STM32L443xx                         */
 948:../system/src/stm32l4-hal-driver/stm32l4xx_hal_dac.c **** /* STM32L471xx STM32L475xx STM32L476xx STM32L485xx STM32L486xx STM32L496xx STM32L4A6xx */
 949:../system/src/stm32l4-hal-driver/stm32l4xx_hal_dac.c **** 
 950:../system/src/stm32l4-hal-driver/stm32l4xx_hal_dac.c **** /**
 951:../system/src/stm32l4-hal-driver/stm32l4xx_hal_dac.c ****   * @brief  Handles DAC interrupt request
 952:../system/src/stm32l4-hal-driver/stm32l4xx_hal_dac.c ****   *         This function uses the interruption of DMA
 953:../system/src/stm32l4-hal-driver/stm32l4xx_hal_dac.c ****   *         underrun.
 954:../system/src/stm32l4-hal-driver/stm32l4xx_hal_dac.c ****   * @param  hdac pointer to a DAC_HandleTypeDef structure that contains
 955:../system/src/stm32l4-hal-driver/stm32l4xx_hal_dac.c ****   *         the configuration information for the specified DAC.
 956:../system/src/stm32l4-hal-driver/stm32l4xx_hal_dac.c ****   * @retval None
 957:../system/src/stm32l4-hal-driver/stm32l4xx_hal_dac.c ****   */
 958:../system/src/stm32l4-hal-driver/stm32l4xx_hal_dac.c **** void HAL_DAC_IRQHandler(DAC_HandleTypeDef *hdac)
 959:../system/src/stm32l4-hal-driver/stm32l4xx_hal_dac.c **** {
 960:../system/src/stm32l4-hal-driver/stm32l4xx_hal_dac.c ****   if (__HAL_DAC_GET_IT_SOURCE(hdac, DAC_IT_DMAUDR1))
 961:../system/src/stm32l4-hal-driver/stm32l4xx_hal_dac.c ****   {
 962:../system/src/stm32l4-hal-driver/stm32l4xx_hal_dac.c ****     /* Check underrun flag of DAC channel 1 */
 963:../system/src/stm32l4-hal-driver/stm32l4xx_hal_dac.c ****     if (__HAL_DAC_GET_FLAG(hdac, DAC_FLAG_DMAUDR1))
 964:../system/src/stm32l4-hal-driver/stm32l4xx_hal_dac.c ****     {
 965:../system/src/stm32l4-hal-driver/stm32l4xx_hal_dac.c ****       /* Change DAC state to error state */
 966:../system/src/stm32l4-hal-driver/stm32l4xx_hal_dac.c ****       hdac->State = HAL_DAC_STATE_ERROR;
 967:../system/src/stm32l4-hal-driver/stm32l4xx_hal_dac.c **** 
 968:../system/src/stm32l4-hal-driver/stm32l4xx_hal_dac.c ****       /* Set DAC error code to chanel1 DMA underrun error */
 969:../system/src/stm32l4-hal-driver/stm32l4xx_hal_dac.c ****       SET_BIT(hdac->ErrorCode, HAL_DAC_ERROR_DMAUNDERRUNCH1);
 970:../system/src/stm32l4-hal-driver/stm32l4xx_hal_dac.c **** 
 971:../system/src/stm32l4-hal-driver/stm32l4xx_hal_dac.c ****       /* Clear the underrun flag */
 972:../system/src/stm32l4-hal-driver/stm32l4xx_hal_dac.c ****       __HAL_DAC_CLEAR_FLAG(hdac, DAC_FLAG_DMAUDR1);
 973:../system/src/stm32l4-hal-driver/stm32l4xx_hal_dac.c **** 
 974:../system/src/stm32l4-hal-driver/stm32l4xx_hal_dac.c ****       /* Disable the selected DAC channel1 DMA request */
 975:../system/src/stm32l4-hal-driver/stm32l4xx_hal_dac.c ****       CLEAR_BIT(hdac->Instance->CR, DAC_CR_DMAEN1);
 976:../system/src/stm32l4-hal-driver/stm32l4xx_hal_dac.c **** 
 977:../system/src/stm32l4-hal-driver/stm32l4xx_hal_dac.c ****       /* Error callback */
 978:../system/src/stm32l4-hal-driver/stm32l4xx_hal_dac.c **** #if (USE_HAL_DAC_REGISTER_CALLBACKS == 1)
 979:../system/src/stm32l4-hal-driver/stm32l4xx_hal_dac.c ****       hdac->DMAUnderrunCallbackCh1(hdac);
 980:../system/src/stm32l4-hal-driver/stm32l4xx_hal_dac.c **** #else
 981:../system/src/stm32l4-hal-driver/stm32l4xx_hal_dac.c ****       HAL_DAC_DMAUnderrunCallbackCh1(hdac);
 982:../system/src/stm32l4-hal-driver/stm32l4xx_hal_dac.c **** #endif /* USE_HAL_DAC_REGISTER_CALLBACKS */
 983:../system/src/stm32l4-hal-driver/stm32l4xx_hal_dac.c ****     }
 984:../system/src/stm32l4-hal-driver/stm32l4xx_hal_dac.c ****   }
 985:../system/src/stm32l4-hal-driver/stm32l4xx_hal_dac.c **** #if defined (STM32L431xx) || defined (STM32L432xx) || defined (STM32L433xx) || defined (STM32L442xx
 986:../system/src/stm32l4-hal-driver/stm32l4xx_hal_dac.c ****     defined (STM32L471xx) || defined (STM32L475xx) || defined (STM32L476xx) || defined (STM32L485xx
 987:../system/src/stm32l4-hal-driver/stm32l4xx_hal_dac.c ****     defined (STM32L4P5xx) || defined (STM32L4Q5xx) || \
 988:../system/src/stm32l4-hal-driver/stm32l4xx_hal_dac.c ****     defined (STM32L4R5xx) || defined (STM32L4R7xx) || defined (STM32L4R9xx) || defined (STM32L4S5xx
 989:../system/src/stm32l4-hal-driver/stm32l4xx_hal_dac.c ****   if(__HAL_DAC_GET_IT_SOURCE(hdac, DAC_IT_DMAUDR2))
 990:../system/src/stm32l4-hal-driver/stm32l4xx_hal_dac.c ****   {
 991:../system/src/stm32l4-hal-driver/stm32l4xx_hal_dac.c ****     /* Check underrun flag of DAC channel 2 */
 992:../system/src/stm32l4-hal-driver/stm32l4xx_hal_dac.c ****     if (__HAL_DAC_GET_FLAG(hdac, DAC_FLAG_DMAUDR2))
 993:../system/src/stm32l4-hal-driver/stm32l4xx_hal_dac.c ****     {
 994:../system/src/stm32l4-hal-driver/stm32l4xx_hal_dac.c ****       /* Change DAC state to error state */
 995:../system/src/stm32l4-hal-driver/stm32l4xx_hal_dac.c ****       hdac->State = HAL_DAC_STATE_ERROR;
 996:../system/src/stm32l4-hal-driver/stm32l4xx_hal_dac.c **** 
 997:../system/src/stm32l4-hal-driver/stm32l4xx_hal_dac.c ****       /* Set DAC error code to channel2 DMA underrun error */
 998:../system/src/stm32l4-hal-driver/stm32l4xx_hal_dac.c ****       SET_BIT(hdac->ErrorCode, HAL_DAC_ERROR_DMAUNDERRUNCH2);
 999:../system/src/stm32l4-hal-driver/stm32l4xx_hal_dac.c **** 
1000:../system/src/stm32l4-hal-driver/stm32l4xx_hal_dac.c ****       /* Clear the underrun flag */
1001:../system/src/stm32l4-hal-driver/stm32l4xx_hal_dac.c ****       __HAL_DAC_CLEAR_FLAG(hdac, DAC_FLAG_DMAUDR2);
1002:../system/src/stm32l4-hal-driver/stm32l4xx_hal_dac.c **** 
1003:../system/src/stm32l4-hal-driver/stm32l4xx_hal_dac.c ****       /* Disable the selected DAC channel2 DMA request */
1004:../system/src/stm32l4-hal-driver/stm32l4xx_hal_dac.c ****       CLEAR_BIT(hdac->Instance->CR, DAC_CR_DMAEN2);
1005:../system/src/stm32l4-hal-driver/stm32l4xx_hal_dac.c **** 
1006:../system/src/stm32l4-hal-driver/stm32l4xx_hal_dac.c ****       /* Error callback */
1007:../system/src/stm32l4-hal-driver/stm32l4xx_hal_dac.c **** #if (USE_HAL_DAC_REGISTER_CALLBACKS == 1)
1008:../system/src/stm32l4-hal-driver/stm32l4xx_hal_dac.c ****       hdac->DMAUnderrunCallbackCh2(hdac);
1009:../system/src/stm32l4-hal-driver/stm32l4xx_hal_dac.c **** #else
1010:../system/src/stm32l4-hal-driver/stm32l4xx_hal_dac.c ****       HAL_DACEx_DMAUnderrunCallbackCh2(hdac);
1011:../system/src/stm32l4-hal-driver/stm32l4xx_hal_dac.c **** #endif /* USE_HAL_DAC_REGISTER_CALLBACKS */
1012:../system/src/stm32l4-hal-driver/stm32l4xx_hal_dac.c ****     }
1013:../system/src/stm32l4-hal-driver/stm32l4xx_hal_dac.c ****   }
1014:../system/src/stm32l4-hal-driver/stm32l4xx_hal_dac.c **** #endif  /* STM32L431xx STM32L432xx STM32L433xx STM32L442xx STM32L443xx                         */
1015:../system/src/stm32l4-hal-driver/stm32l4xx_hal_dac.c ****         /* STM32L471xx STM32L475xx STM32L476xx STM32L485xx STM32L486xx STM32L496xx STM32L4A6xx */
1016:../system/src/stm32l4-hal-driver/stm32l4xx_hal_dac.c ****         /* STM32L4P5xx STM32L4Q5xx                                                             */
1017:../system/src/stm32l4-hal-driver/stm32l4xx_hal_dac.c ****         /* STM32L4R5xx STM32L4R7xx STM32L4R9xx STM32L4S5xx STM32L4S7xx STM32L4S9xx             */
1018:../system/src/stm32l4-hal-driver/stm32l4xx_hal_dac.c **** }
1019:../system/src/stm32l4-hal-driver/stm32l4xx_hal_dac.c **** 
1020:../system/src/stm32l4-hal-driver/stm32l4xx_hal_dac.c **** /**
1021:../system/src/stm32l4-hal-driver/stm32l4xx_hal_dac.c ****   * @brief  Set the specified data holding register value for DAC channel.
1022:../system/src/stm32l4-hal-driver/stm32l4xx_hal_dac.c ****   * @param  hdac pointer to a DAC_HandleTypeDef structure that contains
1023:../system/src/stm32l4-hal-driver/stm32l4xx_hal_dac.c ****   *         the configuration information for the specified DAC.
1024:../system/src/stm32l4-hal-driver/stm32l4xx_hal_dac.c ****   * @param  Channel The selected DAC channel.
1025:../system/src/stm32l4-hal-driver/stm32l4xx_hal_dac.c ****   *          This parameter can be one of the following values:
1026:../system/src/stm32l4-hal-driver/stm32l4xx_hal_dac.c ****   *            @arg DAC_CHANNEL_1: DAC Channel1 selected
1027:../system/src/stm32l4-hal-driver/stm32l4xx_hal_dac.c ****   *            @arg DAC_CHANNEL_2: DAC Channel2 selected
1028:../system/src/stm32l4-hal-driver/stm32l4xx_hal_dac.c ****   * @param  Alignment Specifies the data alignment.
1029:../system/src/stm32l4-hal-driver/stm32l4xx_hal_dac.c ****   *          This parameter can be one of the following values:
1030:../system/src/stm32l4-hal-driver/stm32l4xx_hal_dac.c ****   *            @arg DAC_ALIGN_8B_R: 8bit right data alignment selected
1031:../system/src/stm32l4-hal-driver/stm32l4xx_hal_dac.c ****   *            @arg DAC_ALIGN_12B_L: 12bit left data alignment selected
1032:../system/src/stm32l4-hal-driver/stm32l4xx_hal_dac.c ****   *            @arg DAC_ALIGN_12B_R: 12bit right data alignment selected
1033:../system/src/stm32l4-hal-driver/stm32l4xx_hal_dac.c ****   * @param  Data Data to be loaded in the selected data holding register.
1034:../system/src/stm32l4-hal-driver/stm32l4xx_hal_dac.c ****   * @retval HAL status
1035:../system/src/stm32l4-hal-driver/stm32l4xx_hal_dac.c ****   */
1036:../system/src/stm32l4-hal-driver/stm32l4xx_hal_dac.c **** HAL_StatusTypeDef HAL_DAC_SetValue(DAC_HandleTypeDef *hdac, uint32_t Channel, uint32_t Alignment, u
1037:../system/src/stm32l4-hal-driver/stm32l4xx_hal_dac.c **** {
 602              		.loc 1 1037 0
 603              		.cfi_startproc
 604              		@ args = 0, pretend = 0, frame = 8
 605              		@ frame_needed = 0, uses_anonymous_args = 0
 606              		@ link register save eliminated.
 607              	.LVL50:
 608 0000 10B4     		push	{r4}
 609              		.cfi_def_cfa_offset 4
 610              		.cfi_offset 4, -4
 611 0002 83B0     		sub	sp, sp, #12
 612              		.cfi_def_cfa_offset 16
1038:../system/src/stm32l4-hal-driver/stm32l4xx_hal_dac.c ****   __IO uint32_t tmp = 0;
 613              		.loc 1 1038 0
 614 0004 0024     		movs	r4, #0
 615 0006 0194     		str	r4, [sp, #4]
1039:../system/src/stm32l4-hal-driver/stm32l4xx_hal_dac.c **** 
1040:../system/src/stm32l4-hal-driver/stm32l4xx_hal_dac.c ****   /* Check the parameters */
1041:../system/src/stm32l4-hal-driver/stm32l4xx_hal_dac.c ****   assert_param(IS_DAC_CHANNEL(Channel));
1042:../system/src/stm32l4-hal-driver/stm32l4xx_hal_dac.c ****   assert_param(IS_DAC_ALIGN(Alignment));
1043:../system/src/stm32l4-hal-driver/stm32l4xx_hal_dac.c ****   assert_param(IS_DAC_DATA(Data));
1044:../system/src/stm32l4-hal-driver/stm32l4xx_hal_dac.c **** 
1045:../system/src/stm32l4-hal-driver/stm32l4xx_hal_dac.c ****   tmp = (uint32_t)hdac->Instance;
 616              		.loc 1 1045 0
 617 0008 0068     		ldr	r0, [r0]
 618              	.LVL51:
 619 000a 0190     		str	r0, [sp, #4]
1046:../system/src/stm32l4-hal-driver/stm32l4xx_hal_dac.c ****   if (Channel == DAC_CHANNEL_1)
 620              		.loc 1 1046 0
 621 000c 51B1     		cbz	r1, .L64
1047:../system/src/stm32l4-hal-driver/stm32l4xx_hal_dac.c ****   {
1048:../system/src/stm32l4-hal-driver/stm32l4xx_hal_dac.c ****     tmp += DAC_DHR12R1_ALIGNMENT(Alignment);
1049:../system/src/stm32l4-hal-driver/stm32l4xx_hal_dac.c ****   }
1050:../system/src/stm32l4-hal-driver/stm32l4xx_hal_dac.c ****   else
1051:../system/src/stm32l4-hal-driver/stm32l4xx_hal_dac.c ****   {
1052:../system/src/stm32l4-hal-driver/stm32l4xx_hal_dac.c ****     tmp += DAC_DHR12R2_ALIGNMENT(Alignment);
 622              		.loc 1 1052 0
 623 000e 0199     		ldr	r1, [sp, #4]
 624              	.LVL52:
 625 0010 0A44     		add	r2, r2, r1
 626              	.LVL53:
 627 0012 1432     		adds	r2, r2, #20
 628 0014 0192     		str	r2, [sp, #4]
 629              	.L62:
1053:../system/src/stm32l4-hal-driver/stm32l4xx_hal_dac.c ****   }
1054:../system/src/stm32l4-hal-driver/stm32l4xx_hal_dac.c **** 
1055:../system/src/stm32l4-hal-driver/stm32l4xx_hal_dac.c ****   /* Set the DAC channel selected data holding register */
1056:../system/src/stm32l4-hal-driver/stm32l4xx_hal_dac.c ****   *(__IO uint32_t *) tmp = Data;
 630              		.loc 1 1056 0
 631 0016 019A     		ldr	r2, [sp, #4]
 632 0018 1360     		str	r3, [r2]
1057:../system/src/stm32l4-hal-driver/stm32l4xx_hal_dac.c **** 
1058:../system/src/stm32l4-hal-driver/stm32l4xx_hal_dac.c ****   /* Return function status */
1059:../system/src/stm32l4-hal-driver/stm32l4xx_hal_dac.c ****   return HAL_OK;
1060:../system/src/stm32l4-hal-driver/stm32l4xx_hal_dac.c **** }
 633              		.loc 1 1060 0
 634 001a 0020     		movs	r0, #0
 635 001c 03B0     		add	sp, sp, #12
 636              		.cfi_remember_state
 637              		.cfi_def_cfa_offset 4
 638              		@ sp needed
 639 001e 5DF8044B 		ldr	r4, [sp], #4
 640              		.cfi_restore 4
 641              		.cfi_def_cfa_offset 0
 642 0022 7047     		bx	lr
 643              	.LVL54:
 644              	.L64:
 645              		.cfi_restore_state
1048:../system/src/stm32l4-hal-driver/stm32l4xx_hal_dac.c ****   }
 646              		.loc 1 1048 0
 647 0024 0199     		ldr	r1, [sp, #4]
 648              	.LVL55:
 649 0026 0A44     		add	r2, r2, r1
 650              	.LVL56:
 651 0028 0832     		adds	r2, r2, #8
 652 002a 0192     		str	r2, [sp, #4]
 653 002c F3E7     		b	.L62
 654              		.cfi_endproc
 655              	.LFE326:
 657              		.section	.text.HAL_DAC_ConvCpltCallbackCh1,"ax",%progbits
 658              		.align	1
 659              		.weak	HAL_DAC_ConvCpltCallbackCh1
 660              		.syntax unified
 661              		.thumb
 662              		.thumb_func
 663              		.fpu fpv4-sp-d16
 665              	HAL_DAC_ConvCpltCallbackCh1:
 666              	.LFB327:
1061:../system/src/stm32l4-hal-driver/stm32l4xx_hal_dac.c **** 
1062:../system/src/stm32l4-hal-driver/stm32l4xx_hal_dac.c **** /**
1063:../system/src/stm32l4-hal-driver/stm32l4xx_hal_dac.c ****   * @brief  Conversion complete callback in non-blocking mode for Channel1
1064:../system/src/stm32l4-hal-driver/stm32l4xx_hal_dac.c ****   * @param  hdac pointer to a DAC_HandleTypeDef structure that contains
1065:../system/src/stm32l4-hal-driver/stm32l4xx_hal_dac.c ****   *         the configuration information for the specified DAC.
1066:../system/src/stm32l4-hal-driver/stm32l4xx_hal_dac.c ****   * @retval None
1067:../system/src/stm32l4-hal-driver/stm32l4xx_hal_dac.c ****   */
1068:../system/src/stm32l4-hal-driver/stm32l4xx_hal_dac.c **** __weak void HAL_DAC_ConvCpltCallbackCh1(DAC_HandleTypeDef *hdac)
1069:../system/src/stm32l4-hal-driver/stm32l4xx_hal_dac.c **** {
 667              		.loc 1 1069 0
 668              		.cfi_startproc
 669              		@ args = 0, pretend = 0, frame = 0
 670              		@ frame_needed = 0, uses_anonymous_args = 0
 671              		@ link register save eliminated.
 672              	.LVL57:
1070:../system/src/stm32l4-hal-driver/stm32l4xx_hal_dac.c ****   /* Prevent unused argument(s) compilation warning */
1071:../system/src/stm32l4-hal-driver/stm32l4xx_hal_dac.c ****   UNUSED(hdac);
1072:../system/src/stm32l4-hal-driver/stm32l4xx_hal_dac.c **** 
1073:../system/src/stm32l4-hal-driver/stm32l4xx_hal_dac.c ****   /* NOTE : This function should not be modified, when the callback is needed,
1074:../system/src/stm32l4-hal-driver/stm32l4xx_hal_dac.c ****             the HAL_DAC_ConvCpltCallbackCh1 could be implemented in the user file
1075:../system/src/stm32l4-hal-driver/stm32l4xx_hal_dac.c ****    */
1076:../system/src/stm32l4-hal-driver/stm32l4xx_hal_dac.c **** }
 673              		.loc 1 1076 0
 674 0000 7047     		bx	lr
 675              		.cfi_endproc
 676              	.LFE327:
 678              		.section	.text.DAC_DMAConvCpltCh1,"ax",%progbits
 679              		.align	1
 680              		.global	DAC_DMAConvCpltCh1
 681              		.syntax unified
 682              		.thumb
 683              		.thumb_func
 684              		.fpu fpv4-sp-d16
 686              	DAC_DMAConvCpltCh1:
 687              	.LFB335:
1077:../system/src/stm32l4-hal-driver/stm32l4xx_hal_dac.c **** 
1078:../system/src/stm32l4-hal-driver/stm32l4xx_hal_dac.c **** /**
1079:../system/src/stm32l4-hal-driver/stm32l4xx_hal_dac.c ****   * @brief  Conversion half DMA transfer callback in non-blocking mode for Channel1
1080:../system/src/stm32l4-hal-driver/stm32l4xx_hal_dac.c ****   * @param  hdac pointer to a DAC_HandleTypeDef structure that contains
1081:../system/src/stm32l4-hal-driver/stm32l4xx_hal_dac.c ****   *         the configuration information for the specified DAC.
1082:../system/src/stm32l4-hal-driver/stm32l4xx_hal_dac.c ****   * @retval None
1083:../system/src/stm32l4-hal-driver/stm32l4xx_hal_dac.c ****   */
1084:../system/src/stm32l4-hal-driver/stm32l4xx_hal_dac.c **** __weak void HAL_DAC_ConvHalfCpltCallbackCh1(DAC_HandleTypeDef *hdac)
1085:../system/src/stm32l4-hal-driver/stm32l4xx_hal_dac.c **** {
1086:../system/src/stm32l4-hal-driver/stm32l4xx_hal_dac.c ****   /* Prevent unused argument(s) compilation warning */
1087:../system/src/stm32l4-hal-driver/stm32l4xx_hal_dac.c ****   UNUSED(hdac);
1088:../system/src/stm32l4-hal-driver/stm32l4xx_hal_dac.c **** 
1089:../system/src/stm32l4-hal-driver/stm32l4xx_hal_dac.c ****   /* NOTE : This function should not be modified, when the callback is needed,
1090:../system/src/stm32l4-hal-driver/stm32l4xx_hal_dac.c ****             the HAL_DAC_ConvHalfCpltCallbackCh1 could be implemented in the user file
1091:../system/src/stm32l4-hal-driver/stm32l4xx_hal_dac.c ****    */
1092:../system/src/stm32l4-hal-driver/stm32l4xx_hal_dac.c **** }
1093:../system/src/stm32l4-hal-driver/stm32l4xx_hal_dac.c **** 
1094:../system/src/stm32l4-hal-driver/stm32l4xx_hal_dac.c **** /**
1095:../system/src/stm32l4-hal-driver/stm32l4xx_hal_dac.c ****   * @brief  Error DAC callback for Channel1.
1096:../system/src/stm32l4-hal-driver/stm32l4xx_hal_dac.c ****   * @param  hdac pointer to a DAC_HandleTypeDef structure that contains
1097:../system/src/stm32l4-hal-driver/stm32l4xx_hal_dac.c ****   *         the configuration information for the specified DAC.
1098:../system/src/stm32l4-hal-driver/stm32l4xx_hal_dac.c ****   * @retval None
1099:../system/src/stm32l4-hal-driver/stm32l4xx_hal_dac.c ****   */
1100:../system/src/stm32l4-hal-driver/stm32l4xx_hal_dac.c **** __weak void HAL_DAC_ErrorCallbackCh1(DAC_HandleTypeDef *hdac)
1101:../system/src/stm32l4-hal-driver/stm32l4xx_hal_dac.c **** {
1102:../system/src/stm32l4-hal-driver/stm32l4xx_hal_dac.c ****   /* Prevent unused argument(s) compilation warning */
1103:../system/src/stm32l4-hal-driver/stm32l4xx_hal_dac.c ****   UNUSED(hdac);
1104:../system/src/stm32l4-hal-driver/stm32l4xx_hal_dac.c **** 
1105:../system/src/stm32l4-hal-driver/stm32l4xx_hal_dac.c ****   /* NOTE : This function should not be modified, when the callback is needed,
1106:../system/src/stm32l4-hal-driver/stm32l4xx_hal_dac.c ****             the HAL_DAC_ErrorCallbackCh1 could be implemented in the user file
1107:../system/src/stm32l4-hal-driver/stm32l4xx_hal_dac.c ****    */
1108:../system/src/stm32l4-hal-driver/stm32l4xx_hal_dac.c **** }
1109:../system/src/stm32l4-hal-driver/stm32l4xx_hal_dac.c **** 
1110:../system/src/stm32l4-hal-driver/stm32l4xx_hal_dac.c **** /**
1111:../system/src/stm32l4-hal-driver/stm32l4xx_hal_dac.c ****   * @brief  DMA underrun DAC callback for channel1.
1112:../system/src/stm32l4-hal-driver/stm32l4xx_hal_dac.c ****   * @param  hdac pointer to a DAC_HandleTypeDef structure that contains
1113:../system/src/stm32l4-hal-driver/stm32l4xx_hal_dac.c ****   *         the configuration information for the specified DAC.
1114:../system/src/stm32l4-hal-driver/stm32l4xx_hal_dac.c ****   * @retval None
1115:../system/src/stm32l4-hal-driver/stm32l4xx_hal_dac.c ****   */
1116:../system/src/stm32l4-hal-driver/stm32l4xx_hal_dac.c **** __weak void HAL_DAC_DMAUnderrunCallbackCh1(DAC_HandleTypeDef *hdac)
1117:../system/src/stm32l4-hal-driver/stm32l4xx_hal_dac.c **** {
1118:../system/src/stm32l4-hal-driver/stm32l4xx_hal_dac.c ****   /* Prevent unused argument(s) compilation warning */
1119:../system/src/stm32l4-hal-driver/stm32l4xx_hal_dac.c ****   UNUSED(hdac);
1120:../system/src/stm32l4-hal-driver/stm32l4xx_hal_dac.c **** 
1121:../system/src/stm32l4-hal-driver/stm32l4xx_hal_dac.c ****   /* NOTE : This function should not be modified, when the callback is needed,
1122:../system/src/stm32l4-hal-driver/stm32l4xx_hal_dac.c ****             the HAL_DAC_DMAUnderrunCallbackCh1 could be implemented in the user file
1123:../system/src/stm32l4-hal-driver/stm32l4xx_hal_dac.c ****    */
1124:../system/src/stm32l4-hal-driver/stm32l4xx_hal_dac.c **** }
1125:../system/src/stm32l4-hal-driver/stm32l4xx_hal_dac.c **** 
1126:../system/src/stm32l4-hal-driver/stm32l4xx_hal_dac.c **** /**
1127:../system/src/stm32l4-hal-driver/stm32l4xx_hal_dac.c ****   * @}
1128:../system/src/stm32l4-hal-driver/stm32l4xx_hal_dac.c ****   */
1129:../system/src/stm32l4-hal-driver/stm32l4xx_hal_dac.c **** 
1130:../system/src/stm32l4-hal-driver/stm32l4xx_hal_dac.c **** /** @defgroup DAC_Exported_Functions_Group3 Peripheral Control functions
1131:../system/src/stm32l4-hal-driver/stm32l4xx_hal_dac.c ****  *  @brief    Peripheral Control functions
1132:../system/src/stm32l4-hal-driver/stm32l4xx_hal_dac.c ****  *
1133:../system/src/stm32l4-hal-driver/stm32l4xx_hal_dac.c **** @verbatim
1134:../system/src/stm32l4-hal-driver/stm32l4xx_hal_dac.c ****   ==============================================================================
1135:../system/src/stm32l4-hal-driver/stm32l4xx_hal_dac.c ****              ##### Peripheral Control functions #####
1136:../system/src/stm32l4-hal-driver/stm32l4xx_hal_dac.c ****   ==============================================================================
1137:../system/src/stm32l4-hal-driver/stm32l4xx_hal_dac.c ****     [..]  This section provides functions allowing to:
1138:../system/src/stm32l4-hal-driver/stm32l4xx_hal_dac.c ****       (+) Configure channels.
1139:../system/src/stm32l4-hal-driver/stm32l4xx_hal_dac.c ****       (+) Set the specified data holding register value for DAC channel.
1140:../system/src/stm32l4-hal-driver/stm32l4xx_hal_dac.c **** 
1141:../system/src/stm32l4-hal-driver/stm32l4xx_hal_dac.c **** @endverbatim
1142:../system/src/stm32l4-hal-driver/stm32l4xx_hal_dac.c ****   * @{
1143:../system/src/stm32l4-hal-driver/stm32l4xx_hal_dac.c ****   */
1144:../system/src/stm32l4-hal-driver/stm32l4xx_hal_dac.c **** 
1145:../system/src/stm32l4-hal-driver/stm32l4xx_hal_dac.c **** /**
1146:../system/src/stm32l4-hal-driver/stm32l4xx_hal_dac.c ****   * @brief  Returns the last data output value of the selected DAC channel.
1147:../system/src/stm32l4-hal-driver/stm32l4xx_hal_dac.c ****   * @param  hdac pointer to a DAC_HandleTypeDef structure that contains
1148:../system/src/stm32l4-hal-driver/stm32l4xx_hal_dac.c ****   *         the configuration information for the specified DAC.
1149:../system/src/stm32l4-hal-driver/stm32l4xx_hal_dac.c ****   * @param  Channel The selected DAC channel.
1150:../system/src/stm32l4-hal-driver/stm32l4xx_hal_dac.c ****   *          This parameter can be one of the following values:
1151:../system/src/stm32l4-hal-driver/stm32l4xx_hal_dac.c ****   *            @arg DAC_CHANNEL_1: DAC Channel1 selected
1152:../system/src/stm32l4-hal-driver/stm32l4xx_hal_dac.c ****   *            @arg DAC_CHANNEL_2: DAC Channel2 selected
1153:../system/src/stm32l4-hal-driver/stm32l4xx_hal_dac.c ****   * @retval The selected DAC channel data output value.
1154:../system/src/stm32l4-hal-driver/stm32l4xx_hal_dac.c ****   */
1155:../system/src/stm32l4-hal-driver/stm32l4xx_hal_dac.c **** uint32_t HAL_DAC_GetValue(DAC_HandleTypeDef *hdac, uint32_t Channel)
1156:../system/src/stm32l4-hal-driver/stm32l4xx_hal_dac.c **** {
1157:../system/src/stm32l4-hal-driver/stm32l4xx_hal_dac.c ****   /* Check the parameters */
1158:../system/src/stm32l4-hal-driver/stm32l4xx_hal_dac.c ****   assert_param(IS_DAC_CHANNEL(Channel));
1159:../system/src/stm32l4-hal-driver/stm32l4xx_hal_dac.c **** 
1160:../system/src/stm32l4-hal-driver/stm32l4xx_hal_dac.c ****   /* Returns the DAC channel data output register value */
1161:../system/src/stm32l4-hal-driver/stm32l4xx_hal_dac.c **** #if defined (STM32L451xx) || defined (STM32L452xx) || defined (STM32L462xx)
1162:../system/src/stm32l4-hal-driver/stm32l4xx_hal_dac.c ****   /* Prevent unused argument(s) compilation warning if no assert_param check */
1163:../system/src/stm32l4-hal-driver/stm32l4xx_hal_dac.c ****   UNUSED(Channel);
1164:../system/src/stm32l4-hal-driver/stm32l4xx_hal_dac.c **** 
1165:../system/src/stm32l4-hal-driver/stm32l4xx_hal_dac.c ****   return hdac->Instance->DOR1;
1166:../system/src/stm32l4-hal-driver/stm32l4xx_hal_dac.c **** #endif /* STM32L451xx STM32L452xx STM32L462xx */
1167:../system/src/stm32l4-hal-driver/stm32l4xx_hal_dac.c **** 
1168:../system/src/stm32l4-hal-driver/stm32l4xx_hal_dac.c **** #if defined (STM32L431xx) || defined (STM32L432xx) || defined (STM32L433xx) || defined (STM32L442xx
1169:../system/src/stm32l4-hal-driver/stm32l4xx_hal_dac.c ****     defined (STM32L471xx) || defined (STM32L475xx) || defined (STM32L476xx) || defined (STM32L485xx
1170:../system/src/stm32l4-hal-driver/stm32l4xx_hal_dac.c ****     defined (STM32L4P5xx) || defined (STM32L4Q5xx) || \
1171:../system/src/stm32l4-hal-driver/stm32l4xx_hal_dac.c ****     defined (STM32L4R5xx) || defined (STM32L4R7xx) || defined (STM32L4R9xx) || defined (STM32L4S5xx
1172:../system/src/stm32l4-hal-driver/stm32l4xx_hal_dac.c ****   if(Channel == DAC_CHANNEL_1)
1173:../system/src/stm32l4-hal-driver/stm32l4xx_hal_dac.c ****   {
1174:../system/src/stm32l4-hal-driver/stm32l4xx_hal_dac.c ****     return hdac->Instance->DOR1;
1175:../system/src/stm32l4-hal-driver/stm32l4xx_hal_dac.c ****   }
1176:../system/src/stm32l4-hal-driver/stm32l4xx_hal_dac.c ****   else
1177:../system/src/stm32l4-hal-driver/stm32l4xx_hal_dac.c ****   {
1178:../system/src/stm32l4-hal-driver/stm32l4xx_hal_dac.c ****     return hdac->Instance->DOR2;
1179:../system/src/stm32l4-hal-driver/stm32l4xx_hal_dac.c ****   }
1180:../system/src/stm32l4-hal-driver/stm32l4xx_hal_dac.c **** #endif  /* STM32L431xx STM32L432xx STM32L433xx STM32L442xx STM32L443xx                         */
1181:../system/src/stm32l4-hal-driver/stm32l4xx_hal_dac.c ****         /* STM32L471xx STM32L475xx STM32L476xx STM32L485xx STM32L486xx STM32L496xx STM32L4A6xx */
1182:../system/src/stm32l4-hal-driver/stm32l4xx_hal_dac.c ****         /* STM32L4P5xx STM32L4Q5xx                                                             */
1183:../system/src/stm32l4-hal-driver/stm32l4xx_hal_dac.c ****         /* STM32L4R5xx STM32L4R7xx STM32L4R9xx STM32L4S5xx STM32L4S7xx STM32L4S9xx             */
1184:../system/src/stm32l4-hal-driver/stm32l4xx_hal_dac.c **** }
1185:../system/src/stm32l4-hal-driver/stm32l4xx_hal_dac.c **** 
1186:../system/src/stm32l4-hal-driver/stm32l4xx_hal_dac.c **** /**
1187:../system/src/stm32l4-hal-driver/stm32l4xx_hal_dac.c ****   * @brief  Configures the selected DAC channel.
1188:../system/src/stm32l4-hal-driver/stm32l4xx_hal_dac.c ****   * @note   By calling this function, the high frequency interface mode (HFSEL bits)
1189:../system/src/stm32l4-hal-driver/stm32l4xx_hal_dac.c ****   *         will be set. This parameter scope is the DAC instance. As the function
1190:../system/src/stm32l4-hal-driver/stm32l4xx_hal_dac.c ****   *         is called for each channel, the @ref DAC_HighFrequency of @arg sConfig
1191:../system/src/stm32l4-hal-driver/stm32l4xx_hal_dac.c ****   *         must be the same at each call.
1192:../system/src/stm32l4-hal-driver/stm32l4xx_hal_dac.c ****   *         (or DAC_HIGH_FREQUENCY_INTERFACE_MODE_AUTOMATIC self detect).
1193:../system/src/stm32l4-hal-driver/stm32l4xx_hal_dac.c ****   * @param  hdac pointer to a DAC_HandleTypeDef structure that contains
1194:../system/src/stm32l4-hal-driver/stm32l4xx_hal_dac.c ****   *         the configuration information for the specified DAC.
1195:../system/src/stm32l4-hal-driver/stm32l4xx_hal_dac.c ****   * @param  sConfig DAC configuration structure.
1196:../system/src/stm32l4-hal-driver/stm32l4xx_hal_dac.c ****   * @param  Channel The selected DAC channel.
1197:../system/src/stm32l4-hal-driver/stm32l4xx_hal_dac.c ****   *          This parameter can be one of the following values:
1198:../system/src/stm32l4-hal-driver/stm32l4xx_hal_dac.c ****   *            @arg DAC_CHANNEL_1: DAC Channel1 selected
1199:../system/src/stm32l4-hal-driver/stm32l4xx_hal_dac.c ****   *            @arg DAC_CHANNEL_2: DAC Channel2 selected (Whenever present)
1200:../system/src/stm32l4-hal-driver/stm32l4xx_hal_dac.c ****   * @retval HAL status
1201:../system/src/stm32l4-hal-driver/stm32l4xx_hal_dac.c ****   */
1202:../system/src/stm32l4-hal-driver/stm32l4xx_hal_dac.c **** HAL_StatusTypeDef HAL_DAC_ConfigChannel(DAC_HandleTypeDef *hdac, DAC_ChannelConfTypeDef *sConfig, u
1203:../system/src/stm32l4-hal-driver/stm32l4xx_hal_dac.c **** {
1204:../system/src/stm32l4-hal-driver/stm32l4xx_hal_dac.c ****   uint32_t tmpreg1;
1205:../system/src/stm32l4-hal-driver/stm32l4xx_hal_dac.c ****   uint32_t tmpreg2;
1206:../system/src/stm32l4-hal-driver/stm32l4xx_hal_dac.c ****   uint32_t tickstart = 0U;
1207:../system/src/stm32l4-hal-driver/stm32l4xx_hal_dac.c **** #if defined (STM32L4P5xx) || defined (STM32L4Q5xx) || defined (STM32L4R5xx) || defined (STM32L4R7xx
1208:../system/src/stm32l4-hal-driver/stm32l4xx_hal_dac.c ****   uint32_t hclkfreq;
1209:../system/src/stm32l4-hal-driver/stm32l4xx_hal_dac.c **** #endif /* STM32L4P5xx STM32L4Q5xx STM32L4R5xx STM32L4R7xx STM32L4R9xx STM32L4S5xx STM32L4S7xx STM32
1210:../system/src/stm32l4-hal-driver/stm32l4xx_hal_dac.c **** 
1211:../system/src/stm32l4-hal-driver/stm32l4xx_hal_dac.c ****   /* Check the DAC parameters */
1212:../system/src/stm32l4-hal-driver/stm32l4xx_hal_dac.c **** #if defined (STM32L4P5xx) || defined (STM32L4Q5xx) || defined (STM32L4R5xx) || defined (STM32L4R7xx
1213:../system/src/stm32l4-hal-driver/stm32l4xx_hal_dac.c ****   assert_param(IS_DAC_HIGH_FREQUENCY_MODE(sConfig->DAC_HighFrequency));
1214:../system/src/stm32l4-hal-driver/stm32l4xx_hal_dac.c **** #endif /* STM32L4P5xx STM32L4Q5xx STM32L4R5xx STM32L4R7xx STM32L4R9xx STM32L4S5xx STM32L4S7xx STM32
1215:../system/src/stm32l4-hal-driver/stm32l4xx_hal_dac.c ****   assert_param(IS_DAC_TRIGGER(sConfig->DAC_Trigger));
1216:../system/src/stm32l4-hal-driver/stm32l4xx_hal_dac.c ****   assert_param(IS_DAC_OUTPUT_BUFFER_STATE(sConfig->DAC_OutputBuffer));
1217:../system/src/stm32l4-hal-driver/stm32l4xx_hal_dac.c ****   assert_param(IS_DAC_CHIP_CONNECTION(sConfig->DAC_ConnectOnChipPeripheral));
1218:../system/src/stm32l4-hal-driver/stm32l4xx_hal_dac.c ****   assert_param(IS_DAC_TRIMMING(sConfig->DAC_UserTrimming));
1219:../system/src/stm32l4-hal-driver/stm32l4xx_hal_dac.c ****   if ((sConfig->DAC_UserTrimming) == DAC_TRIMMING_USER)
1220:../system/src/stm32l4-hal-driver/stm32l4xx_hal_dac.c ****   {
1221:../system/src/stm32l4-hal-driver/stm32l4xx_hal_dac.c ****     assert_param(IS_DAC_TRIMMINGVALUE(sConfig->DAC_TrimmingValue));
1222:../system/src/stm32l4-hal-driver/stm32l4xx_hal_dac.c ****   }
1223:../system/src/stm32l4-hal-driver/stm32l4xx_hal_dac.c ****   assert_param(IS_DAC_SAMPLEANDHOLD(sConfig->DAC_SampleAndHold));
1224:../system/src/stm32l4-hal-driver/stm32l4xx_hal_dac.c ****   if ((sConfig->DAC_SampleAndHold) == DAC_SAMPLEANDHOLD_ENABLE)
1225:../system/src/stm32l4-hal-driver/stm32l4xx_hal_dac.c ****   {
1226:../system/src/stm32l4-hal-driver/stm32l4xx_hal_dac.c ****     assert_param(IS_DAC_SAMPLETIME(sConfig->DAC_SampleAndHoldConfig.DAC_SampleTime));
1227:../system/src/stm32l4-hal-driver/stm32l4xx_hal_dac.c ****     assert_param(IS_DAC_HOLDTIME(sConfig->DAC_SampleAndHoldConfig.DAC_HoldTime));
1228:../system/src/stm32l4-hal-driver/stm32l4xx_hal_dac.c ****     assert_param(IS_DAC_REFRESHTIME(sConfig->DAC_SampleAndHoldConfig.DAC_RefreshTime));
1229:../system/src/stm32l4-hal-driver/stm32l4xx_hal_dac.c ****   }
1230:../system/src/stm32l4-hal-driver/stm32l4xx_hal_dac.c ****   assert_param(IS_DAC_CHANNEL(Channel));
1231:../system/src/stm32l4-hal-driver/stm32l4xx_hal_dac.c **** 
1232:../system/src/stm32l4-hal-driver/stm32l4xx_hal_dac.c ****   /* Process locked */
1233:../system/src/stm32l4-hal-driver/stm32l4xx_hal_dac.c ****   __HAL_LOCK(hdac);
1234:../system/src/stm32l4-hal-driver/stm32l4xx_hal_dac.c **** 
1235:../system/src/stm32l4-hal-driver/stm32l4xx_hal_dac.c ****   /* Change DAC state */
1236:../system/src/stm32l4-hal-driver/stm32l4xx_hal_dac.c ****   hdac->State = HAL_DAC_STATE_BUSY;
1237:../system/src/stm32l4-hal-driver/stm32l4xx_hal_dac.c **** 
1238:../system/src/stm32l4-hal-driver/stm32l4xx_hal_dac.c ****   if (sConfig->DAC_SampleAndHold == DAC_SAMPLEANDHOLD_ENABLE)
1239:../system/src/stm32l4-hal-driver/stm32l4xx_hal_dac.c ****   /* Sample on old configuration */
1240:../system/src/stm32l4-hal-driver/stm32l4xx_hal_dac.c ****   {
1241:../system/src/stm32l4-hal-driver/stm32l4xx_hal_dac.c ****     /* Get timeout */
1242:../system/src/stm32l4-hal-driver/stm32l4xx_hal_dac.c ****     tickstart = HAL_GetTick();
1243:../system/src/stm32l4-hal-driver/stm32l4xx_hal_dac.c **** 
1244:../system/src/stm32l4-hal-driver/stm32l4xx_hal_dac.c ****     if (Channel == DAC_CHANNEL_1)
1245:../system/src/stm32l4-hal-driver/stm32l4xx_hal_dac.c ****     {
1246:../system/src/stm32l4-hal-driver/stm32l4xx_hal_dac.c **** 
1247:../system/src/stm32l4-hal-driver/stm32l4xx_hal_dac.c ****       /* SHSR1 can be written when BWST1 is cleared */
1248:../system/src/stm32l4-hal-driver/stm32l4xx_hal_dac.c ****       while (((hdac->Instance->SR) & DAC_SR_BWST1) != 0UL)
1249:../system/src/stm32l4-hal-driver/stm32l4xx_hal_dac.c ****       {
1250:../system/src/stm32l4-hal-driver/stm32l4xx_hal_dac.c ****         /* Check for the Timeout */
1251:../system/src/stm32l4-hal-driver/stm32l4xx_hal_dac.c ****         if ((HAL_GetTick() - tickstart) > TIMEOUT_DAC_CALIBCONFIG)
1252:../system/src/stm32l4-hal-driver/stm32l4xx_hal_dac.c ****         {
1253:../system/src/stm32l4-hal-driver/stm32l4xx_hal_dac.c ****           /* Update error code */
1254:../system/src/stm32l4-hal-driver/stm32l4xx_hal_dac.c ****           SET_BIT(hdac->ErrorCode, HAL_DAC_ERROR_TIMEOUT);
1255:../system/src/stm32l4-hal-driver/stm32l4xx_hal_dac.c **** 
1256:../system/src/stm32l4-hal-driver/stm32l4xx_hal_dac.c ****           /* Change the DMA state */
1257:../system/src/stm32l4-hal-driver/stm32l4xx_hal_dac.c ****           hdac->State = HAL_DAC_STATE_TIMEOUT;
1258:../system/src/stm32l4-hal-driver/stm32l4xx_hal_dac.c **** 
1259:../system/src/stm32l4-hal-driver/stm32l4xx_hal_dac.c ****           return HAL_TIMEOUT;
1260:../system/src/stm32l4-hal-driver/stm32l4xx_hal_dac.c ****         }
1261:../system/src/stm32l4-hal-driver/stm32l4xx_hal_dac.c ****       }
1262:../system/src/stm32l4-hal-driver/stm32l4xx_hal_dac.c ****       HAL_Delay(1);
1263:../system/src/stm32l4-hal-driver/stm32l4xx_hal_dac.c ****       hdac->Instance->SHSR1 = sConfig->DAC_SampleAndHoldConfig.DAC_SampleTime;
1264:../system/src/stm32l4-hal-driver/stm32l4xx_hal_dac.c ****     }
1265:../system/src/stm32l4-hal-driver/stm32l4xx_hal_dac.c **** #if !defined (STM32L451xx) & !defined (STM32L452xx) & !defined (STM32L462xx)
1266:../system/src/stm32l4-hal-driver/stm32l4xx_hal_dac.c ****     else /* Channel 2 */
1267:../system/src/stm32l4-hal-driver/stm32l4xx_hal_dac.c ****     {
1268:../system/src/stm32l4-hal-driver/stm32l4xx_hal_dac.c ****       /* SHSR2 can be written when BWST2 is cleared */
1269:../system/src/stm32l4-hal-driver/stm32l4xx_hal_dac.c **** 
1270:../system/src/stm32l4-hal-driver/stm32l4xx_hal_dac.c ****       while (((hdac->Instance->SR) & DAC_SR_BWST2) != 0UL)
1271:../system/src/stm32l4-hal-driver/stm32l4xx_hal_dac.c ****       {
1272:../system/src/stm32l4-hal-driver/stm32l4xx_hal_dac.c ****         /* Check for the Timeout */
1273:../system/src/stm32l4-hal-driver/stm32l4xx_hal_dac.c ****         if ((HAL_GetTick() - tickstart) > TIMEOUT_DAC_CALIBCONFIG)
1274:../system/src/stm32l4-hal-driver/stm32l4xx_hal_dac.c ****         {
1275:../system/src/stm32l4-hal-driver/stm32l4xx_hal_dac.c ****           /* Update error code */
1276:../system/src/stm32l4-hal-driver/stm32l4xx_hal_dac.c ****           SET_BIT(hdac->ErrorCode, HAL_DAC_ERROR_TIMEOUT);
1277:../system/src/stm32l4-hal-driver/stm32l4xx_hal_dac.c **** 
1278:../system/src/stm32l4-hal-driver/stm32l4xx_hal_dac.c ****           /* Change the DMA state */
1279:../system/src/stm32l4-hal-driver/stm32l4xx_hal_dac.c ****           hdac->State = HAL_DAC_STATE_TIMEOUT;
1280:../system/src/stm32l4-hal-driver/stm32l4xx_hal_dac.c **** 
1281:../system/src/stm32l4-hal-driver/stm32l4xx_hal_dac.c ****           return HAL_TIMEOUT;
1282:../system/src/stm32l4-hal-driver/stm32l4xx_hal_dac.c ****         }
1283:../system/src/stm32l4-hal-driver/stm32l4xx_hal_dac.c ****       }
1284:../system/src/stm32l4-hal-driver/stm32l4xx_hal_dac.c ****       HAL_Delay(1U);
1285:../system/src/stm32l4-hal-driver/stm32l4xx_hal_dac.c ****       hdac->Instance->SHSR2 = sConfig->DAC_SampleAndHoldConfig.DAC_SampleTime;
1286:../system/src/stm32l4-hal-driver/stm32l4xx_hal_dac.c ****     }
1287:../system/src/stm32l4-hal-driver/stm32l4xx_hal_dac.c **** #endif /* STM32L451xx STM32L452xx STM32L462xx */
1288:../system/src/stm32l4-hal-driver/stm32l4xx_hal_dac.c **** 
1289:../system/src/stm32l4-hal-driver/stm32l4xx_hal_dac.c ****     /* HoldTime */
1290:../system/src/stm32l4-hal-driver/stm32l4xx_hal_dac.c ****     MODIFY_REG(hdac->Instance->SHHR, DAC_SHHR_THOLD1 << (Channel & 0x10UL), (sConfig->DAC_SampleAnd
1291:../system/src/stm32l4-hal-driver/stm32l4xx_hal_dac.c ****     /* RefreshTime */
1292:../system/src/stm32l4-hal-driver/stm32l4xx_hal_dac.c ****     MODIFY_REG(hdac->Instance->SHRR, DAC_SHRR_TREFRESH1 << (Channel & 0x10UL), (sConfig->DAC_Sample
1293:../system/src/stm32l4-hal-driver/stm32l4xx_hal_dac.c ****   }
1294:../system/src/stm32l4-hal-driver/stm32l4xx_hal_dac.c **** 
1295:../system/src/stm32l4-hal-driver/stm32l4xx_hal_dac.c ****   if (sConfig->DAC_UserTrimming == DAC_TRIMMING_USER)
1296:../system/src/stm32l4-hal-driver/stm32l4xx_hal_dac.c ****   /* USER TRIMMING */
1297:../system/src/stm32l4-hal-driver/stm32l4xx_hal_dac.c ****   {
1298:../system/src/stm32l4-hal-driver/stm32l4xx_hal_dac.c ****     /* Get the DAC CCR value */
1299:../system/src/stm32l4-hal-driver/stm32l4xx_hal_dac.c ****     tmpreg1 = hdac->Instance->CCR;
1300:../system/src/stm32l4-hal-driver/stm32l4xx_hal_dac.c ****     /* Clear trimming value */
1301:../system/src/stm32l4-hal-driver/stm32l4xx_hal_dac.c ****     tmpreg1 &= ~(((uint32_t)(DAC_CCR_OTRIM1)) << (Channel & 0x10UL));
1302:../system/src/stm32l4-hal-driver/stm32l4xx_hal_dac.c ****     /* Configure for the selected trimming offset */
1303:../system/src/stm32l4-hal-driver/stm32l4xx_hal_dac.c ****     tmpreg2 = sConfig->DAC_TrimmingValue;
1304:../system/src/stm32l4-hal-driver/stm32l4xx_hal_dac.c ****     /* Calculate CCR register value depending on DAC_Channel */
1305:../system/src/stm32l4-hal-driver/stm32l4xx_hal_dac.c ****     tmpreg1 |= tmpreg2 << (Channel & 0x10UL);
1306:../system/src/stm32l4-hal-driver/stm32l4xx_hal_dac.c ****     /* Write to DAC CCR */
1307:../system/src/stm32l4-hal-driver/stm32l4xx_hal_dac.c ****     hdac->Instance->CCR = tmpreg1;
1308:../system/src/stm32l4-hal-driver/stm32l4xx_hal_dac.c ****   }
1309:../system/src/stm32l4-hal-driver/stm32l4xx_hal_dac.c ****   /* else factory trimming is used (factory setting are available at reset)*/
1310:../system/src/stm32l4-hal-driver/stm32l4xx_hal_dac.c ****   /* SW Nothing has nothing to do */
1311:../system/src/stm32l4-hal-driver/stm32l4xx_hal_dac.c **** 
1312:../system/src/stm32l4-hal-driver/stm32l4xx_hal_dac.c ****   /* Get the DAC MCR value */
1313:../system/src/stm32l4-hal-driver/stm32l4xx_hal_dac.c ****   tmpreg1 = hdac->Instance->MCR;
1314:../system/src/stm32l4-hal-driver/stm32l4xx_hal_dac.c ****   /* Clear DAC_MCR_MODEx bits */
1315:../system/src/stm32l4-hal-driver/stm32l4xx_hal_dac.c ****   tmpreg1 &= ~(((uint32_t)(DAC_MCR_MODE1)) << (Channel & 0x10UL));
1316:../system/src/stm32l4-hal-driver/stm32l4xx_hal_dac.c ****   /* Configure for the selected DAC channel: mode, buffer output & on chip peripheral connect */
1317:../system/src/stm32l4-hal-driver/stm32l4xx_hal_dac.c ****   tmpreg2 = (sConfig->DAC_SampleAndHold | sConfig->DAC_OutputBuffer | sConfig->DAC_ConnectOnChipPer
1318:../system/src/stm32l4-hal-driver/stm32l4xx_hal_dac.c ****   /* Calculate MCR register value depending on DAC_Channel */
1319:../system/src/stm32l4-hal-driver/stm32l4xx_hal_dac.c ****   tmpreg1 |= tmpreg2 << (Channel & 0x10UL);
1320:../system/src/stm32l4-hal-driver/stm32l4xx_hal_dac.c ****   /* Write to DAC MCR */
1321:../system/src/stm32l4-hal-driver/stm32l4xx_hal_dac.c ****   hdac->Instance->MCR = tmpreg1;
1322:../system/src/stm32l4-hal-driver/stm32l4xx_hal_dac.c **** 
1323:../system/src/stm32l4-hal-driver/stm32l4xx_hal_dac.c ****   /* DAC in normal operating mode hence clear DAC_CR_CENx bit */
1324:../system/src/stm32l4-hal-driver/stm32l4xx_hal_dac.c ****   CLEAR_BIT(hdac->Instance->CR, DAC_CR_CEN1 << (Channel & 0x10UL));
1325:../system/src/stm32l4-hal-driver/stm32l4xx_hal_dac.c **** 
1326:../system/src/stm32l4-hal-driver/stm32l4xx_hal_dac.c ****   /* Get the DAC CR value */
1327:../system/src/stm32l4-hal-driver/stm32l4xx_hal_dac.c ****   tmpreg1 = hdac->Instance->CR;
1328:../system/src/stm32l4-hal-driver/stm32l4xx_hal_dac.c ****   /* Clear TENx, TSELx, WAVEx and MAMPx bits */
1329:../system/src/stm32l4-hal-driver/stm32l4xx_hal_dac.c ****   tmpreg1 &= ~(((uint32_t)(DAC_CR_MAMP1 | DAC_CR_WAVE1 | DAC_CR_TSEL1 | DAC_CR_TEN1)) << (Channel &
1330:../system/src/stm32l4-hal-driver/stm32l4xx_hal_dac.c ****   /* Configure for the selected DAC channel: trigger */
1331:../system/src/stm32l4-hal-driver/stm32l4xx_hal_dac.c ****   /* Set TSELx and TENx bits according to DAC_Trigger value */
1332:../system/src/stm32l4-hal-driver/stm32l4xx_hal_dac.c ****   tmpreg2 = sConfig->DAC_Trigger;
1333:../system/src/stm32l4-hal-driver/stm32l4xx_hal_dac.c ****   /* Calculate CR register value depending on DAC_Channel */
1334:../system/src/stm32l4-hal-driver/stm32l4xx_hal_dac.c ****   tmpreg1 |= tmpreg2 << (Channel & 0x10UL);
1335:../system/src/stm32l4-hal-driver/stm32l4xx_hal_dac.c **** #if defined (STM32L4P5xx) || defined (STM32L4Q5xx) || defined (STM32L4R5xx) || defined (STM32L4R7xx
1336:../system/src/stm32l4-hal-driver/stm32l4xx_hal_dac.c ****   if (DAC_HIGH_FREQUENCY_INTERFACE_MODE_ABOVE_80MHZ == sConfig->DAC_HighFrequency)
1337:../system/src/stm32l4-hal-driver/stm32l4xx_hal_dac.c ****   {
1338:../system/src/stm32l4-hal-driver/stm32l4xx_hal_dac.c ****     tmpreg1 |= DAC_CR_HFSEL;
1339:../system/src/stm32l4-hal-driver/stm32l4xx_hal_dac.c ****   }
1340:../system/src/stm32l4-hal-driver/stm32l4xx_hal_dac.c ****   else
1341:../system/src/stm32l4-hal-driver/stm32l4xx_hal_dac.c ****   {
1342:../system/src/stm32l4-hal-driver/stm32l4xx_hal_dac.c ****     if (DAC_HIGH_FREQUENCY_INTERFACE_MODE_DISABLE == sConfig->DAC_HighFrequency)
1343:../system/src/stm32l4-hal-driver/stm32l4xx_hal_dac.c ****     {
1344:../system/src/stm32l4-hal-driver/stm32l4xx_hal_dac.c ****       tmpreg1 &= ~(DAC_CR_HFSEL);
1345:../system/src/stm32l4-hal-driver/stm32l4xx_hal_dac.c ****     }
1346:../system/src/stm32l4-hal-driver/stm32l4xx_hal_dac.c ****     else /* Automatic selection */
1347:../system/src/stm32l4-hal-driver/stm32l4xx_hal_dac.c ****     {
1348:../system/src/stm32l4-hal-driver/stm32l4xx_hal_dac.c ****       hclkfreq = HAL_RCC_GetHCLKFreq();
1349:../system/src/stm32l4-hal-driver/stm32l4xx_hal_dac.c ****       if (hclkfreq > HFSEL_ENABLE_THRESHOLD_80MHZ)
1350:../system/src/stm32l4-hal-driver/stm32l4xx_hal_dac.c ****       {
1351:../system/src/stm32l4-hal-driver/stm32l4xx_hal_dac.c ****         /* High frequency enable when HCLK frequency higher than 80   */
1352:../system/src/stm32l4-hal-driver/stm32l4xx_hal_dac.c ****          tmpreg1 |= DAC_CR_HFSEL;
1353:../system/src/stm32l4-hal-driver/stm32l4xx_hal_dac.c ****       }
1354:../system/src/stm32l4-hal-driver/stm32l4xx_hal_dac.c ****       else
1355:../system/src/stm32l4-hal-driver/stm32l4xx_hal_dac.c ****       {
1356:../system/src/stm32l4-hal-driver/stm32l4xx_hal_dac.c ****         /* High frequency disable when HCLK frequency higher than 80  */
1357:../system/src/stm32l4-hal-driver/stm32l4xx_hal_dac.c ****         tmpreg1 &= ~(DAC_CR_HFSEL);
1358:../system/src/stm32l4-hal-driver/stm32l4xx_hal_dac.c ****       }
1359:../system/src/stm32l4-hal-driver/stm32l4xx_hal_dac.c ****     }
1360:../system/src/stm32l4-hal-driver/stm32l4xx_hal_dac.c ****   }
1361:../system/src/stm32l4-hal-driver/stm32l4xx_hal_dac.c **** 
1362:../system/src/stm32l4-hal-driver/stm32l4xx_hal_dac.c **** #endif /* STM32L4P5xx STM32L4Q5xx STM32L4R5xx STM32L4R7xx STM32L4R9xx STM32L4S5xx STM32L4S7xx STM32
1363:../system/src/stm32l4-hal-driver/stm32l4xx_hal_dac.c **** 
1364:../system/src/stm32l4-hal-driver/stm32l4xx_hal_dac.c ****   /* Write to DAC CR */
1365:../system/src/stm32l4-hal-driver/stm32l4xx_hal_dac.c ****   hdac->Instance->CR = tmpreg1;
1366:../system/src/stm32l4-hal-driver/stm32l4xx_hal_dac.c ****   /* Disable wave generation */
1367:../system/src/stm32l4-hal-driver/stm32l4xx_hal_dac.c ****   hdac->Instance->CR &= ~(DAC_CR_WAVE1 << (Channel & 0x10UL));
1368:../system/src/stm32l4-hal-driver/stm32l4xx_hal_dac.c **** 
1369:../system/src/stm32l4-hal-driver/stm32l4xx_hal_dac.c ****   /* Change DAC state */
1370:../system/src/stm32l4-hal-driver/stm32l4xx_hal_dac.c ****   hdac->State = HAL_DAC_STATE_READY;
1371:../system/src/stm32l4-hal-driver/stm32l4xx_hal_dac.c **** 
1372:../system/src/stm32l4-hal-driver/stm32l4xx_hal_dac.c ****   /* Process unlocked */
1373:../system/src/stm32l4-hal-driver/stm32l4xx_hal_dac.c ****   __HAL_UNLOCK(hdac);
1374:../system/src/stm32l4-hal-driver/stm32l4xx_hal_dac.c **** 
1375:../system/src/stm32l4-hal-driver/stm32l4xx_hal_dac.c ****   /* Return function status */
1376:../system/src/stm32l4-hal-driver/stm32l4xx_hal_dac.c ****   return HAL_OK;
1377:../system/src/stm32l4-hal-driver/stm32l4xx_hal_dac.c **** }
1378:../system/src/stm32l4-hal-driver/stm32l4xx_hal_dac.c **** 
1379:../system/src/stm32l4-hal-driver/stm32l4xx_hal_dac.c **** /**
1380:../system/src/stm32l4-hal-driver/stm32l4xx_hal_dac.c ****   * @}
1381:../system/src/stm32l4-hal-driver/stm32l4xx_hal_dac.c ****   */
1382:../system/src/stm32l4-hal-driver/stm32l4xx_hal_dac.c **** 
1383:../system/src/stm32l4-hal-driver/stm32l4xx_hal_dac.c **** /** @defgroup DAC_Exported_Functions_Group4 Peripheral State and Errors functions
1384:../system/src/stm32l4-hal-driver/stm32l4xx_hal_dac.c ****  *  @brief   Peripheral State and Errors functions
1385:../system/src/stm32l4-hal-driver/stm32l4xx_hal_dac.c ****  *
1386:../system/src/stm32l4-hal-driver/stm32l4xx_hal_dac.c **** @verbatim
1387:../system/src/stm32l4-hal-driver/stm32l4xx_hal_dac.c ****   ==============================================================================
1388:../system/src/stm32l4-hal-driver/stm32l4xx_hal_dac.c ****             ##### Peripheral State and Errors functions #####
1389:../system/src/stm32l4-hal-driver/stm32l4xx_hal_dac.c ****   ==============================================================================
1390:../system/src/stm32l4-hal-driver/stm32l4xx_hal_dac.c ****     [..]
1391:../system/src/stm32l4-hal-driver/stm32l4xx_hal_dac.c ****     This subsection provides functions allowing to
1392:../system/src/stm32l4-hal-driver/stm32l4xx_hal_dac.c ****       (+) Check the DAC state.
1393:../system/src/stm32l4-hal-driver/stm32l4xx_hal_dac.c ****       (+) Check the DAC Errors.
1394:../system/src/stm32l4-hal-driver/stm32l4xx_hal_dac.c **** 
1395:../system/src/stm32l4-hal-driver/stm32l4xx_hal_dac.c **** @endverbatim
1396:../system/src/stm32l4-hal-driver/stm32l4xx_hal_dac.c ****   * @{
1397:../system/src/stm32l4-hal-driver/stm32l4xx_hal_dac.c ****   */
1398:../system/src/stm32l4-hal-driver/stm32l4xx_hal_dac.c **** 
1399:../system/src/stm32l4-hal-driver/stm32l4xx_hal_dac.c **** /**
1400:../system/src/stm32l4-hal-driver/stm32l4xx_hal_dac.c ****   * @brief  return the DAC handle state
1401:../system/src/stm32l4-hal-driver/stm32l4xx_hal_dac.c ****   * @param  hdac pointer to a DAC_HandleTypeDef structure that contains
1402:../system/src/stm32l4-hal-driver/stm32l4xx_hal_dac.c ****   *         the configuration information for the specified DAC.
1403:../system/src/stm32l4-hal-driver/stm32l4xx_hal_dac.c ****   * @retval HAL state
1404:../system/src/stm32l4-hal-driver/stm32l4xx_hal_dac.c ****   */
1405:../system/src/stm32l4-hal-driver/stm32l4xx_hal_dac.c **** HAL_DAC_StateTypeDef HAL_DAC_GetState(DAC_HandleTypeDef *hdac)
1406:../system/src/stm32l4-hal-driver/stm32l4xx_hal_dac.c **** {
1407:../system/src/stm32l4-hal-driver/stm32l4xx_hal_dac.c ****   /* Return DAC handle state */
1408:../system/src/stm32l4-hal-driver/stm32l4xx_hal_dac.c ****   return hdac->State;
1409:../system/src/stm32l4-hal-driver/stm32l4xx_hal_dac.c **** }
1410:../system/src/stm32l4-hal-driver/stm32l4xx_hal_dac.c **** 
1411:../system/src/stm32l4-hal-driver/stm32l4xx_hal_dac.c **** 
1412:../system/src/stm32l4-hal-driver/stm32l4xx_hal_dac.c **** /**
1413:../system/src/stm32l4-hal-driver/stm32l4xx_hal_dac.c ****   * @brief  Return the DAC error code
1414:../system/src/stm32l4-hal-driver/stm32l4xx_hal_dac.c ****   * @param  hdac pointer to a DAC_HandleTypeDef structure that contains
1415:../system/src/stm32l4-hal-driver/stm32l4xx_hal_dac.c ****   *         the configuration information for the specified DAC.
1416:../system/src/stm32l4-hal-driver/stm32l4xx_hal_dac.c ****   * @retval DAC Error Code
1417:../system/src/stm32l4-hal-driver/stm32l4xx_hal_dac.c ****   */
1418:../system/src/stm32l4-hal-driver/stm32l4xx_hal_dac.c **** uint32_t HAL_DAC_GetError(DAC_HandleTypeDef *hdac)
1419:../system/src/stm32l4-hal-driver/stm32l4xx_hal_dac.c **** {
1420:../system/src/stm32l4-hal-driver/stm32l4xx_hal_dac.c ****   return hdac->ErrorCode;
1421:../system/src/stm32l4-hal-driver/stm32l4xx_hal_dac.c **** }
1422:../system/src/stm32l4-hal-driver/stm32l4xx_hal_dac.c **** 
1423:../system/src/stm32l4-hal-driver/stm32l4xx_hal_dac.c **** /**
1424:../system/src/stm32l4-hal-driver/stm32l4xx_hal_dac.c ****   * @}
1425:../system/src/stm32l4-hal-driver/stm32l4xx_hal_dac.c ****   */
1426:../system/src/stm32l4-hal-driver/stm32l4xx_hal_dac.c **** 
1427:../system/src/stm32l4-hal-driver/stm32l4xx_hal_dac.c **** /**
1428:../system/src/stm32l4-hal-driver/stm32l4xx_hal_dac.c ****   * @}
1429:../system/src/stm32l4-hal-driver/stm32l4xx_hal_dac.c ****   */
1430:../system/src/stm32l4-hal-driver/stm32l4xx_hal_dac.c **** 
1431:../system/src/stm32l4-hal-driver/stm32l4xx_hal_dac.c **** /** @addtogroup DAC_Exported_Functions
1432:../system/src/stm32l4-hal-driver/stm32l4xx_hal_dac.c ****   * @{
1433:../system/src/stm32l4-hal-driver/stm32l4xx_hal_dac.c ****   */
1434:../system/src/stm32l4-hal-driver/stm32l4xx_hal_dac.c **** 
1435:../system/src/stm32l4-hal-driver/stm32l4xx_hal_dac.c **** /** @addtogroup DAC_Exported_Functions_Group1
1436:../system/src/stm32l4-hal-driver/stm32l4xx_hal_dac.c ****   * @{
1437:../system/src/stm32l4-hal-driver/stm32l4xx_hal_dac.c ****   */
1438:../system/src/stm32l4-hal-driver/stm32l4xx_hal_dac.c **** #if (USE_HAL_DAC_REGISTER_CALLBACKS == 1)
1439:../system/src/stm32l4-hal-driver/stm32l4xx_hal_dac.c **** /**
1440:../system/src/stm32l4-hal-driver/stm32l4xx_hal_dac.c ****   * @brief  Register a User DAC Callback
1441:../system/src/stm32l4-hal-driver/stm32l4xx_hal_dac.c ****   *         To be used instead of the weak (surcharged) predefined callback
1442:../system/src/stm32l4-hal-driver/stm32l4xx_hal_dac.c ****   * @param  hdac DAC handle
1443:../system/src/stm32l4-hal-driver/stm32l4xx_hal_dac.c ****   * @param  CallbackID ID of the callback to be registered
1444:../system/src/stm32l4-hal-driver/stm32l4xx_hal_dac.c ****   *         This parameter can be one of the following values:
1445:../system/src/stm32l4-hal-driver/stm32l4xx_hal_dac.c ****   *          @arg @ref HAL_DAC_ERROR_INVALID_CALLBACK   DAC Error Callback ID
1446:../system/src/stm32l4-hal-driver/stm32l4xx_hal_dac.c ****   *          @arg @ref HAL_DAC_CH1_COMPLETE_CB_ID       DAC CH1 Complete Callback ID
1447:../system/src/stm32l4-hal-driver/stm32l4xx_hal_dac.c ****   *          @arg @ref HAL_DAC_CH1_HALF_COMPLETE_CB_ID  DAC CH1 Half Complete Callback ID
1448:../system/src/stm32l4-hal-driver/stm32l4xx_hal_dac.c ****   *          @arg @ref HAL_DAC_CH1_ERROR_ID             DAC CH1 Error Callback ID
1449:../system/src/stm32l4-hal-driver/stm32l4xx_hal_dac.c ****   *          @arg @ref HAL_DAC_CH1_UNDERRUN_CB_ID       DAC CH1 UnderRun Callback ID
1450:../system/src/stm32l4-hal-driver/stm32l4xx_hal_dac.c ****   *          @arg @ref HAL_DAC_CH2_COMPLETE_CB_ID       DAC CH2 Complete Callback ID
1451:../system/src/stm32l4-hal-driver/stm32l4xx_hal_dac.c ****   *          @arg @ref HAL_DAC_CH2_HALF_COMPLETE_CB_ID  DAC CH2 Half Complete Callback ID
1452:../system/src/stm32l4-hal-driver/stm32l4xx_hal_dac.c ****   *          @arg @ref HAL_DAC_CH2_ERROR_ID             DAC CH2 Error Callback ID
1453:../system/src/stm32l4-hal-driver/stm32l4xx_hal_dac.c ****   *          @arg @ref HAL_DAC_CH2_UNDERRUN_CB_ID       DAC CH2 UnderRun Callback ID
1454:../system/src/stm32l4-hal-driver/stm32l4xx_hal_dac.c ****   *          @arg @ref HAL_DAC_MSPINIT_CB_ID            DAC MSP Init Callback ID
1455:../system/src/stm32l4-hal-driver/stm32l4xx_hal_dac.c ****   *          @arg @ref HAL_DAC_MSPDEINIT_CB_ID          DAC MSP DeInit Callback ID
1456:../system/src/stm32l4-hal-driver/stm32l4xx_hal_dac.c ****   *
1457:../system/src/stm32l4-hal-driver/stm32l4xx_hal_dac.c ****   * @param  pCallback pointer to the Callback function
1458:../system/src/stm32l4-hal-driver/stm32l4xx_hal_dac.c ****   * @retval status
1459:../system/src/stm32l4-hal-driver/stm32l4xx_hal_dac.c ****   */
1460:../system/src/stm32l4-hal-driver/stm32l4xx_hal_dac.c **** HAL_StatusTypeDef HAL_DAC_RegisterCallback(DAC_HandleTypeDef *hdac, HAL_DAC_CallbackIDTypeDef Callb
1461:../system/src/stm32l4-hal-driver/stm32l4xx_hal_dac.c ****                                            pDAC_CallbackTypeDef pCallback)
1462:../system/src/stm32l4-hal-driver/stm32l4xx_hal_dac.c **** {
1463:../system/src/stm32l4-hal-driver/stm32l4xx_hal_dac.c ****   HAL_StatusTypeDef status = HAL_OK;
1464:../system/src/stm32l4-hal-driver/stm32l4xx_hal_dac.c **** 
1465:../system/src/stm32l4-hal-driver/stm32l4xx_hal_dac.c ****   if (pCallback == NULL)
1466:../system/src/stm32l4-hal-driver/stm32l4xx_hal_dac.c ****   {
1467:../system/src/stm32l4-hal-driver/stm32l4xx_hal_dac.c ****     /* Update the error code */
1468:../system/src/stm32l4-hal-driver/stm32l4xx_hal_dac.c ****     hdac->ErrorCode |= HAL_DAC_ERROR_INVALID_CALLBACK;
1469:../system/src/stm32l4-hal-driver/stm32l4xx_hal_dac.c ****     return HAL_ERROR;
1470:../system/src/stm32l4-hal-driver/stm32l4xx_hal_dac.c ****   }
1471:../system/src/stm32l4-hal-driver/stm32l4xx_hal_dac.c **** 
1472:../system/src/stm32l4-hal-driver/stm32l4xx_hal_dac.c ****   /* Process locked */
1473:../system/src/stm32l4-hal-driver/stm32l4xx_hal_dac.c ****   __HAL_LOCK(hdac);
1474:../system/src/stm32l4-hal-driver/stm32l4xx_hal_dac.c **** 
1475:../system/src/stm32l4-hal-driver/stm32l4xx_hal_dac.c ****   if (hdac->State == HAL_DAC_STATE_READY)
1476:../system/src/stm32l4-hal-driver/stm32l4xx_hal_dac.c ****   {
1477:../system/src/stm32l4-hal-driver/stm32l4xx_hal_dac.c ****     switch (CallbackID)
1478:../system/src/stm32l4-hal-driver/stm32l4xx_hal_dac.c ****     {
1479:../system/src/stm32l4-hal-driver/stm32l4xx_hal_dac.c ****     case HAL_DAC_CH1_COMPLETE_CB_ID :
1480:../system/src/stm32l4-hal-driver/stm32l4xx_hal_dac.c ****       hdac->ConvCpltCallbackCh1 = pCallback;
1481:../system/src/stm32l4-hal-driver/stm32l4xx_hal_dac.c ****       break;
1482:../system/src/stm32l4-hal-driver/stm32l4xx_hal_dac.c ****     case HAL_DAC_CH1_HALF_COMPLETE_CB_ID :
1483:../system/src/stm32l4-hal-driver/stm32l4xx_hal_dac.c ****       hdac->ConvHalfCpltCallbackCh1 = pCallback;
1484:../system/src/stm32l4-hal-driver/stm32l4xx_hal_dac.c ****       break;
1485:../system/src/stm32l4-hal-driver/stm32l4xx_hal_dac.c ****     case HAL_DAC_CH1_ERROR_ID :
1486:../system/src/stm32l4-hal-driver/stm32l4xx_hal_dac.c ****       hdac->ErrorCallbackCh1 = pCallback;
1487:../system/src/stm32l4-hal-driver/stm32l4xx_hal_dac.c ****       break;
1488:../system/src/stm32l4-hal-driver/stm32l4xx_hal_dac.c ****     case HAL_DAC_CH1_UNDERRUN_CB_ID :
1489:../system/src/stm32l4-hal-driver/stm32l4xx_hal_dac.c ****       hdac->DMAUnderrunCallbackCh1 = pCallback;
1490:../system/src/stm32l4-hal-driver/stm32l4xx_hal_dac.c ****       break;
1491:../system/src/stm32l4-hal-driver/stm32l4xx_hal_dac.c ****     case HAL_DAC_CH2_COMPLETE_CB_ID :
1492:../system/src/stm32l4-hal-driver/stm32l4xx_hal_dac.c ****       hdac->ConvCpltCallbackCh2 = pCallback;
1493:../system/src/stm32l4-hal-driver/stm32l4xx_hal_dac.c ****       break;
1494:../system/src/stm32l4-hal-driver/stm32l4xx_hal_dac.c ****     case HAL_DAC_CH2_HALF_COMPLETE_CB_ID :
1495:../system/src/stm32l4-hal-driver/stm32l4xx_hal_dac.c ****       hdac->ConvHalfCpltCallbackCh2 = pCallback;
1496:../system/src/stm32l4-hal-driver/stm32l4xx_hal_dac.c ****       break;
1497:../system/src/stm32l4-hal-driver/stm32l4xx_hal_dac.c ****     case HAL_DAC_CH2_ERROR_ID :
1498:../system/src/stm32l4-hal-driver/stm32l4xx_hal_dac.c ****       hdac->ErrorCallbackCh2 = pCallback;
1499:../system/src/stm32l4-hal-driver/stm32l4xx_hal_dac.c ****       break;
1500:../system/src/stm32l4-hal-driver/stm32l4xx_hal_dac.c ****     case HAL_DAC_CH2_UNDERRUN_CB_ID :
1501:../system/src/stm32l4-hal-driver/stm32l4xx_hal_dac.c ****       hdac->DMAUnderrunCallbackCh2 = pCallback;
1502:../system/src/stm32l4-hal-driver/stm32l4xx_hal_dac.c ****       break;
1503:../system/src/stm32l4-hal-driver/stm32l4xx_hal_dac.c ****     case HAL_DAC_MSPINIT_CB_ID :
1504:../system/src/stm32l4-hal-driver/stm32l4xx_hal_dac.c ****       hdac->MspInitCallback = pCallback;
1505:../system/src/stm32l4-hal-driver/stm32l4xx_hal_dac.c ****       break;
1506:../system/src/stm32l4-hal-driver/stm32l4xx_hal_dac.c ****     case HAL_DAC_MSPDEINIT_CB_ID :
1507:../system/src/stm32l4-hal-driver/stm32l4xx_hal_dac.c ****       hdac->MspDeInitCallback = pCallback;
1508:../system/src/stm32l4-hal-driver/stm32l4xx_hal_dac.c ****       break;
1509:../system/src/stm32l4-hal-driver/stm32l4xx_hal_dac.c ****     default :
1510:../system/src/stm32l4-hal-driver/stm32l4xx_hal_dac.c ****       /* Update the error code */
1511:../system/src/stm32l4-hal-driver/stm32l4xx_hal_dac.c ****       hdac->ErrorCode |= HAL_DAC_ERROR_INVALID_CALLBACK;
1512:../system/src/stm32l4-hal-driver/stm32l4xx_hal_dac.c ****       /* update return status */
1513:../system/src/stm32l4-hal-driver/stm32l4xx_hal_dac.c ****       status =  HAL_ERROR;
1514:../system/src/stm32l4-hal-driver/stm32l4xx_hal_dac.c ****       break;
1515:../system/src/stm32l4-hal-driver/stm32l4xx_hal_dac.c ****     }
1516:../system/src/stm32l4-hal-driver/stm32l4xx_hal_dac.c ****   }
1517:../system/src/stm32l4-hal-driver/stm32l4xx_hal_dac.c ****   else if (hdac->State == HAL_DAC_STATE_RESET)
1518:../system/src/stm32l4-hal-driver/stm32l4xx_hal_dac.c ****   {
1519:../system/src/stm32l4-hal-driver/stm32l4xx_hal_dac.c ****     switch (CallbackID)
1520:../system/src/stm32l4-hal-driver/stm32l4xx_hal_dac.c ****     {
1521:../system/src/stm32l4-hal-driver/stm32l4xx_hal_dac.c ****     case HAL_DAC_MSPINIT_CB_ID :
1522:../system/src/stm32l4-hal-driver/stm32l4xx_hal_dac.c ****       hdac->MspInitCallback = pCallback;
1523:../system/src/stm32l4-hal-driver/stm32l4xx_hal_dac.c ****       break;
1524:../system/src/stm32l4-hal-driver/stm32l4xx_hal_dac.c ****     case HAL_DAC_MSPDEINIT_CB_ID :
1525:../system/src/stm32l4-hal-driver/stm32l4xx_hal_dac.c ****       hdac->MspDeInitCallback = pCallback;
1526:../system/src/stm32l4-hal-driver/stm32l4xx_hal_dac.c ****       break;
1527:../system/src/stm32l4-hal-driver/stm32l4xx_hal_dac.c ****     default :
1528:../system/src/stm32l4-hal-driver/stm32l4xx_hal_dac.c ****       /* Update the error code */
1529:../system/src/stm32l4-hal-driver/stm32l4xx_hal_dac.c ****       hdac->ErrorCode |= HAL_DAC_ERROR_INVALID_CALLBACK;
1530:../system/src/stm32l4-hal-driver/stm32l4xx_hal_dac.c ****       /* update return status */
1531:../system/src/stm32l4-hal-driver/stm32l4xx_hal_dac.c ****       status =  HAL_ERROR;
1532:../system/src/stm32l4-hal-driver/stm32l4xx_hal_dac.c ****       break;
1533:../system/src/stm32l4-hal-driver/stm32l4xx_hal_dac.c ****     }
1534:../system/src/stm32l4-hal-driver/stm32l4xx_hal_dac.c ****   }
1535:../system/src/stm32l4-hal-driver/stm32l4xx_hal_dac.c ****   else
1536:../system/src/stm32l4-hal-driver/stm32l4xx_hal_dac.c ****   {
1537:../system/src/stm32l4-hal-driver/stm32l4xx_hal_dac.c ****     /* Update the error code */
1538:../system/src/stm32l4-hal-driver/stm32l4xx_hal_dac.c ****     hdac->ErrorCode |= HAL_DAC_ERROR_INVALID_CALLBACK;
1539:../system/src/stm32l4-hal-driver/stm32l4xx_hal_dac.c ****     /* update return status */
1540:../system/src/stm32l4-hal-driver/stm32l4xx_hal_dac.c ****     status =  HAL_ERROR;
1541:../system/src/stm32l4-hal-driver/stm32l4xx_hal_dac.c ****   }
1542:../system/src/stm32l4-hal-driver/stm32l4xx_hal_dac.c **** 
1543:../system/src/stm32l4-hal-driver/stm32l4xx_hal_dac.c ****   /* Release Lock */
1544:../system/src/stm32l4-hal-driver/stm32l4xx_hal_dac.c ****   __HAL_UNLOCK(hdac);
1545:../system/src/stm32l4-hal-driver/stm32l4xx_hal_dac.c ****   return status;
1546:../system/src/stm32l4-hal-driver/stm32l4xx_hal_dac.c **** }
1547:../system/src/stm32l4-hal-driver/stm32l4xx_hal_dac.c **** 
1548:../system/src/stm32l4-hal-driver/stm32l4xx_hal_dac.c **** /**
1549:../system/src/stm32l4-hal-driver/stm32l4xx_hal_dac.c ****   * @brief  Unregister a User DAC Callback
1550:../system/src/stm32l4-hal-driver/stm32l4xx_hal_dac.c ****   *         DAC Callback is redirected to the weak (surcharged) predefined callback
1551:../system/src/stm32l4-hal-driver/stm32l4xx_hal_dac.c ****   * @param  hdac DAC handle
1552:../system/src/stm32l4-hal-driver/stm32l4xx_hal_dac.c ****   * @param  CallbackID ID of the callback to be unregistered
1553:../system/src/stm32l4-hal-driver/stm32l4xx_hal_dac.c ****   *         This parameter can be one of the following values:
1554:../system/src/stm32l4-hal-driver/stm32l4xx_hal_dac.c ****   *          @arg @ref HAL_DAC_CH1_COMPLETE_CB_ID          DAC CH1 tranfer Complete Callback ID
1555:../system/src/stm32l4-hal-driver/stm32l4xx_hal_dac.c ****   *          @arg @ref HAL_DAC_CH1_HALF_COMPLETE_CB_ID     DAC CH1 Half Complete Callback ID
1556:../system/src/stm32l4-hal-driver/stm32l4xx_hal_dac.c ****   *          @arg @ref HAL_DAC_CH1_ERROR_ID                DAC CH1 Error Callback ID
1557:../system/src/stm32l4-hal-driver/stm32l4xx_hal_dac.c ****   *          @arg @ref HAL_DAC_CH1_UNDERRUN_CB_ID          DAC CH1 UnderRun Callback ID
1558:../system/src/stm32l4-hal-driver/stm32l4xx_hal_dac.c ****   *          @arg @ref HAL_DAC_CH2_COMPLETE_CB_ID          DAC CH2 Complete Callback ID
1559:../system/src/stm32l4-hal-driver/stm32l4xx_hal_dac.c ****   *          @arg @ref HAL_DAC_CH2_HALF_COMPLETE_CB_ID     DAC CH2 Half Complete Callback ID
1560:../system/src/stm32l4-hal-driver/stm32l4xx_hal_dac.c ****   *          @arg @ref HAL_DAC_CH2_ERROR_ID                DAC CH2 Error Callback ID
1561:../system/src/stm32l4-hal-driver/stm32l4xx_hal_dac.c ****   *          @arg @ref HAL_DAC_CH2_UNDERRUN_CB_ID          DAC CH2 UnderRun Callback ID
1562:../system/src/stm32l4-hal-driver/stm32l4xx_hal_dac.c ****   *          @arg @ref HAL_DAC_MSPINIT_CB_ID               DAC MSP Init Callback ID
1563:../system/src/stm32l4-hal-driver/stm32l4xx_hal_dac.c ****   *          @arg @ref HAL_DAC_MSPDEINIT_CB_ID             DAC MSP DeInit Callback ID
1564:../system/src/stm32l4-hal-driver/stm32l4xx_hal_dac.c ****   *          @arg @ref HAL_DAC_ALL_CB_ID                   DAC All callbacks
1565:../system/src/stm32l4-hal-driver/stm32l4xx_hal_dac.c ****   * @retval status
1566:../system/src/stm32l4-hal-driver/stm32l4xx_hal_dac.c ****   */
1567:../system/src/stm32l4-hal-driver/stm32l4xx_hal_dac.c **** HAL_StatusTypeDef HAL_DAC_UnRegisterCallback(DAC_HandleTypeDef *hdac, HAL_DAC_CallbackIDTypeDef Cal
1568:../system/src/stm32l4-hal-driver/stm32l4xx_hal_dac.c **** {
1569:../system/src/stm32l4-hal-driver/stm32l4xx_hal_dac.c ****   HAL_StatusTypeDef status = HAL_OK;
1570:../system/src/stm32l4-hal-driver/stm32l4xx_hal_dac.c **** 
1571:../system/src/stm32l4-hal-driver/stm32l4xx_hal_dac.c ****   /* Process locked */
1572:../system/src/stm32l4-hal-driver/stm32l4xx_hal_dac.c ****   __HAL_LOCK(hdac);
1573:../system/src/stm32l4-hal-driver/stm32l4xx_hal_dac.c **** 
1574:../system/src/stm32l4-hal-driver/stm32l4xx_hal_dac.c ****   if (hdac->State == HAL_DAC_STATE_READY)
1575:../system/src/stm32l4-hal-driver/stm32l4xx_hal_dac.c ****   {
1576:../system/src/stm32l4-hal-driver/stm32l4xx_hal_dac.c ****     switch (CallbackID)
1577:../system/src/stm32l4-hal-driver/stm32l4xx_hal_dac.c ****     {
1578:../system/src/stm32l4-hal-driver/stm32l4xx_hal_dac.c ****     case HAL_DAC_CH1_COMPLETE_CB_ID :
1579:../system/src/stm32l4-hal-driver/stm32l4xx_hal_dac.c ****       hdac->ConvCpltCallbackCh1 = HAL_DAC_ConvCpltCallbackCh1;
1580:../system/src/stm32l4-hal-driver/stm32l4xx_hal_dac.c ****       break;
1581:../system/src/stm32l4-hal-driver/stm32l4xx_hal_dac.c ****     case HAL_DAC_CH1_HALF_COMPLETE_CB_ID :
1582:../system/src/stm32l4-hal-driver/stm32l4xx_hal_dac.c ****       hdac->ConvHalfCpltCallbackCh1 = HAL_DAC_ConvHalfCpltCallbackCh1;
1583:../system/src/stm32l4-hal-driver/stm32l4xx_hal_dac.c ****       break;
1584:../system/src/stm32l4-hal-driver/stm32l4xx_hal_dac.c ****     case HAL_DAC_CH1_ERROR_ID :
1585:../system/src/stm32l4-hal-driver/stm32l4xx_hal_dac.c ****       hdac->ErrorCallbackCh1 = HAL_DAC_ErrorCallbackCh1;
1586:../system/src/stm32l4-hal-driver/stm32l4xx_hal_dac.c ****       break;
1587:../system/src/stm32l4-hal-driver/stm32l4xx_hal_dac.c ****     case HAL_DAC_CH1_UNDERRUN_CB_ID :
1588:../system/src/stm32l4-hal-driver/stm32l4xx_hal_dac.c ****       hdac->DMAUnderrunCallbackCh1 = HAL_DAC_DMAUnderrunCallbackCh1;
1589:../system/src/stm32l4-hal-driver/stm32l4xx_hal_dac.c ****       break;
1590:../system/src/stm32l4-hal-driver/stm32l4xx_hal_dac.c **** #if defined (STM32L431xx) || defined (STM32L432xx) || defined (STM32L433xx) || defined (STM32L442xx
1591:../system/src/stm32l4-hal-driver/stm32l4xx_hal_dac.c ****     defined (STM32L471xx) || defined (STM32L475xx) || defined (STM32L476xx) || defined (STM32L485xx
1592:../system/src/stm32l4-hal-driver/stm32l4xx_hal_dac.c ****     defined (STM32L4P5xx) || defined (STM32L4Q5xx) || \
1593:../system/src/stm32l4-hal-driver/stm32l4xx_hal_dac.c ****     defined (STM32L4R5xx) || defined (STM32L4R7xx) || defined (STM32L4R9xx) || defined (STM32L4S5xx
1594:../system/src/stm32l4-hal-driver/stm32l4xx_hal_dac.c ****     case HAL_DAC_CH2_COMPLETE_CB_ID :
1595:../system/src/stm32l4-hal-driver/stm32l4xx_hal_dac.c ****       hdac->ConvCpltCallbackCh2 = HAL_DACEx_ConvCpltCallbackCh2;
1596:../system/src/stm32l4-hal-driver/stm32l4xx_hal_dac.c ****       break;
1597:../system/src/stm32l4-hal-driver/stm32l4xx_hal_dac.c ****     case HAL_DAC_CH2_HALF_COMPLETE_CB_ID :
1598:../system/src/stm32l4-hal-driver/stm32l4xx_hal_dac.c ****       hdac->ConvHalfCpltCallbackCh2 = HAL_DACEx_ConvHalfCpltCallbackCh2;
1599:../system/src/stm32l4-hal-driver/stm32l4xx_hal_dac.c ****       break;
1600:../system/src/stm32l4-hal-driver/stm32l4xx_hal_dac.c ****     case HAL_DAC_CH2_ERROR_ID :
1601:../system/src/stm32l4-hal-driver/stm32l4xx_hal_dac.c ****       hdac->ErrorCallbackCh2 = HAL_DACEx_ErrorCallbackCh2;
1602:../system/src/stm32l4-hal-driver/stm32l4xx_hal_dac.c ****       break;
1603:../system/src/stm32l4-hal-driver/stm32l4xx_hal_dac.c ****     case HAL_DAC_CH2_UNDERRUN_CB_ID :
1604:../system/src/stm32l4-hal-driver/stm32l4xx_hal_dac.c ****       hdac->DMAUnderrunCallbackCh2 = HAL_DACEx_DMAUnderrunCallbackCh2;
1605:../system/src/stm32l4-hal-driver/stm32l4xx_hal_dac.c ****       break;
1606:../system/src/stm32l4-hal-driver/stm32l4xx_hal_dac.c **** #endif  /* STM32L431xx STM32L432xx STM32L433xx STM32L442xx STM32L443xx                         */
1607:../system/src/stm32l4-hal-driver/stm32l4xx_hal_dac.c ****         /* STM32L471xx STM32L475xx STM32L476xx STM32L485xx STM32L486xx STM32L496xx STM32L4A6xx */
1608:../system/src/stm32l4-hal-driver/stm32l4xx_hal_dac.c ****         /* STM32L4P5xx STM32L4Q5xx                                                             */
1609:../system/src/stm32l4-hal-driver/stm32l4xx_hal_dac.c ****         /* STM32L4R5xx STM32L4R7xx STM32L4R9xx STM32L4S5xx STM32L4S7xx STM32L4S9xx             */
1610:../system/src/stm32l4-hal-driver/stm32l4xx_hal_dac.c ****     case HAL_DAC_MSPINIT_CB_ID :
1611:../system/src/stm32l4-hal-driver/stm32l4xx_hal_dac.c ****       hdac->MspInitCallback = HAL_DAC_MspInit;
1612:../system/src/stm32l4-hal-driver/stm32l4xx_hal_dac.c ****       break;
1613:../system/src/stm32l4-hal-driver/stm32l4xx_hal_dac.c ****     case HAL_DAC_MSPDEINIT_CB_ID :
1614:../system/src/stm32l4-hal-driver/stm32l4xx_hal_dac.c ****       hdac->MspDeInitCallback = HAL_DAC_MspDeInit;
1615:../system/src/stm32l4-hal-driver/stm32l4xx_hal_dac.c ****       break;
1616:../system/src/stm32l4-hal-driver/stm32l4xx_hal_dac.c ****     case HAL_DAC_ALL_CB_ID :
1617:../system/src/stm32l4-hal-driver/stm32l4xx_hal_dac.c ****       hdac->ConvCpltCallbackCh1 = HAL_DAC_ConvCpltCallbackCh1;
1618:../system/src/stm32l4-hal-driver/stm32l4xx_hal_dac.c ****       hdac->ConvHalfCpltCallbackCh1 = HAL_DAC_ConvHalfCpltCallbackCh1;
1619:../system/src/stm32l4-hal-driver/stm32l4xx_hal_dac.c ****       hdac->ErrorCallbackCh1 = HAL_DAC_ErrorCallbackCh1;
1620:../system/src/stm32l4-hal-driver/stm32l4xx_hal_dac.c ****       hdac->DMAUnderrunCallbackCh1 = HAL_DAC_DMAUnderrunCallbackCh1;
1621:../system/src/stm32l4-hal-driver/stm32l4xx_hal_dac.c **** #if defined (STM32L431xx) || defined (STM32L432xx) || defined (STM32L433xx) || defined (STM32L442xx
1622:../system/src/stm32l4-hal-driver/stm32l4xx_hal_dac.c ****     defined (STM32L471xx) || defined (STM32L475xx) || defined (STM32L476xx) || defined (STM32L485xx
1623:../system/src/stm32l4-hal-driver/stm32l4xx_hal_dac.c ****     defined (STM32L4P5xx) || defined (STM32L4Q5xx) || \
1624:../system/src/stm32l4-hal-driver/stm32l4xx_hal_dac.c ****     defined (STM32L4R5xx) || defined (STM32L4R7xx) || defined (STM32L4R9xx) || defined (STM32L4S5xx
1625:../system/src/stm32l4-hal-driver/stm32l4xx_hal_dac.c ****       hdac->ConvCpltCallbackCh2 = HAL_DACEx_ConvCpltCallbackCh2;
1626:../system/src/stm32l4-hal-driver/stm32l4xx_hal_dac.c ****       hdac->ConvHalfCpltCallbackCh2 = HAL_DACEx_ConvHalfCpltCallbackCh2;
1627:../system/src/stm32l4-hal-driver/stm32l4xx_hal_dac.c ****       hdac->ErrorCallbackCh2 = HAL_DACEx_ErrorCallbackCh2;
1628:../system/src/stm32l4-hal-driver/stm32l4xx_hal_dac.c ****       hdac->DMAUnderrunCallbackCh2 = HAL_DACEx_DMAUnderrunCallbackCh2;
1629:../system/src/stm32l4-hal-driver/stm32l4xx_hal_dac.c **** #endif  /* STM32L431xx STM32L432xx STM32L433xx STM32L442xx STM32L443xx                         */
1630:../system/src/stm32l4-hal-driver/stm32l4xx_hal_dac.c ****         /* STM32L471xx STM32L475xx STM32L476xx STM32L485xx STM32L486xx STM32L496xx STM32L4A6xx */
1631:../system/src/stm32l4-hal-driver/stm32l4xx_hal_dac.c ****         /* STM32L4P5xx STM32L4Q5xx                                                             */
1632:../system/src/stm32l4-hal-driver/stm32l4xx_hal_dac.c ****         /* STM32L4R5xx STM32L4R7xx STM32L4R9xx STM32L4S5xx STM32L4S7xx STM32L4S9xx             */
1633:../system/src/stm32l4-hal-driver/stm32l4xx_hal_dac.c ****       hdac->MspInitCallback = HAL_DAC_MspInit;
1634:../system/src/stm32l4-hal-driver/stm32l4xx_hal_dac.c ****       hdac->MspDeInitCallback = HAL_DAC_MspDeInit;
1635:../system/src/stm32l4-hal-driver/stm32l4xx_hal_dac.c ****       break;
1636:../system/src/stm32l4-hal-driver/stm32l4xx_hal_dac.c ****     default :
1637:../system/src/stm32l4-hal-driver/stm32l4xx_hal_dac.c ****       /* Update the error code */
1638:../system/src/stm32l4-hal-driver/stm32l4xx_hal_dac.c ****       hdac->ErrorCode |= HAL_DAC_ERROR_INVALID_CALLBACK;
1639:../system/src/stm32l4-hal-driver/stm32l4xx_hal_dac.c ****       /* update return status */
1640:../system/src/stm32l4-hal-driver/stm32l4xx_hal_dac.c ****       status =  HAL_ERROR;
1641:../system/src/stm32l4-hal-driver/stm32l4xx_hal_dac.c ****       break;
1642:../system/src/stm32l4-hal-driver/stm32l4xx_hal_dac.c ****     }
1643:../system/src/stm32l4-hal-driver/stm32l4xx_hal_dac.c ****   }
1644:../system/src/stm32l4-hal-driver/stm32l4xx_hal_dac.c ****   else if (hdac->State == HAL_DAC_STATE_RESET)
1645:../system/src/stm32l4-hal-driver/stm32l4xx_hal_dac.c ****   {
1646:../system/src/stm32l4-hal-driver/stm32l4xx_hal_dac.c ****     switch (CallbackID)
1647:../system/src/stm32l4-hal-driver/stm32l4xx_hal_dac.c ****     {
1648:../system/src/stm32l4-hal-driver/stm32l4xx_hal_dac.c ****     case HAL_DAC_MSPINIT_CB_ID :
1649:../system/src/stm32l4-hal-driver/stm32l4xx_hal_dac.c ****       hdac->MspInitCallback = HAL_DAC_MspInit;
1650:../system/src/stm32l4-hal-driver/stm32l4xx_hal_dac.c ****       break;
1651:../system/src/stm32l4-hal-driver/stm32l4xx_hal_dac.c ****     case HAL_DAC_MSPDEINIT_CB_ID :
1652:../system/src/stm32l4-hal-driver/stm32l4xx_hal_dac.c ****       hdac->MspDeInitCallback = HAL_DAC_MspDeInit;
1653:../system/src/stm32l4-hal-driver/stm32l4xx_hal_dac.c ****       break;
1654:../system/src/stm32l4-hal-driver/stm32l4xx_hal_dac.c ****     default :
1655:../system/src/stm32l4-hal-driver/stm32l4xx_hal_dac.c ****       /* Update the error code */
1656:../system/src/stm32l4-hal-driver/stm32l4xx_hal_dac.c ****       hdac->ErrorCode |= HAL_DAC_ERROR_INVALID_CALLBACK;
1657:../system/src/stm32l4-hal-driver/stm32l4xx_hal_dac.c ****       /* update return status */
1658:../system/src/stm32l4-hal-driver/stm32l4xx_hal_dac.c ****       status =  HAL_ERROR;
1659:../system/src/stm32l4-hal-driver/stm32l4xx_hal_dac.c ****       break;
1660:../system/src/stm32l4-hal-driver/stm32l4xx_hal_dac.c ****     }
1661:../system/src/stm32l4-hal-driver/stm32l4xx_hal_dac.c ****   }
1662:../system/src/stm32l4-hal-driver/stm32l4xx_hal_dac.c ****   else
1663:../system/src/stm32l4-hal-driver/stm32l4xx_hal_dac.c ****   {
1664:../system/src/stm32l4-hal-driver/stm32l4xx_hal_dac.c ****     /* Update the error code */
1665:../system/src/stm32l4-hal-driver/stm32l4xx_hal_dac.c ****     hdac->ErrorCode |= HAL_DAC_ERROR_INVALID_CALLBACK;
1666:../system/src/stm32l4-hal-driver/stm32l4xx_hal_dac.c ****     /* update return status */
1667:../system/src/stm32l4-hal-driver/stm32l4xx_hal_dac.c ****     status =  HAL_ERROR;
1668:../system/src/stm32l4-hal-driver/stm32l4xx_hal_dac.c ****   }
1669:../system/src/stm32l4-hal-driver/stm32l4xx_hal_dac.c **** 
1670:../system/src/stm32l4-hal-driver/stm32l4xx_hal_dac.c ****   /* Release Lock */
1671:../system/src/stm32l4-hal-driver/stm32l4xx_hal_dac.c ****   __HAL_UNLOCK(hdac);
1672:../system/src/stm32l4-hal-driver/stm32l4xx_hal_dac.c ****   return status;
1673:../system/src/stm32l4-hal-driver/stm32l4xx_hal_dac.c **** }
1674:../system/src/stm32l4-hal-driver/stm32l4xx_hal_dac.c **** #endif /* USE_HAL_DAC_REGISTER_CALLBACKS */
1675:../system/src/stm32l4-hal-driver/stm32l4xx_hal_dac.c **** 
1676:../system/src/stm32l4-hal-driver/stm32l4xx_hal_dac.c **** /**
1677:../system/src/stm32l4-hal-driver/stm32l4xx_hal_dac.c ****   * @}
1678:../system/src/stm32l4-hal-driver/stm32l4xx_hal_dac.c ****   */
1679:../system/src/stm32l4-hal-driver/stm32l4xx_hal_dac.c **** 
1680:../system/src/stm32l4-hal-driver/stm32l4xx_hal_dac.c **** /**
1681:../system/src/stm32l4-hal-driver/stm32l4xx_hal_dac.c ****   * @}
1682:../system/src/stm32l4-hal-driver/stm32l4xx_hal_dac.c ****   */
1683:../system/src/stm32l4-hal-driver/stm32l4xx_hal_dac.c **** 
1684:../system/src/stm32l4-hal-driver/stm32l4xx_hal_dac.c **** /** @addtogroup DAC_Private_Functions
1685:../system/src/stm32l4-hal-driver/stm32l4xx_hal_dac.c ****   * @{
1686:../system/src/stm32l4-hal-driver/stm32l4xx_hal_dac.c ****   */
1687:../system/src/stm32l4-hal-driver/stm32l4xx_hal_dac.c **** 
1688:../system/src/stm32l4-hal-driver/stm32l4xx_hal_dac.c **** /**
1689:../system/src/stm32l4-hal-driver/stm32l4xx_hal_dac.c ****   * @brief  DMA conversion complete callback.
1690:../system/src/stm32l4-hal-driver/stm32l4xx_hal_dac.c ****   * @param  hdma pointer to a DMA_HandleTypeDef structure that contains
1691:../system/src/stm32l4-hal-driver/stm32l4xx_hal_dac.c ****   *                the configuration information for the specified DMA module.
1692:../system/src/stm32l4-hal-driver/stm32l4xx_hal_dac.c ****   * @retval None
1693:../system/src/stm32l4-hal-driver/stm32l4xx_hal_dac.c ****   */
1694:../system/src/stm32l4-hal-driver/stm32l4xx_hal_dac.c **** void DAC_DMAConvCpltCh1(DMA_HandleTypeDef *hdma)
1695:../system/src/stm32l4-hal-driver/stm32l4xx_hal_dac.c **** {
 688              		.loc 1 1695 0
 689              		.cfi_startproc
 690              		@ args = 0, pretend = 0, frame = 0
 691              		@ frame_needed = 0, uses_anonymous_args = 0
 692              	.LVL58:
 693 0000 10B5     		push	{r4, lr}
 694              		.cfi_def_cfa_offset 8
 695              		.cfi_offset 4, -8
 696              		.cfi_offset 14, -4
1696:../system/src/stm32l4-hal-driver/stm32l4xx_hal_dac.c ****   DAC_HandleTypeDef *hdac = (DAC_HandleTypeDef *)((DMA_HandleTypeDef *)hdma)->Parent;
 697              		.loc 1 1696 0
 698 0002 846A     		ldr	r4, [r0, #40]
 699              	.LVL59:
1697:../system/src/stm32l4-hal-driver/stm32l4xx_hal_dac.c **** 
1698:../system/src/stm32l4-hal-driver/stm32l4xx_hal_dac.c **** #if (USE_HAL_DAC_REGISTER_CALLBACKS == 1)
1699:../system/src/stm32l4-hal-driver/stm32l4xx_hal_dac.c ****   hdac->ConvCpltCallbackCh1(hdac);
1700:../system/src/stm32l4-hal-driver/stm32l4xx_hal_dac.c **** #else
1701:../system/src/stm32l4-hal-driver/stm32l4xx_hal_dac.c ****   HAL_DAC_ConvCpltCallbackCh1(hdac);
 700              		.loc 1 1701 0
 701 0004 2046     		mov	r0, r4
 702              	.LVL60:
 703 0006 FFF7FEFF 		bl	HAL_DAC_ConvCpltCallbackCh1
 704              	.LVL61:
1702:../system/src/stm32l4-hal-driver/stm32l4xx_hal_dac.c **** #endif /* USE_HAL_DAC_REGISTER_CALLBACKS */
1703:../system/src/stm32l4-hal-driver/stm32l4xx_hal_dac.c **** 
1704:../system/src/stm32l4-hal-driver/stm32l4xx_hal_dac.c ****   hdac->State = HAL_DAC_STATE_READY;
 705              		.loc 1 1704 0
 706 000a 0123     		movs	r3, #1
 707 000c 2371     		strb	r3, [r4, #4]
1705:../system/src/stm32l4-hal-driver/stm32l4xx_hal_dac.c **** }
 708              		.loc 1 1705 0
 709 000e 10BD     		pop	{r4, pc}
 710              		.cfi_endproc
 711              	.LFE335:
 713              		.section	.text.HAL_DAC_ConvHalfCpltCallbackCh1,"ax",%progbits
 714              		.align	1
 715              		.weak	HAL_DAC_ConvHalfCpltCallbackCh1
 716              		.syntax unified
 717              		.thumb
 718              		.thumb_func
 719              		.fpu fpv4-sp-d16
 721              	HAL_DAC_ConvHalfCpltCallbackCh1:
 722              	.LFB328:
1085:../system/src/stm32l4-hal-driver/stm32l4xx_hal_dac.c ****   /* Prevent unused argument(s) compilation warning */
 723              		.loc 1 1085 0
 724              		.cfi_startproc
 725              		@ args = 0, pretend = 0, frame = 0
 726              		@ frame_needed = 0, uses_anonymous_args = 0
 727              		@ link register save eliminated.
 728              	.LVL62:
1092:../system/src/stm32l4-hal-driver/stm32l4xx_hal_dac.c **** 
 729              		.loc 1 1092 0
 730 0000 7047     		bx	lr
 731              		.cfi_endproc
 732              	.LFE328:
 734              		.section	.text.DAC_DMAHalfConvCpltCh1,"ax",%progbits
 735              		.align	1
 736              		.global	DAC_DMAHalfConvCpltCh1
 737              		.syntax unified
 738              		.thumb
 739              		.thumb_func
 740              		.fpu fpv4-sp-d16
 742              	DAC_DMAHalfConvCpltCh1:
 743              	.LFB336:
1706:../system/src/stm32l4-hal-driver/stm32l4xx_hal_dac.c **** 
1707:../system/src/stm32l4-hal-driver/stm32l4xx_hal_dac.c **** /**
1708:../system/src/stm32l4-hal-driver/stm32l4xx_hal_dac.c ****   * @brief  DMA half transfer complete callback.
1709:../system/src/stm32l4-hal-driver/stm32l4xx_hal_dac.c ****   * @param  hdma pointer to a DMA_HandleTypeDef structure that contains
1710:../system/src/stm32l4-hal-driver/stm32l4xx_hal_dac.c ****   *                the configuration information for the specified DMA module.
1711:../system/src/stm32l4-hal-driver/stm32l4xx_hal_dac.c ****   * @retval None
1712:../system/src/stm32l4-hal-driver/stm32l4xx_hal_dac.c ****   */
1713:../system/src/stm32l4-hal-driver/stm32l4xx_hal_dac.c **** void DAC_DMAHalfConvCpltCh1(DMA_HandleTypeDef *hdma)
1714:../system/src/stm32l4-hal-driver/stm32l4xx_hal_dac.c **** {
 744              		.loc 1 1714 0
 745              		.cfi_startproc
 746              		@ args = 0, pretend = 0, frame = 0
 747              		@ frame_needed = 0, uses_anonymous_args = 0
 748              	.LVL63:
 749 0000 08B5     		push	{r3, lr}
 750              		.cfi_def_cfa_offset 8
 751              		.cfi_offset 3, -8
 752              		.cfi_offset 14, -4
 753              	.LVL64:
1715:../system/src/stm32l4-hal-driver/stm32l4xx_hal_dac.c ****   DAC_HandleTypeDef *hdac = (DAC_HandleTypeDef *)((DMA_HandleTypeDef *)hdma)->Parent;
1716:../system/src/stm32l4-hal-driver/stm32l4xx_hal_dac.c ****   /* Conversion complete callback */
1717:../system/src/stm32l4-hal-driver/stm32l4xx_hal_dac.c **** #if (USE_HAL_DAC_REGISTER_CALLBACKS == 1)
1718:../system/src/stm32l4-hal-driver/stm32l4xx_hal_dac.c ****   hdac->ConvHalfCpltCallbackCh1(hdac);
1719:../system/src/stm32l4-hal-driver/stm32l4xx_hal_dac.c **** #else
1720:../system/src/stm32l4-hal-driver/stm32l4xx_hal_dac.c ****   HAL_DAC_ConvHalfCpltCallbackCh1(hdac);
 754              		.loc 1 1720 0
 755 0002 806A     		ldr	r0, [r0, #40]
 756              	.LVL65:
 757 0004 FFF7FEFF 		bl	HAL_DAC_ConvHalfCpltCallbackCh1
 758              	.LVL66:
1721:../system/src/stm32l4-hal-driver/stm32l4xx_hal_dac.c **** #endif  /* USE_HAL_DAC_REGISTER_CALLBACKS */
1722:../system/src/stm32l4-hal-driver/stm32l4xx_hal_dac.c **** }
 759              		.loc 1 1722 0
 760 0008 08BD     		pop	{r3, pc}
 761              		.cfi_endproc
 762              	.LFE336:
 764              		.section	.text.HAL_DAC_ErrorCallbackCh1,"ax",%progbits
 765              		.align	1
 766              		.weak	HAL_DAC_ErrorCallbackCh1
 767              		.syntax unified
 768              		.thumb
 769              		.thumb_func
 770              		.fpu fpv4-sp-d16
 772              	HAL_DAC_ErrorCallbackCh1:
 773              	.LFB329:
1101:../system/src/stm32l4-hal-driver/stm32l4xx_hal_dac.c ****   /* Prevent unused argument(s) compilation warning */
 774              		.loc 1 1101 0
 775              		.cfi_startproc
 776              		@ args = 0, pretend = 0, frame = 0
 777              		@ frame_needed = 0, uses_anonymous_args = 0
 778              		@ link register save eliminated.
 779              	.LVL67:
1108:../system/src/stm32l4-hal-driver/stm32l4xx_hal_dac.c **** 
 780              		.loc 1 1108 0
 781 0000 7047     		bx	lr
 782              		.cfi_endproc
 783              	.LFE329:
 785              		.section	.text.DAC_DMAErrorCh1,"ax",%progbits
 786              		.align	1
 787              		.global	DAC_DMAErrorCh1
 788              		.syntax unified
 789              		.thumb
 790              		.thumb_func
 791              		.fpu fpv4-sp-d16
 793              	DAC_DMAErrorCh1:
 794              	.LFB337:
1723:../system/src/stm32l4-hal-driver/stm32l4xx_hal_dac.c **** 
1724:../system/src/stm32l4-hal-driver/stm32l4xx_hal_dac.c **** /**
1725:../system/src/stm32l4-hal-driver/stm32l4xx_hal_dac.c ****   * @brief  DMA error callback
1726:../system/src/stm32l4-hal-driver/stm32l4xx_hal_dac.c ****   * @param  hdma pointer to a DMA_HandleTypeDef structure that contains
1727:../system/src/stm32l4-hal-driver/stm32l4xx_hal_dac.c ****   *                the configuration information for the specified DMA module.
1728:../system/src/stm32l4-hal-driver/stm32l4xx_hal_dac.c ****   * @retval None
1729:../system/src/stm32l4-hal-driver/stm32l4xx_hal_dac.c ****   */
1730:../system/src/stm32l4-hal-driver/stm32l4xx_hal_dac.c **** void DAC_DMAErrorCh1(DMA_HandleTypeDef *hdma)
1731:../system/src/stm32l4-hal-driver/stm32l4xx_hal_dac.c **** {
 795              		.loc 1 1731 0
 796              		.cfi_startproc
 797              		@ args = 0, pretend = 0, frame = 0
 798              		@ frame_needed = 0, uses_anonymous_args = 0
 799              	.LVL68:
 800 0000 10B5     		push	{r4, lr}
 801              		.cfi_def_cfa_offset 8
 802              		.cfi_offset 4, -8
 803              		.cfi_offset 14, -4
1732:../system/src/stm32l4-hal-driver/stm32l4xx_hal_dac.c ****   DAC_HandleTypeDef *hdac = (DAC_HandleTypeDef *)((DMA_HandleTypeDef *)hdma)->Parent;
 804              		.loc 1 1732 0
 805 0002 846A     		ldr	r4, [r0, #40]
 806              	.LVL69:
1733:../system/src/stm32l4-hal-driver/stm32l4xx_hal_dac.c **** 
1734:../system/src/stm32l4-hal-driver/stm32l4xx_hal_dac.c ****   /* Set DAC error code to DMA error */
1735:../system/src/stm32l4-hal-driver/stm32l4xx_hal_dac.c ****   hdac->ErrorCode |= HAL_DAC_ERROR_DMA;
 807              		.loc 1 1735 0
 808 0004 2369     		ldr	r3, [r4, #16]
 809 0006 43F00403 		orr	r3, r3, #4
 810 000a 2361     		str	r3, [r4, #16]
1736:../system/src/stm32l4-hal-driver/stm32l4xx_hal_dac.c **** 
1737:../system/src/stm32l4-hal-driver/stm32l4xx_hal_dac.c **** #if (USE_HAL_DAC_REGISTER_CALLBACKS == 1)
1738:../system/src/stm32l4-hal-driver/stm32l4xx_hal_dac.c ****   hdac->ErrorCallbackCh1(hdac);
1739:../system/src/stm32l4-hal-driver/stm32l4xx_hal_dac.c **** #else
1740:../system/src/stm32l4-hal-driver/stm32l4xx_hal_dac.c ****   HAL_DAC_ErrorCallbackCh1(hdac);
 811              		.loc 1 1740 0
 812 000c 2046     		mov	r0, r4
 813              	.LVL70:
 814 000e FFF7FEFF 		bl	HAL_DAC_ErrorCallbackCh1
 815              	.LVL71:
1741:../system/src/stm32l4-hal-driver/stm32l4xx_hal_dac.c **** #endif /* USE_HAL_DAC_REGISTER_CALLBACKS */
1742:../system/src/stm32l4-hal-driver/stm32l4xx_hal_dac.c **** 
1743:../system/src/stm32l4-hal-driver/stm32l4xx_hal_dac.c ****   hdac->State = HAL_DAC_STATE_READY;
 816              		.loc 1 1743 0
 817 0012 0123     		movs	r3, #1
 818 0014 2371     		strb	r3, [r4, #4]
1744:../system/src/stm32l4-hal-driver/stm32l4xx_hal_dac.c **** }
 819              		.loc 1 1744 0
 820 0016 10BD     		pop	{r4, pc}
 821              		.cfi_endproc
 822              	.LFE337:
 824              		.section	.text.HAL_DAC_DMAUnderrunCallbackCh1,"ax",%progbits
 825              		.align	1
 826              		.weak	HAL_DAC_DMAUnderrunCallbackCh1
 827              		.syntax unified
 828              		.thumb
 829              		.thumb_func
 830              		.fpu fpv4-sp-d16
 832              	HAL_DAC_DMAUnderrunCallbackCh1:
 833              	.LFB330:
1117:../system/src/stm32l4-hal-driver/stm32l4xx_hal_dac.c ****   /* Prevent unused argument(s) compilation warning */
 834              		.loc 1 1117 0
 835              		.cfi_startproc
 836              		@ args = 0, pretend = 0, frame = 0
 837              		@ frame_needed = 0, uses_anonymous_args = 0
 838              		@ link register save eliminated.
 839              	.LVL72:
1124:../system/src/stm32l4-hal-driver/stm32l4xx_hal_dac.c **** 
 840              		.loc 1 1124 0
 841 0000 7047     		bx	lr
 842              		.cfi_endproc
 843              	.LFE330:
 845              		.section	.text.HAL_DAC_IRQHandler,"ax",%progbits
 846              		.align	1
 847              		.global	HAL_DAC_IRQHandler
 848              		.syntax unified
 849              		.thumb
 850              		.thumb_func
 851              		.fpu fpv4-sp-d16
 853              	HAL_DAC_IRQHandler:
 854              	.LFB325:
 959:../system/src/stm32l4-hal-driver/stm32l4xx_hal_dac.c ****   if (__HAL_DAC_GET_IT_SOURCE(hdac, DAC_IT_DMAUDR1))
 855              		.loc 1 959 0
 856              		.cfi_startproc
 857              		@ args = 0, pretend = 0, frame = 0
 858              		@ frame_needed = 0, uses_anonymous_args = 0
 859              	.LVL73:
 860 0000 10B5     		push	{r4, lr}
 861              		.cfi_def_cfa_offset 8
 862              		.cfi_offset 4, -8
 863              		.cfi_offset 14, -4
 864 0002 0446     		mov	r4, r0
 960:../system/src/stm32l4-hal-driver/stm32l4xx_hal_dac.c ****   {
 865              		.loc 1 960 0
 866 0004 0368     		ldr	r3, [r0]
 867 0006 1A68     		ldr	r2, [r3]
 868 0008 12F4005F 		tst	r2, #8192
 869 000c 03D0     		beq	.L76
 963:../system/src/stm32l4-hal-driver/stm32l4xx_hal_dac.c ****     {
 870              		.loc 1 963 0
 871 000e 5A6B     		ldr	r2, [r3, #52]
 872 0010 12F4005F 		tst	r2, #8192
 873 0014 09D1     		bne	.L79
 874              	.LVL74:
 875              	.L76:
 989:../system/src/stm32l4-hal-driver/stm32l4xx_hal_dac.c ****   {
 876              		.loc 1 989 0
 877 0016 2368     		ldr	r3, [r4]
 878 0018 1A68     		ldr	r2, [r3]
 879 001a 12F0005F 		tst	r2, #536870912
 880 001e 03D0     		beq	.L75
 992:../system/src/stm32l4-hal-driver/stm32l4xx_hal_dac.c ****     {
 881              		.loc 1 992 0
 882 0020 5A6B     		ldr	r2, [r3, #52]
 883 0022 12F0005F 		tst	r2, #536870912
 884 0026 11D1     		bne	.L80
 885              	.L75:
1018:../system/src/stm32l4-hal-driver/stm32l4xx_hal_dac.c **** 
 886              		.loc 1 1018 0
 887 0028 10BD     		pop	{r4, pc}
 888              	.LVL75:
 889              	.L79:
 966:../system/src/stm32l4-hal-driver/stm32l4xx_hal_dac.c **** 
 890              		.loc 1 966 0
 891 002a 0422     		movs	r2, #4
 892 002c 0271     		strb	r2, [r0, #4]
 969:../system/src/stm32l4-hal-driver/stm32l4xx_hal_dac.c **** 
 893              		.loc 1 969 0
 894 002e 0269     		ldr	r2, [r0, #16]
 895 0030 42F00102 		orr	r2, r2, #1
 896 0034 0261     		str	r2, [r0, #16]
 972:../system/src/stm32l4-hal-driver/stm32l4xx_hal_dac.c **** 
 897              		.loc 1 972 0
 898 0036 4FF40052 		mov	r2, #8192
 899 003a 5A63     		str	r2, [r3, #52]
 975:../system/src/stm32l4-hal-driver/stm32l4xx_hal_dac.c **** 
 900              		.loc 1 975 0
 901 003c 0268     		ldr	r2, [r0]
 902 003e 1368     		ldr	r3, [r2]
 903 0040 23F48053 		bic	r3, r3, #4096
 904 0044 1360     		str	r3, [r2]
 981:../system/src/stm32l4-hal-driver/stm32l4xx_hal_dac.c **** #endif /* USE_HAL_DAC_REGISTER_CALLBACKS */
 905              		.loc 1 981 0
 906 0046 FFF7FEFF 		bl	HAL_DAC_DMAUnderrunCallbackCh1
 907              	.LVL76:
 908 004a E4E7     		b	.L76
 909              	.L80:
 995:../system/src/stm32l4-hal-driver/stm32l4xx_hal_dac.c **** 
 910              		.loc 1 995 0
 911 004c 0422     		movs	r2, #4
 912 004e 2271     		strb	r2, [r4, #4]
 998:../system/src/stm32l4-hal-driver/stm32l4xx_hal_dac.c **** 
 913              		.loc 1 998 0
 914 0050 2269     		ldr	r2, [r4, #16]
 915 0052 42F00202 		orr	r2, r2, #2
 916 0056 2261     		str	r2, [r4, #16]
1001:../system/src/stm32l4-hal-driver/stm32l4xx_hal_dac.c **** 
 917              		.loc 1 1001 0
 918 0058 4FF00052 		mov	r2, #536870912
 919 005c 5A63     		str	r2, [r3, #52]
1004:../system/src/stm32l4-hal-driver/stm32l4xx_hal_dac.c **** 
 920              		.loc 1 1004 0
 921 005e 2268     		ldr	r2, [r4]
 922 0060 1368     		ldr	r3, [r2]
 923 0062 23F08053 		bic	r3, r3, #268435456
 924 0066 1360     		str	r3, [r2]
1010:../system/src/stm32l4-hal-driver/stm32l4xx_hal_dac.c **** #endif /* USE_HAL_DAC_REGISTER_CALLBACKS */
 925              		.loc 1 1010 0
 926 0068 2046     		mov	r0, r4
 927 006a FFF7FEFF 		bl	HAL_DACEx_DMAUnderrunCallbackCh2
 928              	.LVL77:
1018:../system/src/stm32l4-hal-driver/stm32l4xx_hal_dac.c **** 
 929              		.loc 1 1018 0
 930 006e DBE7     		b	.L75
 931              		.cfi_endproc
 932              	.LFE325:
 934              		.section	.text.HAL_DAC_GetValue,"ax",%progbits
 935              		.align	1
 936              		.global	HAL_DAC_GetValue
 937              		.syntax unified
 938              		.thumb
 939              		.thumb_func
 940              		.fpu fpv4-sp-d16
 942              	HAL_DAC_GetValue:
 943              	.LFB331:
1156:../system/src/stm32l4-hal-driver/stm32l4xx_hal_dac.c ****   /* Check the parameters */
 944              		.loc 1 1156 0
 945              		.cfi_startproc
 946              		@ args = 0, pretend = 0, frame = 0
 947              		@ frame_needed = 0, uses_anonymous_args = 0
 948              		@ link register save eliminated.
 949              	.LVL78:
1172:../system/src/stm32l4-hal-driver/stm32l4xx_hal_dac.c ****   {
 950              		.loc 1 1172 0
 951 0000 11B1     		cbz	r1, .L84
1178:../system/src/stm32l4-hal-driver/stm32l4xx_hal_dac.c ****   }
 952              		.loc 1 1178 0
 953 0002 0368     		ldr	r3, [r0]
 954 0004 186B     		ldr	r0, [r3, #48]
 955              	.LVL79:
1184:../system/src/stm32l4-hal-driver/stm32l4xx_hal_dac.c **** 
 956              		.loc 1 1184 0
 957 0006 7047     		bx	lr
 958              	.LVL80:
 959              	.L84:
1174:../system/src/stm32l4-hal-driver/stm32l4xx_hal_dac.c ****   }
 960              		.loc 1 1174 0
 961 0008 0368     		ldr	r3, [r0]
 962 000a D86A     		ldr	r0, [r3, #44]
 963              	.LVL81:
 964 000c 7047     		bx	lr
 965              		.cfi_endproc
 966              	.LFE331:
 968              		.section	.text.HAL_DAC_ConfigChannel,"ax",%progbits
 969              		.align	1
 970              		.global	HAL_DAC_ConfigChannel
 971              		.syntax unified
 972              		.thumb
 973              		.thumb_func
 974              		.fpu fpv4-sp-d16
 976              	HAL_DAC_ConfigChannel:
 977              	.LFB332:
1203:../system/src/stm32l4-hal-driver/stm32l4xx_hal_dac.c ****   uint32_t tmpreg1;
 978              		.loc 1 1203 0
 979              		.cfi_startproc
 980              		@ args = 0, pretend = 0, frame = 0
 981              		@ frame_needed = 0, uses_anonymous_args = 0
 982              	.LVL82:
 983 0000 F8B5     		push	{r3, r4, r5, r6, r7, lr}
 984              		.cfi_def_cfa_offset 24
 985              		.cfi_offset 3, -24
 986              		.cfi_offset 4, -20
 987              		.cfi_offset 5, -16
 988              		.cfi_offset 6, -12
 989              		.cfi_offset 7, -8
 990              		.cfi_offset 14, -4
 991              	.LVL83:
1233:../system/src/stm32l4-hal-driver/stm32l4xx_hal_dac.c **** 
 992              		.loc 1 1233 0
 993 0002 4379     		ldrb	r3, [r0, #5]	@ zero_extendqisi2
 994 0004 012B     		cmp	r3, #1
 995 0006 00F09580 		beq	.L94
 996 000a 1646     		mov	r6, r2
 997 000c 0D46     		mov	r5, r1
 998 000e 0446     		mov	r4, r0
1233:../system/src/stm32l4-hal-driver/stm32l4xx_hal_dac.c **** 
 999              		.loc 1 1233 0 is_stmt 0 discriminator 2
 1000 0010 0123     		movs	r3, #1
 1001 0012 4371     		strb	r3, [r0, #5]
1236:../system/src/stm32l4-hal-driver/stm32l4xx_hal_dac.c **** 
 1002              		.loc 1 1236 0 is_stmt 1 discriminator 2
 1003 0014 0223     		movs	r3, #2
 1004 0016 0371     		strb	r3, [r0, #4]
1238:../system/src/stm32l4-hal-driver/stm32l4xx_hal_dac.c ****   /* Sample on old configuration */
 1005              		.loc 1 1238 0 discriminator 2
 1006 0018 0B68     		ldr	r3, [r1]
 1007 001a 042B     		cmp	r3, #4
 1008 001c 32D0     		beq	.L96
 1009              	.LVL84:
 1010              	.L87:
1295:../system/src/stm32l4-hal-driver/stm32l4xx_hal_dac.c ****   /* USER TRIMMING */
 1011              		.loc 1 1295 0
 1012 001e 2B69     		ldr	r3, [r5, #16]
 1013 0020 012B     		cmp	r3, #1
 1014 0022 7AD0     		beq	.L97
 1015              	.L93:
1313:../system/src/stm32l4-hal-driver/stm32l4xx_hal_dac.c ****   /* Clear DAC_MCR_MODEx bits */
 1016              		.loc 1 1313 0
 1017 0024 2068     		ldr	r0, [r4]
 1018 0026 C36B     		ldr	r3, [r0, #60]
 1019              	.LVL85:
1315:../system/src/stm32l4-hal-driver/stm32l4xx_hal_dac.c ****   /* Configure for the selected DAC channel: mode, buffer output & on chip peripheral connect */
 1020              		.loc 1 1315 0
 1021 0028 06F01002 		and	r2, r6, #16
 1022 002c 0721     		movs	r1, #7
 1023 002e 9140     		lsls	r1, r1, r2
 1024 0030 23EA0101 		bic	r1, r3, r1
 1025              	.LVL86:
1317:../system/src/stm32l4-hal-driver/stm32l4xx_hal_dac.c ****   /* Calculate MCR register value depending on DAC_Channel */
 1026              		.loc 1 1317 0
 1027 0034 2B68     		ldr	r3, [r5]
 1028 0036 AE68     		ldr	r6, [r5, #8]
 1029              	.LVL87:
 1030 0038 3343     		orrs	r3, r3, r6
 1031 003a EE68     		ldr	r6, [r5, #12]
 1032 003c 3343     		orrs	r3, r3, r6
 1033              	.LVL88:
1319:../system/src/stm32l4-hal-driver/stm32l4xx_hal_dac.c ****   /* Write to DAC MCR */
 1034              		.loc 1 1319 0
 1035 003e 9340     		lsls	r3, r3, r2
 1036              	.LVL89:
 1037 0040 0B43     		orrs	r3, r3, r1
 1038              	.LVL90:
1321:../system/src/stm32l4-hal-driver/stm32l4xx_hal_dac.c **** 
 1039              		.loc 1 1321 0
 1040 0042 C363     		str	r3, [r0, #60]
 1041              	.LVL91:
1324:../system/src/stm32l4-hal-driver/stm32l4xx_hal_dac.c **** 
 1042              		.loc 1 1324 0
 1043 0044 2068     		ldr	r0, [r4]
 1044 0046 0368     		ldr	r3, [r0]
 1045              	.LVL92:
 1046 0048 4FF48041 		mov	r1, #16384
 1047 004c 9140     		lsls	r1, r1, r2
 1048 004e 23EA0103 		bic	r3, r3, r1
 1049 0052 0360     		str	r3, [r0]
1327:../system/src/stm32l4-hal-driver/stm32l4xx_hal_dac.c ****   /* Clear TENx, TSELx, WAVEx and MAMPx bits */
 1050              		.loc 1 1327 0
 1051 0054 2068     		ldr	r0, [r4]
 1052 0056 0368     		ldr	r3, [r0]
 1053              	.LVL93:
1329:../system/src/stm32l4-hal-driver/stm32l4xx_hal_dac.c ****   /* Configure for the selected DAC channel: trigger */
 1054              		.loc 1 1329 0
 1055 0058 40F6FC71 		movw	r1, #4092
 1056 005c 9140     		lsls	r1, r1, r2
 1057 005e 23EA0101 		bic	r1, r3, r1
 1058              	.LVL94:
1332:../system/src/stm32l4-hal-driver/stm32l4xx_hal_dac.c ****   /* Calculate CR register value depending on DAC_Channel */
 1059              		.loc 1 1332 0
 1060 0062 6B68     		ldr	r3, [r5, #4]
 1061              	.LVL95:
1334:../system/src/stm32l4-hal-driver/stm32l4xx_hal_dac.c **** #if defined (STM32L4P5xx) || defined (STM32L4Q5xx) || defined (STM32L4R5xx) || defined (STM32L4R7xx
 1062              		.loc 1 1334 0
 1063 0064 9340     		lsls	r3, r3, r2
 1064              	.LVL96:
 1065 0066 0B43     		orrs	r3, r3, r1
 1066              	.LVL97:
1365:../system/src/stm32l4-hal-driver/stm32l4xx_hal_dac.c ****   /* Disable wave generation */
 1067              		.loc 1 1365 0
 1068 0068 0360     		str	r3, [r0]
 1069              	.LVL98:
1367:../system/src/stm32l4-hal-driver/stm32l4xx_hal_dac.c **** 
 1070              		.loc 1 1367 0
 1071 006a 2068     		ldr	r0, [r4]
 1072 006c 0368     		ldr	r3, [r0]
 1073              	.LVL99:
 1074 006e C021     		movs	r1, #192
 1075 0070 01FA02F2 		lsl	r2, r1, r2
 1076 0074 23EA0202 		bic	r2, r3, r2
 1077 0078 0260     		str	r2, [r0]
1370:../system/src/stm32l4-hal-driver/stm32l4xx_hal_dac.c **** 
 1078              		.loc 1 1370 0
 1079 007a 0123     		movs	r3, #1
 1080 007c 2371     		strb	r3, [r4, #4]
1373:../system/src/stm32l4-hal-driver/stm32l4xx_hal_dac.c **** 
 1081              		.loc 1 1373 0
 1082 007e 0020     		movs	r0, #0
 1083 0080 6071     		strb	r0, [r4, #5]
 1084              	.LVL100:
 1085              	.L86:
1377:../system/src/stm32l4-hal-driver/stm32l4xx_hal_dac.c **** 
 1086              		.loc 1 1377 0
 1087 0082 F8BD     		pop	{r3, r4, r5, r6, r7, pc}
 1088              	.LVL101:
 1089              	.L96:
1242:../system/src/stm32l4-hal-driver/stm32l4xx_hal_dac.c **** 
 1090              		.loc 1 1242 0
 1091 0084 FFF7FEFF 		bl	HAL_GetTick
 1092              	.LVL102:
 1093 0088 0746     		mov	r7, r0
 1094              	.LVL103:
1244:../system/src/stm32l4-hal-driver/stm32l4xx_hal_dac.c ****     {
 1095              		.loc 1 1244 0
 1096 008a 7EB1     		cbz	r6, .L88
 1097              	.LVL104:
 1098              	.L89:
1270:../system/src/stm32l4-hal-driver/stm32l4xx_hal_dac.c ****       {
 1099              		.loc 1 1270 0
 1100 008c 2368     		ldr	r3, [r4]
 1101 008e 5B6B     		ldr	r3, [r3, #52]
 1102 0090 002B     		cmp	r3, #0
 1103 0092 3BDA     		bge	.L98
1273:../system/src/stm32l4-hal-driver/stm32l4xx_hal_dac.c ****         {
 1104              		.loc 1 1273 0
 1105 0094 FFF7FEFF 		bl	HAL_GetTick
 1106              	.LVL105:
 1107 0098 C01B     		subs	r0, r0, r7
 1108 009a 0128     		cmp	r0, #1
 1109 009c F6D9     		bls	.L89
1276:../system/src/stm32l4-hal-driver/stm32l4xx_hal_dac.c **** 
 1110              		.loc 1 1276 0
 1111 009e 2369     		ldr	r3, [r4, #16]
 1112 00a0 43F00803 		orr	r3, r3, #8
 1113 00a4 2361     		str	r3, [r4, #16]
1279:../system/src/stm32l4-hal-driver/stm32l4xx_hal_dac.c **** 
 1114              		.loc 1 1279 0
 1115 00a6 0320     		movs	r0, #3
 1116 00a8 2071     		strb	r0, [r4, #4]
1281:../system/src/stm32l4-hal-driver/stm32l4xx_hal_dac.c ****         }
 1117              		.loc 1 1281 0
 1118 00aa EAE7     		b	.L86
 1119              	.L88:
1248:../system/src/stm32l4-hal-driver/stm32l4xx_hal_dac.c ****       {
 1120              		.loc 1 1248 0
 1121 00ac 2368     		ldr	r3, [r4]
 1122 00ae 5B6B     		ldr	r3, [r3, #52]
 1123 00b0 13F4004F 		tst	r3, #32768
 1124 00b4 0BD0     		beq	.L99
1251:../system/src/stm32l4-hal-driver/stm32l4xx_hal_dac.c ****         {
 1125              		.loc 1 1251 0
 1126 00b6 FFF7FEFF 		bl	HAL_GetTick
 1127              	.LVL106:
 1128 00ba C01B     		subs	r0, r0, r7
 1129 00bc 0128     		cmp	r0, #1
 1130 00be F5D9     		bls	.L88
1254:../system/src/stm32l4-hal-driver/stm32l4xx_hal_dac.c **** 
 1131              		.loc 1 1254 0
 1132 00c0 2369     		ldr	r3, [r4, #16]
 1133 00c2 43F00803 		orr	r3, r3, #8
 1134 00c6 2361     		str	r3, [r4, #16]
1257:../system/src/stm32l4-hal-driver/stm32l4xx_hal_dac.c **** 
 1135              		.loc 1 1257 0
 1136 00c8 0320     		movs	r0, #3
 1137 00ca 2071     		strb	r0, [r4, #4]
1259:../system/src/stm32l4-hal-driver/stm32l4xx_hal_dac.c ****         }
 1138              		.loc 1 1259 0
 1139 00cc D9E7     		b	.L86
 1140              	.L99:
1262:../system/src/stm32l4-hal-driver/stm32l4xx_hal_dac.c ****       hdac->Instance->SHSR1 = sConfig->DAC_SampleAndHoldConfig.DAC_SampleTime;
 1141              		.loc 1 1262 0
 1142 00ce 0120     		movs	r0, #1
 1143 00d0 FFF7FEFF 		bl	HAL_Delay
 1144              	.LVL107:
1263:../system/src/stm32l4-hal-driver/stm32l4xx_hal_dac.c ****     }
 1145              		.loc 1 1263 0
 1146 00d4 2368     		ldr	r3, [r4]
 1147 00d6 AA69     		ldr	r2, [r5, #24]
 1148 00d8 1A64     		str	r2, [r3, #64]
 1149              	.L91:
1290:../system/src/stm32l4-hal-driver/stm32l4xx_hal_dac.c ****     /* RefreshTime */
 1150              		.loc 1 1290 0
 1151 00da 2068     		ldr	r0, [r4]
 1152 00dc 826C     		ldr	r2, [r0, #72]
 1153 00de 06F01001 		and	r1, r6, #16
 1154 00e2 40F2FF33 		movw	r3, #1023
 1155 00e6 8B40     		lsls	r3, r3, r1
 1156 00e8 22EA0302 		bic	r2, r2, r3
 1157 00ec EB69     		ldr	r3, [r5, #28]
 1158 00ee 8B40     		lsls	r3, r3, r1
 1159 00f0 1A43     		orrs	r2, r2, r3
 1160 00f2 8264     		str	r2, [r0, #72]
1292:../system/src/stm32l4-hal-driver/stm32l4xx_hal_dac.c ****   }
 1161              		.loc 1 1292 0
 1162 00f4 2068     		ldr	r0, [r4]
 1163 00f6 C36C     		ldr	r3, [r0, #76]
 1164 00f8 FF22     		movs	r2, #255
 1165 00fa 8A40     		lsls	r2, r2, r1
 1166 00fc 23EA0203 		bic	r3, r3, r2
 1167 0100 2A6A     		ldr	r2, [r5, #32]
 1168 0102 02FA01F1 		lsl	r1, r2, r1
 1169 0106 0B43     		orrs	r3, r3, r1
 1170 0108 C364     		str	r3, [r0, #76]
 1171 010a 88E7     		b	.L87
 1172              	.L98:
1284:../system/src/stm32l4-hal-driver/stm32l4xx_hal_dac.c ****       hdac->Instance->SHSR2 = sConfig->DAC_SampleAndHoldConfig.DAC_SampleTime;
 1173              		.loc 1 1284 0
 1174 010c 0120     		movs	r0, #1
 1175 010e FFF7FEFF 		bl	HAL_Delay
 1176              	.LVL108:
1285:../system/src/stm32l4-hal-driver/stm32l4xx_hal_dac.c ****     }
 1177              		.loc 1 1285 0
 1178 0112 2368     		ldr	r3, [r4]
 1179 0114 AA69     		ldr	r2, [r5, #24]
 1180 0116 5A64     		str	r2, [r3, #68]
 1181 0118 DFE7     		b	.L91
 1182              	.LVL109:
 1183              	.L97:
1299:../system/src/stm32l4-hal-driver/stm32l4xx_hal_dac.c ****     /* Clear trimming value */
 1184              		.loc 1 1299 0
 1185 011a 2168     		ldr	r1, [r4]
 1186 011c 8A6B     		ldr	r2, [r1, #56]
 1187              	.LVL110:
1301:../system/src/stm32l4-hal-driver/stm32l4xx_hal_dac.c ****     /* Configure for the selected trimming offset */
 1188              		.loc 1 1301 0
 1189 011e 06F01000 		and	r0, r6, #16
 1190 0122 1F23     		movs	r3, #31
 1191 0124 8340     		lsls	r3, r3, r0
 1192 0126 22EA0302 		bic	r2, r2, r3
 1193              	.LVL111:
1303:../system/src/stm32l4-hal-driver/stm32l4xx_hal_dac.c ****     /* Calculate CCR register value depending on DAC_Channel */
 1194              		.loc 1 1303 0
 1195 012a 6B69     		ldr	r3, [r5, #20]
 1196              	.LVL112:
1305:../system/src/stm32l4-hal-driver/stm32l4xx_hal_dac.c ****     /* Write to DAC CCR */
 1197              		.loc 1 1305 0
 1198 012c 8340     		lsls	r3, r3, r0
 1199              	.LVL113:
 1200 012e 1343     		orrs	r3, r3, r2
 1201              	.LVL114:
1307:../system/src/stm32l4-hal-driver/stm32l4xx_hal_dac.c ****   }
 1202              		.loc 1 1307 0
 1203 0130 8B63     		str	r3, [r1, #56]
 1204              	.LVL115:
 1205 0132 77E7     		b	.L93
 1206              	.LVL116:
 1207              	.L94:
1233:../system/src/stm32l4-hal-driver/stm32l4xx_hal_dac.c **** 
 1208              		.loc 1 1233 0
 1209 0134 0220     		movs	r0, #2
 1210              	.LVL117:
 1211 0136 A4E7     		b	.L86
 1212              		.cfi_endproc
 1213              	.LFE332:
 1215              		.section	.text.HAL_DAC_GetState,"ax",%progbits
 1216              		.align	1
 1217              		.global	HAL_DAC_GetState
 1218              		.syntax unified
 1219              		.thumb
 1220              		.thumb_func
 1221              		.fpu fpv4-sp-d16
 1223              	HAL_DAC_GetState:
 1224              	.LFB333:
1406:../system/src/stm32l4-hal-driver/stm32l4xx_hal_dac.c ****   /* Return DAC handle state */
 1225              		.loc 1 1406 0
 1226              		.cfi_startproc
 1227              		@ args = 0, pretend = 0, frame = 0
 1228              		@ frame_needed = 0, uses_anonymous_args = 0
 1229              		@ link register save eliminated.
 1230              	.LVL118:
1408:../system/src/stm32l4-hal-driver/stm32l4xx_hal_dac.c **** }
 1231              		.loc 1 1408 0
 1232 0000 0079     		ldrb	r0, [r0, #4]	@ zero_extendqisi2
 1233              	.LVL119:
1409:../system/src/stm32l4-hal-driver/stm32l4xx_hal_dac.c **** 
 1234              		.loc 1 1409 0
 1235 0002 7047     		bx	lr
 1236              		.cfi_endproc
 1237              	.LFE333:
 1239              		.section	.text.HAL_DAC_GetError,"ax",%progbits
 1240              		.align	1
 1241              		.global	HAL_DAC_GetError
 1242              		.syntax unified
 1243              		.thumb
 1244              		.thumb_func
 1245              		.fpu fpv4-sp-d16
 1247              	HAL_DAC_GetError:
 1248              	.LFB334:
1419:../system/src/stm32l4-hal-driver/stm32l4xx_hal_dac.c ****   return hdac->ErrorCode;
 1249              		.loc 1 1419 0
 1250              		.cfi_startproc
 1251              		@ args = 0, pretend = 0, frame = 0
 1252              		@ frame_needed = 0, uses_anonymous_args = 0
 1253              		@ link register save eliminated.
 1254              	.LVL120:
1420:../system/src/stm32l4-hal-driver/stm32l4xx_hal_dac.c **** }
 1255              		.loc 1 1420 0
 1256 0000 0069     		ldr	r0, [r0, #16]
 1257              	.LVL121:
1421:../system/src/stm32l4-hal-driver/stm32l4xx_hal_dac.c **** 
 1258              		.loc 1 1421 0
 1259 0002 7047     		bx	lr
 1260              		.cfi_endproc
 1261              	.LFE334:
 1263              		.text
 1264              	.Letext0:
 1265              		.file 2 "/usr/local/bin/gcc-arm-none-eabi-7-2018-q2-update/lib/gcc/arm-none-eabi/7.3.1/include/std
 1266              		.file 3 "../system/include/cmsis/stm32l4xx/core_cm4.h"
 1267              		.file 4 "../system/include/cmsis/stm32l4xx/device/system_stm32l4xx.h"
 1268              		.file 5 "../system/include/cmsis/stm32l4xx/device/stm32l471xx.h"
 1269              		.file 6 "../system/include/stm32l4-hal-driver/stm32l4xx_hal_def.h"
 1270              		.file 7 "../system/include/stm32l4-hal-driver/stm32l4xx_hal_dma.h"
 1271              		.file 8 "../system/include/stm32l4-hal-driver/stm32l4xx_hal_dac.h"
 1272              		.file 9 "../system/include/stm32l4-hal-driver/stm32l4xx_hal_flash.h"
 1273              		.file 10 "../system/include/stm32l4-hal-driver/stm32l4xx_hal.h"
 1274              		.file 11 "../system/include/stm32l4-hal-driver/stm32l4xx_hal_dac_ex.h"