   1              		.cpu cortex-m4
   2              		.eabi_attribute 27, 1
   3              		.eabi_attribute 28, 1
   4              		.eabi_attribute 20, 1
   5              		.eabi_attribute 21, 1
   6              		.eabi_attribute 23, 3
   7              		.eabi_attribute 24, 1
   8              		.eabi_attribute 25, 1
   9              		.eabi_attribute 26, 1
  10              		.eabi_attribute 30, 1
  11              		.eabi_attribute 34, 1
  12              		.eabi_attribute 18, 4
  13              		.file	"stm32l4xx_hal_flash_ex.c"
  14              		.text
  15              	.Ltext0:
  16              		.cfi_sections	.debug_frame
  17              		.section	.text.FLASH_MassErase,"ax",%progbits
  18              		.align	1
  19              		.syntax unified
  20              		.thumb
  21              		.thumb_func
  22              		.fpu fpv4-sp-d16
  24              	FLASH_MassErase:
  25              	.LFB321:
  26              		.file 1 "../system/src/stm32l4-hal-driver/stm32l4xx_hal_flash_ex.c"
   1:../system/src/stm32l4-hal-driver/stm32l4xx_hal_flash_ex.c **** /**
   2:../system/src/stm32l4-hal-driver/stm32l4xx_hal_flash_ex.c ****   ******************************************************************************
   3:../system/src/stm32l4-hal-driver/stm32l4xx_hal_flash_ex.c ****   * @file    stm32l4xx_hal_flash_ex.c
   4:../system/src/stm32l4-hal-driver/stm32l4xx_hal_flash_ex.c ****   * @author  MCD Application Team
   5:../system/src/stm32l4-hal-driver/stm32l4xx_hal_flash_ex.c ****   * @brief   Extended FLASH HAL module driver.
   6:../system/src/stm32l4-hal-driver/stm32l4xx_hal_flash_ex.c ****   *          This file provides firmware functions to manage the following
   7:../system/src/stm32l4-hal-driver/stm32l4xx_hal_flash_ex.c ****   *          functionalities of the FLASH extended peripheral:
   8:../system/src/stm32l4-hal-driver/stm32l4xx_hal_flash_ex.c ****   *           + Extended programming operations functions
   9:../system/src/stm32l4-hal-driver/stm32l4xx_hal_flash_ex.c ****   *
  10:../system/src/stm32l4-hal-driver/stm32l4xx_hal_flash_ex.c ****  @verbatim
  11:../system/src/stm32l4-hal-driver/stm32l4xx_hal_flash_ex.c ****  ==============================================================================
  12:../system/src/stm32l4-hal-driver/stm32l4xx_hal_flash_ex.c ****                    ##### Flash Extended features #####
  13:../system/src/stm32l4-hal-driver/stm32l4xx_hal_flash_ex.c ****   ==============================================================================
  14:../system/src/stm32l4-hal-driver/stm32l4xx_hal_flash_ex.c **** 
  15:../system/src/stm32l4-hal-driver/stm32l4xx_hal_flash_ex.c ****   [..] Comparing to other previous devices, the FLASH interface for STM32L4xx
  16:../system/src/stm32l4-hal-driver/stm32l4xx_hal_flash_ex.c ****        devices contains the following additional features
  17:../system/src/stm32l4-hal-driver/stm32l4xx_hal_flash_ex.c **** 
  18:../system/src/stm32l4-hal-driver/stm32l4xx_hal_flash_ex.c ****        (+) Capacity up to 2 Mbyte with dual bank architecture supporting read-while-write
  19:../system/src/stm32l4-hal-driver/stm32l4xx_hal_flash_ex.c ****            capability (RWW)
  20:../system/src/stm32l4-hal-driver/stm32l4xx_hal_flash_ex.c ****        (+) Dual bank memory organization
  21:../system/src/stm32l4-hal-driver/stm32l4xx_hal_flash_ex.c ****        (+) PCROP protection for all banks
  22:../system/src/stm32l4-hal-driver/stm32l4xx_hal_flash_ex.c **** 
  23:../system/src/stm32l4-hal-driver/stm32l4xx_hal_flash_ex.c ****                         ##### How to use this driver #####
  24:../system/src/stm32l4-hal-driver/stm32l4xx_hal_flash_ex.c ****  ==============================================================================
  25:../system/src/stm32l4-hal-driver/stm32l4xx_hal_flash_ex.c ****   [..] This driver provides functions to configure and program the FLASH memory
  26:../system/src/stm32l4-hal-driver/stm32l4xx_hal_flash_ex.c ****        of all STM32L4xx devices. It includes
  27:../system/src/stm32l4-hal-driver/stm32l4xx_hal_flash_ex.c ****       (#) Flash Memory Erase functions:
  28:../system/src/stm32l4-hal-driver/stm32l4xx_hal_flash_ex.c ****            (++) Lock and Unlock the FLASH interface using HAL_FLASH_Unlock() and
  29:../system/src/stm32l4-hal-driver/stm32l4xx_hal_flash_ex.c ****                 HAL_FLASH_Lock() functions
  30:../system/src/stm32l4-hal-driver/stm32l4xx_hal_flash_ex.c ****            (++) Erase function: Erase page, erase all sectors
  31:../system/src/stm32l4-hal-driver/stm32l4xx_hal_flash_ex.c ****            (++) There are two modes of erase :
  32:../system/src/stm32l4-hal-driver/stm32l4xx_hal_flash_ex.c ****              (+++) Polling Mode using HAL_FLASHEx_Erase()
  33:../system/src/stm32l4-hal-driver/stm32l4xx_hal_flash_ex.c ****              (+++) Interrupt Mode using HAL_FLASHEx_Erase_IT()
  34:../system/src/stm32l4-hal-driver/stm32l4xx_hal_flash_ex.c **** 
  35:../system/src/stm32l4-hal-driver/stm32l4xx_hal_flash_ex.c ****       (#) Option Bytes Programming function: Use HAL_FLASHEx_OBProgram() to :
  36:../system/src/stm32l4-hal-driver/stm32l4xx_hal_flash_ex.c ****         (++) Set/Reset the write protection
  37:../system/src/stm32l4-hal-driver/stm32l4xx_hal_flash_ex.c ****         (++) Set the Read protection Level
  38:../system/src/stm32l4-hal-driver/stm32l4xx_hal_flash_ex.c ****         (++) Program the user Option Bytes
  39:../system/src/stm32l4-hal-driver/stm32l4xx_hal_flash_ex.c ****         (++) Configure the PCROP protection
  40:../system/src/stm32l4-hal-driver/stm32l4xx_hal_flash_ex.c **** 
  41:../system/src/stm32l4-hal-driver/stm32l4xx_hal_flash_ex.c ****       (#) Get Option Bytes Configuration function: Use HAL_FLASHEx_OBGetConfig() to :
  42:../system/src/stm32l4-hal-driver/stm32l4xx_hal_flash_ex.c ****         (++) Get the value of a write protection area
  43:../system/src/stm32l4-hal-driver/stm32l4xx_hal_flash_ex.c ****         (++) Know if the read protection is activated
  44:../system/src/stm32l4-hal-driver/stm32l4xx_hal_flash_ex.c ****         (++) Get the value of the user Option Bytes
  45:../system/src/stm32l4-hal-driver/stm32l4xx_hal_flash_ex.c ****         (++) Get the value of a PCROP area
  46:../system/src/stm32l4-hal-driver/stm32l4xx_hal_flash_ex.c **** 
  47:../system/src/stm32l4-hal-driver/stm32l4xx_hal_flash_ex.c ****  @endverbatim
  48:../system/src/stm32l4-hal-driver/stm32l4xx_hal_flash_ex.c ****   ******************************************************************************
  49:../system/src/stm32l4-hal-driver/stm32l4xx_hal_flash_ex.c ****   * @attention
  50:../system/src/stm32l4-hal-driver/stm32l4xx_hal_flash_ex.c ****   *
  51:../system/src/stm32l4-hal-driver/stm32l4xx_hal_flash_ex.c ****   * <h2><center>&copy; Copyright (c) 2017 STMicroelectronics.
  52:../system/src/stm32l4-hal-driver/stm32l4xx_hal_flash_ex.c ****   * All rights reserved.</center></h2>
  53:../system/src/stm32l4-hal-driver/stm32l4xx_hal_flash_ex.c ****   *
  54:../system/src/stm32l4-hal-driver/stm32l4xx_hal_flash_ex.c ****   * This software component is licensed by ST under BSD 3-Clause license,
  55:../system/src/stm32l4-hal-driver/stm32l4xx_hal_flash_ex.c ****   * the "License"; You may not use this file except in compliance with the
  56:../system/src/stm32l4-hal-driver/stm32l4xx_hal_flash_ex.c ****   * License. You may obtain a copy of the License at:
  57:../system/src/stm32l4-hal-driver/stm32l4xx_hal_flash_ex.c ****   *                       opensource.org/licenses/BSD-3-Clause
  58:../system/src/stm32l4-hal-driver/stm32l4xx_hal_flash_ex.c ****   *
  59:../system/src/stm32l4-hal-driver/stm32l4xx_hal_flash_ex.c ****   ******************************************************************************
  60:../system/src/stm32l4-hal-driver/stm32l4xx_hal_flash_ex.c ****   */
  61:../system/src/stm32l4-hal-driver/stm32l4xx_hal_flash_ex.c **** 
  62:../system/src/stm32l4-hal-driver/stm32l4xx_hal_flash_ex.c **** /* Includes ------------------------------------------------------------------*/
  63:../system/src/stm32l4-hal-driver/stm32l4xx_hal_flash_ex.c **** #include "stm32l4xx_hal.h"
  64:../system/src/stm32l4-hal-driver/stm32l4xx_hal_flash_ex.c **** 
  65:../system/src/stm32l4-hal-driver/stm32l4xx_hal_flash_ex.c **** /** @addtogroup STM32L4xx_HAL_Driver
  66:../system/src/stm32l4-hal-driver/stm32l4xx_hal_flash_ex.c ****   * @{
  67:../system/src/stm32l4-hal-driver/stm32l4xx_hal_flash_ex.c ****   */
  68:../system/src/stm32l4-hal-driver/stm32l4xx_hal_flash_ex.c **** 
  69:../system/src/stm32l4-hal-driver/stm32l4xx_hal_flash_ex.c **** /** @defgroup FLASHEx FLASHEx
  70:../system/src/stm32l4-hal-driver/stm32l4xx_hal_flash_ex.c ****   * @brief FLASH Extended HAL module driver
  71:../system/src/stm32l4-hal-driver/stm32l4xx_hal_flash_ex.c ****   * @{
  72:../system/src/stm32l4-hal-driver/stm32l4xx_hal_flash_ex.c ****   */
  73:../system/src/stm32l4-hal-driver/stm32l4xx_hal_flash_ex.c **** 
  74:../system/src/stm32l4-hal-driver/stm32l4xx_hal_flash_ex.c **** #ifdef HAL_FLASH_MODULE_ENABLED
  75:../system/src/stm32l4-hal-driver/stm32l4xx_hal_flash_ex.c **** 
  76:../system/src/stm32l4-hal-driver/stm32l4xx_hal_flash_ex.c **** /* Private typedef -----------------------------------------------------------*/
  77:../system/src/stm32l4-hal-driver/stm32l4xx_hal_flash_ex.c **** /* Private define ------------------------------------------------------------*/
  78:../system/src/stm32l4-hal-driver/stm32l4xx_hal_flash_ex.c **** /* Private macro -------------------------------------------------------------*/
  79:../system/src/stm32l4-hal-driver/stm32l4xx_hal_flash_ex.c **** /* Private variables ---------------------------------------------------------*/
  80:../system/src/stm32l4-hal-driver/stm32l4xx_hal_flash_ex.c **** /* Private function prototypes -----------------------------------------------*/
  81:../system/src/stm32l4-hal-driver/stm32l4xx_hal_flash_ex.c **** /** @defgroup FLASHEx_Private_Functions FLASHEx Private Functions
  82:../system/src/stm32l4-hal-driver/stm32l4xx_hal_flash_ex.c ****  * @{
  83:../system/src/stm32l4-hal-driver/stm32l4xx_hal_flash_ex.c ****  */
  84:../system/src/stm32l4-hal-driver/stm32l4xx_hal_flash_ex.c **** static void              FLASH_MassErase(uint32_t Banks);
  85:../system/src/stm32l4-hal-driver/stm32l4xx_hal_flash_ex.c **** static HAL_StatusTypeDef FLASH_OB_WRPConfig(uint32_t WRPArea, uint32_t WRPStartOffset, uint32_t WRD
  86:../system/src/stm32l4-hal-driver/stm32l4xx_hal_flash_ex.c **** static HAL_StatusTypeDef FLASH_OB_RDPConfig(uint32_t RDPLevel);
  87:../system/src/stm32l4-hal-driver/stm32l4xx_hal_flash_ex.c **** static HAL_StatusTypeDef FLASH_OB_UserConfig(uint32_t UserType, uint32_t UserConfig);
  88:../system/src/stm32l4-hal-driver/stm32l4xx_hal_flash_ex.c **** static HAL_StatusTypeDef FLASH_OB_PCROPConfig(uint32_t PCROPConfig, uint32_t PCROPStartAddr, uint32
  89:../system/src/stm32l4-hal-driver/stm32l4xx_hal_flash_ex.c **** static void              FLASH_OB_GetWRP(uint32_t WRPArea, uint32_t * WRPStartOffset, uint32_t * WR
  90:../system/src/stm32l4-hal-driver/stm32l4xx_hal_flash_ex.c **** static uint32_t          FLASH_OB_GetRDP(void);
  91:../system/src/stm32l4-hal-driver/stm32l4xx_hal_flash_ex.c **** static uint32_t          FLASH_OB_GetUser(void);
  92:../system/src/stm32l4-hal-driver/stm32l4xx_hal_flash_ex.c **** static void              FLASH_OB_GetPCROP(uint32_t * PCROPConfig, uint32_t * PCROPStartAddr, uint3
  93:../system/src/stm32l4-hal-driver/stm32l4xx_hal_flash_ex.c **** /**
  94:../system/src/stm32l4-hal-driver/stm32l4xx_hal_flash_ex.c ****   * @}
  95:../system/src/stm32l4-hal-driver/stm32l4xx_hal_flash_ex.c ****   */
  96:../system/src/stm32l4-hal-driver/stm32l4xx_hal_flash_ex.c **** 
  97:../system/src/stm32l4-hal-driver/stm32l4xx_hal_flash_ex.c **** /* Exported functions -------------------------------------------------------*/
  98:../system/src/stm32l4-hal-driver/stm32l4xx_hal_flash_ex.c **** /** @defgroup FLASHEx_Exported_Functions FLASHEx Exported Functions
  99:../system/src/stm32l4-hal-driver/stm32l4xx_hal_flash_ex.c ****   * @{
 100:../system/src/stm32l4-hal-driver/stm32l4xx_hal_flash_ex.c ****   */
 101:../system/src/stm32l4-hal-driver/stm32l4xx_hal_flash_ex.c **** 
 102:../system/src/stm32l4-hal-driver/stm32l4xx_hal_flash_ex.c **** /** @defgroup FLASHEx_Exported_Functions_Group1 Extended IO operation functions
 103:../system/src/stm32l4-hal-driver/stm32l4xx_hal_flash_ex.c ****  *  @brief   Extended IO operation functions
 104:../system/src/stm32l4-hal-driver/stm32l4xx_hal_flash_ex.c ****  *
 105:../system/src/stm32l4-hal-driver/stm32l4xx_hal_flash_ex.c **** @verbatim
 106:../system/src/stm32l4-hal-driver/stm32l4xx_hal_flash_ex.c ****  ===============================================================================
 107:../system/src/stm32l4-hal-driver/stm32l4xx_hal_flash_ex.c ****                 ##### Extended programming operation functions #####
 108:../system/src/stm32l4-hal-driver/stm32l4xx_hal_flash_ex.c ****  ===============================================================================
 109:../system/src/stm32l4-hal-driver/stm32l4xx_hal_flash_ex.c ****     [..]
 110:../system/src/stm32l4-hal-driver/stm32l4xx_hal_flash_ex.c ****     This subsection provides a set of functions allowing to manage the Extended FLASH
 111:../system/src/stm32l4-hal-driver/stm32l4xx_hal_flash_ex.c ****     programming operations Operations.
 112:../system/src/stm32l4-hal-driver/stm32l4xx_hal_flash_ex.c **** 
 113:../system/src/stm32l4-hal-driver/stm32l4xx_hal_flash_ex.c **** @endverbatim
 114:../system/src/stm32l4-hal-driver/stm32l4xx_hal_flash_ex.c ****   * @{
 115:../system/src/stm32l4-hal-driver/stm32l4xx_hal_flash_ex.c ****   */
 116:../system/src/stm32l4-hal-driver/stm32l4xx_hal_flash_ex.c **** /**
 117:../system/src/stm32l4-hal-driver/stm32l4xx_hal_flash_ex.c ****   * @brief  Perform a mass erase or erase the specified FLASH memory pages.
 118:../system/src/stm32l4-hal-driver/stm32l4xx_hal_flash_ex.c ****   * @param[in]  pEraseInit: pointer to an FLASH_EraseInitTypeDef structure that
 119:../system/src/stm32l4-hal-driver/stm32l4xx_hal_flash_ex.c ****   *         contains the configuration information for the erasing.
 120:../system/src/stm32l4-hal-driver/stm32l4xx_hal_flash_ex.c ****   *
 121:../system/src/stm32l4-hal-driver/stm32l4xx_hal_flash_ex.c ****   * @param[out]  PageError  : pointer to variable that contains the configuration
 122:../system/src/stm32l4-hal-driver/stm32l4xx_hal_flash_ex.c ****   *         information on faulty page in case of error (0xFFFFFFFF means that all
 123:../system/src/stm32l4-hal-driver/stm32l4xx_hal_flash_ex.c ****   *         the pages have been correctly erased)
 124:../system/src/stm32l4-hal-driver/stm32l4xx_hal_flash_ex.c ****   *
 125:../system/src/stm32l4-hal-driver/stm32l4xx_hal_flash_ex.c ****   * @retval HAL Status
 126:../system/src/stm32l4-hal-driver/stm32l4xx_hal_flash_ex.c ****   */
 127:../system/src/stm32l4-hal-driver/stm32l4xx_hal_flash_ex.c **** HAL_StatusTypeDef HAL_FLASHEx_Erase(FLASH_EraseInitTypeDef *pEraseInit, uint32_t *PageError)
 128:../system/src/stm32l4-hal-driver/stm32l4xx_hal_flash_ex.c **** {
 129:../system/src/stm32l4-hal-driver/stm32l4xx_hal_flash_ex.c ****   HAL_StatusTypeDef status;
 130:../system/src/stm32l4-hal-driver/stm32l4xx_hal_flash_ex.c ****   uint32_t page_index;
 131:../system/src/stm32l4-hal-driver/stm32l4xx_hal_flash_ex.c **** 
 132:../system/src/stm32l4-hal-driver/stm32l4xx_hal_flash_ex.c ****   /* Process Locked */
 133:../system/src/stm32l4-hal-driver/stm32l4xx_hal_flash_ex.c ****   __HAL_LOCK(&pFlash);
 134:../system/src/stm32l4-hal-driver/stm32l4xx_hal_flash_ex.c **** 
 135:../system/src/stm32l4-hal-driver/stm32l4xx_hal_flash_ex.c ****   /* Check the parameters */
 136:../system/src/stm32l4-hal-driver/stm32l4xx_hal_flash_ex.c ****   assert_param(IS_FLASH_TYPEERASE(pEraseInit->TypeErase));
 137:../system/src/stm32l4-hal-driver/stm32l4xx_hal_flash_ex.c **** 
 138:../system/src/stm32l4-hal-driver/stm32l4xx_hal_flash_ex.c ****   /* Wait for last operation to be completed */
 139:../system/src/stm32l4-hal-driver/stm32l4xx_hal_flash_ex.c ****   status = FLASH_WaitForLastOperation((uint32_t)FLASH_TIMEOUT_VALUE);
 140:../system/src/stm32l4-hal-driver/stm32l4xx_hal_flash_ex.c **** 
 141:../system/src/stm32l4-hal-driver/stm32l4xx_hal_flash_ex.c ****   if (status == HAL_OK)
 142:../system/src/stm32l4-hal-driver/stm32l4xx_hal_flash_ex.c ****   {
 143:../system/src/stm32l4-hal-driver/stm32l4xx_hal_flash_ex.c ****     pFlash.ErrorCode = HAL_FLASH_ERROR_NONE;
 144:../system/src/stm32l4-hal-driver/stm32l4xx_hal_flash_ex.c **** 
 145:../system/src/stm32l4-hal-driver/stm32l4xx_hal_flash_ex.c ****     /* Deactivate the cache if they are activated to avoid data misbehavior */
 146:../system/src/stm32l4-hal-driver/stm32l4xx_hal_flash_ex.c ****     if(READ_BIT(FLASH->ACR, FLASH_ACR_ICEN) != 0U)
 147:../system/src/stm32l4-hal-driver/stm32l4xx_hal_flash_ex.c ****     {
 148:../system/src/stm32l4-hal-driver/stm32l4xx_hal_flash_ex.c ****       /* Disable instruction cache  */
 149:../system/src/stm32l4-hal-driver/stm32l4xx_hal_flash_ex.c ****       __HAL_FLASH_INSTRUCTION_CACHE_DISABLE();
 150:../system/src/stm32l4-hal-driver/stm32l4xx_hal_flash_ex.c **** 
 151:../system/src/stm32l4-hal-driver/stm32l4xx_hal_flash_ex.c ****       if(READ_BIT(FLASH->ACR, FLASH_ACR_DCEN) != 0U)
 152:../system/src/stm32l4-hal-driver/stm32l4xx_hal_flash_ex.c ****       {
 153:../system/src/stm32l4-hal-driver/stm32l4xx_hal_flash_ex.c ****         /* Disable data cache  */
 154:../system/src/stm32l4-hal-driver/stm32l4xx_hal_flash_ex.c ****         __HAL_FLASH_DATA_CACHE_DISABLE();
 155:../system/src/stm32l4-hal-driver/stm32l4xx_hal_flash_ex.c ****         pFlash.CacheToReactivate = FLASH_CACHE_ICACHE_DCACHE_ENABLED;
 156:../system/src/stm32l4-hal-driver/stm32l4xx_hal_flash_ex.c ****       }
 157:../system/src/stm32l4-hal-driver/stm32l4xx_hal_flash_ex.c ****       else
 158:../system/src/stm32l4-hal-driver/stm32l4xx_hal_flash_ex.c ****       {
 159:../system/src/stm32l4-hal-driver/stm32l4xx_hal_flash_ex.c ****         pFlash.CacheToReactivate = FLASH_CACHE_ICACHE_ENABLED;
 160:../system/src/stm32l4-hal-driver/stm32l4xx_hal_flash_ex.c ****       }
 161:../system/src/stm32l4-hal-driver/stm32l4xx_hal_flash_ex.c ****     }
 162:../system/src/stm32l4-hal-driver/stm32l4xx_hal_flash_ex.c ****     else if(READ_BIT(FLASH->ACR, FLASH_ACR_DCEN) != 0U)
 163:../system/src/stm32l4-hal-driver/stm32l4xx_hal_flash_ex.c ****     {
 164:../system/src/stm32l4-hal-driver/stm32l4xx_hal_flash_ex.c ****       /* Disable data cache  */
 165:../system/src/stm32l4-hal-driver/stm32l4xx_hal_flash_ex.c ****       __HAL_FLASH_DATA_CACHE_DISABLE();
 166:../system/src/stm32l4-hal-driver/stm32l4xx_hal_flash_ex.c ****       pFlash.CacheToReactivate = FLASH_CACHE_DCACHE_ENABLED;
 167:../system/src/stm32l4-hal-driver/stm32l4xx_hal_flash_ex.c ****     }
 168:../system/src/stm32l4-hal-driver/stm32l4xx_hal_flash_ex.c ****     else
 169:../system/src/stm32l4-hal-driver/stm32l4xx_hal_flash_ex.c ****     {
 170:../system/src/stm32l4-hal-driver/stm32l4xx_hal_flash_ex.c ****       pFlash.CacheToReactivate = FLASH_CACHE_DISABLED;
 171:../system/src/stm32l4-hal-driver/stm32l4xx_hal_flash_ex.c ****     }
 172:../system/src/stm32l4-hal-driver/stm32l4xx_hal_flash_ex.c **** 
 173:../system/src/stm32l4-hal-driver/stm32l4xx_hal_flash_ex.c ****     if (pEraseInit->TypeErase == FLASH_TYPEERASE_MASSERASE)
 174:../system/src/stm32l4-hal-driver/stm32l4xx_hal_flash_ex.c ****     {
 175:../system/src/stm32l4-hal-driver/stm32l4xx_hal_flash_ex.c ****       /* Mass erase to be done */
 176:../system/src/stm32l4-hal-driver/stm32l4xx_hal_flash_ex.c ****       FLASH_MassErase(pEraseInit->Banks);
 177:../system/src/stm32l4-hal-driver/stm32l4xx_hal_flash_ex.c **** 
 178:../system/src/stm32l4-hal-driver/stm32l4xx_hal_flash_ex.c ****       /* Wait for last operation to be completed */
 179:../system/src/stm32l4-hal-driver/stm32l4xx_hal_flash_ex.c ****       status = FLASH_WaitForLastOperation((uint32_t)FLASH_TIMEOUT_VALUE);
 180:../system/src/stm32l4-hal-driver/stm32l4xx_hal_flash_ex.c **** 
 181:../system/src/stm32l4-hal-driver/stm32l4xx_hal_flash_ex.c **** #if defined (STM32L471xx) || defined (STM32L475xx) || defined (STM32L476xx) || defined (STM32L485xx
 182:../system/src/stm32l4-hal-driver/stm32l4xx_hal_flash_ex.c ****     defined (STM32L496xx) || defined (STM32L4A6xx) || \
 183:../system/src/stm32l4-hal-driver/stm32l4xx_hal_flash_ex.c ****     defined (STM32L4P5xx) || defined (STM32L4Q5xx) || \
 184:../system/src/stm32l4-hal-driver/stm32l4xx_hal_flash_ex.c ****     defined (STM32L4R5xx) || defined (STM32L4R7xx) || defined (STM32L4R9xx) || defined (STM32L4S5xx
 185:../system/src/stm32l4-hal-driver/stm32l4xx_hal_flash_ex.c ****       /* If the erase operation is completed, disable the MER1 and MER2 Bits */
 186:../system/src/stm32l4-hal-driver/stm32l4xx_hal_flash_ex.c ****       CLEAR_BIT(FLASH->CR, (FLASH_CR_MER1 | FLASH_CR_MER2));
 187:../system/src/stm32l4-hal-driver/stm32l4xx_hal_flash_ex.c **** #else
 188:../system/src/stm32l4-hal-driver/stm32l4xx_hal_flash_ex.c ****       /* If the erase operation is completed, disable the MER1 Bit */
 189:../system/src/stm32l4-hal-driver/stm32l4xx_hal_flash_ex.c ****       CLEAR_BIT(FLASH->CR, (FLASH_CR_MER1));
 190:../system/src/stm32l4-hal-driver/stm32l4xx_hal_flash_ex.c **** #endif
 191:../system/src/stm32l4-hal-driver/stm32l4xx_hal_flash_ex.c ****     }
 192:../system/src/stm32l4-hal-driver/stm32l4xx_hal_flash_ex.c ****     else
 193:../system/src/stm32l4-hal-driver/stm32l4xx_hal_flash_ex.c ****     {
 194:../system/src/stm32l4-hal-driver/stm32l4xx_hal_flash_ex.c ****       /*Initialization of PageError variable*/
 195:../system/src/stm32l4-hal-driver/stm32l4xx_hal_flash_ex.c ****       *PageError = 0xFFFFFFFFU;
 196:../system/src/stm32l4-hal-driver/stm32l4xx_hal_flash_ex.c **** 
 197:../system/src/stm32l4-hal-driver/stm32l4xx_hal_flash_ex.c ****       for(page_index = pEraseInit->Page; page_index < (pEraseInit->Page + pEraseInit->NbPages); pag
 198:../system/src/stm32l4-hal-driver/stm32l4xx_hal_flash_ex.c ****       {
 199:../system/src/stm32l4-hal-driver/stm32l4xx_hal_flash_ex.c ****         FLASH_PageErase(page_index, pEraseInit->Banks);
 200:../system/src/stm32l4-hal-driver/stm32l4xx_hal_flash_ex.c **** 
 201:../system/src/stm32l4-hal-driver/stm32l4xx_hal_flash_ex.c ****         /* Wait for last operation to be completed */
 202:../system/src/stm32l4-hal-driver/stm32l4xx_hal_flash_ex.c ****         status = FLASH_WaitForLastOperation((uint32_t)FLASH_TIMEOUT_VALUE);
 203:../system/src/stm32l4-hal-driver/stm32l4xx_hal_flash_ex.c **** 
 204:../system/src/stm32l4-hal-driver/stm32l4xx_hal_flash_ex.c ****         /* If the erase operation is completed, disable the PER Bit */
 205:../system/src/stm32l4-hal-driver/stm32l4xx_hal_flash_ex.c ****         CLEAR_BIT(FLASH->CR, (FLASH_CR_PER | FLASH_CR_PNB));
 206:../system/src/stm32l4-hal-driver/stm32l4xx_hal_flash_ex.c **** 
 207:../system/src/stm32l4-hal-driver/stm32l4xx_hal_flash_ex.c ****         if (status != HAL_OK)
 208:../system/src/stm32l4-hal-driver/stm32l4xx_hal_flash_ex.c ****         {
 209:../system/src/stm32l4-hal-driver/stm32l4xx_hal_flash_ex.c ****           /* In case of error, stop erase procedure and return the faulty address */
 210:../system/src/stm32l4-hal-driver/stm32l4xx_hal_flash_ex.c ****           *PageError = page_index;
 211:../system/src/stm32l4-hal-driver/stm32l4xx_hal_flash_ex.c ****           break;
 212:../system/src/stm32l4-hal-driver/stm32l4xx_hal_flash_ex.c ****         }
 213:../system/src/stm32l4-hal-driver/stm32l4xx_hal_flash_ex.c ****       }
 214:../system/src/stm32l4-hal-driver/stm32l4xx_hal_flash_ex.c ****     }
 215:../system/src/stm32l4-hal-driver/stm32l4xx_hal_flash_ex.c **** 
 216:../system/src/stm32l4-hal-driver/stm32l4xx_hal_flash_ex.c ****     /* Flush the caches to be sure of the data consistency */
 217:../system/src/stm32l4-hal-driver/stm32l4xx_hal_flash_ex.c ****     FLASH_FlushCaches();
 218:../system/src/stm32l4-hal-driver/stm32l4xx_hal_flash_ex.c ****   }
 219:../system/src/stm32l4-hal-driver/stm32l4xx_hal_flash_ex.c **** 
 220:../system/src/stm32l4-hal-driver/stm32l4xx_hal_flash_ex.c ****   /* Process Unlocked */
 221:../system/src/stm32l4-hal-driver/stm32l4xx_hal_flash_ex.c ****   __HAL_UNLOCK(&pFlash);
 222:../system/src/stm32l4-hal-driver/stm32l4xx_hal_flash_ex.c **** 
 223:../system/src/stm32l4-hal-driver/stm32l4xx_hal_flash_ex.c ****   return status;
 224:../system/src/stm32l4-hal-driver/stm32l4xx_hal_flash_ex.c **** }
 225:../system/src/stm32l4-hal-driver/stm32l4xx_hal_flash_ex.c **** 
 226:../system/src/stm32l4-hal-driver/stm32l4xx_hal_flash_ex.c **** /**
 227:../system/src/stm32l4-hal-driver/stm32l4xx_hal_flash_ex.c ****   * @brief  Perform a mass erase or erase the specified FLASH memory pages with interrupt enabled.
 228:../system/src/stm32l4-hal-driver/stm32l4xx_hal_flash_ex.c ****   * @param  pEraseInit pointer to an FLASH_EraseInitTypeDef structure that
 229:../system/src/stm32l4-hal-driver/stm32l4xx_hal_flash_ex.c ****   *         contains the configuration information for the erasing.
 230:../system/src/stm32l4-hal-driver/stm32l4xx_hal_flash_ex.c ****   *
 231:../system/src/stm32l4-hal-driver/stm32l4xx_hal_flash_ex.c ****   * @retval HAL Status
 232:../system/src/stm32l4-hal-driver/stm32l4xx_hal_flash_ex.c ****   */
 233:../system/src/stm32l4-hal-driver/stm32l4xx_hal_flash_ex.c **** HAL_StatusTypeDef HAL_FLASHEx_Erase_IT(FLASH_EraseInitTypeDef *pEraseInit)
 234:../system/src/stm32l4-hal-driver/stm32l4xx_hal_flash_ex.c **** {
 235:../system/src/stm32l4-hal-driver/stm32l4xx_hal_flash_ex.c ****   HAL_StatusTypeDef status = HAL_OK;
 236:../system/src/stm32l4-hal-driver/stm32l4xx_hal_flash_ex.c **** 
 237:../system/src/stm32l4-hal-driver/stm32l4xx_hal_flash_ex.c ****   /* Process Locked */
 238:../system/src/stm32l4-hal-driver/stm32l4xx_hal_flash_ex.c ****   __HAL_LOCK(&pFlash);
 239:../system/src/stm32l4-hal-driver/stm32l4xx_hal_flash_ex.c **** 
 240:../system/src/stm32l4-hal-driver/stm32l4xx_hal_flash_ex.c ****   /* Check the parameters */
 241:../system/src/stm32l4-hal-driver/stm32l4xx_hal_flash_ex.c ****   assert_param(IS_FLASH_TYPEERASE(pEraseInit->TypeErase));
 242:../system/src/stm32l4-hal-driver/stm32l4xx_hal_flash_ex.c **** 
 243:../system/src/stm32l4-hal-driver/stm32l4xx_hal_flash_ex.c ****   pFlash.ErrorCode = HAL_FLASH_ERROR_NONE;
 244:../system/src/stm32l4-hal-driver/stm32l4xx_hal_flash_ex.c **** 
 245:../system/src/stm32l4-hal-driver/stm32l4xx_hal_flash_ex.c ****   /* Deactivate the cache if they are activated to avoid data misbehavior */
 246:../system/src/stm32l4-hal-driver/stm32l4xx_hal_flash_ex.c ****   if(READ_BIT(FLASH->ACR, FLASH_ACR_ICEN) != 0U)
 247:../system/src/stm32l4-hal-driver/stm32l4xx_hal_flash_ex.c ****   {
 248:../system/src/stm32l4-hal-driver/stm32l4xx_hal_flash_ex.c ****     /* Disable instruction cache  */
 249:../system/src/stm32l4-hal-driver/stm32l4xx_hal_flash_ex.c ****     __HAL_FLASH_INSTRUCTION_CACHE_DISABLE();
 250:../system/src/stm32l4-hal-driver/stm32l4xx_hal_flash_ex.c **** 
 251:../system/src/stm32l4-hal-driver/stm32l4xx_hal_flash_ex.c ****     if(READ_BIT(FLASH->ACR, FLASH_ACR_DCEN) != 0U)
 252:../system/src/stm32l4-hal-driver/stm32l4xx_hal_flash_ex.c ****     {
 253:../system/src/stm32l4-hal-driver/stm32l4xx_hal_flash_ex.c ****       /* Disable data cache  */
 254:../system/src/stm32l4-hal-driver/stm32l4xx_hal_flash_ex.c ****       __HAL_FLASH_DATA_CACHE_DISABLE();
 255:../system/src/stm32l4-hal-driver/stm32l4xx_hal_flash_ex.c ****       pFlash.CacheToReactivate = FLASH_CACHE_ICACHE_DCACHE_ENABLED;
 256:../system/src/stm32l4-hal-driver/stm32l4xx_hal_flash_ex.c ****     }
 257:../system/src/stm32l4-hal-driver/stm32l4xx_hal_flash_ex.c ****     else
 258:../system/src/stm32l4-hal-driver/stm32l4xx_hal_flash_ex.c ****     {
 259:../system/src/stm32l4-hal-driver/stm32l4xx_hal_flash_ex.c ****       pFlash.CacheToReactivate = FLASH_CACHE_ICACHE_ENABLED;
 260:../system/src/stm32l4-hal-driver/stm32l4xx_hal_flash_ex.c ****     }
 261:../system/src/stm32l4-hal-driver/stm32l4xx_hal_flash_ex.c ****   }
 262:../system/src/stm32l4-hal-driver/stm32l4xx_hal_flash_ex.c ****   else if(READ_BIT(FLASH->ACR, FLASH_ACR_DCEN) != 0U)
 263:../system/src/stm32l4-hal-driver/stm32l4xx_hal_flash_ex.c ****   {
 264:../system/src/stm32l4-hal-driver/stm32l4xx_hal_flash_ex.c ****     /* Disable data cache  */
 265:../system/src/stm32l4-hal-driver/stm32l4xx_hal_flash_ex.c ****     __HAL_FLASH_DATA_CACHE_DISABLE();
 266:../system/src/stm32l4-hal-driver/stm32l4xx_hal_flash_ex.c ****     pFlash.CacheToReactivate = FLASH_CACHE_DCACHE_ENABLED;
 267:../system/src/stm32l4-hal-driver/stm32l4xx_hal_flash_ex.c ****   }
 268:../system/src/stm32l4-hal-driver/stm32l4xx_hal_flash_ex.c ****   else
 269:../system/src/stm32l4-hal-driver/stm32l4xx_hal_flash_ex.c ****   {
 270:../system/src/stm32l4-hal-driver/stm32l4xx_hal_flash_ex.c ****     pFlash.CacheToReactivate = FLASH_CACHE_DISABLED;
 271:../system/src/stm32l4-hal-driver/stm32l4xx_hal_flash_ex.c ****   }
 272:../system/src/stm32l4-hal-driver/stm32l4xx_hal_flash_ex.c **** 
 273:../system/src/stm32l4-hal-driver/stm32l4xx_hal_flash_ex.c ****   /* Enable End of Operation and Error interrupts */
 274:../system/src/stm32l4-hal-driver/stm32l4xx_hal_flash_ex.c ****   __HAL_FLASH_ENABLE_IT(FLASH_IT_EOP | FLASH_IT_OPERR);
 275:../system/src/stm32l4-hal-driver/stm32l4xx_hal_flash_ex.c **** 
 276:../system/src/stm32l4-hal-driver/stm32l4xx_hal_flash_ex.c ****   pFlash.Bank = pEraseInit->Banks;
 277:../system/src/stm32l4-hal-driver/stm32l4xx_hal_flash_ex.c **** 
 278:../system/src/stm32l4-hal-driver/stm32l4xx_hal_flash_ex.c ****   if (pEraseInit->TypeErase == FLASH_TYPEERASE_MASSERASE)
 279:../system/src/stm32l4-hal-driver/stm32l4xx_hal_flash_ex.c ****   {
 280:../system/src/stm32l4-hal-driver/stm32l4xx_hal_flash_ex.c ****     /* Mass erase to be done */
 281:../system/src/stm32l4-hal-driver/stm32l4xx_hal_flash_ex.c ****     pFlash.ProcedureOnGoing = FLASH_PROC_MASS_ERASE;
 282:../system/src/stm32l4-hal-driver/stm32l4xx_hal_flash_ex.c ****     FLASH_MassErase(pEraseInit->Banks);
 283:../system/src/stm32l4-hal-driver/stm32l4xx_hal_flash_ex.c ****   }
 284:../system/src/stm32l4-hal-driver/stm32l4xx_hal_flash_ex.c ****   else
 285:../system/src/stm32l4-hal-driver/stm32l4xx_hal_flash_ex.c ****   {
 286:../system/src/stm32l4-hal-driver/stm32l4xx_hal_flash_ex.c ****     /* Erase by page to be done */
 287:../system/src/stm32l4-hal-driver/stm32l4xx_hal_flash_ex.c ****     pFlash.ProcedureOnGoing = FLASH_PROC_PAGE_ERASE;
 288:../system/src/stm32l4-hal-driver/stm32l4xx_hal_flash_ex.c ****     pFlash.NbPagesToErase = pEraseInit->NbPages;
 289:../system/src/stm32l4-hal-driver/stm32l4xx_hal_flash_ex.c ****     pFlash.Page = pEraseInit->Page;
 290:../system/src/stm32l4-hal-driver/stm32l4xx_hal_flash_ex.c **** 
 291:../system/src/stm32l4-hal-driver/stm32l4xx_hal_flash_ex.c ****     /*Erase 1st page and wait for IT */
 292:../system/src/stm32l4-hal-driver/stm32l4xx_hal_flash_ex.c ****     FLASH_PageErase(pEraseInit->Page, pEraseInit->Banks);
 293:../system/src/stm32l4-hal-driver/stm32l4xx_hal_flash_ex.c ****   }
 294:../system/src/stm32l4-hal-driver/stm32l4xx_hal_flash_ex.c **** 
 295:../system/src/stm32l4-hal-driver/stm32l4xx_hal_flash_ex.c ****   return status;
 296:../system/src/stm32l4-hal-driver/stm32l4xx_hal_flash_ex.c **** }
 297:../system/src/stm32l4-hal-driver/stm32l4xx_hal_flash_ex.c **** 
 298:../system/src/stm32l4-hal-driver/stm32l4xx_hal_flash_ex.c **** /**
 299:../system/src/stm32l4-hal-driver/stm32l4xx_hal_flash_ex.c ****   * @brief  Program Option bytes.
 300:../system/src/stm32l4-hal-driver/stm32l4xx_hal_flash_ex.c ****   * @param  pOBInit pointer to an FLASH_OBInitStruct structure that
 301:../system/src/stm32l4-hal-driver/stm32l4xx_hal_flash_ex.c ****   *         contains the configuration information for the programming.
 302:../system/src/stm32l4-hal-driver/stm32l4xx_hal_flash_ex.c ****   *
 303:../system/src/stm32l4-hal-driver/stm32l4xx_hal_flash_ex.c ****   * @retval HAL Status
 304:../system/src/stm32l4-hal-driver/stm32l4xx_hal_flash_ex.c ****   */
 305:../system/src/stm32l4-hal-driver/stm32l4xx_hal_flash_ex.c **** HAL_StatusTypeDef HAL_FLASHEx_OBProgram(FLASH_OBProgramInitTypeDef *pOBInit)
 306:../system/src/stm32l4-hal-driver/stm32l4xx_hal_flash_ex.c **** {
 307:../system/src/stm32l4-hal-driver/stm32l4xx_hal_flash_ex.c ****   HAL_StatusTypeDef status = HAL_OK;
 308:../system/src/stm32l4-hal-driver/stm32l4xx_hal_flash_ex.c **** 
 309:../system/src/stm32l4-hal-driver/stm32l4xx_hal_flash_ex.c ****   /* Process Locked */
 310:../system/src/stm32l4-hal-driver/stm32l4xx_hal_flash_ex.c ****   __HAL_LOCK(&pFlash);
 311:../system/src/stm32l4-hal-driver/stm32l4xx_hal_flash_ex.c **** 
 312:../system/src/stm32l4-hal-driver/stm32l4xx_hal_flash_ex.c ****   /* Check the parameters */
 313:../system/src/stm32l4-hal-driver/stm32l4xx_hal_flash_ex.c ****   assert_param(IS_OPTIONBYTE(pOBInit->OptionType));
 314:../system/src/stm32l4-hal-driver/stm32l4xx_hal_flash_ex.c **** 
 315:../system/src/stm32l4-hal-driver/stm32l4xx_hal_flash_ex.c ****   pFlash.ErrorCode = HAL_FLASH_ERROR_NONE;
 316:../system/src/stm32l4-hal-driver/stm32l4xx_hal_flash_ex.c **** 
 317:../system/src/stm32l4-hal-driver/stm32l4xx_hal_flash_ex.c ****   /* Write protection configuration */
 318:../system/src/stm32l4-hal-driver/stm32l4xx_hal_flash_ex.c ****   if((pOBInit->OptionType & OPTIONBYTE_WRP) != 0U)
 319:../system/src/stm32l4-hal-driver/stm32l4xx_hal_flash_ex.c ****   {
 320:../system/src/stm32l4-hal-driver/stm32l4xx_hal_flash_ex.c ****     /* Configure of Write protection on the selected area */
 321:../system/src/stm32l4-hal-driver/stm32l4xx_hal_flash_ex.c ****     if(FLASH_OB_WRPConfig(pOBInit->WRPArea, pOBInit->WRPStartOffset, pOBInit->WRPEndOffset) != HAL_
 322:../system/src/stm32l4-hal-driver/stm32l4xx_hal_flash_ex.c ****     {
 323:../system/src/stm32l4-hal-driver/stm32l4xx_hal_flash_ex.c ****       status = HAL_ERROR;
 324:../system/src/stm32l4-hal-driver/stm32l4xx_hal_flash_ex.c ****     }
 325:../system/src/stm32l4-hal-driver/stm32l4xx_hal_flash_ex.c **** 
 326:../system/src/stm32l4-hal-driver/stm32l4xx_hal_flash_ex.c ****   }
 327:../system/src/stm32l4-hal-driver/stm32l4xx_hal_flash_ex.c **** 
 328:../system/src/stm32l4-hal-driver/stm32l4xx_hal_flash_ex.c ****   /* Read protection configuration */
 329:../system/src/stm32l4-hal-driver/stm32l4xx_hal_flash_ex.c ****   if((pOBInit->OptionType & OPTIONBYTE_RDP) != 0U)
 330:../system/src/stm32l4-hal-driver/stm32l4xx_hal_flash_ex.c ****   {
 331:../system/src/stm32l4-hal-driver/stm32l4xx_hal_flash_ex.c ****     /* Configure the Read protection level */
 332:../system/src/stm32l4-hal-driver/stm32l4xx_hal_flash_ex.c ****     if(FLASH_OB_RDPConfig(pOBInit->RDPLevel) != HAL_OK)
 333:../system/src/stm32l4-hal-driver/stm32l4xx_hal_flash_ex.c ****     {
 334:../system/src/stm32l4-hal-driver/stm32l4xx_hal_flash_ex.c ****       status = HAL_ERROR;
 335:../system/src/stm32l4-hal-driver/stm32l4xx_hal_flash_ex.c ****     }
 336:../system/src/stm32l4-hal-driver/stm32l4xx_hal_flash_ex.c ****   }
 337:../system/src/stm32l4-hal-driver/stm32l4xx_hal_flash_ex.c **** 
 338:../system/src/stm32l4-hal-driver/stm32l4xx_hal_flash_ex.c ****   /* User Configuration */
 339:../system/src/stm32l4-hal-driver/stm32l4xx_hal_flash_ex.c ****   if((pOBInit->OptionType & OPTIONBYTE_USER) != 0U)
 340:../system/src/stm32l4-hal-driver/stm32l4xx_hal_flash_ex.c ****   {
 341:../system/src/stm32l4-hal-driver/stm32l4xx_hal_flash_ex.c ****     /* Configure the user option bytes */
 342:../system/src/stm32l4-hal-driver/stm32l4xx_hal_flash_ex.c ****     if(FLASH_OB_UserConfig(pOBInit->USERType, pOBInit->USERConfig) != HAL_OK)
 343:../system/src/stm32l4-hal-driver/stm32l4xx_hal_flash_ex.c ****     {
 344:../system/src/stm32l4-hal-driver/stm32l4xx_hal_flash_ex.c ****       status = HAL_ERROR;
 345:../system/src/stm32l4-hal-driver/stm32l4xx_hal_flash_ex.c ****     }
 346:../system/src/stm32l4-hal-driver/stm32l4xx_hal_flash_ex.c ****   }
 347:../system/src/stm32l4-hal-driver/stm32l4xx_hal_flash_ex.c **** 
 348:../system/src/stm32l4-hal-driver/stm32l4xx_hal_flash_ex.c ****   /* PCROP Configuration */
 349:../system/src/stm32l4-hal-driver/stm32l4xx_hal_flash_ex.c ****   if((pOBInit->OptionType & OPTIONBYTE_PCROP) != 0U)
 350:../system/src/stm32l4-hal-driver/stm32l4xx_hal_flash_ex.c ****   {
 351:../system/src/stm32l4-hal-driver/stm32l4xx_hal_flash_ex.c ****     if (pOBInit->PCROPStartAddr != pOBInit->PCROPEndAddr)
 352:../system/src/stm32l4-hal-driver/stm32l4xx_hal_flash_ex.c ****     {
 353:../system/src/stm32l4-hal-driver/stm32l4xx_hal_flash_ex.c ****       /* Configure the Proprietary code readout protection */
 354:../system/src/stm32l4-hal-driver/stm32l4xx_hal_flash_ex.c ****       if(FLASH_OB_PCROPConfig(pOBInit->PCROPConfig, pOBInit->PCROPStartAddr, pOBInit->PCROPEndAddr)
 355:../system/src/stm32l4-hal-driver/stm32l4xx_hal_flash_ex.c ****       {
 356:../system/src/stm32l4-hal-driver/stm32l4xx_hal_flash_ex.c ****         status = HAL_ERROR;
 357:../system/src/stm32l4-hal-driver/stm32l4xx_hal_flash_ex.c ****       }
 358:../system/src/stm32l4-hal-driver/stm32l4xx_hal_flash_ex.c ****     }
 359:../system/src/stm32l4-hal-driver/stm32l4xx_hal_flash_ex.c ****   }
 360:../system/src/stm32l4-hal-driver/stm32l4xx_hal_flash_ex.c **** 
 361:../system/src/stm32l4-hal-driver/stm32l4xx_hal_flash_ex.c ****   /* Process Unlocked */
 362:../system/src/stm32l4-hal-driver/stm32l4xx_hal_flash_ex.c ****   __HAL_UNLOCK(&pFlash);
 363:../system/src/stm32l4-hal-driver/stm32l4xx_hal_flash_ex.c **** 
 364:../system/src/stm32l4-hal-driver/stm32l4xx_hal_flash_ex.c ****   return status;
 365:../system/src/stm32l4-hal-driver/stm32l4xx_hal_flash_ex.c **** }
 366:../system/src/stm32l4-hal-driver/stm32l4xx_hal_flash_ex.c **** 
 367:../system/src/stm32l4-hal-driver/stm32l4xx_hal_flash_ex.c **** /**
 368:../system/src/stm32l4-hal-driver/stm32l4xx_hal_flash_ex.c ****   * @brief  Get the Option bytes configuration.
 369:../system/src/stm32l4-hal-driver/stm32l4xx_hal_flash_ex.c ****   * @param  pOBInit pointer to an FLASH_OBInitStruct structure that contains the
 370:../system/src/stm32l4-hal-driver/stm32l4xx_hal_flash_ex.c ****   *                  configuration information.
 371:../system/src/stm32l4-hal-driver/stm32l4xx_hal_flash_ex.c ****   * @note   The fields pOBInit->WRPArea and pOBInit->PCROPConfig should indicate
 372:../system/src/stm32l4-hal-driver/stm32l4xx_hal_flash_ex.c ****   *         which area is requested for the WRP and PCROP, else no information will be returned
 373:../system/src/stm32l4-hal-driver/stm32l4xx_hal_flash_ex.c ****   *
 374:../system/src/stm32l4-hal-driver/stm32l4xx_hal_flash_ex.c ****   * @retval None
 375:../system/src/stm32l4-hal-driver/stm32l4xx_hal_flash_ex.c ****   */
 376:../system/src/stm32l4-hal-driver/stm32l4xx_hal_flash_ex.c **** void HAL_FLASHEx_OBGetConfig(FLASH_OBProgramInitTypeDef *pOBInit)
 377:../system/src/stm32l4-hal-driver/stm32l4xx_hal_flash_ex.c **** {
 378:../system/src/stm32l4-hal-driver/stm32l4xx_hal_flash_ex.c ****   pOBInit->OptionType = (OPTIONBYTE_RDP | OPTIONBYTE_USER);
 379:../system/src/stm32l4-hal-driver/stm32l4xx_hal_flash_ex.c **** 
 380:../system/src/stm32l4-hal-driver/stm32l4xx_hal_flash_ex.c **** #if defined (STM32L471xx) || defined (STM32L475xx) || defined (STM32L476xx) || defined (STM32L485xx
 381:../system/src/stm32l4-hal-driver/stm32l4xx_hal_flash_ex.c ****     defined (STM32L496xx) || defined (STM32L4A6xx) || \
 382:../system/src/stm32l4-hal-driver/stm32l4xx_hal_flash_ex.c ****     defined (STM32L4P5xx) || defined (STM32L4Q5xx) || \
 383:../system/src/stm32l4-hal-driver/stm32l4xx_hal_flash_ex.c ****     defined (STM32L4R5xx) || defined (STM32L4R7xx) || defined (STM32L4R9xx) || defined (STM32L4S5xx
 384:../system/src/stm32l4-hal-driver/stm32l4xx_hal_flash_ex.c ****   if((pOBInit->WRPArea == OB_WRPAREA_BANK1_AREAA) || (pOBInit->WRPArea == OB_WRPAREA_BANK1_AREAB) |
 385:../system/src/stm32l4-hal-driver/stm32l4xx_hal_flash_ex.c ****      (pOBInit->WRPArea == OB_WRPAREA_BANK2_AREAA) || (pOBInit->WRPArea == OB_WRPAREA_BANK2_AREAB))
 386:../system/src/stm32l4-hal-driver/stm32l4xx_hal_flash_ex.c **** #else
 387:../system/src/stm32l4-hal-driver/stm32l4xx_hal_flash_ex.c ****   if((pOBInit->WRPArea == OB_WRPAREA_BANK1_AREAA) || (pOBInit->WRPArea == OB_WRPAREA_BANK1_AREAB))
 388:../system/src/stm32l4-hal-driver/stm32l4xx_hal_flash_ex.c **** #endif
 389:../system/src/stm32l4-hal-driver/stm32l4xx_hal_flash_ex.c ****   {
 390:../system/src/stm32l4-hal-driver/stm32l4xx_hal_flash_ex.c ****     pOBInit->OptionType |= OPTIONBYTE_WRP;
 391:../system/src/stm32l4-hal-driver/stm32l4xx_hal_flash_ex.c ****     /* Get write protection on the selected area */
 392:../system/src/stm32l4-hal-driver/stm32l4xx_hal_flash_ex.c ****     FLASH_OB_GetWRP(pOBInit->WRPArea, &(pOBInit->WRPStartOffset), &(pOBInit->WRPEndOffset));
 393:../system/src/stm32l4-hal-driver/stm32l4xx_hal_flash_ex.c ****   }
 394:../system/src/stm32l4-hal-driver/stm32l4xx_hal_flash_ex.c **** 
 395:../system/src/stm32l4-hal-driver/stm32l4xx_hal_flash_ex.c ****   /* Get Read protection level */
 396:../system/src/stm32l4-hal-driver/stm32l4xx_hal_flash_ex.c ****   pOBInit->RDPLevel = FLASH_OB_GetRDP();
 397:../system/src/stm32l4-hal-driver/stm32l4xx_hal_flash_ex.c **** 
 398:../system/src/stm32l4-hal-driver/stm32l4xx_hal_flash_ex.c ****   /* Get the user option bytes */
 399:../system/src/stm32l4-hal-driver/stm32l4xx_hal_flash_ex.c ****   pOBInit->USERConfig = FLASH_OB_GetUser();
 400:../system/src/stm32l4-hal-driver/stm32l4xx_hal_flash_ex.c **** 
 401:../system/src/stm32l4-hal-driver/stm32l4xx_hal_flash_ex.c **** #if defined (STM32L471xx) || defined (STM32L475xx) || defined (STM32L476xx) || defined (STM32L485xx
 402:../system/src/stm32l4-hal-driver/stm32l4xx_hal_flash_ex.c ****     defined (STM32L496xx) || defined (STM32L4A6xx) || \
 403:../system/src/stm32l4-hal-driver/stm32l4xx_hal_flash_ex.c ****     defined (STM32L4P5xx) || defined (STM32L4Q5xx) || \
 404:../system/src/stm32l4-hal-driver/stm32l4xx_hal_flash_ex.c ****     defined (STM32L4R5xx) || defined (STM32L4R7xx) || defined (STM32L4R9xx) || defined (STM32L4S5xx
 405:../system/src/stm32l4-hal-driver/stm32l4xx_hal_flash_ex.c ****   if((pOBInit->PCROPConfig == FLASH_BANK_1) || (pOBInit->PCROPConfig == FLASH_BANK_2))
 406:../system/src/stm32l4-hal-driver/stm32l4xx_hal_flash_ex.c **** #else
 407:../system/src/stm32l4-hal-driver/stm32l4xx_hal_flash_ex.c ****   if(pOBInit->PCROPConfig == FLASH_BANK_1)
 408:../system/src/stm32l4-hal-driver/stm32l4xx_hal_flash_ex.c **** #endif
 409:../system/src/stm32l4-hal-driver/stm32l4xx_hal_flash_ex.c ****   {
 410:../system/src/stm32l4-hal-driver/stm32l4xx_hal_flash_ex.c ****     pOBInit->OptionType |= OPTIONBYTE_PCROP;
 411:../system/src/stm32l4-hal-driver/stm32l4xx_hal_flash_ex.c ****     /* Get the Proprietary code readout protection */
 412:../system/src/stm32l4-hal-driver/stm32l4xx_hal_flash_ex.c ****     FLASH_OB_GetPCROP(&(pOBInit->PCROPConfig), &(pOBInit->PCROPStartAddr), &(pOBInit->PCROPEndAddr)
 413:../system/src/stm32l4-hal-driver/stm32l4xx_hal_flash_ex.c ****   }
 414:../system/src/stm32l4-hal-driver/stm32l4xx_hal_flash_ex.c **** }
 415:../system/src/stm32l4-hal-driver/stm32l4xx_hal_flash_ex.c **** 
 416:../system/src/stm32l4-hal-driver/stm32l4xx_hal_flash_ex.c **** /**
 417:../system/src/stm32l4-hal-driver/stm32l4xx_hal_flash_ex.c ****   * @}
 418:../system/src/stm32l4-hal-driver/stm32l4xx_hal_flash_ex.c ****   */
 419:../system/src/stm32l4-hal-driver/stm32l4xx_hal_flash_ex.c **** 
 420:../system/src/stm32l4-hal-driver/stm32l4xx_hal_flash_ex.c **** #if defined (FLASH_CFGR_LVEN)
 421:../system/src/stm32l4-hal-driver/stm32l4xx_hal_flash_ex.c **** /** @defgroup FLASHEx_Exported_Functions_Group2 Extended specific configuration functions
 422:../system/src/stm32l4-hal-driver/stm32l4xx_hal_flash_ex.c ****  *  @brief   Extended specific configuration functions
 423:../system/src/stm32l4-hal-driver/stm32l4xx_hal_flash_ex.c ****  *
 424:../system/src/stm32l4-hal-driver/stm32l4xx_hal_flash_ex.c **** @verbatim
 425:../system/src/stm32l4-hal-driver/stm32l4xx_hal_flash_ex.c ****  ===============================================================================
 426:../system/src/stm32l4-hal-driver/stm32l4xx_hal_flash_ex.c ****                 ##### Extended specific configuration functions #####
 427:../system/src/stm32l4-hal-driver/stm32l4xx_hal_flash_ex.c ****  ===============================================================================
 428:../system/src/stm32l4-hal-driver/stm32l4xx_hal_flash_ex.c ****     [..]
 429:../system/src/stm32l4-hal-driver/stm32l4xx_hal_flash_ex.c ****     This subsection provides a set of functions allowing to manage the Extended FLASH
 430:../system/src/stm32l4-hal-driver/stm32l4xx_hal_flash_ex.c ****     specific configurations.
 431:../system/src/stm32l4-hal-driver/stm32l4xx_hal_flash_ex.c **** 
 432:../system/src/stm32l4-hal-driver/stm32l4xx_hal_flash_ex.c **** @endverbatim
 433:../system/src/stm32l4-hal-driver/stm32l4xx_hal_flash_ex.c ****   * @{
 434:../system/src/stm32l4-hal-driver/stm32l4xx_hal_flash_ex.c ****   */
 435:../system/src/stm32l4-hal-driver/stm32l4xx_hal_flash_ex.c **** 
 436:../system/src/stm32l4-hal-driver/stm32l4xx_hal_flash_ex.c **** /**
 437:../system/src/stm32l4-hal-driver/stm32l4xx_hal_flash_ex.c ****   * @brief  Configuration of the LVE pin of the Flash (managed by power controller
 438:../system/src/stm32l4-hal-driver/stm32l4xx_hal_flash_ex.c ****   *         or forced to low in order to use an external SMPS)
 439:../system/src/stm32l4-hal-driver/stm32l4xx_hal_flash_ex.c ****   * @param  ConfigLVE Configuration of the LVE pin,
 440:../system/src/stm32l4-hal-driver/stm32l4xx_hal_flash_ex.c ****   *              This parameter can be one of the following values:
 441:../system/src/stm32l4-hal-driver/stm32l4xx_hal_flash_ex.c ****   *                @arg FLASH_LVE_PIN_CTRL: LVE FLASH pin controlled by power controller
 442:../system/src/stm32l4-hal-driver/stm32l4xx_hal_flash_ex.c ****   *                @arg FLASH_LVE_PIN_FORCED: LVE FLASH pin enforced to low (external SMPS used)
 443:../system/src/stm32l4-hal-driver/stm32l4xx_hal_flash_ex.c ****   *
 444:../system/src/stm32l4-hal-driver/stm32l4xx_hal_flash_ex.c ****   * @note   Before enforcing the LVE pin to low, the SOC should be in low voltage
 445:../system/src/stm32l4-hal-driver/stm32l4xx_hal_flash_ex.c ****   *         range 2 and the voltage VDD12 should be higher than 1.08V and SMPS is ON.
 446:../system/src/stm32l4-hal-driver/stm32l4xx_hal_flash_ex.c ****   *
 447:../system/src/stm32l4-hal-driver/stm32l4xx_hal_flash_ex.c ****   * @retval HAL Status
 448:../system/src/stm32l4-hal-driver/stm32l4xx_hal_flash_ex.c ****   */
 449:../system/src/stm32l4-hal-driver/stm32l4xx_hal_flash_ex.c **** HAL_StatusTypeDef HAL_FLASHEx_ConfigLVEPin(uint32_t ConfigLVE)
 450:../system/src/stm32l4-hal-driver/stm32l4xx_hal_flash_ex.c **** {
 451:../system/src/stm32l4-hal-driver/stm32l4xx_hal_flash_ex.c ****   HAL_StatusTypeDef status;
 452:../system/src/stm32l4-hal-driver/stm32l4xx_hal_flash_ex.c **** 
 453:../system/src/stm32l4-hal-driver/stm32l4xx_hal_flash_ex.c ****   /* Process Locked */
 454:../system/src/stm32l4-hal-driver/stm32l4xx_hal_flash_ex.c ****   __HAL_LOCK(&pFlash);
 455:../system/src/stm32l4-hal-driver/stm32l4xx_hal_flash_ex.c **** 
 456:../system/src/stm32l4-hal-driver/stm32l4xx_hal_flash_ex.c ****   /* Check the parameters */
 457:../system/src/stm32l4-hal-driver/stm32l4xx_hal_flash_ex.c ****   assert_param(IS_FLASH_LVE_PIN(ConfigLVE));
 458:../system/src/stm32l4-hal-driver/stm32l4xx_hal_flash_ex.c **** 
 459:../system/src/stm32l4-hal-driver/stm32l4xx_hal_flash_ex.c ****   /* Wait for last operation to be completed */
 460:../system/src/stm32l4-hal-driver/stm32l4xx_hal_flash_ex.c ****   status = FLASH_WaitForLastOperation((uint32_t)FLASH_TIMEOUT_VALUE);
 461:../system/src/stm32l4-hal-driver/stm32l4xx_hal_flash_ex.c **** 
 462:../system/src/stm32l4-hal-driver/stm32l4xx_hal_flash_ex.c ****   if (status == HAL_OK)
 463:../system/src/stm32l4-hal-driver/stm32l4xx_hal_flash_ex.c ****   {
 464:../system/src/stm32l4-hal-driver/stm32l4xx_hal_flash_ex.c ****     /* Check that the voltage scaling is range 2 */
 465:../system/src/stm32l4-hal-driver/stm32l4xx_hal_flash_ex.c ****     if (HAL_PWREx_GetVoltageRange() == PWR_REGULATOR_VOLTAGE_SCALE2)
 466:../system/src/stm32l4-hal-driver/stm32l4xx_hal_flash_ex.c ****     {
 467:../system/src/stm32l4-hal-driver/stm32l4xx_hal_flash_ex.c ****       /* Configure the LVEN bit */
 468:../system/src/stm32l4-hal-driver/stm32l4xx_hal_flash_ex.c ****       MODIFY_REG(FLASH->CFGR, FLASH_CFGR_LVEN, ConfigLVE);
 469:../system/src/stm32l4-hal-driver/stm32l4xx_hal_flash_ex.c **** 
 470:../system/src/stm32l4-hal-driver/stm32l4xx_hal_flash_ex.c ****       /* Check that the bit has been correctly configured */
 471:../system/src/stm32l4-hal-driver/stm32l4xx_hal_flash_ex.c ****       if (READ_BIT(FLASH->CFGR, FLASH_CFGR_LVEN) != ConfigLVE)
 472:../system/src/stm32l4-hal-driver/stm32l4xx_hal_flash_ex.c ****       {
 473:../system/src/stm32l4-hal-driver/stm32l4xx_hal_flash_ex.c ****         status = HAL_ERROR;
 474:../system/src/stm32l4-hal-driver/stm32l4xx_hal_flash_ex.c ****       }
 475:../system/src/stm32l4-hal-driver/stm32l4xx_hal_flash_ex.c ****     }
 476:../system/src/stm32l4-hal-driver/stm32l4xx_hal_flash_ex.c ****     else
 477:../system/src/stm32l4-hal-driver/stm32l4xx_hal_flash_ex.c ****     {
 478:../system/src/stm32l4-hal-driver/stm32l4xx_hal_flash_ex.c ****       /* Not allow to force Flash LVE pin if not in voltage range 2 */
 479:../system/src/stm32l4-hal-driver/stm32l4xx_hal_flash_ex.c ****       status = HAL_ERROR;
 480:../system/src/stm32l4-hal-driver/stm32l4xx_hal_flash_ex.c ****     }
 481:../system/src/stm32l4-hal-driver/stm32l4xx_hal_flash_ex.c ****   }
 482:../system/src/stm32l4-hal-driver/stm32l4xx_hal_flash_ex.c **** 
 483:../system/src/stm32l4-hal-driver/stm32l4xx_hal_flash_ex.c ****   /* Process Unlocked */
 484:../system/src/stm32l4-hal-driver/stm32l4xx_hal_flash_ex.c ****   __HAL_UNLOCK(&pFlash);
 485:../system/src/stm32l4-hal-driver/stm32l4xx_hal_flash_ex.c **** 
 486:../system/src/stm32l4-hal-driver/stm32l4xx_hal_flash_ex.c ****   return status;
 487:../system/src/stm32l4-hal-driver/stm32l4xx_hal_flash_ex.c **** }
 488:../system/src/stm32l4-hal-driver/stm32l4xx_hal_flash_ex.c **** 
 489:../system/src/stm32l4-hal-driver/stm32l4xx_hal_flash_ex.c **** /**
 490:../system/src/stm32l4-hal-driver/stm32l4xx_hal_flash_ex.c ****   * @}
 491:../system/src/stm32l4-hal-driver/stm32l4xx_hal_flash_ex.c ****   */
 492:../system/src/stm32l4-hal-driver/stm32l4xx_hal_flash_ex.c **** #endif /* FLASH_CFGR_LVEN */
 493:../system/src/stm32l4-hal-driver/stm32l4xx_hal_flash_ex.c **** 
 494:../system/src/stm32l4-hal-driver/stm32l4xx_hal_flash_ex.c **** /**
 495:../system/src/stm32l4-hal-driver/stm32l4xx_hal_flash_ex.c ****   * @}
 496:../system/src/stm32l4-hal-driver/stm32l4xx_hal_flash_ex.c ****   */
 497:../system/src/stm32l4-hal-driver/stm32l4xx_hal_flash_ex.c **** 
 498:../system/src/stm32l4-hal-driver/stm32l4xx_hal_flash_ex.c **** /* Private functions ---------------------------------------------------------*/
 499:../system/src/stm32l4-hal-driver/stm32l4xx_hal_flash_ex.c **** 
 500:../system/src/stm32l4-hal-driver/stm32l4xx_hal_flash_ex.c **** /** @addtogroup FLASHEx_Private_Functions
 501:../system/src/stm32l4-hal-driver/stm32l4xx_hal_flash_ex.c ****   * @{
 502:../system/src/stm32l4-hal-driver/stm32l4xx_hal_flash_ex.c ****   */
 503:../system/src/stm32l4-hal-driver/stm32l4xx_hal_flash_ex.c **** /**
 504:../system/src/stm32l4-hal-driver/stm32l4xx_hal_flash_ex.c ****   * @brief  Mass erase of FLASH memory.
 505:../system/src/stm32l4-hal-driver/stm32l4xx_hal_flash_ex.c ****   * @param  Banks Banks to be erased
 506:../system/src/stm32l4-hal-driver/stm32l4xx_hal_flash_ex.c ****   *          This parameter can be one of the following values:
 507:../system/src/stm32l4-hal-driver/stm32l4xx_hal_flash_ex.c ****   *            @arg FLASH_BANK_1: Bank1 to be erased
 508:../system/src/stm32l4-hal-driver/stm32l4xx_hal_flash_ex.c ****   *            @arg FLASH_BANK_2: Bank2 to be erased
 509:../system/src/stm32l4-hal-driver/stm32l4xx_hal_flash_ex.c ****   *            @arg FLASH_BANK_BOTH: Bank1 and Bank2 to be erased
 510:../system/src/stm32l4-hal-driver/stm32l4xx_hal_flash_ex.c ****   * @retval None
 511:../system/src/stm32l4-hal-driver/stm32l4xx_hal_flash_ex.c ****   */
 512:../system/src/stm32l4-hal-driver/stm32l4xx_hal_flash_ex.c **** static void FLASH_MassErase(uint32_t Banks)
 513:../system/src/stm32l4-hal-driver/stm32l4xx_hal_flash_ex.c **** {
  27              		.loc 1 513 0
  28              		.cfi_startproc
  29              		@ args = 0, pretend = 0, frame = 0
  30              		@ frame_needed = 0, uses_anonymous_args = 0
  31              		@ link register save eliminated.
  32              	.LVL0:
 514:../system/src/stm32l4-hal-driver/stm32l4xx_hal_flash_ex.c **** #if defined (STM32L4P5xx) || defined (STM32L4Q5xx) || defined (STM32L4R5xx) || defined (STM32L4R7xx
 515:../system/src/stm32l4-hal-driver/stm32l4xx_hal_flash_ex.c ****   if (READ_BIT(FLASH->OPTR, FLASH_OPTR_DBANK) != 0U)
 516:../system/src/stm32l4-hal-driver/stm32l4xx_hal_flash_ex.c **** #endif
 517:../system/src/stm32l4-hal-driver/stm32l4xx_hal_flash_ex.c ****   {
 518:../system/src/stm32l4-hal-driver/stm32l4xx_hal_flash_ex.c ****     /* Check the parameters */
 519:../system/src/stm32l4-hal-driver/stm32l4xx_hal_flash_ex.c ****     assert_param(IS_FLASH_BANK(Banks));
 520:../system/src/stm32l4-hal-driver/stm32l4xx_hal_flash_ex.c **** 
 521:../system/src/stm32l4-hal-driver/stm32l4xx_hal_flash_ex.c ****     /* Set the Mass Erase Bit for the bank 1 if requested */
 522:../system/src/stm32l4-hal-driver/stm32l4xx_hal_flash_ex.c ****     if((Banks & FLASH_BANK_1) != 0U)
  33              		.loc 1 522 0
  34 0000 10F0010F 		tst	r0, #1
  35 0004 04D0     		beq	.L2
 523:../system/src/stm32l4-hal-driver/stm32l4xx_hal_flash_ex.c ****     {
 524:../system/src/stm32l4-hal-driver/stm32l4xx_hal_flash_ex.c ****       SET_BIT(FLASH->CR, FLASH_CR_MER1);
  36              		.loc 1 524 0
  37 0006 094A     		ldr	r2, .L4
  38 0008 5369     		ldr	r3, [r2, #20]
  39 000a 43F00403 		orr	r3, r3, #4
  40 000e 5361     		str	r3, [r2, #20]
  41              	.L2:
 525:../system/src/stm32l4-hal-driver/stm32l4xx_hal_flash_ex.c ****     }
 526:../system/src/stm32l4-hal-driver/stm32l4xx_hal_flash_ex.c **** 
 527:../system/src/stm32l4-hal-driver/stm32l4xx_hal_flash_ex.c **** #if defined (STM32L471xx) || defined (STM32L475xx) || defined (STM32L476xx) || defined (STM32L485xx
 528:../system/src/stm32l4-hal-driver/stm32l4xx_hal_flash_ex.c ****     defined (STM32L496xx) || defined (STM32L4A6xx) || \
 529:../system/src/stm32l4-hal-driver/stm32l4xx_hal_flash_ex.c ****     defined (STM32L4P5xx) || defined (STM32L4Q5xx) || \
 530:../system/src/stm32l4-hal-driver/stm32l4xx_hal_flash_ex.c ****     defined (STM32L4R5xx) || defined (STM32L4R7xx) || defined (STM32L4R9xx) || defined (STM32L4S5xx
 531:../system/src/stm32l4-hal-driver/stm32l4xx_hal_flash_ex.c ****     /* Set the Mass Erase Bit for the bank 2 if requested */
 532:../system/src/stm32l4-hal-driver/stm32l4xx_hal_flash_ex.c ****     if((Banks & FLASH_BANK_2) != 0U)
  42              		.loc 1 532 0
  43 0010 10F0020F 		tst	r0, #2
  44 0014 04D0     		beq	.L3
 533:../system/src/stm32l4-hal-driver/stm32l4xx_hal_flash_ex.c ****     {
 534:../system/src/stm32l4-hal-driver/stm32l4xx_hal_flash_ex.c ****       SET_BIT(FLASH->CR, FLASH_CR_MER2);
  45              		.loc 1 534 0
  46 0016 054A     		ldr	r2, .L4
  47 0018 5369     		ldr	r3, [r2, #20]
  48 001a 43F40043 		orr	r3, r3, #32768
  49 001e 5361     		str	r3, [r2, #20]
  50              	.L3:
 535:../system/src/stm32l4-hal-driver/stm32l4xx_hal_flash_ex.c ****     }
 536:../system/src/stm32l4-hal-driver/stm32l4xx_hal_flash_ex.c **** #endif
 537:../system/src/stm32l4-hal-driver/stm32l4xx_hal_flash_ex.c ****   }
 538:../system/src/stm32l4-hal-driver/stm32l4xx_hal_flash_ex.c **** #if defined (STM32L4P5xx) || defined (STM32L4Q5xx) || defined (STM32L4R5xx) || defined (STM32L4R7xx
 539:../system/src/stm32l4-hal-driver/stm32l4xx_hal_flash_ex.c ****   else
 540:../system/src/stm32l4-hal-driver/stm32l4xx_hal_flash_ex.c ****   {
 541:../system/src/stm32l4-hal-driver/stm32l4xx_hal_flash_ex.c ****     SET_BIT(FLASH->CR, (FLASH_CR_MER1 | FLASH_CR_MER2));
 542:../system/src/stm32l4-hal-driver/stm32l4xx_hal_flash_ex.c ****   }
 543:../system/src/stm32l4-hal-driver/stm32l4xx_hal_flash_ex.c **** #endif
 544:../system/src/stm32l4-hal-driver/stm32l4xx_hal_flash_ex.c **** 
 545:../system/src/stm32l4-hal-driver/stm32l4xx_hal_flash_ex.c ****   /* Proceed to erase all sectors */
 546:../system/src/stm32l4-hal-driver/stm32l4xx_hal_flash_ex.c ****   SET_BIT(FLASH->CR, FLASH_CR_STRT);
  51              		.loc 1 546 0
  52 0020 024A     		ldr	r2, .L4
  53 0022 5369     		ldr	r3, [r2, #20]
  54 0024 43F48033 		orr	r3, r3, #65536
  55 0028 5361     		str	r3, [r2, #20]
 547:../system/src/stm32l4-hal-driver/stm32l4xx_hal_flash_ex.c **** }
  56              		.loc 1 547 0
  57 002a 7047     		bx	lr
  58              	.L5:
  59              		.align	2
  60              	.L4:
  61 002c 00200240 		.word	1073881088
  62              		.cfi_endproc
  63              	.LFE321:
  65              		.section	.text.FLASH_OB_GetWRP,"ax",%progbits
  66              		.align	1
  67              		.syntax unified
  68              		.thumb
  69              		.thumb_func
  70              		.fpu fpv4-sp-d16
  72              	FLASH_OB_GetWRP:
  73              	.LFB328:
 548:../system/src/stm32l4-hal-driver/stm32l4xx_hal_flash_ex.c **** 
 549:../system/src/stm32l4-hal-driver/stm32l4xx_hal_flash_ex.c **** /**
 550:../system/src/stm32l4-hal-driver/stm32l4xx_hal_flash_ex.c ****   * @brief  Erase the specified FLASH memory page.
 551:../system/src/stm32l4-hal-driver/stm32l4xx_hal_flash_ex.c ****   * @param  Page FLASH page to erase
 552:../system/src/stm32l4-hal-driver/stm32l4xx_hal_flash_ex.c ****   *         This parameter must be a value between 0 and (max number of pages in the bank - 1)
 553:../system/src/stm32l4-hal-driver/stm32l4xx_hal_flash_ex.c ****   * @param  Banks Bank(s) where the page will be erased
 554:../system/src/stm32l4-hal-driver/stm32l4xx_hal_flash_ex.c ****   *          This parameter can be one of the following values:
 555:../system/src/stm32l4-hal-driver/stm32l4xx_hal_flash_ex.c ****   *            @arg FLASH_BANK_1: Page in bank 1 to be erased
 556:../system/src/stm32l4-hal-driver/stm32l4xx_hal_flash_ex.c ****   *            @arg FLASH_BANK_2: Page in bank 2 to be erased
 557:../system/src/stm32l4-hal-driver/stm32l4xx_hal_flash_ex.c ****   * @retval None
 558:../system/src/stm32l4-hal-driver/stm32l4xx_hal_flash_ex.c ****   */
 559:../system/src/stm32l4-hal-driver/stm32l4xx_hal_flash_ex.c **** void FLASH_PageErase(uint32_t Page, uint32_t Banks)
 560:../system/src/stm32l4-hal-driver/stm32l4xx_hal_flash_ex.c **** {
 561:../system/src/stm32l4-hal-driver/stm32l4xx_hal_flash_ex.c ****   /* Check the parameters */
 562:../system/src/stm32l4-hal-driver/stm32l4xx_hal_flash_ex.c ****   assert_param(IS_FLASH_PAGE(Page));
 563:../system/src/stm32l4-hal-driver/stm32l4xx_hal_flash_ex.c **** 
 564:../system/src/stm32l4-hal-driver/stm32l4xx_hal_flash_ex.c **** #if defined (STM32L471xx) || defined (STM32L475xx) || defined (STM32L476xx) || defined (STM32L485xx
 565:../system/src/stm32l4-hal-driver/stm32l4xx_hal_flash_ex.c ****     defined (STM32L496xx) || defined (STM32L4A6xx) || \
 566:../system/src/stm32l4-hal-driver/stm32l4xx_hal_flash_ex.c ****     defined (STM32L4P5xx) || defined (STM32L4Q5xx) || \
 567:../system/src/stm32l4-hal-driver/stm32l4xx_hal_flash_ex.c ****     defined (STM32L4R5xx) || defined (STM32L4R7xx) || defined (STM32L4R9xx) || defined (STM32L4S5xx
 568:../system/src/stm32l4-hal-driver/stm32l4xx_hal_flash_ex.c **** #if defined (STM32L4P5xx) || defined (STM32L4Q5xx) || defined (STM32L4R5xx) || defined (STM32L4R7xx
 569:../system/src/stm32l4-hal-driver/stm32l4xx_hal_flash_ex.c ****   if(READ_BIT(FLASH->OPTR, FLASH_OPTR_DBANK) == 0U)
 570:../system/src/stm32l4-hal-driver/stm32l4xx_hal_flash_ex.c ****   {
 571:../system/src/stm32l4-hal-driver/stm32l4xx_hal_flash_ex.c ****     CLEAR_BIT(FLASH->CR, FLASH_CR_BKER);
 572:../system/src/stm32l4-hal-driver/stm32l4xx_hal_flash_ex.c ****   }
 573:../system/src/stm32l4-hal-driver/stm32l4xx_hal_flash_ex.c ****   else
 574:../system/src/stm32l4-hal-driver/stm32l4xx_hal_flash_ex.c **** #endif
 575:../system/src/stm32l4-hal-driver/stm32l4xx_hal_flash_ex.c ****   {
 576:../system/src/stm32l4-hal-driver/stm32l4xx_hal_flash_ex.c ****     assert_param(IS_FLASH_BANK_EXCLUSIVE(Banks));
 577:../system/src/stm32l4-hal-driver/stm32l4xx_hal_flash_ex.c **** 
 578:../system/src/stm32l4-hal-driver/stm32l4xx_hal_flash_ex.c ****     if((Banks & FLASH_BANK_1) != 0U)
 579:../system/src/stm32l4-hal-driver/stm32l4xx_hal_flash_ex.c ****     {
 580:../system/src/stm32l4-hal-driver/stm32l4xx_hal_flash_ex.c ****       CLEAR_BIT(FLASH->CR, FLASH_CR_BKER);
 581:../system/src/stm32l4-hal-driver/stm32l4xx_hal_flash_ex.c ****     }
 582:../system/src/stm32l4-hal-driver/stm32l4xx_hal_flash_ex.c ****     else
 583:../system/src/stm32l4-hal-driver/stm32l4xx_hal_flash_ex.c ****     {
 584:../system/src/stm32l4-hal-driver/stm32l4xx_hal_flash_ex.c ****       SET_BIT(FLASH->CR, FLASH_CR_BKER);
 585:../system/src/stm32l4-hal-driver/stm32l4xx_hal_flash_ex.c ****     }
 586:../system/src/stm32l4-hal-driver/stm32l4xx_hal_flash_ex.c ****   }
 587:../system/src/stm32l4-hal-driver/stm32l4xx_hal_flash_ex.c **** #else
 588:../system/src/stm32l4-hal-driver/stm32l4xx_hal_flash_ex.c ****   /* Prevent unused argument(s) compilation warning */
 589:../system/src/stm32l4-hal-driver/stm32l4xx_hal_flash_ex.c ****   UNUSED(Banks);
 590:../system/src/stm32l4-hal-driver/stm32l4xx_hal_flash_ex.c **** #endif
 591:../system/src/stm32l4-hal-driver/stm32l4xx_hal_flash_ex.c **** 
 592:../system/src/stm32l4-hal-driver/stm32l4xx_hal_flash_ex.c ****   /* Proceed to erase the page */
 593:../system/src/stm32l4-hal-driver/stm32l4xx_hal_flash_ex.c ****   MODIFY_REG(FLASH->CR, FLASH_CR_PNB, ((Page & 0xFFU) << FLASH_CR_PNB_Pos));
 594:../system/src/stm32l4-hal-driver/stm32l4xx_hal_flash_ex.c ****   SET_BIT(FLASH->CR, FLASH_CR_PER);
 595:../system/src/stm32l4-hal-driver/stm32l4xx_hal_flash_ex.c ****   SET_BIT(FLASH->CR, FLASH_CR_STRT);
 596:../system/src/stm32l4-hal-driver/stm32l4xx_hal_flash_ex.c **** }
 597:../system/src/stm32l4-hal-driver/stm32l4xx_hal_flash_ex.c **** 
 598:../system/src/stm32l4-hal-driver/stm32l4xx_hal_flash_ex.c **** /**
 599:../system/src/stm32l4-hal-driver/stm32l4xx_hal_flash_ex.c ****   * @brief  Flush the instruction and data caches.
 600:../system/src/stm32l4-hal-driver/stm32l4xx_hal_flash_ex.c ****   * @retval None
 601:../system/src/stm32l4-hal-driver/stm32l4xx_hal_flash_ex.c ****   */
 602:../system/src/stm32l4-hal-driver/stm32l4xx_hal_flash_ex.c **** void FLASH_FlushCaches(void)
 603:../system/src/stm32l4-hal-driver/stm32l4xx_hal_flash_ex.c **** {
 604:../system/src/stm32l4-hal-driver/stm32l4xx_hal_flash_ex.c ****   FLASH_CacheTypeDef cache = pFlash.CacheToReactivate;
 605:../system/src/stm32l4-hal-driver/stm32l4xx_hal_flash_ex.c **** 
 606:../system/src/stm32l4-hal-driver/stm32l4xx_hal_flash_ex.c ****   /* Flush instruction cache  */
 607:../system/src/stm32l4-hal-driver/stm32l4xx_hal_flash_ex.c ****   if((cache == FLASH_CACHE_ICACHE_ENABLED) ||
 608:../system/src/stm32l4-hal-driver/stm32l4xx_hal_flash_ex.c ****      (cache == FLASH_CACHE_ICACHE_DCACHE_ENABLED))
 609:../system/src/stm32l4-hal-driver/stm32l4xx_hal_flash_ex.c ****   {
 610:../system/src/stm32l4-hal-driver/stm32l4xx_hal_flash_ex.c ****     /* Reset instruction cache */
 611:../system/src/stm32l4-hal-driver/stm32l4xx_hal_flash_ex.c ****     __HAL_FLASH_INSTRUCTION_CACHE_RESET();
 612:../system/src/stm32l4-hal-driver/stm32l4xx_hal_flash_ex.c ****     /* Enable instruction cache */
 613:../system/src/stm32l4-hal-driver/stm32l4xx_hal_flash_ex.c ****     __HAL_FLASH_INSTRUCTION_CACHE_ENABLE();
 614:../system/src/stm32l4-hal-driver/stm32l4xx_hal_flash_ex.c ****   }
 615:../system/src/stm32l4-hal-driver/stm32l4xx_hal_flash_ex.c **** 
 616:../system/src/stm32l4-hal-driver/stm32l4xx_hal_flash_ex.c ****   /* Flush data cache */
 617:../system/src/stm32l4-hal-driver/stm32l4xx_hal_flash_ex.c ****   if((cache == FLASH_CACHE_DCACHE_ENABLED) ||
 618:../system/src/stm32l4-hal-driver/stm32l4xx_hal_flash_ex.c ****      (cache == FLASH_CACHE_ICACHE_DCACHE_ENABLED))
 619:../system/src/stm32l4-hal-driver/stm32l4xx_hal_flash_ex.c ****   {
 620:../system/src/stm32l4-hal-driver/stm32l4xx_hal_flash_ex.c ****     /* Reset data cache */
 621:../system/src/stm32l4-hal-driver/stm32l4xx_hal_flash_ex.c ****     __HAL_FLASH_DATA_CACHE_RESET();
 622:../system/src/stm32l4-hal-driver/stm32l4xx_hal_flash_ex.c ****     /* Enable data cache */
 623:../system/src/stm32l4-hal-driver/stm32l4xx_hal_flash_ex.c ****     __HAL_FLASH_DATA_CACHE_ENABLE();
 624:../system/src/stm32l4-hal-driver/stm32l4xx_hal_flash_ex.c ****   }
 625:../system/src/stm32l4-hal-driver/stm32l4xx_hal_flash_ex.c **** 
 626:../system/src/stm32l4-hal-driver/stm32l4xx_hal_flash_ex.c ****   /* Reset internal variable */
 627:../system/src/stm32l4-hal-driver/stm32l4xx_hal_flash_ex.c ****   pFlash.CacheToReactivate = FLASH_CACHE_DISABLED;
 628:../system/src/stm32l4-hal-driver/stm32l4xx_hal_flash_ex.c **** }
 629:../system/src/stm32l4-hal-driver/stm32l4xx_hal_flash_ex.c **** 
 630:../system/src/stm32l4-hal-driver/stm32l4xx_hal_flash_ex.c **** /**
 631:../system/src/stm32l4-hal-driver/stm32l4xx_hal_flash_ex.c ****   * @brief  Configure the write protection of the desired pages.
 632:../system/src/stm32l4-hal-driver/stm32l4xx_hal_flash_ex.c ****   *
 633:../system/src/stm32l4-hal-driver/stm32l4xx_hal_flash_ex.c ****   * @note   When the memory read protection level is selected (RDP level = 1),
 634:../system/src/stm32l4-hal-driver/stm32l4xx_hal_flash_ex.c ****   *         it is not possible to program or erase Flash memory if the CPU debug
 635:../system/src/stm32l4-hal-driver/stm32l4xx_hal_flash_ex.c ****   *         features are connected (JTAG or single wire) or boot code is being
 636:../system/src/stm32l4-hal-driver/stm32l4xx_hal_flash_ex.c ****   *         executed from RAM or System flash, even if WRP is not activated.
 637:../system/src/stm32l4-hal-driver/stm32l4xx_hal_flash_ex.c ****   * @note   To configure the WRP options, the option lock bit OPTLOCK must be
 638:../system/src/stm32l4-hal-driver/stm32l4xx_hal_flash_ex.c ****   *         cleared with the call of the HAL_FLASH_OB_Unlock() function.
 639:../system/src/stm32l4-hal-driver/stm32l4xx_hal_flash_ex.c ****   * @note   To validate the WRP options, the option bytes must be reloaded
 640:../system/src/stm32l4-hal-driver/stm32l4xx_hal_flash_ex.c ****   *         through the call of the HAL_FLASH_OB_Launch() function.
 641:../system/src/stm32l4-hal-driver/stm32l4xx_hal_flash_ex.c ****   *
 642:../system/src/stm32l4-hal-driver/stm32l4xx_hal_flash_ex.c ****   * @param  WRPArea specifies the area to be configured.
 643:../system/src/stm32l4-hal-driver/stm32l4xx_hal_flash_ex.c ****   *          This parameter can be one of the following values:
 644:../system/src/stm32l4-hal-driver/stm32l4xx_hal_flash_ex.c ****   *            @arg OB_WRPAREA_BANK1_AREAA: Flash Bank 1 Area A
 645:../system/src/stm32l4-hal-driver/stm32l4xx_hal_flash_ex.c ****   *            @arg OB_WRPAREA_BANK1_AREAB: Flash Bank 1 Area B
 646:../system/src/stm32l4-hal-driver/stm32l4xx_hal_flash_ex.c ****   *            @arg OB_WRPAREA_BANK2_AREAA: Flash Bank 2 Area A  (don't apply for STM32L43x/STM32L4
 647:../system/src/stm32l4-hal-driver/stm32l4xx_hal_flash_ex.c ****   *            @arg OB_WRPAREA_BANK2_AREAB: Flash Bank 2 Area B  (don't apply for STM32L43x/STM32L4
 648:../system/src/stm32l4-hal-driver/stm32l4xx_hal_flash_ex.c ****   *
 649:../system/src/stm32l4-hal-driver/stm32l4xx_hal_flash_ex.c ****   * @param  WRPStartOffset specifies the start page of the write protected area
 650:../system/src/stm32l4-hal-driver/stm32l4xx_hal_flash_ex.c ****   *          This parameter can be page number between 0 and (max number of pages in the bank - 1)
 651:../system/src/stm32l4-hal-driver/stm32l4xx_hal_flash_ex.c ****   *
 652:../system/src/stm32l4-hal-driver/stm32l4xx_hal_flash_ex.c ****   * @param  WRDPEndOffset specifies the end page of the write protected area
 653:../system/src/stm32l4-hal-driver/stm32l4xx_hal_flash_ex.c ****   *          This parameter can be page number between WRPStartOffset and (max number of pages in t
 654:../system/src/stm32l4-hal-driver/stm32l4xx_hal_flash_ex.c ****   *
 655:../system/src/stm32l4-hal-driver/stm32l4xx_hal_flash_ex.c ****   * @retval HAL Status
 656:../system/src/stm32l4-hal-driver/stm32l4xx_hal_flash_ex.c ****   */
 657:../system/src/stm32l4-hal-driver/stm32l4xx_hal_flash_ex.c **** static HAL_StatusTypeDef FLASH_OB_WRPConfig(uint32_t WRPArea, uint32_t WRPStartOffset, uint32_t WRD
 658:../system/src/stm32l4-hal-driver/stm32l4xx_hal_flash_ex.c **** {
 659:../system/src/stm32l4-hal-driver/stm32l4xx_hal_flash_ex.c ****   HAL_StatusTypeDef status;
 660:../system/src/stm32l4-hal-driver/stm32l4xx_hal_flash_ex.c **** 
 661:../system/src/stm32l4-hal-driver/stm32l4xx_hal_flash_ex.c ****   /* Check the parameters */
 662:../system/src/stm32l4-hal-driver/stm32l4xx_hal_flash_ex.c ****   assert_param(IS_OB_WRPAREA(WRPArea));
 663:../system/src/stm32l4-hal-driver/stm32l4xx_hal_flash_ex.c ****   assert_param(IS_FLASH_PAGE(WRPStartOffset));
 664:../system/src/stm32l4-hal-driver/stm32l4xx_hal_flash_ex.c ****   assert_param(IS_FLASH_PAGE(WRDPEndOffset));
 665:../system/src/stm32l4-hal-driver/stm32l4xx_hal_flash_ex.c **** 
 666:../system/src/stm32l4-hal-driver/stm32l4xx_hal_flash_ex.c ****   /* Wait for last operation to be completed */
 667:../system/src/stm32l4-hal-driver/stm32l4xx_hal_flash_ex.c ****   status = FLASH_WaitForLastOperation((uint32_t)FLASH_TIMEOUT_VALUE);
 668:../system/src/stm32l4-hal-driver/stm32l4xx_hal_flash_ex.c **** 
 669:../system/src/stm32l4-hal-driver/stm32l4xx_hal_flash_ex.c ****   if(status == HAL_OK)
 670:../system/src/stm32l4-hal-driver/stm32l4xx_hal_flash_ex.c ****   {
 671:../system/src/stm32l4-hal-driver/stm32l4xx_hal_flash_ex.c ****     /* Configure the write protected area */
 672:../system/src/stm32l4-hal-driver/stm32l4xx_hal_flash_ex.c ****     if(WRPArea == OB_WRPAREA_BANK1_AREAA)
 673:../system/src/stm32l4-hal-driver/stm32l4xx_hal_flash_ex.c ****     {
 674:../system/src/stm32l4-hal-driver/stm32l4xx_hal_flash_ex.c ****       MODIFY_REG(FLASH->WRP1AR, (FLASH_WRP1AR_WRP1A_STRT | FLASH_WRP1AR_WRP1A_END),
 675:../system/src/stm32l4-hal-driver/stm32l4xx_hal_flash_ex.c ****                  (WRPStartOffset | (WRDPEndOffset << 16)));
 676:../system/src/stm32l4-hal-driver/stm32l4xx_hal_flash_ex.c ****     }
 677:../system/src/stm32l4-hal-driver/stm32l4xx_hal_flash_ex.c ****     else if(WRPArea == OB_WRPAREA_BANK1_AREAB)
 678:../system/src/stm32l4-hal-driver/stm32l4xx_hal_flash_ex.c ****     {
 679:../system/src/stm32l4-hal-driver/stm32l4xx_hal_flash_ex.c ****       MODIFY_REG(FLASH->WRP1BR, (FLASH_WRP1BR_WRP1B_STRT | FLASH_WRP1BR_WRP1B_END),
 680:../system/src/stm32l4-hal-driver/stm32l4xx_hal_flash_ex.c ****                  (WRPStartOffset | (WRDPEndOffset << 16)));
 681:../system/src/stm32l4-hal-driver/stm32l4xx_hal_flash_ex.c ****     }
 682:../system/src/stm32l4-hal-driver/stm32l4xx_hal_flash_ex.c **** #if defined (STM32L471xx) || defined (STM32L475xx) || defined (STM32L476xx) || defined (STM32L485xx
 683:../system/src/stm32l4-hal-driver/stm32l4xx_hal_flash_ex.c ****     defined (STM32L496xx) || defined (STM32L4A6xx) || \
 684:../system/src/stm32l4-hal-driver/stm32l4xx_hal_flash_ex.c ****     defined (STM32L4P5xx) || defined (STM32L4Q5xx) || \
 685:../system/src/stm32l4-hal-driver/stm32l4xx_hal_flash_ex.c ****     defined (STM32L4R5xx) || defined (STM32L4R7xx) || defined (STM32L4R9xx) || defined (STM32L4S5xx
 686:../system/src/stm32l4-hal-driver/stm32l4xx_hal_flash_ex.c ****     else if(WRPArea == OB_WRPAREA_BANK2_AREAA)
 687:../system/src/stm32l4-hal-driver/stm32l4xx_hal_flash_ex.c ****     {
 688:../system/src/stm32l4-hal-driver/stm32l4xx_hal_flash_ex.c ****       MODIFY_REG(FLASH->WRP2AR, (FLASH_WRP2AR_WRP2A_STRT | FLASH_WRP2AR_WRP2A_END),
 689:../system/src/stm32l4-hal-driver/stm32l4xx_hal_flash_ex.c ****                  (WRPStartOffset | (WRDPEndOffset << 16)));
 690:../system/src/stm32l4-hal-driver/stm32l4xx_hal_flash_ex.c ****     }
 691:../system/src/stm32l4-hal-driver/stm32l4xx_hal_flash_ex.c ****     else if(WRPArea == OB_WRPAREA_BANK2_AREAB)
 692:../system/src/stm32l4-hal-driver/stm32l4xx_hal_flash_ex.c ****     {
 693:../system/src/stm32l4-hal-driver/stm32l4xx_hal_flash_ex.c ****       MODIFY_REG(FLASH->WRP2BR, (FLASH_WRP2BR_WRP2B_STRT | FLASH_WRP2BR_WRP2B_END),
 694:../system/src/stm32l4-hal-driver/stm32l4xx_hal_flash_ex.c ****                  (WRPStartOffset | (WRDPEndOffset << 16)));
 695:../system/src/stm32l4-hal-driver/stm32l4xx_hal_flash_ex.c ****     }
 696:../system/src/stm32l4-hal-driver/stm32l4xx_hal_flash_ex.c **** #endif
 697:../system/src/stm32l4-hal-driver/stm32l4xx_hal_flash_ex.c ****     else
 698:../system/src/stm32l4-hal-driver/stm32l4xx_hal_flash_ex.c ****     {
 699:../system/src/stm32l4-hal-driver/stm32l4xx_hal_flash_ex.c ****       /* Nothing to do */
 700:../system/src/stm32l4-hal-driver/stm32l4xx_hal_flash_ex.c ****     }
 701:../system/src/stm32l4-hal-driver/stm32l4xx_hal_flash_ex.c **** 
 702:../system/src/stm32l4-hal-driver/stm32l4xx_hal_flash_ex.c ****     /* Set OPTSTRT Bit */
 703:../system/src/stm32l4-hal-driver/stm32l4xx_hal_flash_ex.c ****     SET_BIT(FLASH->CR, FLASH_CR_OPTSTRT);
 704:../system/src/stm32l4-hal-driver/stm32l4xx_hal_flash_ex.c **** 
 705:../system/src/stm32l4-hal-driver/stm32l4xx_hal_flash_ex.c ****     /* Wait for last operation to be completed */
 706:../system/src/stm32l4-hal-driver/stm32l4xx_hal_flash_ex.c ****     status = FLASH_WaitForLastOperation((uint32_t)FLASH_TIMEOUT_VALUE);
 707:../system/src/stm32l4-hal-driver/stm32l4xx_hal_flash_ex.c **** 
 708:../system/src/stm32l4-hal-driver/stm32l4xx_hal_flash_ex.c ****     /* If the option byte program operation is completed, disable the OPTSTRT Bit */
 709:../system/src/stm32l4-hal-driver/stm32l4xx_hal_flash_ex.c ****     CLEAR_BIT(FLASH->CR, FLASH_CR_OPTSTRT);
 710:../system/src/stm32l4-hal-driver/stm32l4xx_hal_flash_ex.c ****   }
 711:../system/src/stm32l4-hal-driver/stm32l4xx_hal_flash_ex.c **** 
 712:../system/src/stm32l4-hal-driver/stm32l4xx_hal_flash_ex.c ****   return status;
 713:../system/src/stm32l4-hal-driver/stm32l4xx_hal_flash_ex.c **** }
 714:../system/src/stm32l4-hal-driver/stm32l4xx_hal_flash_ex.c **** 
 715:../system/src/stm32l4-hal-driver/stm32l4xx_hal_flash_ex.c **** /**
 716:../system/src/stm32l4-hal-driver/stm32l4xx_hal_flash_ex.c ****   * @brief  Set the read protection level.
 717:../system/src/stm32l4-hal-driver/stm32l4xx_hal_flash_ex.c ****   *
 718:../system/src/stm32l4-hal-driver/stm32l4xx_hal_flash_ex.c ****   * @note   To configure the RDP level, the option lock bit OPTLOCK must be
 719:../system/src/stm32l4-hal-driver/stm32l4xx_hal_flash_ex.c ****   *         cleared with the call of the HAL_FLASH_OB_Unlock() function.
 720:../system/src/stm32l4-hal-driver/stm32l4xx_hal_flash_ex.c ****   * @note   To validate the RDP level, the option bytes must be reloaded
 721:../system/src/stm32l4-hal-driver/stm32l4xx_hal_flash_ex.c ****   *         through the call of the HAL_FLASH_OB_Launch() function.
 722:../system/src/stm32l4-hal-driver/stm32l4xx_hal_flash_ex.c ****   * @note   !!! Warning : When enabling OB_RDP level 2 it's no more possible
 723:../system/src/stm32l4-hal-driver/stm32l4xx_hal_flash_ex.c ****   *         to go back to level 1 or 0 !!!
 724:../system/src/stm32l4-hal-driver/stm32l4xx_hal_flash_ex.c ****   *
 725:../system/src/stm32l4-hal-driver/stm32l4xx_hal_flash_ex.c ****   * @param  RDPLevel specifies the read protection level.
 726:../system/src/stm32l4-hal-driver/stm32l4xx_hal_flash_ex.c ****   *         This parameter can be one of the following values:
 727:../system/src/stm32l4-hal-driver/stm32l4xx_hal_flash_ex.c ****   *            @arg OB_RDP_LEVEL_0: No protection
 728:../system/src/stm32l4-hal-driver/stm32l4xx_hal_flash_ex.c ****   *            @arg OB_RDP_LEVEL_1: Read protection of the memory
 729:../system/src/stm32l4-hal-driver/stm32l4xx_hal_flash_ex.c ****   *            @arg OB_RDP_LEVEL_2: Full chip protection
 730:../system/src/stm32l4-hal-driver/stm32l4xx_hal_flash_ex.c ****   *
 731:../system/src/stm32l4-hal-driver/stm32l4xx_hal_flash_ex.c ****   * @retval HAL status
 732:../system/src/stm32l4-hal-driver/stm32l4xx_hal_flash_ex.c ****   */
 733:../system/src/stm32l4-hal-driver/stm32l4xx_hal_flash_ex.c **** static HAL_StatusTypeDef FLASH_OB_RDPConfig(uint32_t RDPLevel)
 734:../system/src/stm32l4-hal-driver/stm32l4xx_hal_flash_ex.c **** {
 735:../system/src/stm32l4-hal-driver/stm32l4xx_hal_flash_ex.c ****   HAL_StatusTypeDef status;
 736:../system/src/stm32l4-hal-driver/stm32l4xx_hal_flash_ex.c **** 
 737:../system/src/stm32l4-hal-driver/stm32l4xx_hal_flash_ex.c ****   /* Check the parameters */
 738:../system/src/stm32l4-hal-driver/stm32l4xx_hal_flash_ex.c ****   assert_param(IS_OB_RDP_LEVEL(RDPLevel));
 739:../system/src/stm32l4-hal-driver/stm32l4xx_hal_flash_ex.c **** 
 740:../system/src/stm32l4-hal-driver/stm32l4xx_hal_flash_ex.c ****   /* Wait for last operation to be completed */
 741:../system/src/stm32l4-hal-driver/stm32l4xx_hal_flash_ex.c ****   status = FLASH_WaitForLastOperation((uint32_t)FLASH_TIMEOUT_VALUE);
 742:../system/src/stm32l4-hal-driver/stm32l4xx_hal_flash_ex.c **** 
 743:../system/src/stm32l4-hal-driver/stm32l4xx_hal_flash_ex.c ****   if(status == HAL_OK)
 744:../system/src/stm32l4-hal-driver/stm32l4xx_hal_flash_ex.c ****   {
 745:../system/src/stm32l4-hal-driver/stm32l4xx_hal_flash_ex.c ****     /* Configure the RDP level in the option bytes register */
 746:../system/src/stm32l4-hal-driver/stm32l4xx_hal_flash_ex.c ****     MODIFY_REG(FLASH->OPTR, FLASH_OPTR_RDP, RDPLevel);
 747:../system/src/stm32l4-hal-driver/stm32l4xx_hal_flash_ex.c **** 
 748:../system/src/stm32l4-hal-driver/stm32l4xx_hal_flash_ex.c ****     /* Set OPTSTRT Bit */
 749:../system/src/stm32l4-hal-driver/stm32l4xx_hal_flash_ex.c ****     SET_BIT(FLASH->CR, FLASH_CR_OPTSTRT);
 750:../system/src/stm32l4-hal-driver/stm32l4xx_hal_flash_ex.c **** 
 751:../system/src/stm32l4-hal-driver/stm32l4xx_hal_flash_ex.c ****     /* Wait for last operation to be completed */
 752:../system/src/stm32l4-hal-driver/stm32l4xx_hal_flash_ex.c ****     status = FLASH_WaitForLastOperation((uint32_t)FLASH_TIMEOUT_VALUE);
 753:../system/src/stm32l4-hal-driver/stm32l4xx_hal_flash_ex.c **** 
 754:../system/src/stm32l4-hal-driver/stm32l4xx_hal_flash_ex.c ****     /* If the option byte program operation is completed, disable the OPTSTRT Bit */
 755:../system/src/stm32l4-hal-driver/stm32l4xx_hal_flash_ex.c ****     CLEAR_BIT(FLASH->CR, FLASH_CR_OPTSTRT);
 756:../system/src/stm32l4-hal-driver/stm32l4xx_hal_flash_ex.c ****   }
 757:../system/src/stm32l4-hal-driver/stm32l4xx_hal_flash_ex.c **** 
 758:../system/src/stm32l4-hal-driver/stm32l4xx_hal_flash_ex.c ****   return status;
 759:../system/src/stm32l4-hal-driver/stm32l4xx_hal_flash_ex.c **** }
 760:../system/src/stm32l4-hal-driver/stm32l4xx_hal_flash_ex.c **** 
 761:../system/src/stm32l4-hal-driver/stm32l4xx_hal_flash_ex.c **** /**
 762:../system/src/stm32l4-hal-driver/stm32l4xx_hal_flash_ex.c ****   * @brief  Program the FLASH User Option Byte.
 763:../system/src/stm32l4-hal-driver/stm32l4xx_hal_flash_ex.c ****   *
 764:../system/src/stm32l4-hal-driver/stm32l4xx_hal_flash_ex.c ****   * @note   To configure the user option bytes, the option lock bit OPTLOCK must
 765:../system/src/stm32l4-hal-driver/stm32l4xx_hal_flash_ex.c ****   *         be cleared with the call of the HAL_FLASH_OB_Unlock() function.
 766:../system/src/stm32l4-hal-driver/stm32l4xx_hal_flash_ex.c ****   * @note   To validate the user option bytes, the option bytes must be reloaded
 767:../system/src/stm32l4-hal-driver/stm32l4xx_hal_flash_ex.c ****   *         through the call of the HAL_FLASH_OB_Launch() function.
 768:../system/src/stm32l4-hal-driver/stm32l4xx_hal_flash_ex.c ****   *
 769:../system/src/stm32l4-hal-driver/stm32l4xx_hal_flash_ex.c ****   * @param  UserType The FLASH User Option Bytes to be modified
 770:../system/src/stm32l4-hal-driver/stm32l4xx_hal_flash_ex.c ****   * @param  UserConfig The FLASH User Option Bytes values:
 771:../system/src/stm32l4-hal-driver/stm32l4xx_hal_flash_ex.c ****   *         BOR_LEV(Bit8-10), nRST_STOP(Bit12), nRST_STDBY(Bit13), IWDG_SW(Bit16),
 772:../system/src/stm32l4-hal-driver/stm32l4xx_hal_flash_ex.c ****   *         IWDG_STOP(Bit17), IWDG_STDBY(Bit18), WWDG_SW(Bit19), BFB2(Bit20),
 773:../system/src/stm32l4-hal-driver/stm32l4xx_hal_flash_ex.c ****   *         DUALBANK(Bit21), nBOOT1(Bit23), SRAM2_PE(Bit24) and SRAM2_RST(Bit25).
 774:../system/src/stm32l4-hal-driver/stm32l4xx_hal_flash_ex.c ****   *
 775:../system/src/stm32l4-hal-driver/stm32l4xx_hal_flash_ex.c ****   * @retval HAL status
 776:../system/src/stm32l4-hal-driver/stm32l4xx_hal_flash_ex.c ****   */
 777:../system/src/stm32l4-hal-driver/stm32l4xx_hal_flash_ex.c **** static HAL_StatusTypeDef FLASH_OB_UserConfig(uint32_t UserType, uint32_t UserConfig)
 778:../system/src/stm32l4-hal-driver/stm32l4xx_hal_flash_ex.c **** {
 779:../system/src/stm32l4-hal-driver/stm32l4xx_hal_flash_ex.c ****   uint32_t optr_reg_val = 0;
 780:../system/src/stm32l4-hal-driver/stm32l4xx_hal_flash_ex.c ****   uint32_t optr_reg_mask = 0;
 781:../system/src/stm32l4-hal-driver/stm32l4xx_hal_flash_ex.c ****   HAL_StatusTypeDef status;
 782:../system/src/stm32l4-hal-driver/stm32l4xx_hal_flash_ex.c **** 
 783:../system/src/stm32l4-hal-driver/stm32l4xx_hal_flash_ex.c ****   /* Check the parameters */
 784:../system/src/stm32l4-hal-driver/stm32l4xx_hal_flash_ex.c ****   assert_param(IS_OB_USER_TYPE(UserType));
 785:../system/src/stm32l4-hal-driver/stm32l4xx_hal_flash_ex.c **** 
 786:../system/src/stm32l4-hal-driver/stm32l4xx_hal_flash_ex.c ****   /* Wait for last operation to be completed */
 787:../system/src/stm32l4-hal-driver/stm32l4xx_hal_flash_ex.c ****   status = FLASH_WaitForLastOperation((uint32_t)FLASH_TIMEOUT_VALUE);
 788:../system/src/stm32l4-hal-driver/stm32l4xx_hal_flash_ex.c **** 
 789:../system/src/stm32l4-hal-driver/stm32l4xx_hal_flash_ex.c ****   if(status == HAL_OK)
 790:../system/src/stm32l4-hal-driver/stm32l4xx_hal_flash_ex.c ****   {
 791:../system/src/stm32l4-hal-driver/stm32l4xx_hal_flash_ex.c ****     if((UserType & OB_USER_BOR_LEV) != 0U)
 792:../system/src/stm32l4-hal-driver/stm32l4xx_hal_flash_ex.c ****     {
 793:../system/src/stm32l4-hal-driver/stm32l4xx_hal_flash_ex.c ****       /* BOR level option byte should be modified */
 794:../system/src/stm32l4-hal-driver/stm32l4xx_hal_flash_ex.c ****       assert_param(IS_OB_USER_BOR_LEVEL(UserConfig & FLASH_OPTR_BOR_LEV));
 795:../system/src/stm32l4-hal-driver/stm32l4xx_hal_flash_ex.c **** 
 796:../system/src/stm32l4-hal-driver/stm32l4xx_hal_flash_ex.c ****       /* Set value and mask for BOR level option byte */
 797:../system/src/stm32l4-hal-driver/stm32l4xx_hal_flash_ex.c ****       optr_reg_val |= (UserConfig & FLASH_OPTR_BOR_LEV);
 798:../system/src/stm32l4-hal-driver/stm32l4xx_hal_flash_ex.c ****       optr_reg_mask |= FLASH_OPTR_BOR_LEV;
 799:../system/src/stm32l4-hal-driver/stm32l4xx_hal_flash_ex.c ****     }
 800:../system/src/stm32l4-hal-driver/stm32l4xx_hal_flash_ex.c **** 
 801:../system/src/stm32l4-hal-driver/stm32l4xx_hal_flash_ex.c ****     if((UserType & OB_USER_nRST_STOP) != 0U)
 802:../system/src/stm32l4-hal-driver/stm32l4xx_hal_flash_ex.c ****     {
 803:../system/src/stm32l4-hal-driver/stm32l4xx_hal_flash_ex.c ****       /* nRST_STOP option byte should be modified */
 804:../system/src/stm32l4-hal-driver/stm32l4xx_hal_flash_ex.c ****       assert_param(IS_OB_USER_STOP(UserConfig & FLASH_OPTR_nRST_STOP));
 805:../system/src/stm32l4-hal-driver/stm32l4xx_hal_flash_ex.c **** 
 806:../system/src/stm32l4-hal-driver/stm32l4xx_hal_flash_ex.c ****       /* Set value and mask for nRST_STOP option byte */
 807:../system/src/stm32l4-hal-driver/stm32l4xx_hal_flash_ex.c ****       optr_reg_val |= (UserConfig & FLASH_OPTR_nRST_STOP);
 808:../system/src/stm32l4-hal-driver/stm32l4xx_hal_flash_ex.c ****       optr_reg_mask |= FLASH_OPTR_nRST_STOP;
 809:../system/src/stm32l4-hal-driver/stm32l4xx_hal_flash_ex.c ****     }
 810:../system/src/stm32l4-hal-driver/stm32l4xx_hal_flash_ex.c **** 
 811:../system/src/stm32l4-hal-driver/stm32l4xx_hal_flash_ex.c ****     if((UserType & OB_USER_nRST_STDBY) != 0U)
 812:../system/src/stm32l4-hal-driver/stm32l4xx_hal_flash_ex.c ****     {
 813:../system/src/stm32l4-hal-driver/stm32l4xx_hal_flash_ex.c ****       /* nRST_STDBY option byte should be modified */
 814:../system/src/stm32l4-hal-driver/stm32l4xx_hal_flash_ex.c ****       assert_param(IS_OB_USER_STANDBY(UserConfig & FLASH_OPTR_nRST_STDBY));
 815:../system/src/stm32l4-hal-driver/stm32l4xx_hal_flash_ex.c **** 
 816:../system/src/stm32l4-hal-driver/stm32l4xx_hal_flash_ex.c ****       /* Set value and mask for nRST_STDBY option byte */
 817:../system/src/stm32l4-hal-driver/stm32l4xx_hal_flash_ex.c ****       optr_reg_val |= (UserConfig & FLASH_OPTR_nRST_STDBY);
 818:../system/src/stm32l4-hal-driver/stm32l4xx_hal_flash_ex.c ****       optr_reg_mask |= FLASH_OPTR_nRST_STDBY;
 819:../system/src/stm32l4-hal-driver/stm32l4xx_hal_flash_ex.c ****     }
 820:../system/src/stm32l4-hal-driver/stm32l4xx_hal_flash_ex.c **** 
 821:../system/src/stm32l4-hal-driver/stm32l4xx_hal_flash_ex.c ****     if((UserType & OB_USER_nRST_SHDW) != 0U)
 822:../system/src/stm32l4-hal-driver/stm32l4xx_hal_flash_ex.c ****     {
 823:../system/src/stm32l4-hal-driver/stm32l4xx_hal_flash_ex.c ****       /* nRST_SHDW option byte should be modified */
 824:../system/src/stm32l4-hal-driver/stm32l4xx_hal_flash_ex.c ****       assert_param(IS_OB_USER_SHUTDOWN(UserConfig & FLASH_OPTR_nRST_SHDW));
 825:../system/src/stm32l4-hal-driver/stm32l4xx_hal_flash_ex.c **** 
 826:../system/src/stm32l4-hal-driver/stm32l4xx_hal_flash_ex.c ****       /* Set value and mask for nRST_SHDW option byte */
 827:../system/src/stm32l4-hal-driver/stm32l4xx_hal_flash_ex.c ****       optr_reg_val |= (UserConfig & FLASH_OPTR_nRST_SHDW);
 828:../system/src/stm32l4-hal-driver/stm32l4xx_hal_flash_ex.c ****       optr_reg_mask |= FLASH_OPTR_nRST_SHDW;
 829:../system/src/stm32l4-hal-driver/stm32l4xx_hal_flash_ex.c ****     }
 830:../system/src/stm32l4-hal-driver/stm32l4xx_hal_flash_ex.c **** 
 831:../system/src/stm32l4-hal-driver/stm32l4xx_hal_flash_ex.c ****     if((UserType & OB_USER_IWDG_SW) != 0U)
 832:../system/src/stm32l4-hal-driver/stm32l4xx_hal_flash_ex.c ****     {
 833:../system/src/stm32l4-hal-driver/stm32l4xx_hal_flash_ex.c ****       /* IWDG_SW option byte should be modified */
 834:../system/src/stm32l4-hal-driver/stm32l4xx_hal_flash_ex.c ****       assert_param(IS_OB_USER_IWDG(UserConfig & FLASH_OPTR_IWDG_SW));
 835:../system/src/stm32l4-hal-driver/stm32l4xx_hal_flash_ex.c **** 
 836:../system/src/stm32l4-hal-driver/stm32l4xx_hal_flash_ex.c ****       /* Set value and mask for IWDG_SW option byte */
 837:../system/src/stm32l4-hal-driver/stm32l4xx_hal_flash_ex.c ****       optr_reg_val |= (UserConfig & FLASH_OPTR_IWDG_SW);
 838:../system/src/stm32l4-hal-driver/stm32l4xx_hal_flash_ex.c ****       optr_reg_mask |= FLASH_OPTR_IWDG_SW;
 839:../system/src/stm32l4-hal-driver/stm32l4xx_hal_flash_ex.c ****     }
 840:../system/src/stm32l4-hal-driver/stm32l4xx_hal_flash_ex.c **** 
 841:../system/src/stm32l4-hal-driver/stm32l4xx_hal_flash_ex.c ****     if((UserType & OB_USER_IWDG_STOP) != 0U)
 842:../system/src/stm32l4-hal-driver/stm32l4xx_hal_flash_ex.c ****     {
 843:../system/src/stm32l4-hal-driver/stm32l4xx_hal_flash_ex.c ****       /* IWDG_STOP option byte should be modified */
 844:../system/src/stm32l4-hal-driver/stm32l4xx_hal_flash_ex.c ****       assert_param(IS_OB_USER_IWDG_STOP(UserConfig & FLASH_OPTR_IWDG_STOP));
 845:../system/src/stm32l4-hal-driver/stm32l4xx_hal_flash_ex.c **** 
 846:../system/src/stm32l4-hal-driver/stm32l4xx_hal_flash_ex.c ****       /* Set value and mask for IWDG_STOP option byte */
 847:../system/src/stm32l4-hal-driver/stm32l4xx_hal_flash_ex.c ****       optr_reg_val |= (UserConfig & FLASH_OPTR_IWDG_STOP);
 848:../system/src/stm32l4-hal-driver/stm32l4xx_hal_flash_ex.c ****       optr_reg_mask |= FLASH_OPTR_IWDG_STOP;
 849:../system/src/stm32l4-hal-driver/stm32l4xx_hal_flash_ex.c ****     }
 850:../system/src/stm32l4-hal-driver/stm32l4xx_hal_flash_ex.c **** 
 851:../system/src/stm32l4-hal-driver/stm32l4xx_hal_flash_ex.c ****     if((UserType & OB_USER_IWDG_STDBY) != 0U)
 852:../system/src/stm32l4-hal-driver/stm32l4xx_hal_flash_ex.c ****     {
 853:../system/src/stm32l4-hal-driver/stm32l4xx_hal_flash_ex.c ****       /* IWDG_STDBY option byte should be modified */
 854:../system/src/stm32l4-hal-driver/stm32l4xx_hal_flash_ex.c ****       assert_param(IS_OB_USER_IWDG_STDBY(UserConfig & FLASH_OPTR_IWDG_STDBY));
 855:../system/src/stm32l4-hal-driver/stm32l4xx_hal_flash_ex.c **** 
 856:../system/src/stm32l4-hal-driver/stm32l4xx_hal_flash_ex.c ****       /* Set value and mask for IWDG_STDBY option byte */
 857:../system/src/stm32l4-hal-driver/stm32l4xx_hal_flash_ex.c ****       optr_reg_val |= (UserConfig & FLASH_OPTR_IWDG_STDBY);
 858:../system/src/stm32l4-hal-driver/stm32l4xx_hal_flash_ex.c ****       optr_reg_mask |= FLASH_OPTR_IWDG_STDBY;
 859:../system/src/stm32l4-hal-driver/stm32l4xx_hal_flash_ex.c ****     }
 860:../system/src/stm32l4-hal-driver/stm32l4xx_hal_flash_ex.c **** 
 861:../system/src/stm32l4-hal-driver/stm32l4xx_hal_flash_ex.c ****     if((UserType & OB_USER_WWDG_SW) != 0U)
 862:../system/src/stm32l4-hal-driver/stm32l4xx_hal_flash_ex.c ****     {
 863:../system/src/stm32l4-hal-driver/stm32l4xx_hal_flash_ex.c ****       /* WWDG_SW option byte should be modified */
 864:../system/src/stm32l4-hal-driver/stm32l4xx_hal_flash_ex.c ****       assert_param(IS_OB_USER_WWDG(UserConfig & FLASH_OPTR_WWDG_SW));
 865:../system/src/stm32l4-hal-driver/stm32l4xx_hal_flash_ex.c **** 
 866:../system/src/stm32l4-hal-driver/stm32l4xx_hal_flash_ex.c ****       /* Set value and mask for WWDG_SW option byte */
 867:../system/src/stm32l4-hal-driver/stm32l4xx_hal_flash_ex.c ****       optr_reg_val |= (UserConfig & FLASH_OPTR_WWDG_SW);
 868:../system/src/stm32l4-hal-driver/stm32l4xx_hal_flash_ex.c ****       optr_reg_mask |= FLASH_OPTR_WWDG_SW;
 869:../system/src/stm32l4-hal-driver/stm32l4xx_hal_flash_ex.c ****     }
 870:../system/src/stm32l4-hal-driver/stm32l4xx_hal_flash_ex.c **** 
 871:../system/src/stm32l4-hal-driver/stm32l4xx_hal_flash_ex.c **** #if defined (STM32L471xx) || defined (STM32L475xx) || defined (STM32L476xx) || defined (STM32L485xx
 872:../system/src/stm32l4-hal-driver/stm32l4xx_hal_flash_ex.c ****     defined (STM32L496xx) || defined (STM32L4A6xx) || \
 873:../system/src/stm32l4-hal-driver/stm32l4xx_hal_flash_ex.c ****     defined (STM32L4P5xx) || defined (STM32L4Q5xx) || \
 874:../system/src/stm32l4-hal-driver/stm32l4xx_hal_flash_ex.c ****     defined (STM32L4R5xx) || defined (STM32L4R7xx) || defined (STM32L4R9xx) || defined (STM32L4S5xx
 875:../system/src/stm32l4-hal-driver/stm32l4xx_hal_flash_ex.c ****     if((UserType & OB_USER_BFB2) != 0U)
 876:../system/src/stm32l4-hal-driver/stm32l4xx_hal_flash_ex.c ****     {
 877:../system/src/stm32l4-hal-driver/stm32l4xx_hal_flash_ex.c ****       /* BFB2 option byte should be modified */
 878:../system/src/stm32l4-hal-driver/stm32l4xx_hal_flash_ex.c ****       assert_param(IS_OB_USER_BFB2(UserConfig & FLASH_OPTR_BFB2));
 879:../system/src/stm32l4-hal-driver/stm32l4xx_hal_flash_ex.c **** 
 880:../system/src/stm32l4-hal-driver/stm32l4xx_hal_flash_ex.c ****       /* Set value and mask for BFB2 option byte */
 881:../system/src/stm32l4-hal-driver/stm32l4xx_hal_flash_ex.c ****       optr_reg_val |= (UserConfig & FLASH_OPTR_BFB2);
 882:../system/src/stm32l4-hal-driver/stm32l4xx_hal_flash_ex.c ****       optr_reg_mask |= FLASH_OPTR_BFB2;
 883:../system/src/stm32l4-hal-driver/stm32l4xx_hal_flash_ex.c ****     }
 884:../system/src/stm32l4-hal-driver/stm32l4xx_hal_flash_ex.c **** 
 885:../system/src/stm32l4-hal-driver/stm32l4xx_hal_flash_ex.c ****     if((UserType & OB_USER_DUALBANK) != 0U)
 886:../system/src/stm32l4-hal-driver/stm32l4xx_hal_flash_ex.c ****     {
 887:../system/src/stm32l4-hal-driver/stm32l4xx_hal_flash_ex.c **** #if defined (STM32L4P5xx) || defined (STM32L4Q5xx) || defined (STM32L4R5xx) || defined (STM32L4R7xx
 888:../system/src/stm32l4-hal-driver/stm32l4xx_hal_flash_ex.c ****       /* DUALBANK option byte should be modified */
 889:../system/src/stm32l4-hal-driver/stm32l4xx_hal_flash_ex.c ****       assert_param(IS_OB_USER_DUALBANK(UserConfig & FLASH_OPTR_DB1M));
 890:../system/src/stm32l4-hal-driver/stm32l4xx_hal_flash_ex.c **** 
 891:../system/src/stm32l4-hal-driver/stm32l4xx_hal_flash_ex.c ****       /* Set value and mask for DUALBANK option byte */
 892:../system/src/stm32l4-hal-driver/stm32l4xx_hal_flash_ex.c ****       optr_reg_val |= (UserConfig & FLASH_OPTR_DB1M);
 893:../system/src/stm32l4-hal-driver/stm32l4xx_hal_flash_ex.c ****       optr_reg_mask |= FLASH_OPTR_DB1M;
 894:../system/src/stm32l4-hal-driver/stm32l4xx_hal_flash_ex.c **** #else
 895:../system/src/stm32l4-hal-driver/stm32l4xx_hal_flash_ex.c ****       /* DUALBANK option byte should be modified */
 896:../system/src/stm32l4-hal-driver/stm32l4xx_hal_flash_ex.c ****       assert_param(IS_OB_USER_DUALBANK(UserConfig & FLASH_OPTR_DUALBANK));
 897:../system/src/stm32l4-hal-driver/stm32l4xx_hal_flash_ex.c **** 
 898:../system/src/stm32l4-hal-driver/stm32l4xx_hal_flash_ex.c ****       /* Set value and mask for DUALBANK option byte */
 899:../system/src/stm32l4-hal-driver/stm32l4xx_hal_flash_ex.c ****       optr_reg_val |= (UserConfig & FLASH_OPTR_DUALBANK);
 900:../system/src/stm32l4-hal-driver/stm32l4xx_hal_flash_ex.c ****       optr_reg_mask |= FLASH_OPTR_DUALBANK;
 901:../system/src/stm32l4-hal-driver/stm32l4xx_hal_flash_ex.c **** #endif
 902:../system/src/stm32l4-hal-driver/stm32l4xx_hal_flash_ex.c ****     }
 903:../system/src/stm32l4-hal-driver/stm32l4xx_hal_flash_ex.c **** #endif
 904:../system/src/stm32l4-hal-driver/stm32l4xx_hal_flash_ex.c **** 
 905:../system/src/stm32l4-hal-driver/stm32l4xx_hal_flash_ex.c ****     if((UserType & OB_USER_nBOOT1) != 0U)
 906:../system/src/stm32l4-hal-driver/stm32l4xx_hal_flash_ex.c ****     {
 907:../system/src/stm32l4-hal-driver/stm32l4xx_hal_flash_ex.c ****       /* nBOOT1 option byte should be modified */
 908:../system/src/stm32l4-hal-driver/stm32l4xx_hal_flash_ex.c ****       assert_param(IS_OB_USER_BOOT1(UserConfig & FLASH_OPTR_nBOOT1));
 909:../system/src/stm32l4-hal-driver/stm32l4xx_hal_flash_ex.c **** 
 910:../system/src/stm32l4-hal-driver/stm32l4xx_hal_flash_ex.c ****       /* Set value and mask for nBOOT1 option byte */
 911:../system/src/stm32l4-hal-driver/stm32l4xx_hal_flash_ex.c ****       optr_reg_val |= (UserConfig & FLASH_OPTR_nBOOT1);
 912:../system/src/stm32l4-hal-driver/stm32l4xx_hal_flash_ex.c ****       optr_reg_mask |= FLASH_OPTR_nBOOT1;
 913:../system/src/stm32l4-hal-driver/stm32l4xx_hal_flash_ex.c ****     }
 914:../system/src/stm32l4-hal-driver/stm32l4xx_hal_flash_ex.c **** 
 915:../system/src/stm32l4-hal-driver/stm32l4xx_hal_flash_ex.c ****     if((UserType & OB_USER_SRAM2_PE) != 0U)
 916:../system/src/stm32l4-hal-driver/stm32l4xx_hal_flash_ex.c ****     {
 917:../system/src/stm32l4-hal-driver/stm32l4xx_hal_flash_ex.c ****       /* SRAM2_PE option byte should be modified */
 918:../system/src/stm32l4-hal-driver/stm32l4xx_hal_flash_ex.c ****       assert_param(IS_OB_USER_SRAM2_PARITY(UserConfig & FLASH_OPTR_SRAM2_PE));
 919:../system/src/stm32l4-hal-driver/stm32l4xx_hal_flash_ex.c **** 
 920:../system/src/stm32l4-hal-driver/stm32l4xx_hal_flash_ex.c ****       /* Set value and mask for SRAM2_PE option byte */
 921:../system/src/stm32l4-hal-driver/stm32l4xx_hal_flash_ex.c ****       optr_reg_val |= (UserConfig & FLASH_OPTR_SRAM2_PE);
 922:../system/src/stm32l4-hal-driver/stm32l4xx_hal_flash_ex.c ****       optr_reg_mask |= FLASH_OPTR_SRAM2_PE;
 923:../system/src/stm32l4-hal-driver/stm32l4xx_hal_flash_ex.c ****     }
 924:../system/src/stm32l4-hal-driver/stm32l4xx_hal_flash_ex.c **** 
 925:../system/src/stm32l4-hal-driver/stm32l4xx_hal_flash_ex.c ****     if((UserType & OB_USER_SRAM2_RST) != 0U)
 926:../system/src/stm32l4-hal-driver/stm32l4xx_hal_flash_ex.c ****     {
 927:../system/src/stm32l4-hal-driver/stm32l4xx_hal_flash_ex.c ****       /* SRAM2_RST option byte should be modified */
 928:../system/src/stm32l4-hal-driver/stm32l4xx_hal_flash_ex.c ****       assert_param(IS_OB_USER_SRAM2_RST(UserConfig & FLASH_OPTR_SRAM2_RST));
 929:../system/src/stm32l4-hal-driver/stm32l4xx_hal_flash_ex.c **** 
 930:../system/src/stm32l4-hal-driver/stm32l4xx_hal_flash_ex.c ****       /* Set value and mask for SRAM2_RST option byte */
 931:../system/src/stm32l4-hal-driver/stm32l4xx_hal_flash_ex.c ****       optr_reg_val |= (UserConfig & FLASH_OPTR_SRAM2_RST);
 932:../system/src/stm32l4-hal-driver/stm32l4xx_hal_flash_ex.c ****       optr_reg_mask |= FLASH_OPTR_SRAM2_RST;
 933:../system/src/stm32l4-hal-driver/stm32l4xx_hal_flash_ex.c ****     }
 934:../system/src/stm32l4-hal-driver/stm32l4xx_hal_flash_ex.c **** 
 935:../system/src/stm32l4-hal-driver/stm32l4xx_hal_flash_ex.c **** #if defined (STM32L412xx) || defined (STM32L422xx) || defined (STM32L431xx) || defined (STM32L432xx
 936:../system/src/stm32l4-hal-driver/stm32l4xx_hal_flash_ex.c ****     defined (STM32L442xx) || defined (STM32L443xx) || defined (STM32L451xx) || defined (STM32L452xx
 937:../system/src/stm32l4-hal-driver/stm32l4xx_hal_flash_ex.c ****     defined (STM32L496xx) || defined (STM32L4A6xx) || \
 938:../system/src/stm32l4-hal-driver/stm32l4xx_hal_flash_ex.c ****     defined (STM32L4P5xx) || defined (STM32L4Q5xx) || \
 939:../system/src/stm32l4-hal-driver/stm32l4xx_hal_flash_ex.c ****     defined (STM32L4R5xx) || defined (STM32L4R7xx) || defined (STM32L4R9xx) || defined (STM32L4S5xx
 940:../system/src/stm32l4-hal-driver/stm32l4xx_hal_flash_ex.c ****     if((UserType & OB_USER_nSWBOOT0) != 0U)
 941:../system/src/stm32l4-hal-driver/stm32l4xx_hal_flash_ex.c ****     {
 942:../system/src/stm32l4-hal-driver/stm32l4xx_hal_flash_ex.c ****       /* nSWBOOT0 option byte should be modified */
 943:../system/src/stm32l4-hal-driver/stm32l4xx_hal_flash_ex.c ****       assert_param(IS_OB_USER_SWBOOT0(UserConfig & FLASH_OPTR_nSWBOOT0));
 944:../system/src/stm32l4-hal-driver/stm32l4xx_hal_flash_ex.c **** 
 945:../system/src/stm32l4-hal-driver/stm32l4xx_hal_flash_ex.c ****       /* Set value and mask for nSWBOOT0 option byte */
 946:../system/src/stm32l4-hal-driver/stm32l4xx_hal_flash_ex.c ****       optr_reg_val |= (UserConfig & FLASH_OPTR_nSWBOOT0);
 947:../system/src/stm32l4-hal-driver/stm32l4xx_hal_flash_ex.c ****       optr_reg_mask |= FLASH_OPTR_nSWBOOT0;
 948:../system/src/stm32l4-hal-driver/stm32l4xx_hal_flash_ex.c ****     }
 949:../system/src/stm32l4-hal-driver/stm32l4xx_hal_flash_ex.c **** 
 950:../system/src/stm32l4-hal-driver/stm32l4xx_hal_flash_ex.c ****     if((UserType & OB_USER_nBOOT0) != 0U)
 951:../system/src/stm32l4-hal-driver/stm32l4xx_hal_flash_ex.c ****     {
 952:../system/src/stm32l4-hal-driver/stm32l4xx_hal_flash_ex.c ****       /* nBOOT0 option byte should be modified */
 953:../system/src/stm32l4-hal-driver/stm32l4xx_hal_flash_ex.c ****       assert_param(IS_OB_USER_BOOT0(UserConfig & FLASH_OPTR_nBOOT0));
 954:../system/src/stm32l4-hal-driver/stm32l4xx_hal_flash_ex.c **** 
 955:../system/src/stm32l4-hal-driver/stm32l4xx_hal_flash_ex.c ****       /* Set value and mask for nBOOT0 option byte */
 956:../system/src/stm32l4-hal-driver/stm32l4xx_hal_flash_ex.c ****       optr_reg_val |= (UserConfig & FLASH_OPTR_nBOOT0);
 957:../system/src/stm32l4-hal-driver/stm32l4xx_hal_flash_ex.c ****       optr_reg_mask |= FLASH_OPTR_nBOOT0;
 958:../system/src/stm32l4-hal-driver/stm32l4xx_hal_flash_ex.c ****     }
 959:../system/src/stm32l4-hal-driver/stm32l4xx_hal_flash_ex.c **** #endif
 960:../system/src/stm32l4-hal-driver/stm32l4xx_hal_flash_ex.c **** 
 961:../system/src/stm32l4-hal-driver/stm32l4xx_hal_flash_ex.c ****     /* Configure the option bytes register */
 962:../system/src/stm32l4-hal-driver/stm32l4xx_hal_flash_ex.c ****     MODIFY_REG(FLASH->OPTR, optr_reg_mask, optr_reg_val);
 963:../system/src/stm32l4-hal-driver/stm32l4xx_hal_flash_ex.c **** 
 964:../system/src/stm32l4-hal-driver/stm32l4xx_hal_flash_ex.c ****     /* Set OPTSTRT Bit */
 965:../system/src/stm32l4-hal-driver/stm32l4xx_hal_flash_ex.c ****     SET_BIT(FLASH->CR, FLASH_CR_OPTSTRT);
 966:../system/src/stm32l4-hal-driver/stm32l4xx_hal_flash_ex.c **** 
 967:../system/src/stm32l4-hal-driver/stm32l4xx_hal_flash_ex.c ****     /* Wait for last operation to be completed */
 968:../system/src/stm32l4-hal-driver/stm32l4xx_hal_flash_ex.c ****     status = FLASH_WaitForLastOperation((uint32_t)FLASH_TIMEOUT_VALUE);
 969:../system/src/stm32l4-hal-driver/stm32l4xx_hal_flash_ex.c **** 
 970:../system/src/stm32l4-hal-driver/stm32l4xx_hal_flash_ex.c ****     /* If the option byte program operation is completed, disable the OPTSTRT Bit */
 971:../system/src/stm32l4-hal-driver/stm32l4xx_hal_flash_ex.c ****     CLEAR_BIT(FLASH->CR, FLASH_CR_OPTSTRT);
 972:../system/src/stm32l4-hal-driver/stm32l4xx_hal_flash_ex.c ****   }
 973:../system/src/stm32l4-hal-driver/stm32l4xx_hal_flash_ex.c **** 
 974:../system/src/stm32l4-hal-driver/stm32l4xx_hal_flash_ex.c ****   return status;
 975:../system/src/stm32l4-hal-driver/stm32l4xx_hal_flash_ex.c **** }
 976:../system/src/stm32l4-hal-driver/stm32l4xx_hal_flash_ex.c **** 
 977:../system/src/stm32l4-hal-driver/stm32l4xx_hal_flash_ex.c **** /**
 978:../system/src/stm32l4-hal-driver/stm32l4xx_hal_flash_ex.c ****   * @brief  Configure the Proprietary code readout protection of the desired addresses.
 979:../system/src/stm32l4-hal-driver/stm32l4xx_hal_flash_ex.c ****   *
 980:../system/src/stm32l4-hal-driver/stm32l4xx_hal_flash_ex.c ****   * @note   To configure the PCROP options, the option lock bit OPTLOCK must be
 981:../system/src/stm32l4-hal-driver/stm32l4xx_hal_flash_ex.c ****   *         cleared with the call of the HAL_FLASH_OB_Unlock() function.
 982:../system/src/stm32l4-hal-driver/stm32l4xx_hal_flash_ex.c ****   * @note   To validate the PCROP options, the option bytes must be reloaded
 983:../system/src/stm32l4-hal-driver/stm32l4xx_hal_flash_ex.c ****   *         through the call of the HAL_FLASH_OB_Launch() function.
 984:../system/src/stm32l4-hal-driver/stm32l4xx_hal_flash_ex.c ****   *
 985:../system/src/stm32l4-hal-driver/stm32l4xx_hal_flash_ex.c ****   * @param  PCROPConfig specifies the configuration (Bank to be configured and PCROP_RDP option).
 986:../system/src/stm32l4-hal-driver/stm32l4xx_hal_flash_ex.c ****   *          This parameter must be a combination of FLASH_BANK_1 or FLASH_BANK_2
 987:../system/src/stm32l4-hal-driver/stm32l4xx_hal_flash_ex.c ****   *          with OB_PCROP_RDP_NOT_ERASE or OB_PCROP_RDP_ERASE
 988:../system/src/stm32l4-hal-driver/stm32l4xx_hal_flash_ex.c ****   *
 989:../system/src/stm32l4-hal-driver/stm32l4xx_hal_flash_ex.c ****   * @param  PCROPStartAddr specifies the start address of the Proprietary code readout protection
 990:../system/src/stm32l4-hal-driver/stm32l4xx_hal_flash_ex.c ****   *          This parameter can be an address between begin and end of the bank
 991:../system/src/stm32l4-hal-driver/stm32l4xx_hal_flash_ex.c ****   *
 992:../system/src/stm32l4-hal-driver/stm32l4xx_hal_flash_ex.c ****   * @param  PCROPEndAddr specifies the end address of the Proprietary code readout protection
 993:../system/src/stm32l4-hal-driver/stm32l4xx_hal_flash_ex.c ****   *          This parameter can be an address between PCROPStartAddr and end of the bank
 994:../system/src/stm32l4-hal-driver/stm32l4xx_hal_flash_ex.c ****   *
 995:../system/src/stm32l4-hal-driver/stm32l4xx_hal_flash_ex.c ****   * @retval HAL Status
 996:../system/src/stm32l4-hal-driver/stm32l4xx_hal_flash_ex.c ****   */
 997:../system/src/stm32l4-hal-driver/stm32l4xx_hal_flash_ex.c **** static HAL_StatusTypeDef FLASH_OB_PCROPConfig(uint32_t PCROPConfig, uint32_t PCROPStartAddr, uint32
 998:../system/src/stm32l4-hal-driver/stm32l4xx_hal_flash_ex.c **** {
 999:../system/src/stm32l4-hal-driver/stm32l4xx_hal_flash_ex.c ****   HAL_StatusTypeDef status;
1000:../system/src/stm32l4-hal-driver/stm32l4xx_hal_flash_ex.c ****   uint32_t reg_value;
1001:../system/src/stm32l4-hal-driver/stm32l4xx_hal_flash_ex.c ****   uint32_t bank1_addr;
1002:../system/src/stm32l4-hal-driver/stm32l4xx_hal_flash_ex.c **** #if defined (STM32L471xx) || defined (STM32L475xx) || defined (STM32L476xx) || defined (STM32L485xx
1003:../system/src/stm32l4-hal-driver/stm32l4xx_hal_flash_ex.c ****     defined (STM32L496xx) || defined (STM32L4A6xx) || \
1004:../system/src/stm32l4-hal-driver/stm32l4xx_hal_flash_ex.c ****     defined (STM32L4P5xx) || defined (STM32L4Q5xx) || \
1005:../system/src/stm32l4-hal-driver/stm32l4xx_hal_flash_ex.c ****     defined (STM32L4R5xx) || defined (STM32L4R7xx) || defined (STM32L4R9xx) || defined (STM32L4S5xx
1006:../system/src/stm32l4-hal-driver/stm32l4xx_hal_flash_ex.c ****   uint32_t bank2_addr;
1007:../system/src/stm32l4-hal-driver/stm32l4xx_hal_flash_ex.c **** #endif
1008:../system/src/stm32l4-hal-driver/stm32l4xx_hal_flash_ex.c **** 
1009:../system/src/stm32l4-hal-driver/stm32l4xx_hal_flash_ex.c ****   /* Check the parameters */
1010:../system/src/stm32l4-hal-driver/stm32l4xx_hal_flash_ex.c ****   assert_param(IS_FLASH_BANK_EXCLUSIVE(PCROPConfig & FLASH_BANK_BOTH));
1011:../system/src/stm32l4-hal-driver/stm32l4xx_hal_flash_ex.c ****   assert_param(IS_OB_PCROP_RDP(PCROPConfig & FLASH_PCROP1ER_PCROP_RDP));
1012:../system/src/stm32l4-hal-driver/stm32l4xx_hal_flash_ex.c ****   assert_param(IS_FLASH_MAIN_MEM_ADDRESS(PCROPStartAddr));
1013:../system/src/stm32l4-hal-driver/stm32l4xx_hal_flash_ex.c ****   assert_param(IS_FLASH_MAIN_MEM_ADDRESS(PCROPEndAddr));
1014:../system/src/stm32l4-hal-driver/stm32l4xx_hal_flash_ex.c **** 
1015:../system/src/stm32l4-hal-driver/stm32l4xx_hal_flash_ex.c ****   /* Wait for last operation to be completed */
1016:../system/src/stm32l4-hal-driver/stm32l4xx_hal_flash_ex.c ****   status = FLASH_WaitForLastOperation((uint32_t)FLASH_TIMEOUT_VALUE);
1017:../system/src/stm32l4-hal-driver/stm32l4xx_hal_flash_ex.c **** 
1018:../system/src/stm32l4-hal-driver/stm32l4xx_hal_flash_ex.c ****   if(status == HAL_OK)
1019:../system/src/stm32l4-hal-driver/stm32l4xx_hal_flash_ex.c ****   {
1020:../system/src/stm32l4-hal-driver/stm32l4xx_hal_flash_ex.c **** #if defined (STM32L471xx) || defined (STM32L475xx) || defined (STM32L476xx) || defined (STM32L485xx
1021:../system/src/stm32l4-hal-driver/stm32l4xx_hal_flash_ex.c ****     defined (STM32L496xx) || defined (STM32L4A6xx) || \
1022:../system/src/stm32l4-hal-driver/stm32l4xx_hal_flash_ex.c ****     defined (STM32L4P5xx) || defined (STM32L4Q5xx) || \
1023:../system/src/stm32l4-hal-driver/stm32l4xx_hal_flash_ex.c ****     defined (STM32L4R5xx) || defined (STM32L4R7xx) || defined (STM32L4R9xx) || defined (STM32L4S5xx
1024:../system/src/stm32l4-hal-driver/stm32l4xx_hal_flash_ex.c ****     /* Get the information about the bank swapping */
1025:../system/src/stm32l4-hal-driver/stm32l4xx_hal_flash_ex.c ****     if (READ_BIT(SYSCFG->MEMRMP, SYSCFG_MEMRMP_FB_MODE) == 0U)
1026:../system/src/stm32l4-hal-driver/stm32l4xx_hal_flash_ex.c ****     {
1027:../system/src/stm32l4-hal-driver/stm32l4xx_hal_flash_ex.c ****       bank1_addr = FLASH_BASE;
1028:../system/src/stm32l4-hal-driver/stm32l4xx_hal_flash_ex.c ****       bank2_addr = FLASH_BASE + FLASH_BANK_SIZE;
1029:../system/src/stm32l4-hal-driver/stm32l4xx_hal_flash_ex.c ****     }
1030:../system/src/stm32l4-hal-driver/stm32l4xx_hal_flash_ex.c ****     else
1031:../system/src/stm32l4-hal-driver/stm32l4xx_hal_flash_ex.c ****     {
1032:../system/src/stm32l4-hal-driver/stm32l4xx_hal_flash_ex.c ****       bank1_addr = FLASH_BASE + FLASH_BANK_SIZE;
1033:../system/src/stm32l4-hal-driver/stm32l4xx_hal_flash_ex.c ****       bank2_addr = FLASH_BASE;
1034:../system/src/stm32l4-hal-driver/stm32l4xx_hal_flash_ex.c ****     }
1035:../system/src/stm32l4-hal-driver/stm32l4xx_hal_flash_ex.c **** #else
1036:../system/src/stm32l4-hal-driver/stm32l4xx_hal_flash_ex.c ****     bank1_addr = FLASH_BASE;
1037:../system/src/stm32l4-hal-driver/stm32l4xx_hal_flash_ex.c **** #endif
1038:../system/src/stm32l4-hal-driver/stm32l4xx_hal_flash_ex.c **** 
1039:../system/src/stm32l4-hal-driver/stm32l4xx_hal_flash_ex.c **** #if defined (STM32L4P5xx) || defined (STM32L4Q5xx) || defined (STM32L4R5xx) || defined (STM32L4R7xx
1040:../system/src/stm32l4-hal-driver/stm32l4xx_hal_flash_ex.c ****     if (READ_BIT(FLASH->OPTR, FLASH_OPTR_DBANK) == 0U)
1041:../system/src/stm32l4-hal-driver/stm32l4xx_hal_flash_ex.c ****     {
1042:../system/src/stm32l4-hal-driver/stm32l4xx_hal_flash_ex.c ****       /* Configure the Proprietary code readout protection */
1043:../system/src/stm32l4-hal-driver/stm32l4xx_hal_flash_ex.c ****       if((PCROPConfig & FLASH_BANK_BOTH) == FLASH_BANK_1)
1044:../system/src/stm32l4-hal-driver/stm32l4xx_hal_flash_ex.c ****       {
1045:../system/src/stm32l4-hal-driver/stm32l4xx_hal_flash_ex.c ****         reg_value = ((PCROPStartAddr - FLASH_BASE) >> 4);
1046:../system/src/stm32l4-hal-driver/stm32l4xx_hal_flash_ex.c ****         MODIFY_REG(FLASH->PCROP1SR, FLASH_PCROP1SR_PCROP1_STRT, reg_value);
1047:../system/src/stm32l4-hal-driver/stm32l4xx_hal_flash_ex.c **** 
1048:../system/src/stm32l4-hal-driver/stm32l4xx_hal_flash_ex.c ****         reg_value = ((PCROPEndAddr - FLASH_BASE) >> 4);
1049:../system/src/stm32l4-hal-driver/stm32l4xx_hal_flash_ex.c ****         MODIFY_REG(FLASH->PCROP1ER, FLASH_PCROP1ER_PCROP1_END, reg_value);
1050:../system/src/stm32l4-hal-driver/stm32l4xx_hal_flash_ex.c ****       }
1051:../system/src/stm32l4-hal-driver/stm32l4xx_hal_flash_ex.c ****       else if((PCROPConfig & FLASH_BANK_BOTH) == FLASH_BANK_2)
1052:../system/src/stm32l4-hal-driver/stm32l4xx_hal_flash_ex.c ****       {
1053:../system/src/stm32l4-hal-driver/stm32l4xx_hal_flash_ex.c ****         reg_value = ((PCROPStartAddr - FLASH_BASE) >> 4);
1054:../system/src/stm32l4-hal-driver/stm32l4xx_hal_flash_ex.c ****         MODIFY_REG(FLASH->PCROP2SR, FLASH_PCROP2SR_PCROP2_STRT, reg_value);
1055:../system/src/stm32l4-hal-driver/stm32l4xx_hal_flash_ex.c **** 
1056:../system/src/stm32l4-hal-driver/stm32l4xx_hal_flash_ex.c ****         reg_value = ((PCROPEndAddr - FLASH_BASE) >> 4);
1057:../system/src/stm32l4-hal-driver/stm32l4xx_hal_flash_ex.c ****         MODIFY_REG(FLASH->PCROP2ER, FLASH_PCROP2ER_PCROP2_END, reg_value);
1058:../system/src/stm32l4-hal-driver/stm32l4xx_hal_flash_ex.c ****       }
1059:../system/src/stm32l4-hal-driver/stm32l4xx_hal_flash_ex.c ****       else
1060:../system/src/stm32l4-hal-driver/stm32l4xx_hal_flash_ex.c ****       {
1061:../system/src/stm32l4-hal-driver/stm32l4xx_hal_flash_ex.c ****         /* Nothing to do */
1062:../system/src/stm32l4-hal-driver/stm32l4xx_hal_flash_ex.c ****       }
1063:../system/src/stm32l4-hal-driver/stm32l4xx_hal_flash_ex.c ****     }
1064:../system/src/stm32l4-hal-driver/stm32l4xx_hal_flash_ex.c ****     else
1065:../system/src/stm32l4-hal-driver/stm32l4xx_hal_flash_ex.c **** #endif
1066:../system/src/stm32l4-hal-driver/stm32l4xx_hal_flash_ex.c ****     {
1067:../system/src/stm32l4-hal-driver/stm32l4xx_hal_flash_ex.c ****       /* Configure the Proprietary code readout protection */
1068:../system/src/stm32l4-hal-driver/stm32l4xx_hal_flash_ex.c ****       if((PCROPConfig & FLASH_BANK_BOTH) == FLASH_BANK_1)
1069:../system/src/stm32l4-hal-driver/stm32l4xx_hal_flash_ex.c ****       {
1070:../system/src/stm32l4-hal-driver/stm32l4xx_hal_flash_ex.c ****         reg_value = ((PCROPStartAddr - bank1_addr) >> 3);
1071:../system/src/stm32l4-hal-driver/stm32l4xx_hal_flash_ex.c ****         MODIFY_REG(FLASH->PCROP1SR, FLASH_PCROP1SR_PCROP1_STRT, reg_value);
1072:../system/src/stm32l4-hal-driver/stm32l4xx_hal_flash_ex.c **** 
1073:../system/src/stm32l4-hal-driver/stm32l4xx_hal_flash_ex.c ****         reg_value = ((PCROPEndAddr - bank1_addr) >> 3);
1074:../system/src/stm32l4-hal-driver/stm32l4xx_hal_flash_ex.c ****         MODIFY_REG(FLASH->PCROP1ER, FLASH_PCROP1ER_PCROP1_END, reg_value);
1075:../system/src/stm32l4-hal-driver/stm32l4xx_hal_flash_ex.c ****       }
1076:../system/src/stm32l4-hal-driver/stm32l4xx_hal_flash_ex.c **** #if defined (STM32L471xx) || defined (STM32L475xx) || defined (STM32L476xx) || defined (STM32L485xx
1077:../system/src/stm32l4-hal-driver/stm32l4xx_hal_flash_ex.c ****     defined (STM32L496xx) || defined (STM32L4A6xx) || \
1078:../system/src/stm32l4-hal-driver/stm32l4xx_hal_flash_ex.c ****     defined (STM32L4P5xx) || defined (STM32L4Q5xx) || \
1079:../system/src/stm32l4-hal-driver/stm32l4xx_hal_flash_ex.c ****     defined (STM32L4R5xx) || defined (STM32L4R7xx) || defined (STM32L4R9xx) || defined (STM32L4S5xx
1080:../system/src/stm32l4-hal-driver/stm32l4xx_hal_flash_ex.c ****       else if((PCROPConfig & FLASH_BANK_BOTH) == FLASH_BANK_2)
1081:../system/src/stm32l4-hal-driver/stm32l4xx_hal_flash_ex.c ****       {
1082:../system/src/stm32l4-hal-driver/stm32l4xx_hal_flash_ex.c ****         reg_value = ((PCROPStartAddr - bank2_addr) >> 3);
1083:../system/src/stm32l4-hal-driver/stm32l4xx_hal_flash_ex.c ****         MODIFY_REG(FLASH->PCROP2SR, FLASH_PCROP2SR_PCROP2_STRT, reg_value);
1084:../system/src/stm32l4-hal-driver/stm32l4xx_hal_flash_ex.c **** 
1085:../system/src/stm32l4-hal-driver/stm32l4xx_hal_flash_ex.c ****         reg_value = ((PCROPEndAddr - bank2_addr) >> 3);
1086:../system/src/stm32l4-hal-driver/stm32l4xx_hal_flash_ex.c ****         MODIFY_REG(FLASH->PCROP2ER, FLASH_PCROP2ER_PCROP2_END, reg_value);
1087:../system/src/stm32l4-hal-driver/stm32l4xx_hal_flash_ex.c ****       }
1088:../system/src/stm32l4-hal-driver/stm32l4xx_hal_flash_ex.c **** #endif
1089:../system/src/stm32l4-hal-driver/stm32l4xx_hal_flash_ex.c ****       else
1090:../system/src/stm32l4-hal-driver/stm32l4xx_hal_flash_ex.c ****       {
1091:../system/src/stm32l4-hal-driver/stm32l4xx_hal_flash_ex.c ****         /* Nothing to do */
1092:../system/src/stm32l4-hal-driver/stm32l4xx_hal_flash_ex.c ****       }
1093:../system/src/stm32l4-hal-driver/stm32l4xx_hal_flash_ex.c ****     }
1094:../system/src/stm32l4-hal-driver/stm32l4xx_hal_flash_ex.c **** 
1095:../system/src/stm32l4-hal-driver/stm32l4xx_hal_flash_ex.c ****     MODIFY_REG(FLASH->PCROP1ER, FLASH_PCROP1ER_PCROP_RDP, (PCROPConfig & FLASH_PCROP1ER_PCROP_RDP))
1096:../system/src/stm32l4-hal-driver/stm32l4xx_hal_flash_ex.c **** 
1097:../system/src/stm32l4-hal-driver/stm32l4xx_hal_flash_ex.c ****     /* Set OPTSTRT Bit */
1098:../system/src/stm32l4-hal-driver/stm32l4xx_hal_flash_ex.c ****     SET_BIT(FLASH->CR, FLASH_CR_OPTSTRT);
1099:../system/src/stm32l4-hal-driver/stm32l4xx_hal_flash_ex.c **** 
1100:../system/src/stm32l4-hal-driver/stm32l4xx_hal_flash_ex.c ****     /* Wait for last operation to be completed */
1101:../system/src/stm32l4-hal-driver/stm32l4xx_hal_flash_ex.c ****     status = FLASH_WaitForLastOperation((uint32_t)FLASH_TIMEOUT_VALUE);
1102:../system/src/stm32l4-hal-driver/stm32l4xx_hal_flash_ex.c **** 
1103:../system/src/stm32l4-hal-driver/stm32l4xx_hal_flash_ex.c ****     /* If the option byte program operation is completed, disable the OPTSTRT Bit */
1104:../system/src/stm32l4-hal-driver/stm32l4xx_hal_flash_ex.c ****     CLEAR_BIT(FLASH->CR, FLASH_CR_OPTSTRT);
1105:../system/src/stm32l4-hal-driver/stm32l4xx_hal_flash_ex.c ****   }
1106:../system/src/stm32l4-hal-driver/stm32l4xx_hal_flash_ex.c **** 
1107:../system/src/stm32l4-hal-driver/stm32l4xx_hal_flash_ex.c ****   return status;
1108:../system/src/stm32l4-hal-driver/stm32l4xx_hal_flash_ex.c **** }
1109:../system/src/stm32l4-hal-driver/stm32l4xx_hal_flash_ex.c **** 
1110:../system/src/stm32l4-hal-driver/stm32l4xx_hal_flash_ex.c **** /**
1111:../system/src/stm32l4-hal-driver/stm32l4xx_hal_flash_ex.c ****   * @brief  Return the FLASH Write Protection Option Bytes value.
1112:../system/src/stm32l4-hal-driver/stm32l4xx_hal_flash_ex.c ****   *
1113:../system/src/stm32l4-hal-driver/stm32l4xx_hal_flash_ex.c ****   * @param[in]  WRPArea: specifies the area to be returned.
1114:../system/src/stm32l4-hal-driver/stm32l4xx_hal_flash_ex.c ****   *          This parameter can be one of the following values:
1115:../system/src/stm32l4-hal-driver/stm32l4xx_hal_flash_ex.c ****   *            @arg OB_WRPAREA_BANK1_AREAA: Flash Bank 1 Area A
1116:../system/src/stm32l4-hal-driver/stm32l4xx_hal_flash_ex.c ****   *            @arg OB_WRPAREA_BANK1_AREAB: Flash Bank 1 Area B
1117:../system/src/stm32l4-hal-driver/stm32l4xx_hal_flash_ex.c ****   *            @arg OB_WRPAREA_BANK2_AREAA: Flash Bank 2 Area A (don't apply to STM32L43x/STM32L44x
1118:../system/src/stm32l4-hal-driver/stm32l4xx_hal_flash_ex.c ****   *            @arg OB_WRPAREA_BANK2_AREAB: Flash Bank 2 Area B (don't apply to STM32L43x/STM32L44x
1119:../system/src/stm32l4-hal-driver/stm32l4xx_hal_flash_ex.c ****   *
1120:../system/src/stm32l4-hal-driver/stm32l4xx_hal_flash_ex.c ****   * @param[out]  WRPStartOffset: specifies the address where to copied the start page
1121:../system/src/stm32l4-hal-driver/stm32l4xx_hal_flash_ex.c ****   *                         of the write protected area
1122:../system/src/stm32l4-hal-driver/stm32l4xx_hal_flash_ex.c ****   *
1123:../system/src/stm32l4-hal-driver/stm32l4xx_hal_flash_ex.c ****   * @param[out]  WRDPEndOffset: specifies the address where to copied the end page of
1124:../system/src/stm32l4-hal-driver/stm32l4xx_hal_flash_ex.c ****   *                        the write protected area
1125:../system/src/stm32l4-hal-driver/stm32l4xx_hal_flash_ex.c ****   *
1126:../system/src/stm32l4-hal-driver/stm32l4xx_hal_flash_ex.c ****   * @retval None
1127:../system/src/stm32l4-hal-driver/stm32l4xx_hal_flash_ex.c ****   */
1128:../system/src/stm32l4-hal-driver/stm32l4xx_hal_flash_ex.c **** static void FLASH_OB_GetWRP(uint32_t WRPArea, uint32_t * WRPStartOffset, uint32_t * WRDPEndOffset)
1129:../system/src/stm32l4-hal-driver/stm32l4xx_hal_flash_ex.c **** {
  74              		.loc 1 1129 0
  75              		.cfi_startproc
  76              		@ args = 0, pretend = 0, frame = 0
  77              		@ frame_needed = 0, uses_anonymous_args = 0
  78              		@ link register save eliminated.
  79              	.LVL1:
1130:../system/src/stm32l4-hal-driver/stm32l4xx_hal_flash_ex.c ****   /* Get the configuration of the write protected area */
1131:../system/src/stm32l4-hal-driver/stm32l4xx_hal_flash_ex.c ****   if(WRPArea == OB_WRPAREA_BANK1_AREAA)
  80              		.loc 1 1131 0
  81 0000 30B1     		cbz	r0, .L11
1132:../system/src/stm32l4-hal-driver/stm32l4xx_hal_flash_ex.c ****   {
1133:../system/src/stm32l4-hal-driver/stm32l4xx_hal_flash_ex.c ****     *WRPStartOffset = READ_BIT(FLASH->WRP1AR, FLASH_WRP1AR_WRP1A_STRT);
1134:../system/src/stm32l4-hal-driver/stm32l4xx_hal_flash_ex.c ****     *WRDPEndOffset = (READ_BIT(FLASH->WRP1AR, FLASH_WRP1AR_WRP1A_END) >> 16);
1135:../system/src/stm32l4-hal-driver/stm32l4xx_hal_flash_ex.c ****   }
1136:../system/src/stm32l4-hal-driver/stm32l4xx_hal_flash_ex.c ****   else if(WRPArea == OB_WRPAREA_BANK1_AREAB)
  82              		.loc 1 1136 0
  83 0002 0128     		cmp	r0, #1
  84 0004 0DD0     		beq	.L12
1137:../system/src/stm32l4-hal-driver/stm32l4xx_hal_flash_ex.c ****   {
1138:../system/src/stm32l4-hal-driver/stm32l4xx_hal_flash_ex.c ****     *WRPStartOffset = READ_BIT(FLASH->WRP1BR, FLASH_WRP1BR_WRP1B_STRT);
1139:../system/src/stm32l4-hal-driver/stm32l4xx_hal_flash_ex.c ****     *WRDPEndOffset = (READ_BIT(FLASH->WRP1BR, FLASH_WRP1BR_WRP1B_END) >> 16);
1140:../system/src/stm32l4-hal-driver/stm32l4xx_hal_flash_ex.c ****   }
1141:../system/src/stm32l4-hal-driver/stm32l4xx_hal_flash_ex.c **** #if defined (STM32L471xx) || defined (STM32L475xx) || defined (STM32L476xx) || defined (STM32L485xx
1142:../system/src/stm32l4-hal-driver/stm32l4xx_hal_flash_ex.c ****     defined (STM32L496xx) || defined (STM32L4A6xx) || \
1143:../system/src/stm32l4-hal-driver/stm32l4xx_hal_flash_ex.c ****     defined (STM32L4P5xx) || defined (STM32L4Q5xx) || \
1144:../system/src/stm32l4-hal-driver/stm32l4xx_hal_flash_ex.c ****     defined (STM32L4R5xx) || defined (STM32L4R7xx) || defined (STM32L4R9xx) || defined (STM32L4S5xx
1145:../system/src/stm32l4-hal-driver/stm32l4xx_hal_flash_ex.c ****   else if(WRPArea == OB_WRPAREA_BANK2_AREAA)
  85              		.loc 1 1145 0
  86 0006 0228     		cmp	r0, #2
  87 0008 14D0     		beq	.L13
1146:../system/src/stm32l4-hal-driver/stm32l4xx_hal_flash_ex.c ****   {
1147:../system/src/stm32l4-hal-driver/stm32l4xx_hal_flash_ex.c ****     *WRPStartOffset = READ_BIT(FLASH->WRP2AR, FLASH_WRP2AR_WRP2A_STRT);
1148:../system/src/stm32l4-hal-driver/stm32l4xx_hal_flash_ex.c ****     *WRDPEndOffset = (READ_BIT(FLASH->WRP2AR, FLASH_WRP2AR_WRP2A_END) >> 16);
1149:../system/src/stm32l4-hal-driver/stm32l4xx_hal_flash_ex.c ****   }
1150:../system/src/stm32l4-hal-driver/stm32l4xx_hal_flash_ex.c ****   else if(WRPArea == OB_WRPAREA_BANK2_AREAB)
  88              		.loc 1 1150 0
  89 000a 0428     		cmp	r0, #4
  90 000c 1BD0     		beq	.L14
  91              	.LVL2:
  92              	.L6:
1151:../system/src/stm32l4-hal-driver/stm32l4xx_hal_flash_ex.c ****   {
1152:../system/src/stm32l4-hal-driver/stm32l4xx_hal_flash_ex.c ****     *WRPStartOffset = READ_BIT(FLASH->WRP2BR, FLASH_WRP2BR_WRP2B_STRT);
1153:../system/src/stm32l4-hal-driver/stm32l4xx_hal_flash_ex.c ****     *WRDPEndOffset = (READ_BIT(FLASH->WRP2BR, FLASH_WRP2BR_WRP2B_END) >> 16);
1154:../system/src/stm32l4-hal-driver/stm32l4xx_hal_flash_ex.c ****   }
1155:../system/src/stm32l4-hal-driver/stm32l4xx_hal_flash_ex.c **** #endif
1156:../system/src/stm32l4-hal-driver/stm32l4xx_hal_flash_ex.c ****   else
1157:../system/src/stm32l4-hal-driver/stm32l4xx_hal_flash_ex.c ****   {
1158:../system/src/stm32l4-hal-driver/stm32l4xx_hal_flash_ex.c ****     /* Nothing to do */
1159:../system/src/stm32l4-hal-driver/stm32l4xx_hal_flash_ex.c ****   }
1160:../system/src/stm32l4-hal-driver/stm32l4xx_hal_flash_ex.c **** }
  93              		.loc 1 1160 0
  94 000e 7047     		bx	lr
  95              	.LVL3:
  96              	.L11:
1133:../system/src/stm32l4-hal-driver/stm32l4xx_hal_flash_ex.c ****     *WRDPEndOffset = (READ_BIT(FLASH->WRP1AR, FLASH_WRP1AR_WRP1A_END) >> 16);
  97              		.loc 1 1133 0
  98 0010 1148     		ldr	r0, .L15
  99              	.LVL4:
 100 0012 C36A     		ldr	r3, [r0, #44]
 101 0014 DBB2     		uxtb	r3, r3
 102 0016 0B60     		str	r3, [r1]
1134:../system/src/stm32l4-hal-driver/stm32l4xx_hal_flash_ex.c ****   }
 103              		.loc 1 1134 0
 104 0018 C36A     		ldr	r3, [r0, #44]
 105 001a C3F30743 		ubfx	r3, r3, #16, #8
 106 001e 1360     		str	r3, [r2]
 107 0020 7047     		bx	lr
 108              	.LVL5:
 109              	.L12:
1138:../system/src/stm32l4-hal-driver/stm32l4xx_hal_flash_ex.c ****     *WRDPEndOffset = (READ_BIT(FLASH->WRP1BR, FLASH_WRP1BR_WRP1B_END) >> 16);
 110              		.loc 1 1138 0
 111 0022 0D48     		ldr	r0, .L15
 112              	.LVL6:
 113 0024 036B     		ldr	r3, [r0, #48]
 114 0026 DBB2     		uxtb	r3, r3
 115 0028 0B60     		str	r3, [r1]
1139:../system/src/stm32l4-hal-driver/stm32l4xx_hal_flash_ex.c ****   }
 116              		.loc 1 1139 0
 117 002a 036B     		ldr	r3, [r0, #48]
 118 002c C3F30743 		ubfx	r3, r3, #16, #8
 119 0030 1360     		str	r3, [r2]
 120 0032 7047     		bx	lr
 121              	.LVL7:
 122              	.L13:
1147:../system/src/stm32l4-hal-driver/stm32l4xx_hal_flash_ex.c ****     *WRDPEndOffset = (READ_BIT(FLASH->WRP2AR, FLASH_WRP2AR_WRP2A_END) >> 16);
 123              		.loc 1 1147 0
 124 0034 0848     		ldr	r0, .L15
 125              	.LVL8:
 126 0036 C36C     		ldr	r3, [r0, #76]
 127 0038 DBB2     		uxtb	r3, r3
 128 003a 0B60     		str	r3, [r1]
1148:../system/src/stm32l4-hal-driver/stm32l4xx_hal_flash_ex.c ****   }
 129              		.loc 1 1148 0
 130 003c C36C     		ldr	r3, [r0, #76]
 131 003e C3F30743 		ubfx	r3, r3, #16, #8
 132 0042 1360     		str	r3, [r2]
 133 0044 7047     		bx	lr
 134              	.LVL9:
 135              	.L14:
1152:../system/src/stm32l4-hal-driver/stm32l4xx_hal_flash_ex.c ****     *WRDPEndOffset = (READ_BIT(FLASH->WRP2BR, FLASH_WRP2BR_WRP2B_END) >> 16);
 136              		.loc 1 1152 0
 137 0046 0448     		ldr	r0, .L15
 138              	.LVL10:
 139 0048 036D     		ldr	r3, [r0, #80]
 140 004a DBB2     		uxtb	r3, r3
 141 004c 0B60     		str	r3, [r1]
1153:../system/src/stm32l4-hal-driver/stm32l4xx_hal_flash_ex.c ****   }
 142              		.loc 1 1153 0
 143 004e 036D     		ldr	r3, [r0, #80]
 144 0050 C3F30743 		ubfx	r3, r3, #16, #8
 145 0054 1360     		str	r3, [r2]
 146              		.loc 1 1160 0
 147 0056 DAE7     		b	.L6
 148              	.L16:
 149              		.align	2
 150              	.L15:
 151 0058 00200240 		.word	1073881088
 152              		.cfi_endproc
 153              	.LFE328:
 155              		.section	.text.FLASH_OB_GetRDP,"ax",%progbits
 156              		.align	1
 157              		.syntax unified
 158              		.thumb
 159              		.thumb_func
 160              		.fpu fpv4-sp-d16
 162              	FLASH_OB_GetRDP:
 163              	.LFB329:
1161:../system/src/stm32l4-hal-driver/stm32l4xx_hal_flash_ex.c **** 
1162:../system/src/stm32l4-hal-driver/stm32l4xx_hal_flash_ex.c **** /**
1163:../system/src/stm32l4-hal-driver/stm32l4xx_hal_flash_ex.c ****   * @brief  Return the FLASH Read Protection level.
1164:../system/src/stm32l4-hal-driver/stm32l4xx_hal_flash_ex.c ****   * @retval FLASH ReadOut Protection Status:
1165:../system/src/stm32l4-hal-driver/stm32l4xx_hal_flash_ex.c ****   *         This return value can be one of the following values:
1166:../system/src/stm32l4-hal-driver/stm32l4xx_hal_flash_ex.c ****   *            @arg OB_RDP_LEVEL_0: No protection
1167:../system/src/stm32l4-hal-driver/stm32l4xx_hal_flash_ex.c ****   *            @arg OB_RDP_LEVEL_1: Read protection of the memory
1168:../system/src/stm32l4-hal-driver/stm32l4xx_hal_flash_ex.c ****   *            @arg OB_RDP_LEVEL_2: Full chip protection
1169:../system/src/stm32l4-hal-driver/stm32l4xx_hal_flash_ex.c ****   */
1170:../system/src/stm32l4-hal-driver/stm32l4xx_hal_flash_ex.c **** static uint32_t FLASH_OB_GetRDP(void)
1171:../system/src/stm32l4-hal-driver/stm32l4xx_hal_flash_ex.c **** {
 164              		.loc 1 1171 0
 165              		.cfi_startproc
 166              		@ args = 0, pretend = 0, frame = 0
 167              		@ frame_needed = 0, uses_anonymous_args = 0
 168              		@ link register save eliminated.
1172:../system/src/stm32l4-hal-driver/stm32l4xx_hal_flash_ex.c ****   uint32_t rdp_level = READ_BIT(FLASH->OPTR, FLASH_OPTR_RDP);
 169              		.loc 1 1172 0
 170 0000 064B     		ldr	r3, .L21
 171 0002 1B6A     		ldr	r3, [r3, #32]
 172 0004 DBB2     		uxtb	r3, r3
 173              	.LVL11:
1173:../system/src/stm32l4-hal-driver/stm32l4xx_hal_flash_ex.c **** 
1174:../system/src/stm32l4-hal-driver/stm32l4xx_hal_flash_ex.c ****   if ((rdp_level != OB_RDP_LEVEL_0) && (rdp_level != OB_RDP_LEVEL_2))
 174              		.loc 1 1174 0
 175 0006 AA2B     		cmp	r3, #170
 176 0008 01D0     		beq	.L18
 177              		.loc 1 1174 0 is_stmt 0 discriminator 1
 178 000a CC2B     		cmp	r3, #204
 179 000c 03D1     		bne	.L20
 180              	.L18:
1175:../system/src/stm32l4-hal-driver/stm32l4xx_hal_flash_ex.c ****   {
1176:../system/src/stm32l4-hal-driver/stm32l4xx_hal_flash_ex.c ****     return (OB_RDP_LEVEL_1);
1177:../system/src/stm32l4-hal-driver/stm32l4xx_hal_flash_ex.c ****   }
1178:../system/src/stm32l4-hal-driver/stm32l4xx_hal_flash_ex.c ****   else
1179:../system/src/stm32l4-hal-driver/stm32l4xx_hal_flash_ex.c ****   {
1180:../system/src/stm32l4-hal-driver/stm32l4xx_hal_flash_ex.c ****     return (READ_BIT(FLASH->OPTR, FLASH_OPTR_RDP));
 181              		.loc 1 1180 0 is_stmt 1
 182 000e 034B     		ldr	r3, .L21
 183              	.LVL12:
 184 0010 186A     		ldr	r0, [r3, #32]
 185 0012 C0B2     		uxtb	r0, r0
 186 0014 7047     		bx	lr
 187              	.LVL13:
 188              	.L20:
1176:../system/src/stm32l4-hal-driver/stm32l4xx_hal_flash_ex.c ****   }
 189              		.loc 1 1176 0
 190 0016 BB20     		movs	r0, #187
1181:../system/src/stm32l4-hal-driver/stm32l4xx_hal_flash_ex.c ****   }
1182:../system/src/stm32l4-hal-driver/stm32l4xx_hal_flash_ex.c **** }
 191              		.loc 1 1182 0
 192 0018 7047     		bx	lr
 193              	.L22:
 194 001a 00BF     		.align	2
 195              	.L21:
 196 001c 00200240 		.word	1073881088
 197              		.cfi_endproc
 198              	.LFE329:
 200              		.section	.text.FLASH_OB_GetUser,"ax",%progbits
 201              		.align	1
 202              		.syntax unified
 203              		.thumb
 204              		.thumb_func
 205              		.fpu fpv4-sp-d16
 207              	FLASH_OB_GetUser:
 208              	.LFB330:
1183:../system/src/stm32l4-hal-driver/stm32l4xx_hal_flash_ex.c **** 
1184:../system/src/stm32l4-hal-driver/stm32l4xx_hal_flash_ex.c **** /**
1185:../system/src/stm32l4-hal-driver/stm32l4xx_hal_flash_ex.c ****   * @brief  Return the FLASH User Option Byte value.
1186:../system/src/stm32l4-hal-driver/stm32l4xx_hal_flash_ex.c ****   * @retval The FLASH User Option Bytes values:
1187:../system/src/stm32l4-hal-driver/stm32l4xx_hal_flash_ex.c ****   *      For STM32L47x/STM32L48x devices :
1188:../system/src/stm32l4-hal-driver/stm32l4xx_hal_flash_ex.c ****   *         BOR_LEV(Bit8-10), nRST_STOP(Bit12), nRST_STDBY(Bit13), nRST_SHDW(Bit14),
1189:../system/src/stm32l4-hal-driver/stm32l4xx_hal_flash_ex.c ****   *         IWDG_SW(Bit16), IWDG_STOP(Bit17), IWDG_STDBY(Bit18), WWDG_SW(Bit19),
1190:../system/src/stm32l4-hal-driver/stm32l4xx_hal_flash_ex.c ****   *         BFB2(Bit20), DUALBANK(Bit21), nBOOT1(Bit23), SRAM2_PE(Bit24) and SRAM2_RST(Bit25).
1191:../system/src/stm32l4-hal-driver/stm32l4xx_hal_flash_ex.c ****   *      For STM32L43x/STM32L44x devices :
1192:../system/src/stm32l4-hal-driver/stm32l4xx_hal_flash_ex.c ****   *         BOR_LEV(Bit8-10), nRST_STOP(Bit12), nRST_STDBY(Bit13), nRST_SHDW(Bit14),
1193:../system/src/stm32l4-hal-driver/stm32l4xx_hal_flash_ex.c ****   *         IWDG_SW(Bit16), IWDG_STOP(Bit17), IWDG_STDBY(Bit18), WWDG_SW(Bit19),
1194:../system/src/stm32l4-hal-driver/stm32l4xx_hal_flash_ex.c ****   *         nBOOT1(Bit23), SRAM2_PE(Bit24), SRAM2_RST(Bit25), nSWBOOT0(Bit26) and nBOOT0(Bit27).
1195:../system/src/stm32l4-hal-driver/stm32l4xx_hal_flash_ex.c ****   */
1196:../system/src/stm32l4-hal-driver/stm32l4xx_hal_flash_ex.c **** static uint32_t FLASH_OB_GetUser(void)
1197:../system/src/stm32l4-hal-driver/stm32l4xx_hal_flash_ex.c **** {
 209              		.loc 1 1197 0
 210              		.cfi_startproc
 211              		@ args = 0, pretend = 0, frame = 0
 212              		@ frame_needed = 0, uses_anonymous_args = 0
 213              		@ link register save eliminated.
1198:../system/src/stm32l4-hal-driver/stm32l4xx_hal_flash_ex.c ****   uint32_t user_config = READ_REG(FLASH->OPTR);
 214              		.loc 1 1198 0
 215 0000 024B     		ldr	r3, .L24
 216 0002 186A     		ldr	r0, [r3, #32]
 217              	.LVL14:
1199:../system/src/stm32l4-hal-driver/stm32l4xx_hal_flash_ex.c ****   CLEAR_BIT(user_config, FLASH_OPTR_RDP);
1200:../system/src/stm32l4-hal-driver/stm32l4xx_hal_flash_ex.c **** 
1201:../system/src/stm32l4-hal-driver/stm32l4xx_hal_flash_ex.c ****   return user_config;
1202:../system/src/stm32l4-hal-driver/stm32l4xx_hal_flash_ex.c **** }
 218              		.loc 1 1202 0
 219 0004 20F0FF00 		bic	r0, r0, #255
 220              	.LVL15:
 221 0008 7047     		bx	lr
 222              	.L25:
 223 000a 00BF     		.align	2
 224              	.L24:
 225 000c 00200240 		.word	1073881088
 226              		.cfi_endproc
 227              	.LFE330:
 229              		.section	.text.FLASH_OB_GetPCROP,"ax",%progbits
 230              		.align	1
 231              		.syntax unified
 232              		.thumb
 233              		.thumb_func
 234              		.fpu fpv4-sp-d16
 236              	FLASH_OB_GetPCROP:
 237              	.LFB331:
1203:../system/src/stm32l4-hal-driver/stm32l4xx_hal_flash_ex.c **** 
1204:../system/src/stm32l4-hal-driver/stm32l4xx_hal_flash_ex.c **** /**
1205:../system/src/stm32l4-hal-driver/stm32l4xx_hal_flash_ex.c ****   * @brief  Return the FLASH Write Protection Option Bytes value.
1206:../system/src/stm32l4-hal-driver/stm32l4xx_hal_flash_ex.c ****   *
1207:../system/src/stm32l4-hal-driver/stm32l4xx_hal_flash_ex.c ****   * @param PCROPConfig [inout]: specifies the configuration (Bank to be configured and PCROP_RDP op
1208:../system/src/stm32l4-hal-driver/stm32l4xx_hal_flash_ex.c ****   *          This parameter must be a combination of FLASH_BANK_1 or FLASH_BANK_2
1209:../system/src/stm32l4-hal-driver/stm32l4xx_hal_flash_ex.c ****   *          with OB_PCROP_RDP_NOT_ERASE or OB_PCROP_RDP_ERASE
1210:../system/src/stm32l4-hal-driver/stm32l4xx_hal_flash_ex.c ****   *
1211:../system/src/stm32l4-hal-driver/stm32l4xx_hal_flash_ex.c ****   * @param PCROPStartAddr [out]: specifies the address where to copied the start address
1212:../system/src/stm32l4-hal-driver/stm32l4xx_hal_flash_ex.c ****   *                         of the Proprietary code readout protection
1213:../system/src/stm32l4-hal-driver/stm32l4xx_hal_flash_ex.c ****   *
1214:../system/src/stm32l4-hal-driver/stm32l4xx_hal_flash_ex.c ****   * @param PCROPEndAddr [out]: specifies the address where to copied the end address of
1215:../system/src/stm32l4-hal-driver/stm32l4xx_hal_flash_ex.c ****   *                       the Proprietary code readout protection
1216:../system/src/stm32l4-hal-driver/stm32l4xx_hal_flash_ex.c ****   *
1217:../system/src/stm32l4-hal-driver/stm32l4xx_hal_flash_ex.c ****   * @retval None
1218:../system/src/stm32l4-hal-driver/stm32l4xx_hal_flash_ex.c ****   */
1219:../system/src/stm32l4-hal-driver/stm32l4xx_hal_flash_ex.c **** static void FLASH_OB_GetPCROP(uint32_t * PCROPConfig, uint32_t * PCROPStartAddr, uint32_t * PCROPEn
1220:../system/src/stm32l4-hal-driver/stm32l4xx_hal_flash_ex.c **** {
 238              		.loc 1 1220 0
 239              		.cfi_startproc
 240              		@ args = 0, pretend = 0, frame = 0
 241              		@ frame_needed = 0, uses_anonymous_args = 0
 242              		@ link register save eliminated.
 243              	.LVL16:
 244 0000 70B4     		push	{r4, r5, r6}
 245              		.cfi_def_cfa_offset 12
 246              		.cfi_offset 4, -12
 247              		.cfi_offset 5, -8
 248              		.cfi_offset 6, -4
1221:../system/src/stm32l4-hal-driver/stm32l4xx_hal_flash_ex.c ****   uint32_t reg_value;
1222:../system/src/stm32l4-hal-driver/stm32l4xx_hal_flash_ex.c ****   uint32_t bank1_addr;
1223:../system/src/stm32l4-hal-driver/stm32l4xx_hal_flash_ex.c **** #if defined (STM32L471xx) || defined (STM32L475xx) || defined (STM32L476xx) || defined (STM32L485xx
1224:../system/src/stm32l4-hal-driver/stm32l4xx_hal_flash_ex.c ****     defined (STM32L496xx) || defined (STM32L4A6xx) || \
1225:../system/src/stm32l4-hal-driver/stm32l4xx_hal_flash_ex.c ****     defined (STM32L4P5xx) || defined (STM32L4Q5xx) || \
1226:../system/src/stm32l4-hal-driver/stm32l4xx_hal_flash_ex.c ****     defined (STM32L4R5xx) || defined (STM32L4R7xx) || defined (STM32L4R9xx) || defined (STM32L4S5xx
1227:../system/src/stm32l4-hal-driver/stm32l4xx_hal_flash_ex.c ****   uint32_t bank2_addr;
1228:../system/src/stm32l4-hal-driver/stm32l4xx_hal_flash_ex.c **** #endif
1229:../system/src/stm32l4-hal-driver/stm32l4xx_hal_flash_ex.c **** 
1230:../system/src/stm32l4-hal-driver/stm32l4xx_hal_flash_ex.c **** #if defined (STM32L471xx) || defined (STM32L475xx) || defined (STM32L476xx) || defined (STM32L485xx
1231:../system/src/stm32l4-hal-driver/stm32l4xx_hal_flash_ex.c ****     defined (STM32L496xx) || defined (STM32L4A6xx) || \
1232:../system/src/stm32l4-hal-driver/stm32l4xx_hal_flash_ex.c ****     defined (STM32L4P5xx) || defined (STM32L4Q5xx) || \
1233:../system/src/stm32l4-hal-driver/stm32l4xx_hal_flash_ex.c ****     defined (STM32L4R5xx) || defined (STM32L4R7xx) || defined (STM32L4R9xx) || defined (STM32L4S5xx
1234:../system/src/stm32l4-hal-driver/stm32l4xx_hal_flash_ex.c ****   /* Get the information about the bank swapping */
1235:../system/src/stm32l4-hal-driver/stm32l4xx_hal_flash_ex.c ****   if (READ_BIT(SYSCFG->MEMRMP, SYSCFG_MEMRMP_FB_MODE) == 0U)
 249              		.loc 1 1235 0
 250 0002 2B4B     		ldr	r3, .L36
 251 0004 1B68     		ldr	r3, [r3]
 252 0006 13F4807F 		tst	r3, #256
 253 000a 1DD1     		bne	.L27
 254              	.LVL17:
1236:../system/src/stm32l4-hal-driver/stm32l4xx_hal_flash_ex.c ****   {
1237:../system/src/stm32l4-hal-driver/stm32l4xx_hal_flash_ex.c ****     bank1_addr = FLASH_BASE;
1238:../system/src/stm32l4-hal-driver/stm32l4xx_hal_flash_ex.c ****     bank2_addr = FLASH_BASE + FLASH_BANK_SIZE;
 255              		.loc 1 1238 0
 256 000c 294B     		ldr	r3, .L36+4
 257 000e 1B68     		ldr	r3, [r3]
 258 0010 9DB2     		uxth	r5, r3
 259 0012 4FF6FF74 		movw	r4, #65535
 260 0016 A542     		cmp	r5, r4
 261 0018 25D0     		beq	.L31
 262              		.loc 1 1238 0 is_stmt 0 discriminator 1
 263 001a 274D     		ldr	r5, .L36+8
 264 001c 05EA4325 		and	r5, r5, r3, lsl #9
 265 0020 05F10065 		add	r5, r5, #134217728
1237:../system/src/stm32l4-hal-driver/stm32l4xx_hal_flash_ex.c ****     bank2_addr = FLASH_BASE + FLASH_BANK_SIZE;
 266              		.loc 1 1237 0 is_stmt 1 discriminator 1
 267 0024 4FF00064 		mov	r4, #134217728
 268              	.LVL18:
 269              	.L28:
1239:../system/src/stm32l4-hal-driver/stm32l4xx_hal_flash_ex.c ****   }
1240:../system/src/stm32l4-hal-driver/stm32l4xx_hal_flash_ex.c ****   else
1241:../system/src/stm32l4-hal-driver/stm32l4xx_hal_flash_ex.c ****   {
1242:../system/src/stm32l4-hal-driver/stm32l4xx_hal_flash_ex.c ****     bank1_addr = FLASH_BASE + FLASH_BANK_SIZE;
1243:../system/src/stm32l4-hal-driver/stm32l4xx_hal_flash_ex.c ****     bank2_addr = FLASH_BASE;
1244:../system/src/stm32l4-hal-driver/stm32l4xx_hal_flash_ex.c ****   }
1245:../system/src/stm32l4-hal-driver/stm32l4xx_hal_flash_ex.c **** #else
1246:../system/src/stm32l4-hal-driver/stm32l4xx_hal_flash_ex.c ****   bank1_addr = FLASH_BASE;
1247:../system/src/stm32l4-hal-driver/stm32l4xx_hal_flash_ex.c **** #endif
1248:../system/src/stm32l4-hal-driver/stm32l4xx_hal_flash_ex.c **** 
1249:../system/src/stm32l4-hal-driver/stm32l4xx_hal_flash_ex.c **** #if defined (STM32L4P5xx) || defined (STM32L4Q5xx) || defined (STM32L4R5xx) || defined (STM32L4R7xx
1250:../system/src/stm32l4-hal-driver/stm32l4xx_hal_flash_ex.c ****   if (READ_BIT(FLASH->OPTR, FLASH_OPTR_DBANK) == 0U)
1251:../system/src/stm32l4-hal-driver/stm32l4xx_hal_flash_ex.c ****   {
1252:../system/src/stm32l4-hal-driver/stm32l4xx_hal_flash_ex.c ****     if(((*PCROPConfig) & FLASH_BANK_BOTH) == FLASH_BANK_1)
1253:../system/src/stm32l4-hal-driver/stm32l4xx_hal_flash_ex.c ****     {
1254:../system/src/stm32l4-hal-driver/stm32l4xx_hal_flash_ex.c ****       reg_value       = (READ_REG(FLASH->PCROP1SR) & FLASH_PCROP1SR_PCROP1_STRT);
1255:../system/src/stm32l4-hal-driver/stm32l4xx_hal_flash_ex.c ****       *PCROPStartAddr = (reg_value << 4) + FLASH_BASE;
1256:../system/src/stm32l4-hal-driver/stm32l4xx_hal_flash_ex.c **** 
1257:../system/src/stm32l4-hal-driver/stm32l4xx_hal_flash_ex.c ****       reg_value     = (READ_REG(FLASH->PCROP1ER) & FLASH_PCROP1ER_PCROP1_END);
1258:../system/src/stm32l4-hal-driver/stm32l4xx_hal_flash_ex.c ****       *PCROPEndAddr = (reg_value << 4) + FLASH_BASE + 0xFU;
1259:../system/src/stm32l4-hal-driver/stm32l4xx_hal_flash_ex.c ****     }
1260:../system/src/stm32l4-hal-driver/stm32l4xx_hal_flash_ex.c ****     else if(((*PCROPConfig) & FLASH_BANK_BOTH) == FLASH_BANK_2)
1261:../system/src/stm32l4-hal-driver/stm32l4xx_hal_flash_ex.c ****     {
1262:../system/src/stm32l4-hal-driver/stm32l4xx_hal_flash_ex.c ****       reg_value       = (READ_REG(FLASH->PCROP2SR) & FLASH_PCROP2SR_PCROP2_STRT);
1263:../system/src/stm32l4-hal-driver/stm32l4xx_hal_flash_ex.c ****       *PCROPStartAddr = (reg_value << 4) + FLASH_BASE;
1264:../system/src/stm32l4-hal-driver/stm32l4xx_hal_flash_ex.c **** 
1265:../system/src/stm32l4-hal-driver/stm32l4xx_hal_flash_ex.c ****       reg_value     = (READ_REG(FLASH->PCROP2ER) & FLASH_PCROP2ER_PCROP2_END);
1266:../system/src/stm32l4-hal-driver/stm32l4xx_hal_flash_ex.c ****       *PCROPEndAddr = (reg_value << 4) + FLASH_BASE + 0xFU;;
1267:../system/src/stm32l4-hal-driver/stm32l4xx_hal_flash_ex.c ****     }
1268:../system/src/stm32l4-hal-driver/stm32l4xx_hal_flash_ex.c ****     else
1269:../system/src/stm32l4-hal-driver/stm32l4xx_hal_flash_ex.c ****     {
1270:../system/src/stm32l4-hal-driver/stm32l4xx_hal_flash_ex.c ****       /* Nothing to do */
1271:../system/src/stm32l4-hal-driver/stm32l4xx_hal_flash_ex.c ****     }
1272:../system/src/stm32l4-hal-driver/stm32l4xx_hal_flash_ex.c ****   }
1273:../system/src/stm32l4-hal-driver/stm32l4xx_hal_flash_ex.c ****   else
1274:../system/src/stm32l4-hal-driver/stm32l4xx_hal_flash_ex.c **** #endif
1275:../system/src/stm32l4-hal-driver/stm32l4xx_hal_flash_ex.c ****   {
1276:../system/src/stm32l4-hal-driver/stm32l4xx_hal_flash_ex.c ****     if(((*PCROPConfig) & FLASH_BANK_BOTH) == FLASH_BANK_1)
 270              		.loc 1 1276 0
 271 0028 0368     		ldr	r3, [r0]
 272 002a 03F00303 		and	r3, r3, #3
 273 002e 012B     		cmp	r3, #1
 274 0030 21D0     		beq	.L34
1277:../system/src/stm32l4-hal-driver/stm32l4xx_hal_flash_ex.c ****     {
1278:../system/src/stm32l4-hal-driver/stm32l4xx_hal_flash_ex.c ****       reg_value       = (READ_REG(FLASH->PCROP1SR) & FLASH_PCROP1SR_PCROP1_STRT);
1279:../system/src/stm32l4-hal-driver/stm32l4xx_hal_flash_ex.c ****       *PCROPStartAddr = (reg_value << 3) + bank1_addr;
1280:../system/src/stm32l4-hal-driver/stm32l4xx_hal_flash_ex.c **** 
1281:../system/src/stm32l4-hal-driver/stm32l4xx_hal_flash_ex.c ****       reg_value     = (READ_REG(FLASH->PCROP1ER) & FLASH_PCROP1ER_PCROP1_END);
1282:../system/src/stm32l4-hal-driver/stm32l4xx_hal_flash_ex.c ****       *PCROPEndAddr = (reg_value << 3) + bank1_addr + 0x7U;
1283:../system/src/stm32l4-hal-driver/stm32l4xx_hal_flash_ex.c ****     }
1284:../system/src/stm32l4-hal-driver/stm32l4xx_hal_flash_ex.c **** #if defined (STM32L471xx) || defined (STM32L475xx) || defined (STM32L476xx) || defined (STM32L485xx
1285:../system/src/stm32l4-hal-driver/stm32l4xx_hal_flash_ex.c ****     defined (STM32L496xx) || defined (STM32L4A6xx) || \
1286:../system/src/stm32l4-hal-driver/stm32l4xx_hal_flash_ex.c ****     defined (STM32L4P5xx) || defined (STM32L4Q5xx) || \
1287:../system/src/stm32l4-hal-driver/stm32l4xx_hal_flash_ex.c ****     defined (STM32L4R5xx) || defined (STM32L4R7xx) || defined (STM32L4R9xx) || defined (STM32L4S5xx
1288:../system/src/stm32l4-hal-driver/stm32l4xx_hal_flash_ex.c ****     else if(((*PCROPConfig) & FLASH_BANK_BOTH) == FLASH_BANK_2)
 275              		.loc 1 1288 0
 276 0032 022B     		cmp	r3, #2
 277 0034 2DD0     		beq	.L35
 278              	.LVL19:
 279              	.L30:
1289:../system/src/stm32l4-hal-driver/stm32l4xx_hal_flash_ex.c ****     {
1290:../system/src/stm32l4-hal-driver/stm32l4xx_hal_flash_ex.c ****       reg_value       = (READ_REG(FLASH->PCROP2SR) & FLASH_PCROP2SR_PCROP2_STRT);
1291:../system/src/stm32l4-hal-driver/stm32l4xx_hal_flash_ex.c ****       *PCROPStartAddr = (reg_value << 3) + bank2_addr;
1292:../system/src/stm32l4-hal-driver/stm32l4xx_hal_flash_ex.c **** 
1293:../system/src/stm32l4-hal-driver/stm32l4xx_hal_flash_ex.c ****       reg_value     = (READ_REG(FLASH->PCROP2ER) & FLASH_PCROP2ER_PCROP2_END);
1294:../system/src/stm32l4-hal-driver/stm32l4xx_hal_flash_ex.c ****       *PCROPEndAddr = (reg_value << 3) + bank2_addr + 0x7U;
1295:../system/src/stm32l4-hal-driver/stm32l4xx_hal_flash_ex.c ****     }
1296:../system/src/stm32l4-hal-driver/stm32l4xx_hal_flash_ex.c **** #endif
1297:../system/src/stm32l4-hal-driver/stm32l4xx_hal_flash_ex.c ****     else
1298:../system/src/stm32l4-hal-driver/stm32l4xx_hal_flash_ex.c ****     {
1299:../system/src/stm32l4-hal-driver/stm32l4xx_hal_flash_ex.c ****       /* Nothing to do */
1300:../system/src/stm32l4-hal-driver/stm32l4xx_hal_flash_ex.c ****     }
1301:../system/src/stm32l4-hal-driver/stm32l4xx_hal_flash_ex.c ****   }
1302:../system/src/stm32l4-hal-driver/stm32l4xx_hal_flash_ex.c **** 
1303:../system/src/stm32l4-hal-driver/stm32l4xx_hal_flash_ex.c ****   *PCROPConfig |= (READ_REG(FLASH->PCROP1ER) & FLASH_PCROP1ER_PCROP_RDP);
 280              		.loc 1 1303 0
 281 0036 214B     		ldr	r3, .L36+12
 282 0038 9A6A     		ldr	r2, [r3, #40]
 283              	.LVL20:
 284 003a 02F00042 		and	r2, r2, #-2147483648
 285 003e 0368     		ldr	r3, [r0]
 286 0040 1343     		orrs	r3, r3, r2
 287 0042 0360     		str	r3, [r0]
1304:../system/src/stm32l4-hal-driver/stm32l4xx_hal_flash_ex.c **** }
 288              		.loc 1 1304 0
 289 0044 70BC     		pop	{r4, r5, r6}
 290              		.cfi_remember_state
 291              		.cfi_restore 6
 292              		.cfi_restore 5
 293              		.cfi_restore 4
 294              		.cfi_def_cfa_offset 0
 295 0046 7047     		bx	lr
 296              	.LVL21:
 297              	.L27:
 298              		.cfi_restore_state
1242:../system/src/stm32l4-hal-driver/stm32l4xx_hal_flash_ex.c ****     bank2_addr = FLASH_BASE;
 299              		.loc 1 1242 0
 300 0048 1A4B     		ldr	r3, .L36+4
 301 004a 1B68     		ldr	r3, [r3]
 302 004c 9DB2     		uxth	r5, r3
 303 004e 4FF6FF74 		movw	r4, #65535
 304 0052 A542     		cmp	r5, r4
 305 0054 0BD0     		beq	.L32
1242:../system/src/stm32l4-hal-driver/stm32l4xx_hal_flash_ex.c ****     bank2_addr = FLASH_BASE;
 306              		.loc 1 1242 0 is_stmt 0 discriminator 1
 307 0056 184C     		ldr	r4, .L36+8
 308 0058 04EA4324 		and	r4, r4, r3, lsl #9
 309 005c 04F10064 		add	r4, r4, #134217728
1243:../system/src/stm32l4-hal-driver/stm32l4xx_hal_flash_ex.c ****   }
 310              		.loc 1 1243 0 is_stmt 1 discriminator 1
 311 0060 4FF00065 		mov	r5, #134217728
 312 0064 E0E7     		b	.L28
 313              	.LVL22:
 314              	.L31:
1238:../system/src/stm32l4-hal-driver/stm32l4xx_hal_flash_ex.c ****   }
 315              		.loc 1 1238 0
 316 0066 164D     		ldr	r5, .L36+16
1237:../system/src/stm32l4-hal-driver/stm32l4xx_hal_flash_ex.c ****     bank2_addr = FLASH_BASE + FLASH_BANK_SIZE;
 317              		.loc 1 1237 0
 318 0068 4FF00064 		mov	r4, #134217728
 319 006c DCE7     		b	.L28
 320              	.LVL23:
 321              	.L32:
1243:../system/src/stm32l4-hal-driver/stm32l4xx_hal_flash_ex.c ****   }
 322              		.loc 1 1243 0
 323 006e 4FF00065 		mov	r5, #134217728
1242:../system/src/stm32l4-hal-driver/stm32l4xx_hal_flash_ex.c ****     bank2_addr = FLASH_BASE;
 324              		.loc 1 1242 0
 325 0072 134C     		ldr	r4, .L36+16
 326 0074 D8E7     		b	.L28
 327              	.LVL24:
 328              	.L34:
1278:../system/src/stm32l4-hal-driver/stm32l4xx_hal_flash_ex.c ****       *PCROPStartAddr = (reg_value << 3) + bank1_addr;
 329              		.loc 1 1278 0
 330 0076 114E     		ldr	r6, .L36+12
 331 0078 756A     		ldr	r5, [r6, #36]
 332              	.LVL25:
1279:../system/src/stm32l4-hal-driver/stm32l4xx_hal_flash_ex.c **** 
 333              		.loc 1 1279 0
 334 007a 124B     		ldr	r3, .L36+20
 335 007c 03EAC505 		and	r5, r3, r5, lsl #3
 336              	.LVL26:
 337 0080 2544     		add	r5, r5, r4
 338 0082 0D60     		str	r5, [r1]
1281:../system/src/stm32l4-hal-driver/stm32l4xx_hal_flash_ex.c ****       *PCROPEndAddr = (reg_value << 3) + bank1_addr + 0x7U;
 339              		.loc 1 1281 0
 340 0084 B16A     		ldr	r1, [r6, #40]
 341              	.LVL27:
1282:../system/src/stm32l4-hal-driver/stm32l4xx_hal_flash_ex.c ****     }
 342              		.loc 1 1282 0
 343 0086 03EAC103 		and	r3, r3, r1, lsl #3
 344 008a 1C44     		add	r4, r4, r3
 345              	.LVL28:
 346 008c 0734     		adds	r4, r4, #7
 347 008e 1460     		str	r4, [r2]
 348 0090 D1E7     		b	.L30
 349              	.LVL29:
 350              	.L35:
1290:../system/src/stm32l4-hal-driver/stm32l4xx_hal_flash_ex.c ****       *PCROPStartAddr = (reg_value << 3) + bank2_addr;
 351              		.loc 1 1290 0
 352 0092 0A4E     		ldr	r6, .L36+12
 353 0094 746C     		ldr	r4, [r6, #68]
 354              	.LVL30:
1291:../system/src/stm32l4-hal-driver/stm32l4xx_hal_flash_ex.c **** 
 355              		.loc 1 1291 0
 356 0096 0B4B     		ldr	r3, .L36+20
 357 0098 03EAC404 		and	r4, r3, r4, lsl #3
 358              	.LVL31:
 359 009c 2C44     		add	r4, r4, r5
 360 009e 0C60     		str	r4, [r1]
1293:../system/src/stm32l4-hal-driver/stm32l4xx_hal_flash_ex.c ****       *PCROPEndAddr = (reg_value << 3) + bank2_addr + 0x7U;
 361              		.loc 1 1293 0
 362 00a0 B16C     		ldr	r1, [r6, #72]
 363              	.LVL32:
1294:../system/src/stm32l4-hal-driver/stm32l4xx_hal_flash_ex.c ****     }
 364              		.loc 1 1294 0
 365 00a2 03EAC103 		and	r3, r3, r1, lsl #3
 366 00a6 1D44     		add	r5, r5, r3
 367              	.LVL33:
 368 00a8 0735     		adds	r5, r5, #7
 369 00aa 1560     		str	r5, [r2]
 370 00ac C3E7     		b	.L30
 371              	.L37:
 372 00ae 00BF     		.align	2
 373              	.L36:
 374 00b0 00000140 		.word	1073807360
 375 00b4 E075FF1F 		.word	536835552
 376 00b8 00FEFF01 		.word	33553920
 377 00bc 00200240 		.word	1073881088
 378 00c0 00000808 		.word	134742016
 379 00c4 F8FF0700 		.word	524280
 380              		.cfi_endproc
 381              	.LFE331:
 383              		.section	.text.FLASH_OB_WRPConfig,"ax",%progbits
 384              		.align	1
 385              		.syntax unified
 386              		.thumb
 387              		.thumb_func
 388              		.fpu fpv4-sp-d16
 390              	FLASH_OB_WRPConfig:
 391              	.LFB324:
 658:../system/src/stm32l4-hal-driver/stm32l4xx_hal_flash_ex.c ****   HAL_StatusTypeDef status;
 392              		.loc 1 658 0
 393              		.cfi_startproc
 394              		@ args = 0, pretend = 0, frame = 0
 395              		@ frame_needed = 0, uses_anonymous_args = 0
 396              	.LVL34:
 397 0000 70B5     		push	{r4, r5, r6, lr}
 398              		.cfi_def_cfa_offset 16
 399              		.cfi_offset 4, -16
 400              		.cfi_offset 5, -12
 401              		.cfi_offset 6, -8
 402              		.cfi_offset 14, -4
 403 0002 0546     		mov	r5, r0
 404 0004 0C46     		mov	r4, r1
 405 0006 1646     		mov	r6, r2
 667:../system/src/stm32l4-hal-driver/stm32l4xx_hal_flash_ex.c **** 
 406              		.loc 1 667 0
 407 0008 4CF25030 		movw	r0, #50000
 408              	.LVL35:
 409 000c FFF7FEFF 		bl	FLASH_WaitForLastOperation
 410              	.LVL36:
 669:../system/src/stm32l4-hal-driver/stm32l4xx_hal_flash_ex.c ****   {
 411              		.loc 1 669 0
 412 0010 0346     		mov	r3, r0
 413 0012 B0B9     		cbnz	r0, .L39
 672:../system/src/stm32l4-hal-driver/stm32l4xx_hal_flash_ex.c ****     {
 414              		.loc 1 672 0
 415 0014 BDB9     		cbnz	r5, .L40
 674:../system/src/stm32l4-hal-driver/stm32l4xx_hal_flash_ex.c ****                  (WRPStartOffset | (WRDPEndOffset << 16)));
 416              		.loc 1 674 0
 417 0016 1C4A     		ldr	r2, .L47
 418 0018 D36A     		ldr	r3, [r2, #44]
 419 001a 03F0FF23 		and	r3, r3, #-16711936
 420 001e 44EA0644 		orr	r4, r4, r6, lsl #16
 421              	.LVL37:
 422 0022 1C43     		orrs	r4, r4, r3
 423 0024 D462     		str	r4, [r2, #44]
 424              	.L41:
 703:../system/src/stm32l4-hal-driver/stm32l4xx_hal_flash_ex.c **** 
 425              		.loc 1 703 0
 426 0026 184C     		ldr	r4, .L47
 427 0028 6369     		ldr	r3, [r4, #20]
 428 002a 43F40033 		orr	r3, r3, #131072
 429 002e 6361     		str	r3, [r4, #20]
 706:../system/src/stm32l4-hal-driver/stm32l4xx_hal_flash_ex.c **** 
 430              		.loc 1 706 0
 431 0030 4CF25030 		movw	r0, #50000
 432              	.LVL38:
 433 0034 FFF7FEFF 		bl	FLASH_WaitForLastOperation
 434              	.LVL39:
 435 0038 0346     		mov	r3, r0
 436              	.LVL40:
 709:../system/src/stm32l4-hal-driver/stm32l4xx_hal_flash_ex.c ****   }
 437              		.loc 1 709 0
 438 003a 6269     		ldr	r2, [r4, #20]
 439 003c 22F40032 		bic	r2, r2, #131072
 440 0040 6261     		str	r2, [r4, #20]
 441              	.LVL41:
 442              	.L39:
 713:../system/src/stm32l4-hal-driver/stm32l4xx_hal_flash_ex.c **** 
 443              		.loc 1 713 0
 444 0042 1846     		mov	r0, r3
 445 0044 70BD     		pop	{r4, r5, r6, pc}
 446              	.LVL42:
 447              	.L40:
 677:../system/src/stm32l4-hal-driver/stm32l4xx_hal_flash_ex.c ****     {
 448              		.loc 1 677 0
 449 0046 012D     		cmp	r5, #1
 450 0048 0CD0     		beq	.L45
 686:../system/src/stm32l4-hal-driver/stm32l4xx_hal_flash_ex.c ****     {
 451              		.loc 1 686 0
 452 004a 022D     		cmp	r5, #2
 453 004c 13D0     		beq	.L46
 691:../system/src/stm32l4-hal-driver/stm32l4xx_hal_flash_ex.c ****     {
 454              		.loc 1 691 0
 455 004e 042D     		cmp	r5, #4
 456 0050 E9D1     		bne	.L41
 693:../system/src/stm32l4-hal-driver/stm32l4xx_hal_flash_ex.c ****                  (WRPStartOffset | (WRDPEndOffset << 16)));
 457              		.loc 1 693 0
 458 0052 0D4A     		ldr	r2, .L47
 459 0054 136D     		ldr	r3, [r2, #80]
 460 0056 03F0FF23 		and	r3, r3, #-16711936
 461 005a 44EA0644 		orr	r4, r4, r6, lsl #16
 462              	.LVL43:
 463 005e 1C43     		orrs	r4, r4, r3
 464 0060 1465     		str	r4, [r2, #80]
 465 0062 E0E7     		b	.L41
 466              	.LVL44:
 467              	.L45:
 679:../system/src/stm32l4-hal-driver/stm32l4xx_hal_flash_ex.c ****                  (WRPStartOffset | (WRDPEndOffset << 16)));
 468              		.loc 1 679 0
 469 0064 084A     		ldr	r2, .L47
 470 0066 136B     		ldr	r3, [r2, #48]
 471 0068 03F0FF23 		and	r3, r3, #-16711936
 472 006c 44EA0644 		orr	r4, r4, r6, lsl #16
 473              	.LVL45:
 474 0070 1C43     		orrs	r4, r4, r3
 475 0072 1463     		str	r4, [r2, #48]
 476 0074 D7E7     		b	.L41
 477              	.LVL46:
 478              	.L46:
 688:../system/src/stm32l4-hal-driver/stm32l4xx_hal_flash_ex.c ****                  (WRPStartOffset | (WRDPEndOffset << 16)));
 479              		.loc 1 688 0
 480 0076 044A     		ldr	r2, .L47
 481 0078 D36C     		ldr	r3, [r2, #76]
 482 007a 03F0FF23 		and	r3, r3, #-16711936
 483 007e 44EA0644 		orr	r4, r4, r6, lsl #16
 484              	.LVL47:
 485 0082 1C43     		orrs	r4, r4, r3
 486 0084 D464     		str	r4, [r2, #76]
 487 0086 CEE7     		b	.L41
 488              	.L48:
 489              		.align	2
 490              	.L47:
 491 0088 00200240 		.word	1073881088
 492              		.cfi_endproc
 493              	.LFE324:
 495              		.section	.text.FLASH_OB_RDPConfig,"ax",%progbits
 496              		.align	1
 497              		.syntax unified
 498              		.thumb
 499              		.thumb_func
 500              		.fpu fpv4-sp-d16
 502              	FLASH_OB_RDPConfig:
 503              	.LFB325:
 734:../system/src/stm32l4-hal-driver/stm32l4xx_hal_flash_ex.c ****   HAL_StatusTypeDef status;
 504              		.loc 1 734 0
 505              		.cfi_startproc
 506              		@ args = 0, pretend = 0, frame = 0
 507              		@ frame_needed = 0, uses_anonymous_args = 0
 508              	.LVL48:
 509 0000 38B5     		push	{r3, r4, r5, lr}
 510              		.cfi_def_cfa_offset 16
 511              		.cfi_offset 3, -16
 512              		.cfi_offset 4, -12
 513              		.cfi_offset 5, -8
 514              		.cfi_offset 14, -4
 515 0002 0546     		mov	r5, r0
 741:../system/src/stm32l4-hal-driver/stm32l4xx_hal_flash_ex.c **** 
 516              		.loc 1 741 0
 517 0004 4CF25030 		movw	r0, #50000
 518              	.LVL49:
 519 0008 FFF7FEFF 		bl	FLASH_WaitForLastOperation
 520              	.LVL50:
 743:../system/src/stm32l4-hal-driver/stm32l4xx_hal_flash_ex.c ****   {
 521              		.loc 1 743 0
 522 000c 0346     		mov	r3, r0
 523 000e 08B1     		cbz	r0, .L52
 524              	.LVL51:
 525              	.L50:
 759:../system/src/stm32l4-hal-driver/stm32l4xx_hal_flash_ex.c **** 
 526              		.loc 1 759 0
 527 0010 1846     		mov	r0, r3
 528 0012 38BD     		pop	{r3, r4, r5, pc}
 529              	.LVL52:
 530              	.L52:
 746:../system/src/stm32l4-hal-driver/stm32l4xx_hal_flash_ex.c **** 
 531              		.loc 1 746 0
 532 0014 094C     		ldr	r4, .L53
 533 0016 206A     		ldr	r0, [r4, #32]
 534              	.LVL53:
 535 0018 20F0FF00 		bic	r0, r0, #255
 536 001c 2843     		orrs	r0, r0, r5
 537 001e 2062     		str	r0, [r4, #32]
 749:../system/src/stm32l4-hal-driver/stm32l4xx_hal_flash_ex.c **** 
 538              		.loc 1 749 0
 539 0020 6369     		ldr	r3, [r4, #20]
 540 0022 43F40033 		orr	r3, r3, #131072
 541 0026 6361     		str	r3, [r4, #20]
 752:../system/src/stm32l4-hal-driver/stm32l4xx_hal_flash_ex.c **** 
 542              		.loc 1 752 0
 543 0028 4CF25030 		movw	r0, #50000
 544 002c FFF7FEFF 		bl	FLASH_WaitForLastOperation
 545              	.LVL54:
 546 0030 0346     		mov	r3, r0
 547              	.LVL55:
 755:../system/src/stm32l4-hal-driver/stm32l4xx_hal_flash_ex.c ****   }
 548              		.loc 1 755 0
 549 0032 6269     		ldr	r2, [r4, #20]
 550 0034 22F40032 		bic	r2, r2, #131072
 551 0038 6261     		str	r2, [r4, #20]
 552 003a E9E7     		b	.L50
 553              	.L54:
 554              		.align	2
 555              	.L53:
 556 003c 00200240 		.word	1073881088
 557              		.cfi_endproc
 558              	.LFE325:
 560              		.section	.text.FLASH_OB_UserConfig,"ax",%progbits
 561              		.align	1
 562              		.syntax unified
 563              		.thumb
 564              		.thumb_func
 565              		.fpu fpv4-sp-d16
 567              	FLASH_OB_UserConfig:
 568              	.LFB326:
 778:../system/src/stm32l4-hal-driver/stm32l4xx_hal_flash_ex.c ****   uint32_t optr_reg_val = 0;
 569              		.loc 1 778 0
 570              		.cfi_startproc
 571              		@ args = 0, pretend = 0, frame = 0
 572              		@ frame_needed = 0, uses_anonymous_args = 0
 573              	.LVL56:
 574 0000 38B5     		push	{r3, r4, r5, lr}
 575              		.cfi_def_cfa_offset 16
 576              		.cfi_offset 3, -16
 577              		.cfi_offset 4, -12
 578              		.cfi_offset 5, -8
 579              		.cfi_offset 14, -4
 580 0002 0446     		mov	r4, r0
 581 0004 0D46     		mov	r5, r1
 582              	.LVL57:
 787:../system/src/stm32l4-hal-driver/stm32l4xx_hal_flash_ex.c **** 
 583              		.loc 1 787 0
 584 0006 4CF25030 		movw	r0, #50000
 585              	.LVL58:
 586 000a FFF7FEFF 		bl	FLASH_WaitForLastOperation
 587              	.LVL59:
 789:../system/src/stm32l4-hal-driver/stm32l4xx_hal_flash_ex.c ****   {
 588              		.loc 1 789 0
 589 000e 0346     		mov	r3, r0
 590 0010 0028     		cmp	r0, #0
 591 0012 79D1     		bne	.L56
 791:../system/src/stm32l4-hal-driver/stm32l4xx_hal_flash_ex.c ****     {
 592              		.loc 1 791 0
 593 0014 14F0010F 		tst	r4, #1
 594 0018 78D0     		beq	.L70
 797:../system/src/stm32l4-hal-driver/stm32l4xx_hal_flash_ex.c ****       optr_reg_mask |= FLASH_OPTR_BOR_LEV;
 595              		.loc 1 797 0
 596 001a 05F4E062 		and	r2, r5, #1792
 597              	.LVL60:
 798:../system/src/stm32l4-hal-driver/stm32l4xx_hal_flash_ex.c ****     }
 598              		.loc 1 798 0
 599 001e 4FF4E063 		mov	r3, #1792
 600              	.LVL61:
 601              	.L57:
 801:../system/src/stm32l4-hal-driver/stm32l4xx_hal_flash_ex.c ****     {
 602              		.loc 1 801 0
 603 0022 14F0020F 		tst	r4, #2
 604 0026 04D0     		beq	.L58
 807:../system/src/stm32l4-hal-driver/stm32l4xx_hal_flash_ex.c ****       optr_reg_mask |= FLASH_OPTR_nRST_STOP;
 605              		.loc 1 807 0
 606 0028 05F48051 		and	r1, r5, #4096
 607 002c 0A43     		orrs	r2, r2, r1
 608              	.LVL62:
 808:../system/src/stm32l4-hal-driver/stm32l4xx_hal_flash_ex.c ****     }
 609              		.loc 1 808 0
 610 002e 43F48053 		orr	r3, r3, #4096
 611              	.LVL63:
 612              	.L58:
 811:../system/src/stm32l4-hal-driver/stm32l4xx_hal_flash_ex.c ****     {
 613              		.loc 1 811 0
 614 0032 14F0040F 		tst	r4, #4
 615 0036 04D0     		beq	.L59
 817:../system/src/stm32l4-hal-driver/stm32l4xx_hal_flash_ex.c ****       optr_reg_mask |= FLASH_OPTR_nRST_STDBY;
 616              		.loc 1 817 0
 617 0038 05F40051 		and	r1, r5, #8192
 618 003c 0A43     		orrs	r2, r2, r1
 619              	.LVL64:
 818:../system/src/stm32l4-hal-driver/stm32l4xx_hal_flash_ex.c ****     }
 620              		.loc 1 818 0
 621 003e 43F40053 		orr	r3, r3, #8192
 622              	.LVL65:
 623              	.L59:
 821:../system/src/stm32l4-hal-driver/stm32l4xx_hal_flash_ex.c ****     {
 624              		.loc 1 821 0
 625 0042 14F4805F 		tst	r4, #4096
 626 0046 04D0     		beq	.L60
 827:../system/src/stm32l4-hal-driver/stm32l4xx_hal_flash_ex.c ****       optr_reg_mask |= FLASH_OPTR_nRST_SHDW;
 627              		.loc 1 827 0
 628 0048 05F48041 		and	r1, r5, #16384
 629 004c 0A43     		orrs	r2, r2, r1
 630              	.LVL66:
 828:../system/src/stm32l4-hal-driver/stm32l4xx_hal_flash_ex.c ****     }
 631              		.loc 1 828 0
 632 004e 43F48043 		orr	r3, r3, #16384
 633              	.LVL67:
 634              	.L60:
 831:../system/src/stm32l4-hal-driver/stm32l4xx_hal_flash_ex.c ****     {
 635              		.loc 1 831 0
 636 0052 14F0080F 		tst	r4, #8
 637 0056 04D0     		beq	.L61
 837:../system/src/stm32l4-hal-driver/stm32l4xx_hal_flash_ex.c ****       optr_reg_mask |= FLASH_OPTR_IWDG_SW;
 638              		.loc 1 837 0
 639 0058 05F48031 		and	r1, r5, #65536
 640 005c 0A43     		orrs	r2, r2, r1
 641              	.LVL68:
 838:../system/src/stm32l4-hal-driver/stm32l4xx_hal_flash_ex.c ****     }
 642              		.loc 1 838 0
 643 005e 43F48033 		orr	r3, r3, #65536
 644              	.LVL69:
 645              	.L61:
 841:../system/src/stm32l4-hal-driver/stm32l4xx_hal_flash_ex.c ****     {
 646              		.loc 1 841 0
 647 0062 14F0100F 		tst	r4, #16
 648 0066 04D0     		beq	.L62
 847:../system/src/stm32l4-hal-driver/stm32l4xx_hal_flash_ex.c ****       optr_reg_mask |= FLASH_OPTR_IWDG_STOP;
 649              		.loc 1 847 0
 650 0068 05F40031 		and	r1, r5, #131072
 651 006c 0A43     		orrs	r2, r2, r1
 652              	.LVL70:
 848:../system/src/stm32l4-hal-driver/stm32l4xx_hal_flash_ex.c ****     }
 653              		.loc 1 848 0
 654 006e 43F40033 		orr	r3, r3, #131072
 655              	.LVL71:
 656              	.L62:
 851:../system/src/stm32l4-hal-driver/stm32l4xx_hal_flash_ex.c ****     {
 657              		.loc 1 851 0
 658 0072 14F0200F 		tst	r4, #32
 659 0076 04D0     		beq	.L63
 857:../system/src/stm32l4-hal-driver/stm32l4xx_hal_flash_ex.c ****       optr_reg_mask |= FLASH_OPTR_IWDG_STDBY;
 660              		.loc 1 857 0
 661 0078 05F48021 		and	r1, r5, #262144
 662 007c 0A43     		orrs	r2, r2, r1
 663              	.LVL72:
 858:../system/src/stm32l4-hal-driver/stm32l4xx_hal_flash_ex.c ****     }
 664              		.loc 1 858 0
 665 007e 43F48023 		orr	r3, r3, #262144
 666              	.LVL73:
 667              	.L63:
 861:../system/src/stm32l4-hal-driver/stm32l4xx_hal_flash_ex.c ****     {
 668              		.loc 1 861 0
 669 0082 14F0400F 		tst	r4, #64
 670 0086 04D0     		beq	.L64
 867:../system/src/stm32l4-hal-driver/stm32l4xx_hal_flash_ex.c ****       optr_reg_mask |= FLASH_OPTR_WWDG_SW;
 671              		.loc 1 867 0
 672 0088 05F40021 		and	r1, r5, #524288
 673 008c 0A43     		orrs	r2, r2, r1
 674              	.LVL74:
 868:../system/src/stm32l4-hal-driver/stm32l4xx_hal_flash_ex.c ****     }
 675              		.loc 1 868 0
 676 008e 43F40023 		orr	r3, r3, #524288
 677              	.LVL75:
 678              	.L64:
 875:../system/src/stm32l4-hal-driver/stm32l4xx_hal_flash_ex.c ****     {
 679              		.loc 1 875 0
 680 0092 14F0800F 		tst	r4, #128
 681 0096 04D0     		beq	.L65
 881:../system/src/stm32l4-hal-driver/stm32l4xx_hal_flash_ex.c ****       optr_reg_mask |= FLASH_OPTR_BFB2;
 682              		.loc 1 881 0
 683 0098 05F48011 		and	r1, r5, #1048576
 684 009c 0A43     		orrs	r2, r2, r1
 685              	.LVL76:
 882:../system/src/stm32l4-hal-driver/stm32l4xx_hal_flash_ex.c ****     }
 686              		.loc 1 882 0
 687 009e 43F48013 		orr	r3, r3, #1048576
 688              	.LVL77:
 689              	.L65:
 885:../system/src/stm32l4-hal-driver/stm32l4xx_hal_flash_ex.c ****     {
 690              		.loc 1 885 0
 691 00a2 14F4807F 		tst	r4, #256
 692 00a6 04D0     		beq	.L66
 899:../system/src/stm32l4-hal-driver/stm32l4xx_hal_flash_ex.c ****       optr_reg_mask |= FLASH_OPTR_DUALBANK;
 693              		.loc 1 899 0
 694 00a8 05F40011 		and	r1, r5, #2097152
 695 00ac 0A43     		orrs	r2, r2, r1
 696              	.LVL78:
 900:../system/src/stm32l4-hal-driver/stm32l4xx_hal_flash_ex.c **** #endif
 697              		.loc 1 900 0
 698 00ae 43F40013 		orr	r3, r3, #2097152
 699              	.LVL79:
 700              	.L66:
 905:../system/src/stm32l4-hal-driver/stm32l4xx_hal_flash_ex.c ****     {
 701              		.loc 1 905 0
 702 00b2 14F4007F 		tst	r4, #512
 703 00b6 04D0     		beq	.L67
 911:../system/src/stm32l4-hal-driver/stm32l4xx_hal_flash_ex.c ****       optr_reg_mask |= FLASH_OPTR_nBOOT1;
 704              		.loc 1 911 0
 705 00b8 05F40001 		and	r1, r5, #8388608
 706 00bc 0A43     		orrs	r2, r2, r1
 707              	.LVL80:
 912:../system/src/stm32l4-hal-driver/stm32l4xx_hal_flash_ex.c ****     }
 708              		.loc 1 912 0
 709 00be 43F40003 		orr	r3, r3, #8388608
 710              	.LVL81:
 711              	.L67:
 915:../system/src/stm32l4-hal-driver/stm32l4xx_hal_flash_ex.c ****     {
 712              		.loc 1 915 0
 713 00c2 14F4806F 		tst	r4, #1024
 714 00c6 04D0     		beq	.L68
 921:../system/src/stm32l4-hal-driver/stm32l4xx_hal_flash_ex.c ****       optr_reg_mask |= FLASH_OPTR_SRAM2_PE;
 715              		.loc 1 921 0
 716 00c8 05F08071 		and	r1, r5, #16777216
 717 00cc 0A43     		orrs	r2, r2, r1
 718              	.LVL82:
 922:../system/src/stm32l4-hal-driver/stm32l4xx_hal_flash_ex.c ****     }
 719              		.loc 1 922 0
 720 00ce 43F08073 		orr	r3, r3, #16777216
 721              	.LVL83:
 722              	.L68:
 925:../system/src/stm32l4-hal-driver/stm32l4xx_hal_flash_ex.c ****     {
 723              		.loc 1 925 0
 724 00d2 14F4006F 		tst	r4, #2048
 725 00d6 04D0     		beq	.L69
 931:../system/src/stm32l4-hal-driver/stm32l4xx_hal_flash_ex.c ****       optr_reg_mask |= FLASH_OPTR_SRAM2_RST;
 726              		.loc 1 931 0
 727 00d8 05F00075 		and	r5, r5, #33554432
 728              	.LVL84:
 729 00dc 2A43     		orrs	r2, r2, r5
 730              	.LVL85:
 932:../system/src/stm32l4-hal-driver/stm32l4xx_hal_flash_ex.c ****     }
 731              		.loc 1 932 0
 732 00de 43F00073 		orr	r3, r3, #33554432
 733              	.LVL86:
 734              	.L69:
 962:../system/src/stm32l4-hal-driver/stm32l4xx_hal_flash_ex.c **** 
 735              		.loc 1 962 0
 736 00e2 0C4C     		ldr	r4, .L72
 737              	.LVL87:
 738 00e4 216A     		ldr	r1, [r4, #32]
 739 00e6 21EA0303 		bic	r3, r1, r3
 740              	.LVL88:
 741 00ea 1A43     		orrs	r2, r2, r3
 742              	.LVL89:
 743 00ec 2262     		str	r2, [r4, #32]
 965:../system/src/stm32l4-hal-driver/stm32l4xx_hal_flash_ex.c **** 
 744              		.loc 1 965 0
 745 00ee 6369     		ldr	r3, [r4, #20]
 746 00f0 43F40033 		orr	r3, r3, #131072
 747 00f4 6361     		str	r3, [r4, #20]
 968:../system/src/stm32l4-hal-driver/stm32l4xx_hal_flash_ex.c **** 
 748              		.loc 1 968 0
 749 00f6 4CF25030 		movw	r0, #50000
 750              	.LVL90:
 751 00fa FFF7FEFF 		bl	FLASH_WaitForLastOperation
 752              	.LVL91:
 753 00fe 0346     		mov	r3, r0
 754              	.LVL92:
 971:../system/src/stm32l4-hal-driver/stm32l4xx_hal_flash_ex.c ****   }
 755              		.loc 1 971 0
 756 0100 6269     		ldr	r2, [r4, #20]
 757 0102 22F40032 		bic	r2, r2, #131072
 758 0106 6261     		str	r2, [r4, #20]
 759              	.LVL93:
 760              	.L56:
 975:../system/src/stm32l4-hal-driver/stm32l4xx_hal_flash_ex.c **** 
 761              		.loc 1 975 0
 762 0108 1846     		mov	r0, r3
 763 010a 38BD     		pop	{r3, r4, r5, pc}
 764              	.LVL94:
 765              	.L70:
 780:../system/src/stm32l4-hal-driver/stm32l4xx_hal_flash_ex.c ****   HAL_StatusTypeDef status;
 766              		.loc 1 780 0
 767 010c 0023     		movs	r3, #0
 779:../system/src/stm32l4-hal-driver/stm32l4xx_hal_flash_ex.c ****   uint32_t optr_reg_mask = 0;
 768              		.loc 1 779 0
 769 010e 1A46     		mov	r2, r3
 770 0110 87E7     		b	.L57
 771              	.L73:
 772 0112 00BF     		.align	2
 773              	.L72:
 774 0114 00200240 		.word	1073881088
 775              		.cfi_endproc
 776              	.LFE326:
 778              		.section	.text.FLASH_OB_PCROPConfig,"ax",%progbits
 779              		.align	1
 780              		.syntax unified
 781              		.thumb
 782              		.thumb_func
 783              		.fpu fpv4-sp-d16
 785              	FLASH_OB_PCROPConfig:
 786              	.LFB327:
 998:../system/src/stm32l4-hal-driver/stm32l4xx_hal_flash_ex.c ****   HAL_StatusTypeDef status;
 787              		.loc 1 998 0
 788              		.cfi_startproc
 789              		@ args = 0, pretend = 0, frame = 0
 790              		@ frame_needed = 0, uses_anonymous_args = 0
 791              	.LVL95:
 792 0000 70B5     		push	{r4, r5, r6, lr}
 793              		.cfi_def_cfa_offset 16
 794              		.cfi_offset 4, -16
 795              		.cfi_offset 5, -12
 796              		.cfi_offset 6, -8
 797              		.cfi_offset 14, -4
 798 0002 0546     		mov	r5, r0
 799 0004 0C46     		mov	r4, r1
 800 0006 1646     		mov	r6, r2
1016:../system/src/stm32l4-hal-driver/stm32l4xx_hal_flash_ex.c **** 
 801              		.loc 1 1016 0
 802 0008 4CF25030 		movw	r0, #50000
 803              	.LVL96:
 804 000c FFF7FEFF 		bl	FLASH_WaitForLastOperation
 805              	.LVL97:
1018:../system/src/stm32l4-hal-driver/stm32l4xx_hal_flash_ex.c ****   {
 806              		.loc 1 1018 0
 807 0010 0346     		mov	r3, r0
 808 0012 68BB     		cbnz	r0, .L75
1025:../system/src/stm32l4-hal-driver/stm32l4xx_hal_flash_ex.c ****     {
 809              		.loc 1 1025 0
 810 0014 334B     		ldr	r3, .L85
 811 0016 1B68     		ldr	r3, [r3]
 812 0018 13F4807F 		tst	r3, #256
 813 001c 2AD1     		bne	.L76
 814              	.LVL98:
1028:../system/src/stm32l4-hal-driver/stm32l4xx_hal_flash_ex.c ****     }
 815              		.loc 1 1028 0
 816 001e 324B     		ldr	r3, .L85+4
 817 0020 1B68     		ldr	r3, [r3]
 818 0022 99B2     		uxth	r1, r3
 819 0024 4FF6FF72 		movw	r2, #65535
 820 0028 9142     		cmp	r1, r2
 821 002a 32D0     		beq	.L80
1028:../system/src/stm32l4-hal-driver/stm32l4xx_hal_flash_ex.c ****     }
 822              		.loc 1 1028 0 is_stmt 0 discriminator 1
 823 002c 2F4A     		ldr	r2, .L85+8
 824 002e 02EA4322 		and	r2, r2, r3, lsl #9
 825 0032 02F10063 		add	r3, r2, #134217728
1027:../system/src/stm32l4-hal-driver/stm32l4xx_hal_flash_ex.c ****       bank2_addr = FLASH_BASE + FLASH_BANK_SIZE;
 826              		.loc 1 1027 0 is_stmt 1 discriminator 1
 827 0036 4FF00062 		mov	r2, #134217728
 828              	.LVL99:
 829              	.L77:
1068:../system/src/stm32l4-hal-driver/stm32l4xx_hal_flash_ex.c ****       {
 830              		.loc 1 1068 0
 831 003a 05F00301 		and	r1, r5, #3
 832 003e 0129     		cmp	r1, #1
 833 0040 2FD0     		beq	.L83
1080:../system/src/stm32l4-hal-driver/stm32l4xx_hal_flash_ex.c ****       {
 834              		.loc 1 1080 0
 835 0042 0229     		cmp	r1, #2
 836 0044 3DD0     		beq	.L84
 837              	.LVL100:
 838              	.L79:
1095:../system/src/stm32l4-hal-driver/stm32l4xx_hal_flash_ex.c **** 
 839              		.loc 1 1095 0
 840 0046 2A4C     		ldr	r4, .L85+12
 841 0048 A06A     		ldr	r0, [r4, #40]
 842              	.LVL101:
 843 004a 20F00040 		bic	r0, r0, #-2147483648
 844 004e 05F00045 		and	r5, r5, #-2147483648
 845              	.LVL102:
 846 0052 2843     		orrs	r0, r0, r5
 847 0054 A062     		str	r0, [r4, #40]
1098:../system/src/stm32l4-hal-driver/stm32l4xx_hal_flash_ex.c **** 
 848              		.loc 1 1098 0
 849 0056 6369     		ldr	r3, [r4, #20]
 850 0058 43F40033 		orr	r3, r3, #131072
 851 005c 6361     		str	r3, [r4, #20]
1101:../system/src/stm32l4-hal-driver/stm32l4xx_hal_flash_ex.c **** 
 852              		.loc 1 1101 0
 853 005e 4CF25030 		movw	r0, #50000
 854 0062 FFF7FEFF 		bl	FLASH_WaitForLastOperation
 855              	.LVL103:
 856 0066 0346     		mov	r3, r0
 857              	.LVL104:
1104:../system/src/stm32l4-hal-driver/stm32l4xx_hal_flash_ex.c ****   }
 858              		.loc 1 1104 0
 859 0068 6269     		ldr	r2, [r4, #20]
 860 006a 22F40032 		bic	r2, r2, #131072
 861 006e 6261     		str	r2, [r4, #20]
 862              	.LVL105:
 863              	.L75:
1108:../system/src/stm32l4-hal-driver/stm32l4xx_hal_flash_ex.c **** 
 864              		.loc 1 1108 0
 865 0070 1846     		mov	r0, r3
 866 0072 70BD     		pop	{r4, r5, r6, pc}
 867              	.LVL106:
 868              	.L76:
1032:../system/src/stm32l4-hal-driver/stm32l4xx_hal_flash_ex.c ****       bank2_addr = FLASH_BASE;
 869              		.loc 1 1032 0
 870 0074 1C4B     		ldr	r3, .L85+4
 871 0076 1B68     		ldr	r3, [r3]
 872 0078 99B2     		uxth	r1, r3
 873 007a 4FF6FF72 		movw	r2, #65535
 874 007e 9142     		cmp	r1, r2
 875 0080 0BD0     		beq	.L81
1032:../system/src/stm32l4-hal-driver/stm32l4xx_hal_flash_ex.c ****       bank2_addr = FLASH_BASE;
 876              		.loc 1 1032 0 is_stmt 0 discriminator 1
 877 0082 1A4A     		ldr	r2, .L85+8
 878 0084 02EA4322 		and	r2, r2, r3, lsl #9
 879 0088 02F10062 		add	r2, r2, #134217728
1033:../system/src/stm32l4-hal-driver/stm32l4xx_hal_flash_ex.c ****     }
 880              		.loc 1 1033 0 is_stmt 1 discriminator 1
 881 008c 4FF00063 		mov	r3, #134217728
 882 0090 D3E7     		b	.L77
 883              	.LVL107:
 884              	.L80:
1028:../system/src/stm32l4-hal-driver/stm32l4xx_hal_flash_ex.c ****     }
 885              		.loc 1 1028 0
 886 0092 184B     		ldr	r3, .L85+16
1027:../system/src/stm32l4-hal-driver/stm32l4xx_hal_flash_ex.c ****       bank2_addr = FLASH_BASE + FLASH_BANK_SIZE;
 887              		.loc 1 1027 0
 888 0094 4FF00062 		mov	r2, #134217728
 889 0098 CFE7     		b	.L77
 890              	.LVL108:
 891              	.L81:
1033:../system/src/stm32l4-hal-driver/stm32l4xx_hal_flash_ex.c ****     }
 892              		.loc 1 1033 0
 893 009a 4FF00063 		mov	r3, #134217728
1032:../system/src/stm32l4-hal-driver/stm32l4xx_hal_flash_ex.c ****       bank2_addr = FLASH_BASE;
 894              		.loc 1 1032 0
 895 009e 154A     		ldr	r2, .L85+16
 896 00a0 CBE7     		b	.L77
 897              	.LVL109:
 898              	.L83:
1070:../system/src/stm32l4-hal-driver/stm32l4xx_hal_flash_ex.c ****         MODIFY_REG(FLASH->PCROP1SR, FLASH_PCROP1SR_PCROP1_STRT, reg_value);
 899              		.loc 1 1070 0
 900 00a2 A41A     		subs	r4, r4, r2
 901              	.LVL110:
1071:../system/src/stm32l4-hal-driver/stm32l4xx_hal_flash_ex.c **** 
 902              		.loc 1 1071 0
 903 00a4 1249     		ldr	r1, .L85+12
 904 00a6 4B6A     		ldr	r3, [r1, #36]
 905              	.LVL111:
 906 00a8 1B0C     		lsrs	r3, r3, #16
 907 00aa 1B04     		lsls	r3, r3, #16
 908 00ac 43EAD403 		orr	r3, r3, r4, lsr #3
 909 00b0 4B62     		str	r3, [r1, #36]
1073:../system/src/stm32l4-hal-driver/stm32l4xx_hal_flash_ex.c ****         MODIFY_REG(FLASH->PCROP1ER, FLASH_PCROP1ER_PCROP1_END, reg_value);
 910              		.loc 1 1073 0
 911 00b2 B21A     		subs	r2, r6, r2
 912              	.LVL112:
1074:../system/src/stm32l4-hal-driver/stm32l4xx_hal_flash_ex.c ****       }
 913              		.loc 1 1074 0
 914 00b4 8B6A     		ldr	r3, [r1, #40]
 915 00b6 1B0C     		lsrs	r3, r3, #16
 916 00b8 1B04     		lsls	r3, r3, #16
 917 00ba 43EAD202 		orr	r2, r3, r2, lsr #3
 918              	.LVL113:
 919 00be 8A62     		str	r2, [r1, #40]
 920 00c0 C1E7     		b	.L79
 921              	.LVL114:
 922              	.L84:
1082:../system/src/stm32l4-hal-driver/stm32l4xx_hal_flash_ex.c ****         MODIFY_REG(FLASH->PCROP2SR, FLASH_PCROP2SR_PCROP2_STRT, reg_value);
 923              		.loc 1 1082 0
 924 00c2 E41A     		subs	r4, r4, r3
 925              	.LVL115:
1083:../system/src/stm32l4-hal-driver/stm32l4xx_hal_flash_ex.c **** 
 926              		.loc 1 1083 0
 927 00c4 0A49     		ldr	r1, .L85+12
 928 00c6 4A6C     		ldr	r2, [r1, #68]
 929              	.LVL116:
 930 00c8 120C     		lsrs	r2, r2, #16
 931 00ca 1204     		lsls	r2, r2, #16
 932 00cc 42EAD404 		orr	r4, r2, r4, lsr #3
 933              	.LVL117:
 934 00d0 4C64     		str	r4, [r1, #68]
1085:../system/src/stm32l4-hal-driver/stm32l4xx_hal_flash_ex.c ****         MODIFY_REG(FLASH->PCROP2ER, FLASH_PCROP2ER_PCROP2_END, reg_value);
 935              		.loc 1 1085 0
 936 00d2 F21A     		subs	r2, r6, r3
 937              	.LVL118:
1086:../system/src/stm32l4-hal-driver/stm32l4xx_hal_flash_ex.c ****       }
 938              		.loc 1 1086 0
 939 00d4 8B6C     		ldr	r3, [r1, #72]
 940              	.LVL119:
 941 00d6 1B0C     		lsrs	r3, r3, #16
 942 00d8 1B04     		lsls	r3, r3, #16
 943 00da 43EAD202 		orr	r2, r3, r2, lsr #3
 944              	.LVL120:
 945 00de 8A64     		str	r2, [r1, #72]
 946 00e0 B1E7     		b	.L79
 947              	.L86:
 948 00e2 00BF     		.align	2
 949              	.L85:
 950 00e4 00000140 		.word	1073807360
 951 00e8 E075FF1F 		.word	536835552
 952 00ec 00FEFF01 		.word	33553920
 953 00f0 00200240 		.word	1073881088
 954 00f4 00000808 		.word	134742016
 955              		.cfi_endproc
 956              	.LFE327:
 958              		.section	.text.HAL_FLASHEx_OBProgram,"ax",%progbits
 959              		.align	1
 960              		.global	HAL_FLASHEx_OBProgram
 961              		.syntax unified
 962              		.thumb
 963              		.thumb_func
 964              		.fpu fpv4-sp-d16
 966              	HAL_FLASHEx_OBProgram:
 967              	.LFB319:
 306:../system/src/stm32l4-hal-driver/stm32l4xx_hal_flash_ex.c ****   HAL_StatusTypeDef status = HAL_OK;
 968              		.loc 1 306 0
 969              		.cfi_startproc
 970              		@ args = 0, pretend = 0, frame = 0
 971              		@ frame_needed = 0, uses_anonymous_args = 0
 972              	.LVL121:
 973 0000 38B5     		push	{r3, r4, r5, lr}
 974              		.cfi_def_cfa_offset 16
 975              		.cfi_offset 3, -16
 976              		.cfi_offset 4, -12
 977              		.cfi_offset 5, -8
 978              		.cfi_offset 14, -4
 979              	.LVL122:
 310:../system/src/stm32l4-hal-driver/stm32l4xx_hal_flash_ex.c **** 
 980              		.loc 1 310 0
 981 0002 234B     		ldr	r3, .L104
 982 0004 1B78     		ldrb	r3, [r3]	@ zero_extendqisi2
 983 0006 012B     		cmp	r3, #1
 984 0008 3FD0     		beq	.L93
 985 000a 0446     		mov	r4, r0
 310:../system/src/stm32l4-hal-driver/stm32l4xx_hal_flash_ex.c **** 
 986              		.loc 1 310 0 is_stmt 0 discriminator 2
 987 000c 204B     		ldr	r3, .L104
 988 000e 0122     		movs	r2, #1
 989 0010 1A70     		strb	r2, [r3]
 315:../system/src/stm32l4-hal-driver/stm32l4xx_hal_flash_ex.c **** 
 990              		.loc 1 315 0 is_stmt 1 discriminator 2
 991 0012 0022     		movs	r2, #0
 992 0014 5A60     		str	r2, [r3, #4]
 318:../system/src/stm32l4-hal-driver/stm32l4xx_hal_flash_ex.c ****   {
 993              		.loc 1 318 0 discriminator 2
 994 0016 0368     		ldr	r3, [r0]
 995 0018 13F0010F 		tst	r3, #1
 996 001c 15D1     		bne	.L100
 307:../system/src/stm32l4-hal-driver/stm32l4xx_hal_flash_ex.c **** 
 997              		.loc 1 307 0
 998 001e 0025     		movs	r5, #0
 999              	.LVL123:
 1000              	.L89:
 329:../system/src/stm32l4-hal-driver/stm32l4xx_hal_flash_ex.c ****   {
 1001              		.loc 1 329 0
 1002 0020 2368     		ldr	r3, [r4]
 1003 0022 13F0020F 		tst	r3, #2
 1004 0026 1AD1     		bne	.L101
 1005              	.LVL124:
 1006              	.L90:
 339:../system/src/stm32l4-hal-driver/stm32l4xx_hal_flash_ex.c ****   {
 1007              		.loc 1 339 0
 1008 0028 2368     		ldr	r3, [r4]
 1009 002a 13F0040F 		tst	r3, #4
 1010 002e 1DD1     		bne	.L102
 1011              	.LVL125:
 1012              	.L91:
 349:../system/src/stm32l4-hal-driver/stm32l4xx_hal_flash_ex.c ****   {
 1013              		.loc 1 349 0
 1014 0030 2368     		ldr	r3, [r4]
 1015 0032 13F0080F 		tst	r3, #8
 1016 0036 03D0     		beq	.L92
 351:../system/src/stm32l4-hal-driver/stm32l4xx_hal_flash_ex.c ****     {
 1017              		.loc 1 351 0
 1018 0038 216A     		ldr	r1, [r4, #32]
 1019 003a 626A     		ldr	r2, [r4, #36]
 1020 003c 9142     		cmp	r1, r2
 1021 003e 1DD1     		bne	.L103
 1022              	.LVL126:
 1023              	.L92:
 362:../system/src/stm32l4-hal-driver/stm32l4xx_hal_flash_ex.c **** 
 1024              		.loc 1 362 0
 1025 0040 134B     		ldr	r3, .L104
 1026 0042 0022     		movs	r2, #0
 1027 0044 1A70     		strb	r2, [r3]
 1028              	.LVL127:
 1029              	.L88:
 365:../system/src/stm32l4-hal-driver/stm32l4xx_hal_flash_ex.c **** 
 1030              		.loc 1 365 0
 1031 0046 2846     		mov	r0, r5
 1032 0048 38BD     		pop	{r3, r4, r5, pc}
 1033              	.LVL128:
 1034              	.L100:
 321:../system/src/stm32l4-hal-driver/stm32l4xx_hal_flash_ex.c ****     {
 1035              		.loc 1 321 0
 1036 004a C268     		ldr	r2, [r0, #12]
 1037 004c 8168     		ldr	r1, [r0, #8]
 1038 004e 4068     		ldr	r0, [r0, #4]
 1039              	.LVL129:
 1040 0050 FFF7FEFF 		bl	FLASH_OB_WRPConfig
 1041              	.LVL130:
 1042 0054 0546     		mov	r5, r0
 1043 0056 0028     		cmp	r0, #0
 1044 0058 E2D0     		beq	.L89
 323:../system/src/stm32l4-hal-driver/stm32l4xx_hal_flash_ex.c ****     }
 1045              		.loc 1 323 0
 1046 005a 0125     		movs	r5, #1
 1047 005c E0E7     		b	.L89
 1048              	.LVL131:
 1049              	.L101:
 332:../system/src/stm32l4-hal-driver/stm32l4xx_hal_flash_ex.c ****     {
 1050              		.loc 1 332 0
 1051 005e 2069     		ldr	r0, [r4, #16]
 1052 0060 FFF7FEFF 		bl	FLASH_OB_RDPConfig
 1053              	.LVL132:
 1054 0064 0028     		cmp	r0, #0
 1055 0066 DFD0     		beq	.L90
 334:../system/src/stm32l4-hal-driver/stm32l4xx_hal_flash_ex.c ****     }
 1056              		.loc 1 334 0
 1057 0068 0125     		movs	r5, #1
 1058              	.LVL133:
 1059 006a DDE7     		b	.L90
 1060              	.LVL134:
 1061              	.L102:
 342:../system/src/stm32l4-hal-driver/stm32l4xx_hal_flash_ex.c ****     {
 1062              		.loc 1 342 0
 1063 006c A169     		ldr	r1, [r4, #24]
 1064 006e 6069     		ldr	r0, [r4, #20]
 1065 0070 FFF7FEFF 		bl	FLASH_OB_UserConfig
 1066              	.LVL135:
 1067 0074 0028     		cmp	r0, #0
 1068 0076 DBD0     		beq	.L91
 344:../system/src/stm32l4-hal-driver/stm32l4xx_hal_flash_ex.c ****     }
 1069              		.loc 1 344 0
 1070 0078 0125     		movs	r5, #1
 1071              	.LVL136:
 1072 007a D9E7     		b	.L91
 1073              	.LVL137:
 1074              	.L103:
 354:../system/src/stm32l4-hal-driver/stm32l4xx_hal_flash_ex.c ****       {
 1075              		.loc 1 354 0
 1076 007c E069     		ldr	r0, [r4, #28]
 1077 007e FFF7FEFF 		bl	FLASH_OB_PCROPConfig
 1078              	.LVL138:
 1079 0082 0028     		cmp	r0, #0
 1080 0084 DCD0     		beq	.L92
 356:../system/src/stm32l4-hal-driver/stm32l4xx_hal_flash_ex.c ****       }
 1081              		.loc 1 356 0
 1082 0086 0125     		movs	r5, #1
 1083              	.LVL139:
 1084 0088 DAE7     		b	.L92
 1085              	.LVL140:
 1086              	.L93:
 310:../system/src/stm32l4-hal-driver/stm32l4xx_hal_flash_ex.c **** 
 1087              		.loc 1 310 0
 1088 008a 0225     		movs	r5, #2
 1089 008c DBE7     		b	.L88
 1090              	.L105:
 1091 008e 00BF     		.align	2
 1092              	.L104:
 1093 0090 00000000 		.word	pFlash
 1094              		.cfi_endproc
 1095              	.LFE319:
 1097              		.section	.text.HAL_FLASHEx_OBGetConfig,"ax",%progbits
 1098              		.align	1
 1099              		.global	HAL_FLASHEx_OBGetConfig
 1100              		.syntax unified
 1101              		.thumb
 1102              		.thumb_func
 1103              		.fpu fpv4-sp-d16
 1105              	HAL_FLASHEx_OBGetConfig:
 1106              	.LFB320:
 377:../system/src/stm32l4-hal-driver/stm32l4xx_hal_flash_ex.c ****   pOBInit->OptionType = (OPTIONBYTE_RDP | OPTIONBYTE_USER);
 1107              		.loc 1 377 0
 1108              		.cfi_startproc
 1109              		@ args = 0, pretend = 0, frame = 0
 1110              		@ frame_needed = 0, uses_anonymous_args = 0
 1111              	.LVL141:
 1112 0000 10B5     		push	{r4, lr}
 1113              		.cfi_def_cfa_offset 8
 1114              		.cfi_offset 4, -8
 1115              		.cfi_offset 14, -4
 1116 0002 0446     		mov	r4, r0
 378:../system/src/stm32l4-hal-driver/stm32l4xx_hal_flash_ex.c **** 
 1117              		.loc 1 378 0
 1118 0004 0623     		movs	r3, #6
 1119 0006 0360     		str	r3, [r0]
 384:../system/src/stm32l4-hal-driver/stm32l4xx_hal_flash_ex.c ****      (pOBInit->WRPArea == OB_WRPAREA_BANK2_AREAA) || (pOBInit->WRPArea == OB_WRPAREA_BANK2_AREAB))
 1120              		.loc 1 384 0
 1121 0008 4068     		ldr	r0, [r0, #4]
 1122              	.LVL142:
 1123 000a 0228     		cmp	r0, #2
 1124 000c 01D9     		bls	.L107
 385:../system/src/stm32l4-hal-driver/stm32l4xx_hal_flash_ex.c **** #else
 1125              		.loc 1 385 0
 1126 000e 0428     		cmp	r0, #4
 1127 0010 07D1     		bne	.L108
 1128              	.L107:
 390:../system/src/stm32l4-hal-driver/stm32l4xx_hal_flash_ex.c ****     /* Get write protection on the selected area */
 1129              		.loc 1 390 0
 1130 0012 2246     		mov	r2, r4
 1131 0014 0723     		movs	r3, #7
 1132 0016 42F80C3B 		str	r3, [r2], #12
 392:../system/src/stm32l4-hal-driver/stm32l4xx_hal_flash_ex.c ****   }
 1133              		.loc 1 392 0
 1134 001a 04F10801 		add	r1, r4, #8
 1135 001e FFF7FEFF 		bl	FLASH_OB_GetWRP
 1136              	.LVL143:
 1137              	.L108:
 396:../system/src/stm32l4-hal-driver/stm32l4xx_hal_flash_ex.c **** 
 1138              		.loc 1 396 0
 1139 0022 FFF7FEFF 		bl	FLASH_OB_GetRDP
 1140              	.LVL144:
 1141 0026 2061     		str	r0, [r4, #16]
 399:../system/src/stm32l4-hal-driver/stm32l4xx_hal_flash_ex.c **** 
 1142              		.loc 1 399 0
 1143 0028 FFF7FEFF 		bl	FLASH_OB_GetUser
 1144              	.LVL145:
 1145 002c A061     		str	r0, [r4, #24]
 405:../system/src/stm32l4-hal-driver/stm32l4xx_hal_flash_ex.c **** #else
 1146              		.loc 1 405 0
 1147 002e E369     		ldr	r3, [r4, #28]
 1148 0030 013B     		subs	r3, r3, #1
 1149 0032 012B     		cmp	r3, #1
 1150 0034 00D9     		bls	.L111
 1151              	.L106:
 414:../system/src/stm32l4-hal-driver/stm32l4xx_hal_flash_ex.c **** 
 1152              		.loc 1 414 0
 1153 0036 10BD     		pop	{r4, pc}
 1154              	.LVL146:
 1155              	.L111:
 410:../system/src/stm32l4-hal-driver/stm32l4xx_hal_flash_ex.c ****     /* Get the Proprietary code readout protection */
 1156              		.loc 1 410 0
 1157 0038 2368     		ldr	r3, [r4]
 1158 003a 43F00803 		orr	r3, r3, #8
 1159 003e 2246     		mov	r2, r4
 1160 0040 42F8243B 		str	r3, [r2], #36
 412:../system/src/stm32l4-hal-driver/stm32l4xx_hal_flash_ex.c ****   }
 1161              		.loc 1 412 0
 1162 0044 04F12001 		add	r1, r4, #32
 1163 0048 04F11C00 		add	r0, r4, #28
 1164 004c FFF7FEFF 		bl	FLASH_OB_GetPCROP
 1165              	.LVL147:
 414:../system/src/stm32l4-hal-driver/stm32l4xx_hal_flash_ex.c **** 
 1166              		.loc 1 414 0
 1167 0050 F1E7     		b	.L106
 1168              		.cfi_endproc
 1169              	.LFE320:
 1171              		.section	.text.FLASH_PageErase,"ax",%progbits
 1172              		.align	1
 1173              		.global	FLASH_PageErase
 1174              		.syntax unified
 1175              		.thumb
 1176              		.thumb_func
 1177              		.fpu fpv4-sp-d16
 1179              	FLASH_PageErase:
 1180              	.LFB322:
 560:../system/src/stm32l4-hal-driver/stm32l4xx_hal_flash_ex.c ****   /* Check the parameters */
 1181              		.loc 1 560 0
 1182              		.cfi_startproc
 1183              		@ args = 0, pretend = 0, frame = 0
 1184              		@ frame_needed = 0, uses_anonymous_args = 0
 1185              		@ link register save eliminated.
 1186              	.LVL148:
 578:../system/src/stm32l4-hal-driver/stm32l4xx_hal_flash_ex.c ****     {
 1187              		.loc 1 578 0
 1188 0000 11F0010F 		tst	r1, #1
 1189 0004 16D1     		bne	.L115
 584:../system/src/stm32l4-hal-driver/stm32l4xx_hal_flash_ex.c ****     }
 1190              		.loc 1 584 0
 1191 0006 0E4A     		ldr	r2, .L116
 1192 0008 5369     		ldr	r3, [r2, #20]
 1193 000a 43F40063 		orr	r3, r3, #2048
 1194 000e 5361     		str	r3, [r2, #20]
 1195              	.L114:
 593:../system/src/stm32l4-hal-driver/stm32l4xx_hal_flash_ex.c ****   SET_BIT(FLASH->CR, FLASH_CR_PER);
 1196              		.loc 1 593 0
 1197 0010 0B4B     		ldr	r3, .L116
 1198 0012 5A69     		ldr	r2, [r3, #20]
 1199 0014 22F4FF62 		bic	r2, r2, #2040
 1200 0018 C000     		lsls	r0, r0, #3
 1201              	.LVL149:
 1202 001a 00F4FF60 		and	r0, r0, #2040
 1203 001e 1043     		orrs	r0, r0, r2
 1204 0020 5861     		str	r0, [r3, #20]
 594:../system/src/stm32l4-hal-driver/stm32l4xx_hal_flash_ex.c ****   SET_BIT(FLASH->CR, FLASH_CR_STRT);
 1205              		.loc 1 594 0
 1206 0022 5A69     		ldr	r2, [r3, #20]
 1207 0024 42F00202 		orr	r2, r2, #2
 1208 0028 5A61     		str	r2, [r3, #20]
 595:../system/src/stm32l4-hal-driver/stm32l4xx_hal_flash_ex.c **** }
 1209              		.loc 1 595 0
 1210 002a 5A69     		ldr	r2, [r3, #20]
 1211 002c 42F48032 		orr	r2, r2, #65536
 1212 0030 5A61     		str	r2, [r3, #20]
 596:../system/src/stm32l4-hal-driver/stm32l4xx_hal_flash_ex.c **** 
 1213              		.loc 1 596 0
 1214 0032 7047     		bx	lr
 1215              	.LVL150:
 1216              	.L115:
 580:../system/src/stm32l4-hal-driver/stm32l4xx_hal_flash_ex.c ****     }
 1217              		.loc 1 580 0
 1218 0034 024A     		ldr	r2, .L116
 1219 0036 5369     		ldr	r3, [r2, #20]
 1220 0038 23F40063 		bic	r3, r3, #2048
 1221 003c 5361     		str	r3, [r2, #20]
 1222 003e E7E7     		b	.L114
 1223              	.L117:
 1224              		.align	2
 1225              	.L116:
 1226 0040 00200240 		.word	1073881088
 1227              		.cfi_endproc
 1228              	.LFE322:
 1230              		.section	.text.HAL_FLASHEx_Erase_IT,"ax",%progbits
 1231              		.align	1
 1232              		.global	HAL_FLASHEx_Erase_IT
 1233              		.syntax unified
 1234              		.thumb
 1235              		.thumb_func
 1236              		.fpu fpv4-sp-d16
 1238              	HAL_FLASHEx_Erase_IT:
 1239              	.LFB318:
 234:../system/src/stm32l4-hal-driver/stm32l4xx_hal_flash_ex.c ****   HAL_StatusTypeDef status = HAL_OK;
 1240              		.loc 1 234 0
 1241              		.cfi_startproc
 1242              		@ args = 0, pretend = 0, frame = 0
 1243              		@ frame_needed = 0, uses_anonymous_args = 0
 1244              	.LVL151:
 1245 0000 08B5     		push	{r3, lr}
 1246              		.cfi_def_cfa_offset 8
 1247              		.cfi_offset 3, -8
 1248              		.cfi_offset 14, -4
 1249              	.LVL152:
 238:../system/src/stm32l4-hal-driver/stm32l4xx_hal_flash_ex.c **** 
 1250              		.loc 1 238 0
 1251 0002 2B4B     		ldr	r3, .L128
 1252 0004 1B78     		ldrb	r3, [r3]	@ zero_extendqisi2
 1253 0006 012B     		cmp	r3, #1
 1254 0008 50D0     		beq	.L125
 238:../system/src/stm32l4-hal-driver/stm32l4xx_hal_flash_ex.c **** 
 1255              		.loc 1 238 0 is_stmt 0 discriminator 2
 1256 000a 294B     		ldr	r3, .L128
 1257 000c 0122     		movs	r2, #1
 1258 000e 1A70     		strb	r2, [r3]
 243:../system/src/stm32l4-hal-driver/stm32l4xx_hal_flash_ex.c **** 
 1259              		.loc 1 243 0 is_stmt 1 discriminator 2
 1260 0010 0022     		movs	r2, #0
 1261 0012 5A60     		str	r2, [r3, #4]
 246:../system/src/stm32l4-hal-driver/stm32l4xx_hal_flash_ex.c ****   {
 1262              		.loc 1 246 0 discriminator 2
 1263 0014 274B     		ldr	r3, .L128+4
 1264 0016 1B68     		ldr	r3, [r3]
 1265 0018 13F4007F 		tst	r3, #512
 1266 001c 2CD0     		beq	.L120
 249:../system/src/stm32l4-hal-driver/stm32l4xx_hal_flash_ex.c **** 
 1267              		.loc 1 249 0
 1268 001e 254B     		ldr	r3, .L128+4
 1269 0020 1A68     		ldr	r2, [r3]
 1270 0022 22F40072 		bic	r2, r2, #512
 1271 0026 1A60     		str	r2, [r3]
 251:../system/src/stm32l4-hal-driver/stm32l4xx_hal_flash_ex.c ****     {
 1272              		.loc 1 251 0
 1273 0028 1B68     		ldr	r3, [r3]
 1274 002a 13F4806F 		tst	r3, #1024
 1275 002e 1FD0     		beq	.L121
 254:../system/src/stm32l4-hal-driver/stm32l4xx_hal_flash_ex.c ****       pFlash.CacheToReactivate = FLASH_CACHE_ICACHE_DCACHE_ENABLED;
 1276              		.loc 1 254 0
 1277 0030 204A     		ldr	r2, .L128+4
 1278 0032 1368     		ldr	r3, [r2]
 1279 0034 23F48063 		bic	r3, r3, #1024
 1280 0038 1360     		str	r3, [r2]
 255:../system/src/stm32l4-hal-driver/stm32l4xx_hal_flash_ex.c ****     }
 1281              		.loc 1 255 0
 1282 003a 1D4B     		ldr	r3, .L128
 1283 003c 0322     		movs	r2, #3
 1284 003e 1A77     		strb	r2, [r3, #28]
 1285              	.L122:
 274:../system/src/stm32l4-hal-driver/stm32l4xx_hal_flash_ex.c **** 
 1286              		.loc 1 274 0 discriminator 4
 1287 0040 1C4A     		ldr	r2, .L128+4
 1288 0042 5369     		ldr	r3, [r2, #20]
 1289 0044 43F04073 		orr	r3, r3, #50331648
 1290 0048 5361     		str	r3, [r2, #20]
 276:../system/src/stm32l4-hal-driver/stm32l4xx_hal_flash_ex.c **** 
 1291              		.loc 1 276 0 discriminator 4
 1292 004a 4268     		ldr	r2, [r0, #4]
 1293 004c 184B     		ldr	r3, .L128
 1294 004e 1A61     		str	r2, [r3, #16]
 278:../system/src/stm32l4-hal-driver/stm32l4xx_hal_flash_ex.c ****   {
 1295              		.loc 1 278 0 discriminator 4
 1296 0050 0368     		ldr	r3, [r0]
 1297 0052 012B     		cmp	r3, #1
 1298 0054 22D0     		beq	.L127
 287:../system/src/stm32l4-hal-driver/stm32l4xx_hal_flash_ex.c ****     pFlash.NbPagesToErase = pEraseInit->NbPages;
 1299              		.loc 1 287 0
 1300 0056 164B     		ldr	r3, .L128
 1301 0058 0122     		movs	r2, #1
 1302 005a 1A72     		strb	r2, [r3, #8]
 288:../system/src/stm32l4-hal-driver/stm32l4xx_hal_flash_ex.c ****     pFlash.Page = pEraseInit->Page;
 1303              		.loc 1 288 0
 1304 005c C268     		ldr	r2, [r0, #12]
 1305 005e 9A61     		str	r2, [r3, #24]
 289:../system/src/stm32l4-hal-driver/stm32l4xx_hal_flash_ex.c **** 
 1306              		.loc 1 289 0
 1307 0060 8268     		ldr	r2, [r0, #8]
 1308 0062 5A61     		str	r2, [r3, #20]
 292:../system/src/stm32l4-hal-driver/stm32l4xx_hal_flash_ex.c ****   }
 1309              		.loc 1 292 0
 1310 0064 4168     		ldr	r1, [r0, #4]
 1311 0066 8068     		ldr	r0, [r0, #8]
 1312              	.LVL153:
 1313 0068 FFF7FEFF 		bl	FLASH_PageErase
 1314              	.LVL154:
 295:../system/src/stm32l4-hal-driver/stm32l4xx_hal_flash_ex.c **** }
 1315              		.loc 1 295 0
 1316 006c 0020     		movs	r0, #0
 1317              	.L119:
 296:../system/src/stm32l4-hal-driver/stm32l4xx_hal_flash_ex.c **** 
 1318              		.loc 1 296 0
 1319 006e 08BD     		pop	{r3, pc}
 1320              	.LVL155:
 1321              	.L121:
 259:../system/src/stm32l4-hal-driver/stm32l4xx_hal_flash_ex.c ****     }
 1322              		.loc 1 259 0
 1323 0070 0F4B     		ldr	r3, .L128
 1324 0072 0122     		movs	r2, #1
 1325 0074 1A77     		strb	r2, [r3, #28]
 1326 0076 E3E7     		b	.L122
 1327              	.L120:
 262:../system/src/stm32l4-hal-driver/stm32l4xx_hal_flash_ex.c ****   {
 1328              		.loc 1 262 0
 1329 0078 0E4B     		ldr	r3, .L128+4
 1330 007a 1B68     		ldr	r3, [r3]
 1331 007c 13F4806F 		tst	r3, #1024
 1332 0080 08D0     		beq	.L123
 265:../system/src/stm32l4-hal-driver/stm32l4xx_hal_flash_ex.c ****     pFlash.CacheToReactivate = FLASH_CACHE_DCACHE_ENABLED;
 1333              		.loc 1 265 0
 1334 0082 0C4A     		ldr	r2, .L128+4
 1335 0084 1368     		ldr	r3, [r2]
 1336 0086 23F48063 		bic	r3, r3, #1024
 1337 008a 1360     		str	r3, [r2]
 266:../system/src/stm32l4-hal-driver/stm32l4xx_hal_flash_ex.c ****   }
 1338              		.loc 1 266 0
 1339 008c 084B     		ldr	r3, .L128
 1340 008e 0222     		movs	r2, #2
 1341 0090 1A77     		strb	r2, [r3, #28]
 1342 0092 D5E7     		b	.L122
 1343              	.L123:
 270:../system/src/stm32l4-hal-driver/stm32l4xx_hal_flash_ex.c ****   }
 1344              		.loc 1 270 0
 1345 0094 064B     		ldr	r3, .L128
 1346 0096 0022     		movs	r2, #0
 1347 0098 1A77     		strb	r2, [r3, #28]
 1348 009a D1E7     		b	.L122
 1349              	.L127:
 281:../system/src/stm32l4-hal-driver/stm32l4xx_hal_flash_ex.c ****     FLASH_MassErase(pEraseInit->Banks);
 1350              		.loc 1 281 0
 1351 009c 044B     		ldr	r3, .L128
 1352 009e 0222     		movs	r2, #2
 1353 00a0 1A72     		strb	r2, [r3, #8]
 282:../system/src/stm32l4-hal-driver/stm32l4xx_hal_flash_ex.c ****   }
 1354              		.loc 1 282 0
 1355 00a2 4068     		ldr	r0, [r0, #4]
 1356              	.LVL156:
 1357 00a4 FFF7FEFF 		bl	FLASH_MassErase
 1358              	.LVL157:
 295:../system/src/stm32l4-hal-driver/stm32l4xx_hal_flash_ex.c **** }
 1359              		.loc 1 295 0
 1360 00a8 0020     		movs	r0, #0
 1361 00aa E0E7     		b	.L119
 1362              	.LVL158:
 1363              	.L125:
 238:../system/src/stm32l4-hal-driver/stm32l4xx_hal_flash_ex.c **** 
 1364              		.loc 1 238 0
 1365 00ac 0220     		movs	r0, #2
 1366              	.LVL159:
 1367 00ae DEE7     		b	.L119
 1368              	.L129:
 1369              		.align	2
 1370              	.L128:
 1371 00b0 00000000 		.word	pFlash
 1372 00b4 00200240 		.word	1073881088
 1373              		.cfi_endproc
 1374              	.LFE318:
 1376              		.section	.text.FLASH_FlushCaches,"ax",%progbits
 1377              		.align	1
 1378              		.global	FLASH_FlushCaches
 1379              		.syntax unified
 1380              		.thumb
 1381              		.thumb_func
 1382              		.fpu fpv4-sp-d16
 1384              	FLASH_FlushCaches:
 1385              	.LFB323:
 603:../system/src/stm32l4-hal-driver/stm32l4xx_hal_flash_ex.c ****   FLASH_CacheTypeDef cache = pFlash.CacheToReactivate;
 1386              		.loc 1 603 0
 1387              		.cfi_startproc
 1388              		@ args = 0, pretend = 0, frame = 0
 1389              		@ frame_needed = 0, uses_anonymous_args = 0
 1390              		@ link register save eliminated.
 604:../system/src/stm32l4-hal-driver/stm32l4xx_hal_flash_ex.c **** 
 1391              		.loc 1 604 0
 1392 0000 144B     		ldr	r3, .L135
 1393 0002 1B7F     		ldrb	r3, [r3, #28]	@ zero_extendqisi2
 1394 0004 DBB2     		uxtb	r3, r3
 1395              	.LVL160:
 607:../system/src/stm32l4-hal-driver/stm32l4xx_hal_flash_ex.c ****      (cache == FLASH_CACHE_ICACHE_DCACHE_ENABLED))
 1396              		.loc 1 607 0
 1397 0006 012B     		cmp	r3, #1
 1398 0008 01D0     		beq	.L131
 607:../system/src/stm32l4-hal-driver/stm32l4xx_hal_flash_ex.c ****      (cache == FLASH_CACHE_ICACHE_DCACHE_ENABLED))
 1399              		.loc 1 607 0 is_stmt 0 discriminator 1
 1400 000a 032B     		cmp	r3, #3
 1401 000c 0CD1     		bne	.L132
 1402              	.L131:
 611:../system/src/stm32l4-hal-driver/stm32l4xx_hal_flash_ex.c ****     /* Enable instruction cache */
 1403              		.loc 1 611 0 is_stmt 1
 1404 000e 124A     		ldr	r2, .L135+4
 1405 0010 1168     		ldr	r1, [r2]
 1406 0012 41F40061 		orr	r1, r1, #2048
 1407 0016 1160     		str	r1, [r2]
 1408 0018 1168     		ldr	r1, [r2]
 1409 001a 21F40061 		bic	r1, r1, #2048
 1410 001e 1160     		str	r1, [r2]
 613:../system/src/stm32l4-hal-driver/stm32l4xx_hal_flash_ex.c ****   }
 1411              		.loc 1 613 0
 1412 0020 1168     		ldr	r1, [r2]
 1413 0022 41F40071 		orr	r1, r1, #512
 1414 0026 1160     		str	r1, [r2]
 1415              	.L132:
 617:../system/src/stm32l4-hal-driver/stm32l4xx_hal_flash_ex.c ****      (cache == FLASH_CACHE_ICACHE_DCACHE_ENABLED))
 1416              		.loc 1 617 0
 1417 0028 023B     		subs	r3, r3, #2
 1418              	.LVL161:
 1419 002a DBB2     		uxtb	r3, r3
 1420              	.LVL162:
 1421 002c 012B     		cmp	r3, #1
 1422 002e 03D9     		bls	.L134
 1423              	.L133:
 627:../system/src/stm32l4-hal-driver/stm32l4xx_hal_flash_ex.c **** }
 1424              		.loc 1 627 0
 1425 0030 084B     		ldr	r3, .L135
 1426 0032 0022     		movs	r2, #0
 1427 0034 1A77     		strb	r2, [r3, #28]
 628:../system/src/stm32l4-hal-driver/stm32l4xx_hal_flash_ex.c **** 
 1428              		.loc 1 628 0
 1429 0036 7047     		bx	lr
 1430              	.L134:
 621:../system/src/stm32l4-hal-driver/stm32l4xx_hal_flash_ex.c ****     /* Enable data cache */
 1431              		.loc 1 621 0
 1432 0038 074B     		ldr	r3, .L135+4
 1433 003a 1A68     		ldr	r2, [r3]
 1434 003c 42F48052 		orr	r2, r2, #4096
 1435 0040 1A60     		str	r2, [r3]
 1436 0042 1A68     		ldr	r2, [r3]
 1437 0044 22F48052 		bic	r2, r2, #4096
 1438 0048 1A60     		str	r2, [r3]
 623:../system/src/stm32l4-hal-driver/stm32l4xx_hal_flash_ex.c ****   }
 1439              		.loc 1 623 0
 1440 004a 1A68     		ldr	r2, [r3]
 1441 004c 42F48062 		orr	r2, r2, #1024
 1442 0050 1A60     		str	r2, [r3]
 1443 0052 EDE7     		b	.L133
 1444              	.L136:
 1445              		.align	2
 1446              	.L135:
 1447 0054 00000000 		.word	pFlash
 1448 0058 00200240 		.word	1073881088
 1449              		.cfi_endproc
 1450              	.LFE323:
 1452              		.section	.text.HAL_FLASHEx_Erase,"ax",%progbits
 1453              		.align	1
 1454              		.global	HAL_FLASHEx_Erase
 1455              		.syntax unified
 1456              		.thumb
 1457              		.thumb_func
 1458              		.fpu fpv4-sp-d16
 1460              	HAL_FLASHEx_Erase:
 1461              	.LFB317:
 128:../system/src/stm32l4-hal-driver/stm32l4xx_hal_flash_ex.c ****   HAL_StatusTypeDef status;
 1462              		.loc 1 128 0
 1463              		.cfi_startproc
 1464              		@ args = 0, pretend = 0, frame = 0
 1465              		@ frame_needed = 0, uses_anonymous_args = 0
 1466              	.LVL163:
 1467 0000 F8B5     		push	{r3, r4, r5, r6, r7, lr}
 1468              		.cfi_def_cfa_offset 24
 1469              		.cfi_offset 3, -24
 1470              		.cfi_offset 4, -20
 1471              		.cfi_offset 5, -16
 1472              		.cfi_offset 6, -12
 1473              		.cfi_offset 7, -8
 1474              		.cfi_offset 14, -4
 133:../system/src/stm32l4-hal-driver/stm32l4xx_hal_flash_ex.c **** 
 1475              		.loc 1 133 0
 1476 0002 3C4B     		ldr	r3, .L153
 1477 0004 1B78     		ldrb	r3, [r3]	@ zero_extendqisi2
 1478 0006 012B     		cmp	r3, #1
 1479 0008 71D0     		beq	.L149
 1480 000a 0E46     		mov	r6, r1
 1481 000c 0446     		mov	r4, r0
 133:../system/src/stm32l4-hal-driver/stm32l4xx_hal_flash_ex.c **** 
 1482              		.loc 1 133 0 is_stmt 0 discriminator 2
 1483 000e 394B     		ldr	r3, .L153
 1484 0010 0122     		movs	r2, #1
 1485 0012 1A70     		strb	r2, [r3]
 139:../system/src/stm32l4-hal-driver/stm32l4xx_hal_flash_ex.c **** 
 1486              		.loc 1 139 0 is_stmt 1 discriminator 2
 1487 0014 4CF25030 		movw	r0, #50000
 1488              	.LVL164:
 1489 0018 FFF7FEFF 		bl	FLASH_WaitForLastOperation
 1490              	.LVL165:
 141:../system/src/stm32l4-hal-driver/stm32l4xx_hal_flash_ex.c ****   {
 1491              		.loc 1 141 0 discriminator 2
 1492 001c 0746     		mov	r7, r0
 1493 001e 0028     		cmp	r0, #0
 1494 0020 60D1     		bne	.L139
 143:../system/src/stm32l4-hal-driver/stm32l4xx_hal_flash_ex.c **** 
 1495              		.loc 1 143 0
 1496 0022 344B     		ldr	r3, .L153
 1497 0024 0022     		movs	r2, #0
 1498 0026 5A60     		str	r2, [r3, #4]
 146:../system/src/stm32l4-hal-driver/stm32l4xx_hal_flash_ex.c ****     {
 1499              		.loc 1 146 0
 1500 0028 334B     		ldr	r3, .L153+4
 1501 002a 1B68     		ldr	r3, [r3]
 1502 002c 13F4007F 		tst	r3, #512
 1503 0030 33D0     		beq	.L140
 149:../system/src/stm32l4-hal-driver/stm32l4xx_hal_flash_ex.c **** 
 1504              		.loc 1 149 0
 1505 0032 314B     		ldr	r3, .L153+4
 1506 0034 1A68     		ldr	r2, [r3]
 1507 0036 22F40072 		bic	r2, r2, #512
 1508 003a 1A60     		str	r2, [r3]
 151:../system/src/stm32l4-hal-driver/stm32l4xx_hal_flash_ex.c ****       {
 1509              		.loc 1 151 0
 1510 003c 1B68     		ldr	r3, [r3]
 1511 003e 13F4806F 		tst	r3, #1024
 1512 0042 26D0     		beq	.L141
 154:../system/src/stm32l4-hal-driver/stm32l4xx_hal_flash_ex.c ****         pFlash.CacheToReactivate = FLASH_CACHE_ICACHE_DCACHE_ENABLED;
 1513              		.loc 1 154 0
 1514 0044 2C4A     		ldr	r2, .L153+4
 1515 0046 1368     		ldr	r3, [r2]
 1516 0048 23F48063 		bic	r3, r3, #1024
 1517 004c 1360     		str	r3, [r2]
 155:../system/src/stm32l4-hal-driver/stm32l4xx_hal_flash_ex.c ****       }
 1518              		.loc 1 155 0
 1519 004e 294B     		ldr	r3, .L153
 1520 0050 0322     		movs	r2, #3
 1521 0052 1A77     		strb	r2, [r3, #28]
 1522              	.L142:
 173:../system/src/stm32l4-hal-driver/stm32l4xx_hal_flash_ex.c ****     {
 1523              		.loc 1 173 0
 1524 0054 2368     		ldr	r3, [r4]
 1525 0056 012B     		cmp	r3, #1
 1526 0058 31D0     		beq	.L151
 195:../system/src/stm32l4-hal-driver/stm32l4xx_hal_flash_ex.c **** 
 1527              		.loc 1 195 0
 1528 005a 4FF0FF33 		mov	r3, #-1
 1529 005e 3360     		str	r3, [r6]
 197:../system/src/stm32l4-hal-driver/stm32l4xx_hal_flash_ex.c ****       {
 1530              		.loc 1 197 0
 1531 0060 A568     		ldr	r5, [r4, #8]
 1532              	.LVL166:
 1533              	.L146:
 197:../system/src/stm32l4-hal-driver/stm32l4xx_hal_flash_ex.c ****       {
 1534              		.loc 1 197 0 is_stmt 0 discriminator 1
 1535 0062 A368     		ldr	r3, [r4, #8]
 1536 0064 E268     		ldr	r2, [r4, #12]
 1537 0066 1344     		add	r3, r3, r2
 1538 0068 AB42     		cmp	r3, r5
 1539 006a 39D9     		bls	.L145
 199:../system/src/stm32l4-hal-driver/stm32l4xx_hal_flash_ex.c **** 
 1540              		.loc 1 199 0 is_stmt 1
 1541 006c 6168     		ldr	r1, [r4, #4]
 1542 006e 2846     		mov	r0, r5
 1543 0070 FFF7FEFF 		bl	FLASH_PageErase
 1544              	.LVL167:
 202:../system/src/stm32l4-hal-driver/stm32l4xx_hal_flash_ex.c **** 
 1545              		.loc 1 202 0
 1546 0074 4CF25030 		movw	r0, #50000
 1547 0078 FFF7FEFF 		bl	FLASH_WaitForLastOperation
 1548              	.LVL168:
 205:../system/src/stm32l4-hal-driver/stm32l4xx_hal_flash_ex.c **** 
 1549              		.loc 1 205 0
 1550 007c 1E4A     		ldr	r2, .L153+4
 1551 007e 5369     		ldr	r3, [r2, #20]
 1552 0080 23F4FF63 		bic	r3, r3, #2040
 1553 0084 23F00203 		bic	r3, r3, #2
 1554 0088 5361     		str	r3, [r2, #20]
 207:../system/src/stm32l4-hal-driver/stm32l4xx_hal_flash_ex.c ****         {
 1555              		.loc 1 207 0
 1556 008a 0746     		mov	r7, r0
 1557 008c 38BB     		cbnz	r0, .L152
 197:../system/src/stm32l4-hal-driver/stm32l4xx_hal_flash_ex.c ****       {
 1558              		.loc 1 197 0 discriminator 2
 1559 008e 0135     		adds	r5, r5, #1
 1560              	.LVL169:
 1561 0090 E7E7     		b	.L146
 1562              	.LVL170:
 1563              	.L141:
 159:../system/src/stm32l4-hal-driver/stm32l4xx_hal_flash_ex.c ****       }
 1564              		.loc 1 159 0
 1565 0092 184B     		ldr	r3, .L153
 1566 0094 0122     		movs	r2, #1
 1567 0096 1A77     		strb	r2, [r3, #28]
 1568 0098 DCE7     		b	.L142
 1569              	.L140:
 162:../system/src/stm32l4-hal-driver/stm32l4xx_hal_flash_ex.c ****     {
 1570              		.loc 1 162 0
 1571 009a 174B     		ldr	r3, .L153+4
 1572 009c 1B68     		ldr	r3, [r3]
 1573 009e 13F4806F 		tst	r3, #1024
 1574 00a2 08D0     		beq	.L143
 165:../system/src/stm32l4-hal-driver/stm32l4xx_hal_flash_ex.c ****       pFlash.CacheToReactivate = FLASH_CACHE_DCACHE_ENABLED;
 1575              		.loc 1 165 0
 1576 00a4 144A     		ldr	r2, .L153+4
 1577 00a6 1368     		ldr	r3, [r2]
 1578 00a8 23F48063 		bic	r3, r3, #1024
 1579 00ac 1360     		str	r3, [r2]
 166:../system/src/stm32l4-hal-driver/stm32l4xx_hal_flash_ex.c ****     }
 1580              		.loc 1 166 0
 1581 00ae 114B     		ldr	r3, .L153
 1582 00b0 0222     		movs	r2, #2
 1583 00b2 1A77     		strb	r2, [r3, #28]
 1584 00b4 CEE7     		b	.L142
 1585              	.L143:
 170:../system/src/stm32l4-hal-driver/stm32l4xx_hal_flash_ex.c ****     }
 1586              		.loc 1 170 0
 1587 00b6 0F4B     		ldr	r3, .L153
 1588 00b8 0022     		movs	r2, #0
 1589 00ba 1A77     		strb	r2, [r3, #28]
 1590 00bc CAE7     		b	.L142
 1591              	.L151:
 176:../system/src/stm32l4-hal-driver/stm32l4xx_hal_flash_ex.c **** 
 1592              		.loc 1 176 0
 1593 00be 6068     		ldr	r0, [r4, #4]
 1594              	.LVL171:
 1595 00c0 FFF7FEFF 		bl	FLASH_MassErase
 1596              	.LVL172:
 179:../system/src/stm32l4-hal-driver/stm32l4xx_hal_flash_ex.c **** 
 1597              		.loc 1 179 0
 1598 00c4 4CF25030 		movw	r0, #50000
 1599 00c8 FFF7FEFF 		bl	FLASH_WaitForLastOperation
 1600              	.LVL173:
 1601 00cc 0746     		mov	r7, r0
 1602              	.LVL174:
 186:../system/src/stm32l4-hal-driver/stm32l4xx_hal_flash_ex.c **** #else
 1603              		.loc 1 186 0
 1604 00ce 0A4A     		ldr	r2, .L153+4
 1605 00d0 5369     		ldr	r3, [r2, #20]
 1606 00d2 23F40043 		bic	r3, r3, #32768
 1607 00d6 23F00403 		bic	r3, r3, #4
 1608 00da 5361     		str	r3, [r2, #20]
 1609 00dc 00E0     		b	.L145
 1610              	.LVL175:
 1611              	.L152:
 210:../system/src/stm32l4-hal-driver/stm32l4xx_hal_flash_ex.c ****           break;
 1612              		.loc 1 210 0
 1613 00de 3560     		str	r5, [r6]
 1614              	.LVL176:
 1615              	.L145:
 217:../system/src/stm32l4-hal-driver/stm32l4xx_hal_flash_ex.c ****   }
 1616              		.loc 1 217 0
 1617 00e0 FFF7FEFF 		bl	FLASH_FlushCaches
 1618              	.LVL177:
 1619              	.L139:
 221:../system/src/stm32l4-hal-driver/stm32l4xx_hal_flash_ex.c **** 
 1620              		.loc 1 221 0
 1621 00e4 034B     		ldr	r3, .L153
 1622 00e6 0022     		movs	r2, #0
 1623 00e8 1A70     		strb	r2, [r3]
 1624              	.LVL178:
 1625              	.L138:
 224:../system/src/stm32l4-hal-driver/stm32l4xx_hal_flash_ex.c **** 
 1626              		.loc 1 224 0
 1627 00ea 3846     		mov	r0, r7
 1628 00ec F8BD     		pop	{r3, r4, r5, r6, r7, pc}
 1629              	.LVL179:
 1630              	.L149:
 133:../system/src/stm32l4-hal-driver/stm32l4xx_hal_flash_ex.c **** 
 1631              		.loc 1 133 0
 1632 00ee 0227     		movs	r7, #2
 1633 00f0 FBE7     		b	.L138
 1634              	.L154:
 1635 00f2 00BF     		.align	2
 1636              	.L153:
 1637 00f4 00000000 		.word	pFlash
 1638 00f8 00200240 		.word	1073881088
 1639              		.cfi_endproc
 1640              	.LFE317:
 1642              		.text
 1643              	.Letext0:
 1644              		.file 2 "/usr/local/bin/gcc-arm-none-eabi-7-2018-q2-update/lib/gcc/arm-none-eabi/7.3.1/include/std
 1645              		.file 3 "../system/include/cmsis/stm32l4xx/core_cm4.h"
 1646              		.file 4 "../system/include/cmsis/stm32l4xx/device/system_stm32l4xx.h"
 1647              		.file 5 "../system/include/cmsis/stm32l4xx/device/stm32l471xx.h"
 1648              		.file 6 "../system/include/stm32l4-hal-driver/stm32l4xx_hal_def.h"
 1649              		.file 7 "../system/include/stm32l4-hal-driver/stm32l4xx_hal_flash.h"
 1650              		.file 8 "../system/include/stm32l4-hal-driver/stm32l4xx_hal.h"
DEFINED SYMBOLS
                            *ABS*:0000000000000000 stm32l4xx_hal_flash_ex.c
     /tmp/ccJYvaaW.s:18     .text.FLASH_MassErase:0000000000000000 $t
     /tmp/ccJYvaaW.s:24     .text.FLASH_MassErase:0000000000000000 FLASH_MassErase
     /tmp/ccJYvaaW.s:61     .text.FLASH_MassErase:000000000000002c $d
     /tmp/ccJYvaaW.s:66     .text.FLASH_OB_GetWRP:0000000000000000 $t
     /tmp/ccJYvaaW.s:72     .text.FLASH_OB_GetWRP:0000000000000000 FLASH_OB_GetWRP
     /tmp/ccJYvaaW.s:151    .text.FLASH_OB_GetWRP:0000000000000058 $d
     /tmp/ccJYvaaW.s:156    .text.FLASH_OB_GetRDP:0000000000000000 $t
     /tmp/ccJYvaaW.s:162    .text.FLASH_OB_GetRDP:0000000000000000 FLASH_OB_GetRDP
     /tmp/ccJYvaaW.s:196    .text.FLASH_OB_GetRDP:000000000000001c $d
     /tmp/ccJYvaaW.s:201    .text.FLASH_OB_GetUser:0000000000000000 $t
     /tmp/ccJYvaaW.s:207    .text.FLASH_OB_GetUser:0000000000000000 FLASH_OB_GetUser
     /tmp/ccJYvaaW.s:225    .text.FLASH_OB_GetUser:000000000000000c $d
     /tmp/ccJYvaaW.s:230    .text.FLASH_OB_GetPCROP:0000000000000000 $t
     /tmp/ccJYvaaW.s:236    .text.FLASH_OB_GetPCROP:0000000000000000 FLASH_OB_GetPCROP
     /tmp/ccJYvaaW.s:374    .text.FLASH_OB_GetPCROP:00000000000000b0 $d
     /tmp/ccJYvaaW.s:384    .text.FLASH_OB_WRPConfig:0000000000000000 $t
     /tmp/ccJYvaaW.s:390    .text.FLASH_OB_WRPConfig:0000000000000000 FLASH_OB_WRPConfig
     /tmp/ccJYvaaW.s:491    .text.FLASH_OB_WRPConfig:0000000000000088 $d
     /tmp/ccJYvaaW.s:496    .text.FLASH_OB_RDPConfig:0000000000000000 $t
     /tmp/ccJYvaaW.s:502    .text.FLASH_OB_RDPConfig:0000000000000000 FLASH_OB_RDPConfig
     /tmp/ccJYvaaW.s:556    .text.FLASH_OB_RDPConfig:000000000000003c $d
     /tmp/ccJYvaaW.s:561    .text.FLASH_OB_UserConfig:0000000000000000 $t
     /tmp/ccJYvaaW.s:567    .text.FLASH_OB_UserConfig:0000000000000000 FLASH_OB_UserConfig
     /tmp/ccJYvaaW.s:774    .text.FLASH_OB_UserConfig:0000000000000114 $d
     /tmp/ccJYvaaW.s:779    .text.FLASH_OB_PCROPConfig:0000000000000000 $t
     /tmp/ccJYvaaW.s:785    .text.FLASH_OB_PCROPConfig:0000000000000000 FLASH_OB_PCROPConfig
     /tmp/ccJYvaaW.s:950    .text.FLASH_OB_PCROPConfig:00000000000000e4 $d
     /tmp/ccJYvaaW.s:959    .text.HAL_FLASHEx_OBProgram:0000000000000000 $t
     /tmp/ccJYvaaW.s:966    .text.HAL_FLASHEx_OBProgram:0000000000000000 HAL_FLASHEx_OBProgram
     /tmp/ccJYvaaW.s:1093   .text.HAL_FLASHEx_OBProgram:0000000000000090 $d
     /tmp/ccJYvaaW.s:1098   .text.HAL_FLASHEx_OBGetConfig:0000000000000000 $t
     /tmp/ccJYvaaW.s:1105   .text.HAL_FLASHEx_OBGetConfig:0000000000000000 HAL_FLASHEx_OBGetConfig
     /tmp/ccJYvaaW.s:1172   .text.FLASH_PageErase:0000000000000000 $t
     /tmp/ccJYvaaW.s:1179   .text.FLASH_PageErase:0000000000000000 FLASH_PageErase
     /tmp/ccJYvaaW.s:1226   .text.FLASH_PageErase:0000000000000040 $d
     /tmp/ccJYvaaW.s:1231   .text.HAL_FLASHEx_Erase_IT:0000000000000000 $t
     /tmp/ccJYvaaW.s:1238   .text.HAL_FLASHEx_Erase_IT:0000000000000000 HAL_FLASHEx_Erase_IT
     /tmp/ccJYvaaW.s:1371   .text.HAL_FLASHEx_Erase_IT:00000000000000b0 $d
     /tmp/ccJYvaaW.s:1377   .text.FLASH_FlushCaches:0000000000000000 $t
     /tmp/ccJYvaaW.s:1384   .text.FLASH_FlushCaches:0000000000000000 FLASH_FlushCaches
     /tmp/ccJYvaaW.s:1447   .text.FLASH_FlushCaches:0000000000000054 $d
     /tmp/ccJYvaaW.s:1453   .text.HAL_FLASHEx_Erase:0000000000000000 $t
     /tmp/ccJYvaaW.s:1460   .text.HAL_FLASHEx_Erase:0000000000000000 HAL_FLASHEx_Erase
     /tmp/ccJYvaaW.s:1637   .text.HAL_FLASHEx_Erase:00000000000000f4 $d
                           .group:0000000000000000 wm4.0.95bc707da9dcffdc6c8c58936cbc8421
                           .group:0000000000000000 wm4.stm32l4xx_hal_conf.h.24.9ebdf529a64add7ef5197540a829be93
                           .group:0000000000000000 wm4.stm32l4xx.h.39.54a1fe1e096c7852edd649652f013a11
                           .group:0000000000000000 wm4.stm32l471xx.h.35.e78ad65c513105dda311dc495ac74d04
                           .group:0000000000000000 wm4.stdintgcc.h.29.6d480f4ba0f60596e88234283d42444f
                           .group:0000000000000000 wm4.cmsis_version.h.32.46e8eccfa2cfeaae11d008bb2823a3ed
                           .group:0000000000000000 wm4.core_cm4.h.66.e4ff136c4a17abc46741866f64f8e729
                           .group:0000000000000000 wm4.cmsis_gcc.h.26.b6144e50d34fc998dd4c2cfb6387cf91
                           .group:0000000000000000 wm4.core_cm4.h.174.fcddd62df80231752fa39eb9b61dadfe
                           .group:0000000000000000 wm4.mpu_armv7.h.32.4049752bb5792d4e15357775e9506cfc
                           .group:0000000000000000 wm4.stm32l471xx.h.423.ceac761476affad641a3347d7727acfd
                           .group:0000000000000000 wm4.stm32l4xx.h.197.fb1c68184133668ca24c44c29ba4361f
                           .group:0000000000000000 wm4.stm32_hal_legacy.h.23.c14bec61d389910444dd6f90923a87b3
                           .group:0000000000000000 wm4.stddef.h.39.a38874c8f8a57e66301090908ec2a69f
                           .group:0000000000000000 wm4.stm32l4xx_hal_def.h.58.ba9880fce6c06e05c42ff3652190ba19
                           .group:0000000000000000 wm4.stm32l4xx_hal_rcc.h.158.28a9a8aed9528254d5d00c542977dfd6
                           .group:0000000000000000 wm4.stm32l4xx_hal_rcc_ex.h.22.da7044b74af98b061fec57b6c981623c
                           .group:0000000000000000 wm4.stm32l4xx_hal_gpio.h.22.cdd02b3dd2d28ab2a58b80abaa62239c
                           .group:0000000000000000 wm4.stm32l4xx_hal_gpio_ex.h.22.e3066224621c54896e68c044cff2946f
                           .group:0000000000000000 wm4.stm32l4xx_hal_dma.h.22.13f7e03251508cf372ae373347b36e9b
                           .group:0000000000000000 wm4.stm32l4xx_hal_cortex.h.22.cb70b059ea6d04d060ca379a6d57d1fd
                           .group:0000000000000000 wm4.stm32l4xx_ll_adc.h.22.1a01db9155ec232fb5933b76785afed0
                           .group:0000000000000000 wm4.stm32l4xx_hal_adc.h.321.ee3f28f76fc70066e4cbbd758e576892
                           .group:0000000000000000 wm4.stm32l4xx_hal_adc_ex.h.22.fb5e6d418a426c9b079c9adc15fee3b1
                           .group:0000000000000000 wm4.stm32l4xx_hal_crc.h.22.e28f2dff7c14319a60cfaa8412b63a14
                           .group:0000000000000000 wm4.stm32l4xx_hal_crc_ex.h.22.58aa3be0563eedff5893c4b663184cf2
                           .group:0000000000000000 wm4.stm32l4xx_hal_dac.h.22.74749bf4f9405a5fbfaaf1cc4c06eba3
                           .group:0000000000000000 wm4.stm32l4xx_hal_dac_ex.h.22.4e3cedba5893653c1d8ca689fa739e33
                           .group:0000000000000000 wm4.stm32l4xx_hal_exti.h.22.d0c18acb1f51146e775f234290c1ac27
                           .group:0000000000000000 wm4.stm32l4xx_hal_flash.h.22.80f6973ea14060a68f7ca21c1dd39289
                           .group:0000000000000000 wm4.stm32l4xx_hal_flash.h.847.7bdb45d9d57728034960e0aaf38df4fb
                           .group:0000000000000000 wm4.stm32l4xx_hal_i2c.h.22.5cbc76724b1dba5416e985e397b92828
                           .group:0000000000000000 wm4.stm32l4xx_hal_i2c_ex.h.22.4c81bf9806badb3d50f1da26b08d305a
                           .group:0000000000000000 wm4.stm32l4xx_hal_i2c.h.715.a3aff164d469153c75cf623f9ff49d7a
                           .group:0000000000000000 wm4.stm32l4xx_hal_iwdg.h.22.7e954cf06602114b3daf58f5ffbb9e50
                           .group:0000000000000000 wm4.stm32l4xx_hal_pwr.h.22.0049bff0a26f90119451fdfe5f426c51
                           .group:0000000000000000 wm4.stm32l4xx_hal_pwr_ex.h.22.3d1049b6827a186d471882b21e35998d
                           .group:0000000000000000 wm4.stm32l4xx_hal_rng.h.22.3da3130b715b6ad6f9d8d49653bdfddb
                           .group:0000000000000000 wm4.stm32l4xx_hal_rtc.h.22.21d64301309237f9b9255a8c80902f7c
                           .group:0000000000000000 wm4.stm32l4xx_hal_rtc_ex.h.22.6c248c3dbae3d1f0fefc4b9faaa2cd0b
                           .group:0000000000000000 wm4.stm32l4xx_hal_rtc.h.977.b3b3c98b50a30362b61b120ec4fce236
                           .group:0000000000000000 wm4.stm32l4xx_hal_tim.h.22.6c7398a1c55179e1de4bfd7d5a7564ac
                           .group:0000000000000000 wm4.stm32l4xx_hal_tim_ex.h.22.1a7b532f5010a085c12eee7e9c7b0c21
                           .group:0000000000000000 wm4.stm32l4xx_hal_uart.h.22.5f632bd044c516c02fe0b49488f063f8
                           .group:0000000000000000 wm4.stm32l4xx_hal_uart_ex.h.22.de11c23890d64b2968c97dd6f5dae21a
                           .group:0000000000000000 wm4.stm32l4xx_hal.h.76.993cab68f7f350dd05a21a919b3be96f

UNDEFINED SYMBOLS
FLASH_WaitForLastOperation
pFlash
