   1              		.cpu cortex-m4
   2              		.eabi_attribute 27, 1
   3              		.eabi_attribute 28, 1
   4              		.eabi_attribute 20, 1
   5              		.eabi_attribute 21, 1
   6              		.eabi_attribute 23, 3
   7              		.eabi_attribute 24, 1
   8              		.eabi_attribute 25, 1
   9              		.eabi_attribute 26, 1
  10              		.eabi_attribute 30, 1
  11              		.eabi_attribute 34, 1
  12              		.eabi_attribute 18, 4
  13              		.file	"stm32l4xx_hal_timebase_tim_template.c"
  14              		.text
  15              	.Ltext0:
  16              		.cfi_sections	.debug_frame
  17              		.section	.text.HAL_InitTick,"ax",%progbits
  18              		.align	1
  19              		.global	HAL_InitTick
  20              		.syntax unified
  21              		.thumb
  22              		.thumb_func
  23              		.fpu fpv4-sp-d16
  25              	HAL_InitTick:
  26              	.LFB317:
  27              		.file 1 "../system/src/stm32l4-hal-driver/stm32l4xx_hal_timebase_tim_template.c"
   1:../system/src/stm32l4-hal-driver/stm32l4xx_hal_timebase_tim_template.c **** /**
   2:../system/src/stm32l4-hal-driver/stm32l4xx_hal_timebase_tim_template.c ****   ******************************************************************************
   3:../system/src/stm32l4-hal-driver/stm32l4xx_hal_timebase_tim_template.c ****   * @file    stm32l4xx_hal_timebase_tim_template.c
   4:../system/src/stm32l4-hal-driver/stm32l4xx_hal_timebase_tim_template.c ****   * @author  MCD Application Team
   5:../system/src/stm32l4-hal-driver/stm32l4xx_hal_timebase_tim_template.c ****   * @brief   HAL time base based on the hardware TIM Template.
   6:../system/src/stm32l4-hal-driver/stm32l4xx_hal_timebase_tim_template.c ****   *
   7:../system/src/stm32l4-hal-driver/stm32l4xx_hal_timebase_tim_template.c ****   *          This file overrides the native HAL time base functions (defined as weak)
   8:../system/src/stm32l4-hal-driver/stm32l4xx_hal_timebase_tim_template.c ****   *          the TIM time base:
   9:../system/src/stm32l4-hal-driver/stm32l4xx_hal_timebase_tim_template.c ****   *           + Initializes the TIM peripheral to generate a Period elapsed Event each 1ms
  10:../system/src/stm32l4-hal-driver/stm32l4xx_hal_timebase_tim_template.c ****   *           + HAL_IncTick is called inside HAL_TIM_PeriodElapsedCallback ie each 1ms
  11:../system/src/stm32l4-hal-driver/stm32l4xx_hal_timebase_tim_template.c ****   *
  12:../system/src/stm32l4-hal-driver/stm32l4xx_hal_timebase_tim_template.c ****   @verbatim
  13:../system/src/stm32l4-hal-driver/stm32l4xx_hal_timebase_tim_template.c ****   ==============================================================================
  14:../system/src/stm32l4-hal-driver/stm32l4xx_hal_timebase_tim_template.c ****                         ##### How to use this driver #####
  15:../system/src/stm32l4-hal-driver/stm32l4xx_hal_timebase_tim_template.c ****   ==============================================================================
  16:../system/src/stm32l4-hal-driver/stm32l4xx_hal_timebase_tim_template.c ****     [..]
  17:../system/src/stm32l4-hal-driver/stm32l4xx_hal_timebase_tim_template.c ****     This file must be copied to the application folder and modified as follows:
  18:../system/src/stm32l4-hal-driver/stm32l4xx_hal_timebase_tim_template.c ****     (#) Rename it to 'stm32l4xx_hal_timebase_tim.c'
  19:../system/src/stm32l4-hal-driver/stm32l4xx_hal_timebase_tim_template.c ****     (#) Add this file and the TIM HAL driver files to your project and make sure
  20:../system/src/stm32l4-hal-driver/stm32l4xx_hal_timebase_tim_template.c ****        HAL_TIM_MODULE_ENABLED is defined in stm32l4xx_hal_conf.h
  21:../system/src/stm32l4-hal-driver/stm32l4xx_hal_timebase_tim_template.c **** 
  22:../system/src/stm32l4-hal-driver/stm32l4xx_hal_timebase_tim_template.c ****     [..]
  23:../system/src/stm32l4-hal-driver/stm32l4xx_hal_timebase_tim_template.c ****     (@) The application needs to ensure that the time base is always set to 1 millisecond
  24:../system/src/stm32l4-hal-driver/stm32l4xx_hal_timebase_tim_template.c ****        to have correct HAL operation.
  25:../system/src/stm32l4-hal-driver/stm32l4xx_hal_timebase_tim_template.c **** 
  26:../system/src/stm32l4-hal-driver/stm32l4xx_hal_timebase_tim_template.c ****   @endverbatim
  27:../system/src/stm32l4-hal-driver/stm32l4xx_hal_timebase_tim_template.c ****   ******************************************************************************
  28:../system/src/stm32l4-hal-driver/stm32l4xx_hal_timebase_tim_template.c ****   * @attention
  29:../system/src/stm32l4-hal-driver/stm32l4xx_hal_timebase_tim_template.c ****   *
  30:../system/src/stm32l4-hal-driver/stm32l4xx_hal_timebase_tim_template.c ****   * <h2><center>&copy; Copyright (c) 2017 STMicroelectronics.
  31:../system/src/stm32l4-hal-driver/stm32l4xx_hal_timebase_tim_template.c ****   * All rights reserved.</center></h2>
  32:../system/src/stm32l4-hal-driver/stm32l4xx_hal_timebase_tim_template.c ****   *
  33:../system/src/stm32l4-hal-driver/stm32l4xx_hal_timebase_tim_template.c ****   * This software component is licensed by ST under BSD 3-Clause license,
  34:../system/src/stm32l4-hal-driver/stm32l4xx_hal_timebase_tim_template.c ****   * the "License"; You may not use this file except in compliance with the
  35:../system/src/stm32l4-hal-driver/stm32l4xx_hal_timebase_tim_template.c ****   * License. You may obtain a copy of the License at:
  36:../system/src/stm32l4-hal-driver/stm32l4xx_hal_timebase_tim_template.c ****   *                        opensource.org/licenses/BSD-3-Clause
  37:../system/src/stm32l4-hal-driver/stm32l4xx_hal_timebase_tim_template.c ****   *
  38:../system/src/stm32l4-hal-driver/stm32l4xx_hal_timebase_tim_template.c ****   ******************************************************************************
  39:../system/src/stm32l4-hal-driver/stm32l4xx_hal_timebase_tim_template.c ****   */
  40:../system/src/stm32l4-hal-driver/stm32l4xx_hal_timebase_tim_template.c **** 
  41:../system/src/stm32l4-hal-driver/stm32l4xx_hal_timebase_tim_template.c **** /* Includes ------------------------------------------------------------------*/
  42:../system/src/stm32l4-hal-driver/stm32l4xx_hal_timebase_tim_template.c **** #include "stm32l4xx_hal.h"
  43:../system/src/stm32l4-hal-driver/stm32l4xx_hal_timebase_tim_template.c **** 
  44:../system/src/stm32l4-hal-driver/stm32l4xx_hal_timebase_tim_template.c **** /** @addtogroup STM32L4xx_HAL_Driver
  45:../system/src/stm32l4-hal-driver/stm32l4xx_hal_timebase_tim_template.c ****   * @{
  46:../system/src/stm32l4-hal-driver/stm32l4xx_hal_timebase_tim_template.c ****   */
  47:../system/src/stm32l4-hal-driver/stm32l4xx_hal_timebase_tim_template.c **** 
  48:../system/src/stm32l4-hal-driver/stm32l4xx_hal_timebase_tim_template.c **** /** @addtogroup HAL_TimeBase
  49:../system/src/stm32l4-hal-driver/stm32l4xx_hal_timebase_tim_template.c ****   * @{
  50:../system/src/stm32l4-hal-driver/stm32l4xx_hal_timebase_tim_template.c ****   */
  51:../system/src/stm32l4-hal-driver/stm32l4xx_hal_timebase_tim_template.c **** 
  52:../system/src/stm32l4-hal-driver/stm32l4xx_hal_timebase_tim_template.c **** /* Private typedef -----------------------------------------------------------*/
  53:../system/src/stm32l4-hal-driver/stm32l4xx_hal_timebase_tim_template.c **** /* Private define ------------------------------------------------------------*/
  54:../system/src/stm32l4-hal-driver/stm32l4xx_hal_timebase_tim_template.c **** /* Private macro -------------------------------------------------------------*/
  55:../system/src/stm32l4-hal-driver/stm32l4xx_hal_timebase_tim_template.c **** /* Private variables ---------------------------------------------------------*/
  56:../system/src/stm32l4-hal-driver/stm32l4xx_hal_timebase_tim_template.c **** TIM_HandleTypeDef        TimHandle;
  57:../system/src/stm32l4-hal-driver/stm32l4xx_hal_timebase_tim_template.c **** /* Private function prototypes -----------------------------------------------*/
  58:../system/src/stm32l4-hal-driver/stm32l4xx_hal_timebase_tim_template.c **** void TIM6_DAC_IRQHandler(void);
  59:../system/src/stm32l4-hal-driver/stm32l4xx_hal_timebase_tim_template.c **** /* Private functions ---------------------------------------------------------*/
  60:../system/src/stm32l4-hal-driver/stm32l4xx_hal_timebase_tim_template.c **** 
  61:../system/src/stm32l4-hal-driver/stm32l4xx_hal_timebase_tim_template.c **** /**
  62:../system/src/stm32l4-hal-driver/stm32l4xx_hal_timebase_tim_template.c ****   * @brief  This function configures the TIM6 as a time base source.
  63:../system/src/stm32l4-hal-driver/stm32l4xx_hal_timebase_tim_template.c ****   *         The time source is configured  to have 1ms time base with a dedicated
  64:../system/src/stm32l4-hal-driver/stm32l4xx_hal_timebase_tim_template.c ****   *         Tick interrupt priority.
  65:../system/src/stm32l4-hal-driver/stm32l4xx_hal_timebase_tim_template.c ****   * @note   This function is called  automatically at the beginning of program after
  66:../system/src/stm32l4-hal-driver/stm32l4xx_hal_timebase_tim_template.c ****   *         reset by HAL_Init() or at any time when clock is configured, by HAL_RCC_ClockConfig().
  67:../system/src/stm32l4-hal-driver/stm32l4xx_hal_timebase_tim_template.c ****   * @param  TickPriority Tick interrupt priority.
  68:../system/src/stm32l4-hal-driver/stm32l4xx_hal_timebase_tim_template.c ****   * @retval HAL status
  69:../system/src/stm32l4-hal-driver/stm32l4xx_hal_timebase_tim_template.c ****   */
  70:../system/src/stm32l4-hal-driver/stm32l4xx_hal_timebase_tim_template.c **** HAL_StatusTypeDef HAL_InitTick(uint32_t TickPriority)
  71:../system/src/stm32l4-hal-driver/stm32l4xx_hal_timebase_tim_template.c **** {
  28              		.loc 1 71 0
  29              		.cfi_startproc
  30              		@ args = 0, pretend = 0, frame = 32
  31              		@ frame_needed = 0, uses_anonymous_args = 0
  32              	.LVL0:
  33 0000 30B5     		push	{r4, r5, lr}
  34              		.cfi_def_cfa_offset 12
  35              		.cfi_offset 4, -12
  36              		.cfi_offset 5, -8
  37              		.cfi_offset 14, -4
  38 0002 89B0     		sub	sp, sp, #36
  39              		.cfi_def_cfa_offset 48
  40              	.LVL1:
  72:../system/src/stm32l4-hal-driver/stm32l4xx_hal_timebase_tim_template.c ****   RCC_ClkInitTypeDef    clkconfig;
  73:../system/src/stm32l4-hal-driver/stm32l4xx_hal_timebase_tim_template.c ****   uint32_t              uwTimclock, uwAPB1Prescaler;
  74:../system/src/stm32l4-hal-driver/stm32l4xx_hal_timebase_tim_template.c ****   uint32_t              uwPrescalerValue;
  75:../system/src/stm32l4-hal-driver/stm32l4xx_hal_timebase_tim_template.c ****   uint32_t              pFLatency;
  76:../system/src/stm32l4-hal-driver/stm32l4xx_hal_timebase_tim_template.c ****   HAL_StatusTypeDef     status = HAL_OK;
  77:../system/src/stm32l4-hal-driver/stm32l4xx_hal_timebase_tim_template.c **** 
  78:../system/src/stm32l4-hal-driver/stm32l4xx_hal_timebase_tim_template.c ****   /* Check uwTickFreq for MisraC 2012 (even if uwTickFreq is a enum type that don't take the value 
  79:../system/src/stm32l4-hal-driver/stm32l4xx_hal_timebase_tim_template.c ****   if ((uint32_t)uwTickFreq != 0U)
  41              		.loc 1 79 0
  42 0004 244B     		ldr	r3, .L14
  43 0006 1B78     		ldrb	r3, [r3]	@ zero_extendqisi2
  44 0008 1BB9     		cbnz	r3, .L10
  80:../system/src/stm32l4-hal-driver/stm32l4xx_hal_timebase_tim_template.c ****   {
  81:../system/src/stm32l4-hal-driver/stm32l4xx_hal_timebase_tim_template.c ****     /* Enable TIM6 clock */
  82:../system/src/stm32l4-hal-driver/stm32l4xx_hal_timebase_tim_template.c ****     __HAL_RCC_TIM6_CLK_ENABLE();
  83:../system/src/stm32l4-hal-driver/stm32l4xx_hal_timebase_tim_template.c **** 
  84:../system/src/stm32l4-hal-driver/stm32l4xx_hal_timebase_tim_template.c ****     /* Get clock configuration */
  85:../system/src/stm32l4-hal-driver/stm32l4xx_hal_timebase_tim_template.c ****     HAL_RCC_GetClockConfig(&clkconfig, &pFLatency);
  86:../system/src/stm32l4-hal-driver/stm32l4xx_hal_timebase_tim_template.c **** 
  87:../system/src/stm32l4-hal-driver/stm32l4xx_hal_timebase_tim_template.c ****     /* Get APB1 prescaler */
  88:../system/src/stm32l4-hal-driver/stm32l4xx_hal_timebase_tim_template.c ****     uwAPB1Prescaler = clkconfig.APB1CLKDivider;
  89:../system/src/stm32l4-hal-driver/stm32l4xx_hal_timebase_tim_template.c **** 
  90:../system/src/stm32l4-hal-driver/stm32l4xx_hal_timebase_tim_template.c ****     /* Compute TIM6 clock */
  91:../system/src/stm32l4-hal-driver/stm32l4xx_hal_timebase_tim_template.c ****     if (uwAPB1Prescaler == RCC_HCLK_DIV1)
  92:../system/src/stm32l4-hal-driver/stm32l4xx_hal_timebase_tim_template.c ****     {
  93:../system/src/stm32l4-hal-driver/stm32l4xx_hal_timebase_tim_template.c ****       uwTimclock = HAL_RCC_GetPCLK1Freq();
  94:../system/src/stm32l4-hal-driver/stm32l4xx_hal_timebase_tim_template.c ****     }
  95:../system/src/stm32l4-hal-driver/stm32l4xx_hal_timebase_tim_template.c ****     else
  96:../system/src/stm32l4-hal-driver/stm32l4xx_hal_timebase_tim_template.c ****     {
  97:../system/src/stm32l4-hal-driver/stm32l4xx_hal_timebase_tim_template.c ****       uwTimclock = 2U * HAL_RCC_GetPCLK1Freq();
  98:../system/src/stm32l4-hal-driver/stm32l4xx_hal_timebase_tim_template.c ****     }
  99:../system/src/stm32l4-hal-driver/stm32l4xx_hal_timebase_tim_template.c **** 
 100:../system/src/stm32l4-hal-driver/stm32l4xx_hal_timebase_tim_template.c ****     /* Compute the prescaler value to have TIM6 counter clock equal to 1MHz */
 101:../system/src/stm32l4-hal-driver/stm32l4xx_hal_timebase_tim_template.c ****     uwPrescalerValue = (uint32_t) ((uwTimclock / 1000000U) - 1U);
 102:../system/src/stm32l4-hal-driver/stm32l4xx_hal_timebase_tim_template.c **** 
 103:../system/src/stm32l4-hal-driver/stm32l4xx_hal_timebase_tim_template.c ****     /* Initialize TIM6 */
 104:../system/src/stm32l4-hal-driver/stm32l4xx_hal_timebase_tim_template.c ****     TimHandle.Instance = TIM6;
 105:../system/src/stm32l4-hal-driver/stm32l4xx_hal_timebase_tim_template.c **** 
 106:../system/src/stm32l4-hal-driver/stm32l4xx_hal_timebase_tim_template.c ****     /* Initialize TIMx peripheral as follows:
 107:../system/src/stm32l4-hal-driver/stm32l4xx_hal_timebase_tim_template.c ****     + Period = [(TIM6CLK/1000) - 1]. to have a (1/1000) s time base.
 108:../system/src/stm32l4-hal-driver/stm32l4xx_hal_timebase_tim_template.c ****     + Prescaler = (uwTimclock/1000000 - 1) to have a 1MHz counter clock.
 109:../system/src/stm32l4-hal-driver/stm32l4xx_hal_timebase_tim_template.c ****     + ClockDivision = 0
 110:../system/src/stm32l4-hal-driver/stm32l4xx_hal_timebase_tim_template.c ****     + Counter direction = Up
 111:../system/src/stm32l4-hal-driver/stm32l4xx_hal_timebase_tim_template.c ****     */
 112:../system/src/stm32l4-hal-driver/stm32l4xx_hal_timebase_tim_template.c ****     TimHandle.Init.Period = (1000000U / 1000U) - 1U;
 113:../system/src/stm32l4-hal-driver/stm32l4xx_hal_timebase_tim_template.c ****     TimHandle.Init.Prescaler = uwPrescalerValue;
 114:../system/src/stm32l4-hal-driver/stm32l4xx_hal_timebase_tim_template.c ****     TimHandle.Init.ClockDivision = 0;
 115:../system/src/stm32l4-hal-driver/stm32l4xx_hal_timebase_tim_template.c ****     TimHandle.Init.CounterMode = TIM_COUNTERMODE_UP;
 116:../system/src/stm32l4-hal-driver/stm32l4xx_hal_timebase_tim_template.c ****     TimHandle.Init.AutoReloadPreload = TIM_AUTORELOAD_PRELOAD_DISABLE;
 117:../system/src/stm32l4-hal-driver/stm32l4xx_hal_timebase_tim_template.c ****     if (HAL_TIM_Base_Init(&TimHandle) == HAL_OK)
 118:../system/src/stm32l4-hal-driver/stm32l4xx_hal_timebase_tim_template.c ****     {
 119:../system/src/stm32l4-hal-driver/stm32l4xx_hal_timebase_tim_template.c ****       /* Start the TIM time Base generation in interrupt mode */
 120:../system/src/stm32l4-hal-driver/stm32l4xx_hal_timebase_tim_template.c ****       if (HAL_TIM_Base_Start_IT(&TimHandle) == HAL_OK)
 121:../system/src/stm32l4-hal-driver/stm32l4xx_hal_timebase_tim_template.c ****       {
 122:../system/src/stm32l4-hal-driver/stm32l4xx_hal_timebase_tim_template.c ****         /* Enable the TIM6_DAC global Interrupt */
 123:../system/src/stm32l4-hal-driver/stm32l4xx_hal_timebase_tim_template.c ****         HAL_NVIC_EnableIRQ(TIM6_DAC_IRQn);
 124:../system/src/stm32l4-hal-driver/stm32l4xx_hal_timebase_tim_template.c **** 
 125:../system/src/stm32l4-hal-driver/stm32l4xx_hal_timebase_tim_template.c ****         /* Configure the SysTick IRQ priority */
 126:../system/src/stm32l4-hal-driver/stm32l4xx_hal_timebase_tim_template.c ****         if (TickPriority < (1UL << __NVIC_PRIO_BITS))
 127:../system/src/stm32l4-hal-driver/stm32l4xx_hal_timebase_tim_template.c ****         {
 128:../system/src/stm32l4-hal-driver/stm32l4xx_hal_timebase_tim_template.c ****           /*Configure the TIM6_DAC IRQ priority */
 129:../system/src/stm32l4-hal-driver/stm32l4xx_hal_timebase_tim_template.c ****           HAL_NVIC_SetPriority(TIM6_DAC_IRQn, TickPriority ,0U);
 130:../system/src/stm32l4-hal-driver/stm32l4xx_hal_timebase_tim_template.c ****           uwTickPrio = TickPriority;
 131:../system/src/stm32l4-hal-driver/stm32l4xx_hal_timebase_tim_template.c ****         }
 132:../system/src/stm32l4-hal-driver/stm32l4xx_hal_timebase_tim_template.c ****         else
 133:../system/src/stm32l4-hal-driver/stm32l4xx_hal_timebase_tim_template.c ****         {
 134:../system/src/stm32l4-hal-driver/stm32l4xx_hal_timebase_tim_template.c ****           status = HAL_ERROR;
 135:../system/src/stm32l4-hal-driver/stm32l4xx_hal_timebase_tim_template.c ****         }
 136:../system/src/stm32l4-hal-driver/stm32l4xx_hal_timebase_tim_template.c ****       }
 137:../system/src/stm32l4-hal-driver/stm32l4xx_hal_timebase_tim_template.c ****       else
 138:../system/src/stm32l4-hal-driver/stm32l4xx_hal_timebase_tim_template.c ****       {
 139:../system/src/stm32l4-hal-driver/stm32l4xx_hal_timebase_tim_template.c ****         status = HAL_ERROR;
 140:../system/src/stm32l4-hal-driver/stm32l4xx_hal_timebase_tim_template.c ****       }
 141:../system/src/stm32l4-hal-driver/stm32l4xx_hal_timebase_tim_template.c ****     }
 142:../system/src/stm32l4-hal-driver/stm32l4xx_hal_timebase_tim_template.c ****     else
 143:../system/src/stm32l4-hal-driver/stm32l4xx_hal_timebase_tim_template.c ****     {
 144:../system/src/stm32l4-hal-driver/stm32l4xx_hal_timebase_tim_template.c ****       status = HAL_ERROR;
 145:../system/src/stm32l4-hal-driver/stm32l4xx_hal_timebase_tim_template.c ****     }
 146:../system/src/stm32l4-hal-driver/stm32l4xx_hal_timebase_tim_template.c ****   }
 147:../system/src/stm32l4-hal-driver/stm32l4xx_hal_timebase_tim_template.c ****   else
 148:../system/src/stm32l4-hal-driver/stm32l4xx_hal_timebase_tim_template.c ****   {
 149:../system/src/stm32l4-hal-driver/stm32l4xx_hal_timebase_tim_template.c ****     status = HAL_ERROR;
  45              		.loc 1 149 0
  46 000a 0124     		movs	r4, #1
  47              	.LVL2:
  48              	.L2:
 150:../system/src/stm32l4-hal-driver/stm32l4xx_hal_timebase_tim_template.c ****   }
 151:../system/src/stm32l4-hal-driver/stm32l4xx_hal_timebase_tim_template.c **** 
 152:../system/src/stm32l4-hal-driver/stm32l4xx_hal_timebase_tim_template.c ****   /* Return function status */
 153:../system/src/stm32l4-hal-driver/stm32l4xx_hal_timebase_tim_template.c ****   return status;
 154:../system/src/stm32l4-hal-driver/stm32l4xx_hal_timebase_tim_template.c **** }
  49              		.loc 1 154 0
  50 000c 2046     		mov	r0, r4
  51 000e 09B0     		add	sp, sp, #36
  52              		.cfi_remember_state
  53              		.cfi_def_cfa_offset 12
  54              		@ sp needed
  55 0010 30BD     		pop	{r4, r5, pc}
  56              	.LVL3:
  57              	.L10:
  58              		.cfi_restore_state
  59 0012 0546     		mov	r5, r0
  60              	.LBB2:
  82:../system/src/stm32l4-hal-driver/stm32l4xx_hal_timebase_tim_template.c **** 
  61              		.loc 1 82 0
  62 0014 214B     		ldr	r3, .L14+4
  63 0016 9A6D     		ldr	r2, [r3, #88]
  64 0018 42F01002 		orr	r2, r2, #16
  65 001c 9A65     		str	r2, [r3, #88]
  66 001e 9B6D     		ldr	r3, [r3, #88]
  67 0020 03F01003 		and	r3, r3, #16
  68 0024 0193     		str	r3, [sp, #4]
  69 0026 019B     		ldr	r3, [sp, #4]
  70              	.LBE2:
  85:../system/src/stm32l4-hal-driver/stm32l4xx_hal_timebase_tim_template.c **** 
  71              		.loc 1 85 0
  72 0028 02A9     		add	r1, sp, #8
  73 002a 03A8     		add	r0, sp, #12
  74              	.LVL4:
  75 002c FFF7FEFF 		bl	HAL_RCC_GetClockConfig
  76              	.LVL5:
  88:../system/src/stm32l4-hal-driver/stm32l4xx_hal_timebase_tim_template.c **** 
  77              		.loc 1 88 0
  78 0030 069B     		ldr	r3, [sp, #24]
  79              	.LVL6:
  91:../system/src/stm32l4-hal-driver/stm32l4xx_hal_timebase_tim_template.c ****     {
  80              		.loc 1 91 0
  81 0032 B3B9     		cbnz	r3, .L3
  93:../system/src/stm32l4-hal-driver/stm32l4xx_hal_timebase_tim_template.c ****     }
  82              		.loc 1 93 0
  83 0034 FFF7FEFF 		bl	HAL_RCC_GetPCLK1Freq
  84              	.LVL7:
  85              	.L4:
 101:../system/src/stm32l4-hal-driver/stm32l4xx_hal_timebase_tim_template.c **** 
  86              		.loc 1 101 0
  87 0038 194B     		ldr	r3, .L14+8
  88 003a A3FB0023 		umull	r2, r3, r3, r0
  89 003e 9B0C     		lsrs	r3, r3, #18
  90 0040 013B     		subs	r3, r3, #1
  91              	.LVL8:
 104:../system/src/stm32l4-hal-driver/stm32l4xx_hal_timebase_tim_template.c **** 
  92              		.loc 1 104 0
  93 0042 1848     		ldr	r0, .L14+12
  94              	.LVL9:
  95 0044 184A     		ldr	r2, .L14+16
  96 0046 0260     		str	r2, [r0]
 112:../system/src/stm32l4-hal-driver/stm32l4xx_hal_timebase_tim_template.c ****     TimHandle.Init.Prescaler = uwPrescalerValue;
  97              		.loc 1 112 0
  98 0048 40F2E732 		movw	r2, #999
  99 004c C260     		str	r2, [r0, #12]
 113:../system/src/stm32l4-hal-driver/stm32l4xx_hal_timebase_tim_template.c ****     TimHandle.Init.ClockDivision = 0;
 100              		.loc 1 113 0
 101 004e 4360     		str	r3, [r0, #4]
 114:../system/src/stm32l4-hal-driver/stm32l4xx_hal_timebase_tim_template.c ****     TimHandle.Init.CounterMode = TIM_COUNTERMODE_UP;
 102              		.loc 1 114 0
 103 0050 0023     		movs	r3, #0
 104              	.LVL10:
 105 0052 0361     		str	r3, [r0, #16]
 115:../system/src/stm32l4-hal-driver/stm32l4xx_hal_timebase_tim_template.c ****     TimHandle.Init.AutoReloadPreload = TIM_AUTORELOAD_PRELOAD_DISABLE;
 106              		.loc 1 115 0
 107 0054 8360     		str	r3, [r0, #8]
 116:../system/src/stm32l4-hal-driver/stm32l4xx_hal_timebase_tim_template.c ****     if (HAL_TIM_Base_Init(&TimHandle) == HAL_OK)
 108              		.loc 1 116 0
 109 0056 8361     		str	r3, [r0, #24]
 117:../system/src/stm32l4-hal-driver/stm32l4xx_hal_timebase_tim_template.c ****     {
 110              		.loc 1 117 0
 111 0058 FFF7FEFF 		bl	HAL_TIM_Base_Init
 112              	.LVL11:
 113 005c 28B1     		cbz	r0, .L11
 144:../system/src/stm32l4-hal-driver/stm32l4xx_hal_timebase_tim_template.c ****     }
 114              		.loc 1 144 0
 115 005e 0124     		movs	r4, #1
 116 0060 D4E7     		b	.L2
 117              	.LVL12:
 118              	.L3:
  97:../system/src/stm32l4-hal-driver/stm32l4xx_hal_timebase_tim_template.c ****     }
 119              		.loc 1 97 0
 120 0062 FFF7FEFF 		bl	HAL_RCC_GetPCLK1Freq
 121              	.LVL13:
 122 0066 4000     		lsls	r0, r0, #1
 123              	.LVL14:
 124 0068 E6E7     		b	.L4
 125              	.LVL15:
 126              	.L11:
 120:../system/src/stm32l4-hal-driver/stm32l4xx_hal_timebase_tim_template.c ****       {
 127              		.loc 1 120 0
 128 006a 0E48     		ldr	r0, .L14+12
 129 006c FFF7FEFF 		bl	HAL_TIM_Base_Start_IT
 130              	.LVL16:
 131 0070 0446     		mov	r4, r0
 132 0072 08B1     		cbz	r0, .L12
 139:../system/src/stm32l4-hal-driver/stm32l4xx_hal_timebase_tim_template.c ****       }
 133              		.loc 1 139 0
 134 0074 0124     		movs	r4, #1
 135 0076 C9E7     		b	.L2
 136              	.L12:
 123:../system/src/stm32l4-hal-driver/stm32l4xx_hal_timebase_tim_template.c **** 
 137              		.loc 1 123 0
 138 0078 3620     		movs	r0, #54
 139 007a FFF7FEFF 		bl	HAL_NVIC_EnableIRQ
 140              	.LVL17:
 126:../system/src/stm32l4-hal-driver/stm32l4xx_hal_timebase_tim_template.c ****         {
 141              		.loc 1 126 0
 142 007e 0F2D     		cmp	r5, #15
 143 0080 01D9     		bls	.L13
 134:../system/src/stm32l4-hal-driver/stm32l4xx_hal_timebase_tim_template.c ****         }
 144              		.loc 1 134 0
 145 0082 0124     		movs	r4, #1
 146 0084 C2E7     		b	.L2
 147              	.L13:
 129:../system/src/stm32l4-hal-driver/stm32l4xx_hal_timebase_tim_template.c ****           uwTickPrio = TickPriority;
 148              		.loc 1 129 0
 149 0086 0022     		movs	r2, #0
 150 0088 2946     		mov	r1, r5
 151 008a 3620     		movs	r0, #54
 152 008c FFF7FEFF 		bl	HAL_NVIC_SetPriority
 153              	.LVL18:
 130:../system/src/stm32l4-hal-driver/stm32l4xx_hal_timebase_tim_template.c ****         }
 154              		.loc 1 130 0
 155 0090 064B     		ldr	r3, .L14+20
 156 0092 1D60     		str	r5, [r3]
 157 0094 BAE7     		b	.L2
 158              	.L15:
 159 0096 00BF     		.align	2
 160              	.L14:
 161 0098 00000000 		.word	uwTickFreq
 162 009c 00100240 		.word	1073876992
 163 00a0 83DE1B43 		.word	1125899907
 164 00a4 00000000 		.word	TimHandle
 165 00a8 00100040 		.word	1073745920
 166 00ac 00000000 		.word	uwTickPrio
 167              		.cfi_endproc
 168              	.LFE317:
 170              		.section	.text.HAL_SuspendTick,"ax",%progbits
 171              		.align	1
 172              		.global	HAL_SuspendTick
 173              		.syntax unified
 174              		.thumb
 175              		.thumb_func
 176              		.fpu fpv4-sp-d16
 178              	HAL_SuspendTick:
 179              	.LFB318:
 155:../system/src/stm32l4-hal-driver/stm32l4xx_hal_timebase_tim_template.c **** 
 156:../system/src/stm32l4-hal-driver/stm32l4xx_hal_timebase_tim_template.c **** /**
 157:../system/src/stm32l4-hal-driver/stm32l4xx_hal_timebase_tim_template.c ****   * @brief  Suspend Tick increment.
 158:../system/src/stm32l4-hal-driver/stm32l4xx_hal_timebase_tim_template.c ****   * @note   Disable the tick increment by disabling TIM6 update interrupt.
 159:../system/src/stm32l4-hal-driver/stm32l4xx_hal_timebase_tim_template.c ****   * @retval None
 160:../system/src/stm32l4-hal-driver/stm32l4xx_hal_timebase_tim_template.c ****   */
 161:../system/src/stm32l4-hal-driver/stm32l4xx_hal_timebase_tim_template.c **** void HAL_SuspendTick(void)
 162:../system/src/stm32l4-hal-driver/stm32l4xx_hal_timebase_tim_template.c **** {
 180              		.loc 1 162 0
 181              		.cfi_startproc
 182              		@ args = 0, pretend = 0, frame = 0
 183              		@ frame_needed = 0, uses_anonymous_args = 0
 184              		@ link register save eliminated.
 163:../system/src/stm32l4-hal-driver/stm32l4xx_hal_timebase_tim_template.c ****   /* Disable TIM6 update interrupt */
 164:../system/src/stm32l4-hal-driver/stm32l4xx_hal_timebase_tim_template.c ****   __HAL_TIM_DISABLE_IT(&TimHandle, TIM_IT_UPDATE);
 185              		.loc 1 164 0
 186 0000 034B     		ldr	r3, .L17
 187 0002 1A68     		ldr	r2, [r3]
 188 0004 D368     		ldr	r3, [r2, #12]
 189 0006 23F00103 		bic	r3, r3, #1
 190 000a D360     		str	r3, [r2, #12]
 165:../system/src/stm32l4-hal-driver/stm32l4xx_hal_timebase_tim_template.c **** }
 191              		.loc 1 165 0
 192 000c 7047     		bx	lr
 193              	.L18:
 194 000e 00BF     		.align	2
 195              	.L17:
 196 0010 00000000 		.word	TimHandle
 197              		.cfi_endproc
 198              	.LFE318:
 200              		.section	.text.HAL_ResumeTick,"ax",%progbits
 201              		.align	1
 202              		.global	HAL_ResumeTick
 203              		.syntax unified
 204              		.thumb
 205              		.thumb_func
 206              		.fpu fpv4-sp-d16
 208              	HAL_ResumeTick:
 209              	.LFB319:
 166:../system/src/stm32l4-hal-driver/stm32l4xx_hal_timebase_tim_template.c **** 
 167:../system/src/stm32l4-hal-driver/stm32l4xx_hal_timebase_tim_template.c **** /**
 168:../system/src/stm32l4-hal-driver/stm32l4xx_hal_timebase_tim_template.c ****   * @brief  Resume Tick increment.
 169:../system/src/stm32l4-hal-driver/stm32l4xx_hal_timebase_tim_template.c ****   * @note   Enable the tick increment by enabling TIM6 update interrupt.
 170:../system/src/stm32l4-hal-driver/stm32l4xx_hal_timebase_tim_template.c ****   * @retval None
 171:../system/src/stm32l4-hal-driver/stm32l4xx_hal_timebase_tim_template.c ****   */
 172:../system/src/stm32l4-hal-driver/stm32l4xx_hal_timebase_tim_template.c **** void HAL_ResumeTick(void)
 173:../system/src/stm32l4-hal-driver/stm32l4xx_hal_timebase_tim_template.c **** {
 210              		.loc 1 173 0
 211              		.cfi_startproc
 212              		@ args = 0, pretend = 0, frame = 0
 213              		@ frame_needed = 0, uses_anonymous_args = 0
 214              		@ link register save eliminated.
 174:../system/src/stm32l4-hal-driver/stm32l4xx_hal_timebase_tim_template.c ****   /* Enable TIM6 update interrupt */
 175:../system/src/stm32l4-hal-driver/stm32l4xx_hal_timebase_tim_template.c ****   __HAL_TIM_ENABLE_IT(&TimHandle, TIM_IT_UPDATE);
 215              		.loc 1 175 0
 216 0000 034B     		ldr	r3, .L20
 217 0002 1A68     		ldr	r2, [r3]
 218 0004 D368     		ldr	r3, [r2, #12]
 219 0006 43F00103 		orr	r3, r3, #1
 220 000a D360     		str	r3, [r2, #12]
 176:../system/src/stm32l4-hal-driver/stm32l4xx_hal_timebase_tim_template.c **** }
 221              		.loc 1 176 0
 222 000c 7047     		bx	lr
 223              	.L21:
 224 000e 00BF     		.align	2
 225              	.L20:
 226 0010 00000000 		.word	TimHandle
 227              		.cfi_endproc
 228              	.LFE319:
 230              		.section	.text.HAL_TIM_PeriodElapsedCallback,"ax",%progbits
 231              		.align	1
 232              		.global	HAL_TIM_PeriodElapsedCallback
 233              		.syntax unified
 234              		.thumb
 235              		.thumb_func
 236              		.fpu fpv4-sp-d16
 238              	HAL_TIM_PeriodElapsedCallback:
 239              	.LFB320:
 177:../system/src/stm32l4-hal-driver/stm32l4xx_hal_timebase_tim_template.c **** 
 178:../system/src/stm32l4-hal-driver/stm32l4xx_hal_timebase_tim_template.c **** /**
 179:../system/src/stm32l4-hal-driver/stm32l4xx_hal_timebase_tim_template.c ****   * @brief  Period elapsed callback in non blocking mode
 180:../system/src/stm32l4-hal-driver/stm32l4xx_hal_timebase_tim_template.c ****   * @note   This function is called  when TIM6 interrupt took place, inside
 181:../system/src/stm32l4-hal-driver/stm32l4xx_hal_timebase_tim_template.c ****   * HAL_TIM_IRQHandler(). It makes a direct call to HAL_IncTick() to increment
 182:../system/src/stm32l4-hal-driver/stm32l4xx_hal_timebase_tim_template.c ****   * a global variable "uwTick" used as application time base.
 183:../system/src/stm32l4-hal-driver/stm32l4xx_hal_timebase_tim_template.c ****   * @param  htim TIM handle
 184:../system/src/stm32l4-hal-driver/stm32l4xx_hal_timebase_tim_template.c ****   * @retval None
 185:../system/src/stm32l4-hal-driver/stm32l4xx_hal_timebase_tim_template.c ****   */
 186:../system/src/stm32l4-hal-driver/stm32l4xx_hal_timebase_tim_template.c **** void HAL_TIM_PeriodElapsedCallback(TIM_HandleTypeDef *htim)
 187:../system/src/stm32l4-hal-driver/stm32l4xx_hal_timebase_tim_template.c **** {
 240              		.loc 1 187 0
 241              		.cfi_startproc
 242              		@ args = 0, pretend = 0, frame = 0
 243              		@ frame_needed = 0, uses_anonymous_args = 0
 244              	.LVL19:
 245 0000 08B5     		push	{r3, lr}
 246              		.cfi_def_cfa_offset 8
 247              		.cfi_offset 3, -8
 248              		.cfi_offset 14, -4
 188:../system/src/stm32l4-hal-driver/stm32l4xx_hal_timebase_tim_template.c ****   /* Prevent unused argument(s) compilation warning */
 189:../system/src/stm32l4-hal-driver/stm32l4xx_hal_timebase_tim_template.c ****   UNUSED(htim);
 190:../system/src/stm32l4-hal-driver/stm32l4xx_hal_timebase_tim_template.c **** 
 191:../system/src/stm32l4-hal-driver/stm32l4xx_hal_timebase_tim_template.c ****   HAL_IncTick();
 249              		.loc 1 191 0
 250 0002 FFF7FEFF 		bl	HAL_IncTick
 251              	.LVL20:
 192:../system/src/stm32l4-hal-driver/stm32l4xx_hal_timebase_tim_template.c **** }
 252              		.loc 1 192 0
 253 0006 08BD     		pop	{r3, pc}
 254              		.cfi_endproc
 255              	.LFE320:
 257              		.section	.text.TIM6_DAC_IRQHandler,"ax",%progbits
 258              		.align	1
 259              		.global	TIM6_DAC_IRQHandler
 260              		.syntax unified
 261              		.thumb
 262              		.thumb_func
 263              		.fpu fpv4-sp-d16
 265              	TIM6_DAC_IRQHandler:
 266              	.LFB321:
 193:../system/src/stm32l4-hal-driver/stm32l4xx_hal_timebase_tim_template.c **** 
 194:../system/src/stm32l4-hal-driver/stm32l4xx_hal_timebase_tim_template.c **** /**
 195:../system/src/stm32l4-hal-driver/stm32l4xx_hal_timebase_tim_template.c ****   * @brief  This function handles TIM interrupt request.
 196:../system/src/stm32l4-hal-driver/stm32l4xx_hal_timebase_tim_template.c ****   * @retval None
 197:../system/src/stm32l4-hal-driver/stm32l4xx_hal_timebase_tim_template.c ****   */
 198:../system/src/stm32l4-hal-driver/stm32l4xx_hal_timebase_tim_template.c **** void TIM6_DAC_IRQHandler(void)
 199:../system/src/stm32l4-hal-driver/stm32l4xx_hal_timebase_tim_template.c **** {
 267              		.loc 1 199 0
 268              		.cfi_startproc
 269              		@ args = 0, pretend = 0, frame = 0
 270              		@ frame_needed = 0, uses_anonymous_args = 0
 271 0000 08B5     		push	{r3, lr}
 272              		.cfi_def_cfa_offset 8
 273              		.cfi_offset 3, -8
 274              		.cfi_offset 14, -4
 200:../system/src/stm32l4-hal-driver/stm32l4xx_hal_timebase_tim_template.c ****   HAL_TIM_IRQHandler(&TimHandle);
 275              		.loc 1 200 0
 276 0002 0248     		ldr	r0, .L26
 277 0004 FFF7FEFF 		bl	HAL_TIM_IRQHandler
 278              	.LVL21:
 201:../system/src/stm32l4-hal-driver/stm32l4xx_hal_timebase_tim_template.c **** }
 279              		.loc 1 201 0
 280 0008 08BD     		pop	{r3, pc}
 281              	.L27:
 282 000a 00BF     		.align	2
 283              	.L26:
 284 000c 00000000 		.word	TimHandle
 285              		.cfi_endproc
 286              	.LFE321:
 288              		.comm	TimHandle,76,4
 289              		.text
 290              	.Letext0:
 291              		.file 2 "/usr/local/bin/gcc-arm-none-eabi-7-2018-q2-update/lib/gcc/arm-none-eabi/7.3.1/include/std
 292              		.file 3 "../system/include/cmsis/stm32l4xx/core_cm4.h"
 293              		.file 4 "../system/include/cmsis/stm32l4xx/device/system_stm32l4xx.h"
 294              		.file 5 "../system/include/cmsis/stm32l4xx/device/stm32l471xx.h"
 295              		.file 6 "../system/include/stm32l4-hal-driver/stm32l4xx_hal_def.h"
 296              		.file 7 "../system/include/stm32l4-hal-driver/stm32l4xx_hal_rcc.h"
 297              		.file 8 "../system/include/stm32l4-hal-driver/stm32l4xx_hal_dma.h"
 298              		.file 9 "../system/include/stm32l4-hal-driver/stm32l4xx_hal_flash.h"
 299              		.file 10 "../system/include/stm32l4-hal-driver/stm32l4xx_hal_tim.h"
 300              		.file 11 "../system/include/stm32l4-hal-driver/stm32l4xx_hal.h"
 301              		.file 12 "../system/include/stm32l4-hal-driver/stm32l4xx_hal_cortex.h"