   1              		.cpu cortex-m4
   2              		.eabi_attribute 27, 1
   3              		.eabi_attribute 28, 1
   4              		.eabi_attribute 20, 1
   5              		.eabi_attribute 21, 1
   6              		.eabi_attribute 23, 3
   7              		.eabi_attribute 24, 1
   8              		.eabi_attribute 25, 1
   9              		.eabi_attribute 26, 1
  10              		.eabi_attribute 30, 1
  11              		.eabi_attribute 34, 1
  12              		.eabi_attribute 18, 4
  13              		.file	"stm32l4xx_hal_i2c_ex.c"
  14              		.text
  15              	.Ltext0:
  16              		.cfi_sections	.debug_frame
  17              		.section	.text.HAL_I2CEx_ConfigAnalogFilter,"ax",%progbits
  18              		.align	1
  19              		.global	HAL_I2CEx_ConfigAnalogFilter
  20              		.syntax unified
  21              		.thumb
  22              		.thumb_func
  23              		.fpu fpv4-sp-d16
  25              	HAL_I2CEx_ConfigAnalogFilter:
  26              	.LFB317:
  27              		.file 1 "../system/src/stm32l4-hal-driver/stm32l4xx_hal_i2c_ex.c"
   1:../system/src/stm32l4-hal-driver/stm32l4xx_hal_i2c_ex.c **** /**
   2:../system/src/stm32l4-hal-driver/stm32l4xx_hal_i2c_ex.c ****   ******************************************************************************
   3:../system/src/stm32l4-hal-driver/stm32l4xx_hal_i2c_ex.c ****   * @file    stm32l4xx_hal_i2c_ex.c
   4:../system/src/stm32l4-hal-driver/stm32l4xx_hal_i2c_ex.c ****   * @author  MCD Application Team
   5:../system/src/stm32l4-hal-driver/stm32l4xx_hal_i2c_ex.c ****   * @brief   I2C Extended HAL module driver.
   6:../system/src/stm32l4-hal-driver/stm32l4xx_hal_i2c_ex.c ****   *          This file provides firmware functions to manage the following
   7:../system/src/stm32l4-hal-driver/stm32l4xx_hal_i2c_ex.c ****   *          functionalities of I2C Extended peripheral:
   8:../system/src/stm32l4-hal-driver/stm32l4xx_hal_i2c_ex.c ****   *           + Extended features functions
   9:../system/src/stm32l4-hal-driver/stm32l4xx_hal_i2c_ex.c ****   *
  10:../system/src/stm32l4-hal-driver/stm32l4xx_hal_i2c_ex.c ****   @verbatim
  11:../system/src/stm32l4-hal-driver/stm32l4xx_hal_i2c_ex.c ****   ==============================================================================
  12:../system/src/stm32l4-hal-driver/stm32l4xx_hal_i2c_ex.c ****                ##### I2C peripheral Extended features  #####
  13:../system/src/stm32l4-hal-driver/stm32l4xx_hal_i2c_ex.c ****   ==============================================================================
  14:../system/src/stm32l4-hal-driver/stm32l4xx_hal_i2c_ex.c **** 
  15:../system/src/stm32l4-hal-driver/stm32l4xx_hal_i2c_ex.c ****   [..] Comparing to other previous devices, the I2C interface for STM32L4xx
  16:../system/src/stm32l4-hal-driver/stm32l4xx_hal_i2c_ex.c ****        devices contains the following additional features
  17:../system/src/stm32l4-hal-driver/stm32l4xx_hal_i2c_ex.c **** 
  18:../system/src/stm32l4-hal-driver/stm32l4xx_hal_i2c_ex.c ****        (+) Possibility to disable or enable Analog Noise Filter
  19:../system/src/stm32l4-hal-driver/stm32l4xx_hal_i2c_ex.c ****        (+) Use of a configured Digital Noise Filter
  20:../system/src/stm32l4-hal-driver/stm32l4xx_hal_i2c_ex.c ****        (+) Disable or enable wakeup from Stop mode(s)
  21:../system/src/stm32l4-hal-driver/stm32l4xx_hal_i2c_ex.c ****        (+) Disable or enable Fast Mode Plus
  22:../system/src/stm32l4-hal-driver/stm32l4xx_hal_i2c_ex.c **** 
  23:../system/src/stm32l4-hal-driver/stm32l4xx_hal_i2c_ex.c ****                      ##### How to use this driver #####
  24:../system/src/stm32l4-hal-driver/stm32l4xx_hal_i2c_ex.c ****   ==============================================================================
  25:../system/src/stm32l4-hal-driver/stm32l4xx_hal_i2c_ex.c ****   [..] This driver provides functions to configure Noise Filter and Wake Up Feature
  26:../system/src/stm32l4-hal-driver/stm32l4xx_hal_i2c_ex.c ****     (#) Configure I2C Analog noise filter using the function HAL_I2CEx_ConfigAnalogFilter()
  27:../system/src/stm32l4-hal-driver/stm32l4xx_hal_i2c_ex.c ****     (#) Configure I2C Digital noise filter using the function HAL_I2CEx_ConfigDigitalFilter()
  28:../system/src/stm32l4-hal-driver/stm32l4xx_hal_i2c_ex.c ****     (#) Configure the enable or disable of I2C Wake Up Mode using the functions :
  29:../system/src/stm32l4-hal-driver/stm32l4xx_hal_i2c_ex.c ****           (++) HAL_I2CEx_EnableWakeUp()
  30:../system/src/stm32l4-hal-driver/stm32l4xx_hal_i2c_ex.c ****           (++) HAL_I2CEx_DisableWakeUp()
  31:../system/src/stm32l4-hal-driver/stm32l4xx_hal_i2c_ex.c ****     (#) Configure the enable or disable of fast mode plus driving capability using the functions :
  32:../system/src/stm32l4-hal-driver/stm32l4xx_hal_i2c_ex.c ****           (++) HAL_I2CEx_EnableFastModePlus()
  33:../system/src/stm32l4-hal-driver/stm32l4xx_hal_i2c_ex.c ****           (++) HAL_I2CEx_DisableFastModePlus()
  34:../system/src/stm32l4-hal-driver/stm32l4xx_hal_i2c_ex.c ****   @endverbatim
  35:../system/src/stm32l4-hal-driver/stm32l4xx_hal_i2c_ex.c ****   ******************************************************************************
  36:../system/src/stm32l4-hal-driver/stm32l4xx_hal_i2c_ex.c ****   * @attention
  37:../system/src/stm32l4-hal-driver/stm32l4xx_hal_i2c_ex.c ****   *
  38:../system/src/stm32l4-hal-driver/stm32l4xx_hal_i2c_ex.c ****   * <h2><center>&copy; Copyright (c) 2017 STMicroelectronics.
  39:../system/src/stm32l4-hal-driver/stm32l4xx_hal_i2c_ex.c ****   * All rights reserved.</center></h2>
  40:../system/src/stm32l4-hal-driver/stm32l4xx_hal_i2c_ex.c ****   *
  41:../system/src/stm32l4-hal-driver/stm32l4xx_hal_i2c_ex.c ****   * This software component is licensed by ST under BSD 3-Clause license,
  42:../system/src/stm32l4-hal-driver/stm32l4xx_hal_i2c_ex.c ****   * the "License"; You may not use this file except in compliance with the
  43:../system/src/stm32l4-hal-driver/stm32l4xx_hal_i2c_ex.c ****   * License. You may obtain a copy of the License at:
  44:../system/src/stm32l4-hal-driver/stm32l4xx_hal_i2c_ex.c ****   *                        opensource.org/licenses/BSD-3-Clause
  45:../system/src/stm32l4-hal-driver/stm32l4xx_hal_i2c_ex.c ****   *
  46:../system/src/stm32l4-hal-driver/stm32l4xx_hal_i2c_ex.c ****   ******************************************************************************
  47:../system/src/stm32l4-hal-driver/stm32l4xx_hal_i2c_ex.c ****   */
  48:../system/src/stm32l4-hal-driver/stm32l4xx_hal_i2c_ex.c **** 
  49:../system/src/stm32l4-hal-driver/stm32l4xx_hal_i2c_ex.c **** /* Includes ------------------------------------------------------------------*/
  50:../system/src/stm32l4-hal-driver/stm32l4xx_hal_i2c_ex.c **** #include "stm32l4xx_hal.h"
  51:../system/src/stm32l4-hal-driver/stm32l4xx_hal_i2c_ex.c **** 
  52:../system/src/stm32l4-hal-driver/stm32l4xx_hal_i2c_ex.c **** /** @addtogroup STM32L4xx_HAL_Driver
  53:../system/src/stm32l4-hal-driver/stm32l4xx_hal_i2c_ex.c ****   * @{
  54:../system/src/stm32l4-hal-driver/stm32l4xx_hal_i2c_ex.c ****   */
  55:../system/src/stm32l4-hal-driver/stm32l4xx_hal_i2c_ex.c **** 
  56:../system/src/stm32l4-hal-driver/stm32l4xx_hal_i2c_ex.c **** /** @defgroup I2CEx I2CEx
  57:../system/src/stm32l4-hal-driver/stm32l4xx_hal_i2c_ex.c ****   * @brief I2C Extended HAL module driver
  58:../system/src/stm32l4-hal-driver/stm32l4xx_hal_i2c_ex.c ****   * @{
  59:../system/src/stm32l4-hal-driver/stm32l4xx_hal_i2c_ex.c ****   */
  60:../system/src/stm32l4-hal-driver/stm32l4xx_hal_i2c_ex.c **** 
  61:../system/src/stm32l4-hal-driver/stm32l4xx_hal_i2c_ex.c **** #ifdef HAL_I2C_MODULE_ENABLED
  62:../system/src/stm32l4-hal-driver/stm32l4xx_hal_i2c_ex.c **** 
  63:../system/src/stm32l4-hal-driver/stm32l4xx_hal_i2c_ex.c **** /* Private typedef -----------------------------------------------------------*/
  64:../system/src/stm32l4-hal-driver/stm32l4xx_hal_i2c_ex.c **** /* Private define ------------------------------------------------------------*/
  65:../system/src/stm32l4-hal-driver/stm32l4xx_hal_i2c_ex.c **** /* Private macro -------------------------------------------------------------*/
  66:../system/src/stm32l4-hal-driver/stm32l4xx_hal_i2c_ex.c **** /* Private variables ---------------------------------------------------------*/
  67:../system/src/stm32l4-hal-driver/stm32l4xx_hal_i2c_ex.c **** /* Private function prototypes -----------------------------------------------*/
  68:../system/src/stm32l4-hal-driver/stm32l4xx_hal_i2c_ex.c **** /* Private functions ---------------------------------------------------------*/
  69:../system/src/stm32l4-hal-driver/stm32l4xx_hal_i2c_ex.c **** 
  70:../system/src/stm32l4-hal-driver/stm32l4xx_hal_i2c_ex.c **** /** @defgroup I2CEx_Exported_Functions I2C Extended Exported Functions
  71:../system/src/stm32l4-hal-driver/stm32l4xx_hal_i2c_ex.c ****   * @{
  72:../system/src/stm32l4-hal-driver/stm32l4xx_hal_i2c_ex.c ****   */
  73:../system/src/stm32l4-hal-driver/stm32l4xx_hal_i2c_ex.c **** 
  74:../system/src/stm32l4-hal-driver/stm32l4xx_hal_i2c_ex.c **** /** @defgroup I2CEx_Exported_Functions_Group1 Extended features functions
  75:../system/src/stm32l4-hal-driver/stm32l4xx_hal_i2c_ex.c ****   * @brief    Extended features functions
  76:../system/src/stm32l4-hal-driver/stm32l4xx_hal_i2c_ex.c ****   *
  77:../system/src/stm32l4-hal-driver/stm32l4xx_hal_i2c_ex.c **** @verbatim
  78:../system/src/stm32l4-hal-driver/stm32l4xx_hal_i2c_ex.c ****  ===============================================================================
  79:../system/src/stm32l4-hal-driver/stm32l4xx_hal_i2c_ex.c ****                       ##### Extended features functions #####
  80:../system/src/stm32l4-hal-driver/stm32l4xx_hal_i2c_ex.c ****  ===============================================================================
  81:../system/src/stm32l4-hal-driver/stm32l4xx_hal_i2c_ex.c ****     [..] This section provides functions allowing to:
  82:../system/src/stm32l4-hal-driver/stm32l4xx_hal_i2c_ex.c ****       (+) Configure Noise Filters
  83:../system/src/stm32l4-hal-driver/stm32l4xx_hal_i2c_ex.c ****       (+) Configure Wake Up Feature
  84:../system/src/stm32l4-hal-driver/stm32l4xx_hal_i2c_ex.c ****       (+) Configure Fast Mode Plus
  85:../system/src/stm32l4-hal-driver/stm32l4xx_hal_i2c_ex.c **** 
  86:../system/src/stm32l4-hal-driver/stm32l4xx_hal_i2c_ex.c **** @endverbatim
  87:../system/src/stm32l4-hal-driver/stm32l4xx_hal_i2c_ex.c ****   * @{
  88:../system/src/stm32l4-hal-driver/stm32l4xx_hal_i2c_ex.c ****   */
  89:../system/src/stm32l4-hal-driver/stm32l4xx_hal_i2c_ex.c **** 
  90:../system/src/stm32l4-hal-driver/stm32l4xx_hal_i2c_ex.c **** /**
  91:../system/src/stm32l4-hal-driver/stm32l4xx_hal_i2c_ex.c ****   * @brief  Configure I2C Analog noise filter.
  92:../system/src/stm32l4-hal-driver/stm32l4xx_hal_i2c_ex.c ****   * @param  hi2c Pointer to a I2C_HandleTypeDef structure that contains
  93:../system/src/stm32l4-hal-driver/stm32l4xx_hal_i2c_ex.c ****   *                the configuration information for the specified I2Cx peripheral.
  94:../system/src/stm32l4-hal-driver/stm32l4xx_hal_i2c_ex.c ****   * @param  AnalogFilter New state of the Analog filter.
  95:../system/src/stm32l4-hal-driver/stm32l4xx_hal_i2c_ex.c ****   * @retval HAL status
  96:../system/src/stm32l4-hal-driver/stm32l4xx_hal_i2c_ex.c ****   */
  97:../system/src/stm32l4-hal-driver/stm32l4xx_hal_i2c_ex.c **** HAL_StatusTypeDef HAL_I2CEx_ConfigAnalogFilter(I2C_HandleTypeDef *hi2c, uint32_t AnalogFilter)
  98:../system/src/stm32l4-hal-driver/stm32l4xx_hal_i2c_ex.c **** {
  28              		.loc 1 98 0
  29              		.cfi_startproc
  30              		@ args = 0, pretend = 0, frame = 0
  31              		@ frame_needed = 0, uses_anonymous_args = 0
  32              		@ link register save eliminated.
  33              	.LVL0:
  99:../system/src/stm32l4-hal-driver/stm32l4xx_hal_i2c_ex.c ****   /* Check the parameters */
 100:../system/src/stm32l4-hal-driver/stm32l4xx_hal_i2c_ex.c ****   assert_param(IS_I2C_ALL_INSTANCE(hi2c->Instance));
 101:../system/src/stm32l4-hal-driver/stm32l4xx_hal_i2c_ex.c ****   assert_param(IS_I2C_ANALOG_FILTER(AnalogFilter));
 102:../system/src/stm32l4-hal-driver/stm32l4xx_hal_i2c_ex.c **** 
 103:../system/src/stm32l4-hal-driver/stm32l4xx_hal_i2c_ex.c ****   if (hi2c->State == HAL_I2C_STATE_READY)
  34              		.loc 1 103 0
  35 0000 90F84130 		ldrb	r3, [r0, #65]	@ zero_extendqisi2
  36 0004 DBB2     		uxtb	r3, r3
  37 0006 202B     		cmp	r3, #32
  38 0008 24D1     		bne	.L3
 104:../system/src/stm32l4-hal-driver/stm32l4xx_hal_i2c_ex.c ****   {
 105:../system/src/stm32l4-hal-driver/stm32l4xx_hal_i2c_ex.c ****     /* Process Locked */
 106:../system/src/stm32l4-hal-driver/stm32l4xx_hal_i2c_ex.c ****     __HAL_LOCK(hi2c);
  39              		.loc 1 106 0
  40 000a 90F84030 		ldrb	r3, [r0, #64]	@ zero_extendqisi2
  41 000e 012B     		cmp	r3, #1
  42 0010 22D0     		beq	.L4
  43              		.loc 1 106 0 is_stmt 0 discriminator 2
  44 0012 0123     		movs	r3, #1
  45 0014 80F84030 		strb	r3, [r0, #64]
 107:../system/src/stm32l4-hal-driver/stm32l4xx_hal_i2c_ex.c **** 
 108:../system/src/stm32l4-hal-driver/stm32l4xx_hal_i2c_ex.c ****     hi2c->State = HAL_I2C_STATE_BUSY;
  46              		.loc 1 108 0 is_stmt 1 discriminator 2
  47 0018 2423     		movs	r3, #36
  48 001a 80F84130 		strb	r3, [r0, #65]
 109:../system/src/stm32l4-hal-driver/stm32l4xx_hal_i2c_ex.c **** 
 110:../system/src/stm32l4-hal-driver/stm32l4xx_hal_i2c_ex.c ****     /* Disable the selected I2C peripheral */
 111:../system/src/stm32l4-hal-driver/stm32l4xx_hal_i2c_ex.c ****     __HAL_I2C_DISABLE(hi2c);
  49              		.loc 1 111 0 discriminator 2
  50 001e 0268     		ldr	r2, [r0]
  51 0020 1368     		ldr	r3, [r2]
  52 0022 23F00103 		bic	r3, r3, #1
  53 0026 1360     		str	r3, [r2]
 112:../system/src/stm32l4-hal-driver/stm32l4xx_hal_i2c_ex.c **** 
 113:../system/src/stm32l4-hal-driver/stm32l4xx_hal_i2c_ex.c ****     /* Reset I2Cx ANOFF bit */
 114:../system/src/stm32l4-hal-driver/stm32l4xx_hal_i2c_ex.c ****     hi2c->Instance->CR1 &= ~(I2C_CR1_ANFOFF);
  54              		.loc 1 114 0 discriminator 2
  55 0028 0268     		ldr	r2, [r0]
  56 002a 1368     		ldr	r3, [r2]
  57 002c 23F48053 		bic	r3, r3, #4096
  58 0030 1360     		str	r3, [r2]
 115:../system/src/stm32l4-hal-driver/stm32l4xx_hal_i2c_ex.c **** 
 116:../system/src/stm32l4-hal-driver/stm32l4xx_hal_i2c_ex.c ****     /* Set analog filter bit*/
 117:../system/src/stm32l4-hal-driver/stm32l4xx_hal_i2c_ex.c ****     hi2c->Instance->CR1 |= AnalogFilter;
  59              		.loc 1 117 0 discriminator 2
  60 0032 0268     		ldr	r2, [r0]
  61 0034 1368     		ldr	r3, [r2]
  62 0036 1943     		orrs	r1, r1, r3
  63              	.LVL1:
  64 0038 1160     		str	r1, [r2]
 118:../system/src/stm32l4-hal-driver/stm32l4xx_hal_i2c_ex.c **** 
 119:../system/src/stm32l4-hal-driver/stm32l4xx_hal_i2c_ex.c ****     __HAL_I2C_ENABLE(hi2c);
  65              		.loc 1 119 0 discriminator 2
  66 003a 0268     		ldr	r2, [r0]
  67 003c 1368     		ldr	r3, [r2]
  68 003e 43F00103 		orr	r3, r3, #1
  69 0042 1360     		str	r3, [r2]
 120:../system/src/stm32l4-hal-driver/stm32l4xx_hal_i2c_ex.c **** 
 121:../system/src/stm32l4-hal-driver/stm32l4xx_hal_i2c_ex.c ****     hi2c->State = HAL_I2C_STATE_READY;
  70              		.loc 1 121 0 discriminator 2
  71 0044 2023     		movs	r3, #32
  72 0046 80F84130 		strb	r3, [r0, #65]
 122:../system/src/stm32l4-hal-driver/stm32l4xx_hal_i2c_ex.c **** 
 123:../system/src/stm32l4-hal-driver/stm32l4xx_hal_i2c_ex.c ****     /* Process Unlocked */
 124:../system/src/stm32l4-hal-driver/stm32l4xx_hal_i2c_ex.c ****     __HAL_UNLOCK(hi2c);
  73              		.loc 1 124 0 discriminator 2
  74 004a 0023     		movs	r3, #0
  75 004c 80F84030 		strb	r3, [r0, #64]
 125:../system/src/stm32l4-hal-driver/stm32l4xx_hal_i2c_ex.c **** 
 126:../system/src/stm32l4-hal-driver/stm32l4xx_hal_i2c_ex.c ****     return HAL_OK;
  76              		.loc 1 126 0 discriminator 2
  77 0050 1846     		mov	r0, r3
  78              	.LVL2:
  79 0052 7047     		bx	lr
  80              	.LVL3:
  81              	.L3:
 127:../system/src/stm32l4-hal-driver/stm32l4xx_hal_i2c_ex.c ****   }
 128:../system/src/stm32l4-hal-driver/stm32l4xx_hal_i2c_ex.c ****   else
 129:../system/src/stm32l4-hal-driver/stm32l4xx_hal_i2c_ex.c ****   {
 130:../system/src/stm32l4-hal-driver/stm32l4xx_hal_i2c_ex.c ****     return HAL_BUSY;
  82              		.loc 1 130 0
  83 0054 0220     		movs	r0, #2
  84              	.LVL4:
  85 0056 7047     		bx	lr
  86              	.LVL5:
  87              	.L4:
 106:../system/src/stm32l4-hal-driver/stm32l4xx_hal_i2c_ex.c **** 
  88              		.loc 1 106 0
  89 0058 0220     		movs	r0, #2
  90              	.LVL6:
 131:../system/src/stm32l4-hal-driver/stm32l4xx_hal_i2c_ex.c ****   }
 132:../system/src/stm32l4-hal-driver/stm32l4xx_hal_i2c_ex.c **** }
  91              		.loc 1 132 0
  92 005a 7047     		bx	lr
  93              		.cfi_endproc
  94              	.LFE317:
  96              		.section	.text.HAL_I2CEx_ConfigDigitalFilter,"ax",%progbits
  97              		.align	1
  98              		.global	HAL_I2CEx_ConfigDigitalFilter
  99              		.syntax unified
 100              		.thumb
 101              		.thumb_func
 102              		.fpu fpv4-sp-d16
 104              	HAL_I2CEx_ConfigDigitalFilter:
 105              	.LFB318:
 133:../system/src/stm32l4-hal-driver/stm32l4xx_hal_i2c_ex.c **** 
 134:../system/src/stm32l4-hal-driver/stm32l4xx_hal_i2c_ex.c **** /**
 135:../system/src/stm32l4-hal-driver/stm32l4xx_hal_i2c_ex.c ****   * @brief  Configure I2C Digital noise filter.
 136:../system/src/stm32l4-hal-driver/stm32l4xx_hal_i2c_ex.c ****   * @param  hi2c Pointer to a I2C_HandleTypeDef structure that contains
 137:../system/src/stm32l4-hal-driver/stm32l4xx_hal_i2c_ex.c ****   *                the configuration information for the specified I2Cx peripheral.
 138:../system/src/stm32l4-hal-driver/stm32l4xx_hal_i2c_ex.c ****   * @param  DigitalFilter Coefficient of digital noise filter between Min_Data=0x00 and Max_Data=0x
 139:../system/src/stm32l4-hal-driver/stm32l4xx_hal_i2c_ex.c ****   * @retval HAL status
 140:../system/src/stm32l4-hal-driver/stm32l4xx_hal_i2c_ex.c ****   */
 141:../system/src/stm32l4-hal-driver/stm32l4xx_hal_i2c_ex.c **** HAL_StatusTypeDef HAL_I2CEx_ConfigDigitalFilter(I2C_HandleTypeDef *hi2c, uint32_t DigitalFilter)
 142:../system/src/stm32l4-hal-driver/stm32l4xx_hal_i2c_ex.c **** {
 106              		.loc 1 142 0
 107              		.cfi_startproc
 108              		@ args = 0, pretend = 0, frame = 0
 109              		@ frame_needed = 0, uses_anonymous_args = 0
 110              		@ link register save eliminated.
 111              	.LVL7:
 143:../system/src/stm32l4-hal-driver/stm32l4xx_hal_i2c_ex.c ****   uint32_t tmpreg;
 144:../system/src/stm32l4-hal-driver/stm32l4xx_hal_i2c_ex.c **** 
 145:../system/src/stm32l4-hal-driver/stm32l4xx_hal_i2c_ex.c ****   /* Check the parameters */
 146:../system/src/stm32l4-hal-driver/stm32l4xx_hal_i2c_ex.c ****   assert_param(IS_I2C_ALL_INSTANCE(hi2c->Instance));
 147:../system/src/stm32l4-hal-driver/stm32l4xx_hal_i2c_ex.c ****   assert_param(IS_I2C_DIGITAL_FILTER(DigitalFilter));
 148:../system/src/stm32l4-hal-driver/stm32l4xx_hal_i2c_ex.c **** 
 149:../system/src/stm32l4-hal-driver/stm32l4xx_hal_i2c_ex.c ****   if (hi2c->State == HAL_I2C_STATE_READY)
 112              		.loc 1 149 0
 113 0000 90F84130 		ldrb	r3, [r0, #65]	@ zero_extendqisi2
 114 0004 DBB2     		uxtb	r3, r3
 115 0006 202B     		cmp	r3, #32
 116 0008 22D1     		bne	.L7
 150:../system/src/stm32l4-hal-driver/stm32l4xx_hal_i2c_ex.c ****   {
 151:../system/src/stm32l4-hal-driver/stm32l4xx_hal_i2c_ex.c ****     /* Process Locked */
 152:../system/src/stm32l4-hal-driver/stm32l4xx_hal_i2c_ex.c ****     __HAL_LOCK(hi2c);
 117              		.loc 1 152 0
 118 000a 90F84030 		ldrb	r3, [r0, #64]	@ zero_extendqisi2
 119 000e 012B     		cmp	r3, #1
 120 0010 20D0     		beq	.L8
 121              		.loc 1 152 0 is_stmt 0 discriminator 2
 122 0012 0123     		movs	r3, #1
 123 0014 80F84030 		strb	r3, [r0, #64]
 153:../system/src/stm32l4-hal-driver/stm32l4xx_hal_i2c_ex.c **** 
 154:../system/src/stm32l4-hal-driver/stm32l4xx_hal_i2c_ex.c ****     hi2c->State = HAL_I2C_STATE_BUSY;
 124              		.loc 1 154 0 is_stmt 1 discriminator 2
 125 0018 2423     		movs	r3, #36
 126 001a 80F84130 		strb	r3, [r0, #65]
 155:../system/src/stm32l4-hal-driver/stm32l4xx_hal_i2c_ex.c **** 
 156:../system/src/stm32l4-hal-driver/stm32l4xx_hal_i2c_ex.c ****     /* Disable the selected I2C peripheral */
 157:../system/src/stm32l4-hal-driver/stm32l4xx_hal_i2c_ex.c ****     __HAL_I2C_DISABLE(hi2c);
 127              		.loc 1 157 0 discriminator 2
 128 001e 0268     		ldr	r2, [r0]
 129 0020 1368     		ldr	r3, [r2]
 130 0022 23F00103 		bic	r3, r3, #1
 131 0026 1360     		str	r3, [r2]
 158:../system/src/stm32l4-hal-driver/stm32l4xx_hal_i2c_ex.c **** 
 159:../system/src/stm32l4-hal-driver/stm32l4xx_hal_i2c_ex.c ****     /* Get the old register value */
 160:../system/src/stm32l4-hal-driver/stm32l4xx_hal_i2c_ex.c ****     tmpreg = hi2c->Instance->CR1;
 132              		.loc 1 160 0 discriminator 2
 133 0028 0268     		ldr	r2, [r0]
 134 002a 1368     		ldr	r3, [r2]
 135              	.LVL8:
 161:../system/src/stm32l4-hal-driver/stm32l4xx_hal_i2c_ex.c **** 
 162:../system/src/stm32l4-hal-driver/stm32l4xx_hal_i2c_ex.c ****     /* Reset I2Cx DNF bits [11:8] */
 163:../system/src/stm32l4-hal-driver/stm32l4xx_hal_i2c_ex.c ****     tmpreg &= ~(I2C_CR1_DNF);
 136              		.loc 1 163 0 discriminator 2
 137 002c 23F47063 		bic	r3, r3, #3840
 138              	.LVL9:
 164:../system/src/stm32l4-hal-driver/stm32l4xx_hal_i2c_ex.c **** 
 165:../system/src/stm32l4-hal-driver/stm32l4xx_hal_i2c_ex.c ****     /* Set I2Cx DNF coefficient */
 166:../system/src/stm32l4-hal-driver/stm32l4xx_hal_i2c_ex.c ****     tmpreg |= DigitalFilter << 8U;
 139              		.loc 1 166 0 discriminator 2
 140 0030 43EA0121 		orr	r1, r3, r1, lsl #8
 141              	.LVL10:
 167:../system/src/stm32l4-hal-driver/stm32l4xx_hal_i2c_ex.c **** 
 168:../system/src/stm32l4-hal-driver/stm32l4xx_hal_i2c_ex.c ****     /* Store the new register value */
 169:../system/src/stm32l4-hal-driver/stm32l4xx_hal_i2c_ex.c ****     hi2c->Instance->CR1 = tmpreg;
 142              		.loc 1 169 0 discriminator 2
 143 0034 1160     		str	r1, [r2]
 170:../system/src/stm32l4-hal-driver/stm32l4xx_hal_i2c_ex.c **** 
 171:../system/src/stm32l4-hal-driver/stm32l4xx_hal_i2c_ex.c ****     __HAL_I2C_ENABLE(hi2c);
 144              		.loc 1 171 0 discriminator 2
 145 0036 0268     		ldr	r2, [r0]
 146 0038 1368     		ldr	r3, [r2]
 147 003a 43F00103 		orr	r3, r3, #1
 148 003e 1360     		str	r3, [r2]
 172:../system/src/stm32l4-hal-driver/stm32l4xx_hal_i2c_ex.c **** 
 173:../system/src/stm32l4-hal-driver/stm32l4xx_hal_i2c_ex.c ****     hi2c->State = HAL_I2C_STATE_READY;
 149              		.loc 1 173 0 discriminator 2
 150 0040 2023     		movs	r3, #32
 151 0042 80F84130 		strb	r3, [r0, #65]
 174:../system/src/stm32l4-hal-driver/stm32l4xx_hal_i2c_ex.c **** 
 175:../system/src/stm32l4-hal-driver/stm32l4xx_hal_i2c_ex.c ****     /* Process Unlocked */
 176:../system/src/stm32l4-hal-driver/stm32l4xx_hal_i2c_ex.c ****     __HAL_UNLOCK(hi2c);
 152              		.loc 1 176 0 discriminator 2
 153 0046 0023     		movs	r3, #0
 154 0048 80F84030 		strb	r3, [r0, #64]
 177:../system/src/stm32l4-hal-driver/stm32l4xx_hal_i2c_ex.c **** 
 178:../system/src/stm32l4-hal-driver/stm32l4xx_hal_i2c_ex.c ****     return HAL_OK;
 155              		.loc 1 178 0 discriminator 2
 156 004c 1846     		mov	r0, r3
 157              	.LVL11:
 158 004e 7047     		bx	lr
 159              	.LVL12:
 160              	.L7:
 179:../system/src/stm32l4-hal-driver/stm32l4xx_hal_i2c_ex.c ****   }
 180:../system/src/stm32l4-hal-driver/stm32l4xx_hal_i2c_ex.c ****   else
 181:../system/src/stm32l4-hal-driver/stm32l4xx_hal_i2c_ex.c ****   {
 182:../system/src/stm32l4-hal-driver/stm32l4xx_hal_i2c_ex.c ****     return HAL_BUSY;
 161              		.loc 1 182 0
 162 0050 0220     		movs	r0, #2
 163              	.LVL13:
 164 0052 7047     		bx	lr
 165              	.LVL14:
 166              	.L8:
 152:../system/src/stm32l4-hal-driver/stm32l4xx_hal_i2c_ex.c **** 
 167              		.loc 1 152 0
 168 0054 0220     		movs	r0, #2
 169              	.LVL15:
 183:../system/src/stm32l4-hal-driver/stm32l4xx_hal_i2c_ex.c ****   }
 184:../system/src/stm32l4-hal-driver/stm32l4xx_hal_i2c_ex.c **** }
 170              		.loc 1 184 0
 171 0056 7047     		bx	lr
 172              		.cfi_endproc
 173              	.LFE318:
 175              		.section	.text.HAL_I2CEx_EnableWakeUp,"ax",%progbits
 176              		.align	1
 177              		.global	HAL_I2CEx_EnableWakeUp
 178              		.syntax unified
 179              		.thumb
 180              		.thumb_func
 181              		.fpu fpv4-sp-d16
 183              	HAL_I2CEx_EnableWakeUp:
 184              	.LFB319:
 185:../system/src/stm32l4-hal-driver/stm32l4xx_hal_i2c_ex.c **** 
 186:../system/src/stm32l4-hal-driver/stm32l4xx_hal_i2c_ex.c **** /**
 187:../system/src/stm32l4-hal-driver/stm32l4xx_hal_i2c_ex.c ****   * @brief  Enable I2C wakeup from Stop mode(s).
 188:../system/src/stm32l4-hal-driver/stm32l4xx_hal_i2c_ex.c ****   * @param  hi2c Pointer to a I2C_HandleTypeDef structure that contains
 189:../system/src/stm32l4-hal-driver/stm32l4xx_hal_i2c_ex.c ****   *                the configuration information for the specified I2Cx peripheral.
 190:../system/src/stm32l4-hal-driver/stm32l4xx_hal_i2c_ex.c ****   * @retval HAL status
 191:../system/src/stm32l4-hal-driver/stm32l4xx_hal_i2c_ex.c ****   */
 192:../system/src/stm32l4-hal-driver/stm32l4xx_hal_i2c_ex.c **** HAL_StatusTypeDef HAL_I2CEx_EnableWakeUp(I2C_HandleTypeDef *hi2c)
 193:../system/src/stm32l4-hal-driver/stm32l4xx_hal_i2c_ex.c **** {
 185              		.loc 1 193 0
 186              		.cfi_startproc
 187              		@ args = 0, pretend = 0, frame = 0
 188              		@ frame_needed = 0, uses_anonymous_args = 0
 189              		@ link register save eliminated.
 190              	.LVL16:
 194:../system/src/stm32l4-hal-driver/stm32l4xx_hal_i2c_ex.c ****   /* Check the parameters */
 195:../system/src/stm32l4-hal-driver/stm32l4xx_hal_i2c_ex.c ****   assert_param(IS_I2C_WAKEUP_FROMSTOP_INSTANCE(hi2c->Instance));
 196:../system/src/stm32l4-hal-driver/stm32l4xx_hal_i2c_ex.c **** 
 197:../system/src/stm32l4-hal-driver/stm32l4xx_hal_i2c_ex.c ****   if (hi2c->State == HAL_I2C_STATE_READY)
 191              		.loc 1 197 0
 192 0000 90F84130 		ldrb	r3, [r0, #65]	@ zero_extendqisi2
 193 0004 DBB2     		uxtb	r3, r3
 194 0006 202B     		cmp	r3, #32
 195 0008 20D1     		bne	.L11
 198:../system/src/stm32l4-hal-driver/stm32l4xx_hal_i2c_ex.c ****   {
 199:../system/src/stm32l4-hal-driver/stm32l4xx_hal_i2c_ex.c ****     /* Process Locked */
 200:../system/src/stm32l4-hal-driver/stm32l4xx_hal_i2c_ex.c ****     __HAL_LOCK(hi2c);
 196              		.loc 1 200 0
 197 000a 90F84030 		ldrb	r3, [r0, #64]	@ zero_extendqisi2
 198 000e 012B     		cmp	r3, #1
 199 0010 1ED0     		beq	.L12
 200              		.loc 1 200 0 is_stmt 0 discriminator 2
 201 0012 0123     		movs	r3, #1
 202 0014 80F84030 		strb	r3, [r0, #64]
 201:../system/src/stm32l4-hal-driver/stm32l4xx_hal_i2c_ex.c **** 
 202:../system/src/stm32l4-hal-driver/stm32l4xx_hal_i2c_ex.c ****     hi2c->State = HAL_I2C_STATE_BUSY;
 203              		.loc 1 202 0 is_stmt 1 discriminator 2
 204 0018 2423     		movs	r3, #36
 205 001a 80F84130 		strb	r3, [r0, #65]
 203:../system/src/stm32l4-hal-driver/stm32l4xx_hal_i2c_ex.c **** 
 204:../system/src/stm32l4-hal-driver/stm32l4xx_hal_i2c_ex.c ****     /* Disable the selected I2C peripheral */
 205:../system/src/stm32l4-hal-driver/stm32l4xx_hal_i2c_ex.c ****     __HAL_I2C_DISABLE(hi2c);
 206              		.loc 1 205 0 discriminator 2
 207 001e 0268     		ldr	r2, [r0]
 208 0020 1368     		ldr	r3, [r2]
 209 0022 23F00103 		bic	r3, r3, #1
 210 0026 1360     		str	r3, [r2]
 206:../system/src/stm32l4-hal-driver/stm32l4xx_hal_i2c_ex.c **** 
 207:../system/src/stm32l4-hal-driver/stm32l4xx_hal_i2c_ex.c ****     /* Enable wakeup from stop mode */
 208:../system/src/stm32l4-hal-driver/stm32l4xx_hal_i2c_ex.c ****     hi2c->Instance->CR1 |= I2C_CR1_WUPEN;
 211              		.loc 1 208 0 discriminator 2
 212 0028 0268     		ldr	r2, [r0]
 213 002a 1368     		ldr	r3, [r2]
 214 002c 43F48023 		orr	r3, r3, #262144
 215 0030 1360     		str	r3, [r2]
 209:../system/src/stm32l4-hal-driver/stm32l4xx_hal_i2c_ex.c **** 
 210:../system/src/stm32l4-hal-driver/stm32l4xx_hal_i2c_ex.c ****     __HAL_I2C_ENABLE(hi2c);
 216              		.loc 1 210 0 discriminator 2
 217 0032 0268     		ldr	r2, [r0]
 218 0034 1368     		ldr	r3, [r2]
 219 0036 43F00103 		orr	r3, r3, #1
 220 003a 1360     		str	r3, [r2]
 211:../system/src/stm32l4-hal-driver/stm32l4xx_hal_i2c_ex.c **** 
 212:../system/src/stm32l4-hal-driver/stm32l4xx_hal_i2c_ex.c ****     hi2c->State = HAL_I2C_STATE_READY;
 221              		.loc 1 212 0 discriminator 2
 222 003c 2023     		movs	r3, #32
 223 003e 80F84130 		strb	r3, [r0, #65]
 213:../system/src/stm32l4-hal-driver/stm32l4xx_hal_i2c_ex.c **** 
 214:../system/src/stm32l4-hal-driver/stm32l4xx_hal_i2c_ex.c ****     /* Process Unlocked */
 215:../system/src/stm32l4-hal-driver/stm32l4xx_hal_i2c_ex.c ****     __HAL_UNLOCK(hi2c);
 224              		.loc 1 215 0 discriminator 2
 225 0042 0023     		movs	r3, #0
 226 0044 80F84030 		strb	r3, [r0, #64]
 216:../system/src/stm32l4-hal-driver/stm32l4xx_hal_i2c_ex.c **** 
 217:../system/src/stm32l4-hal-driver/stm32l4xx_hal_i2c_ex.c ****     return HAL_OK;
 227              		.loc 1 217 0 discriminator 2
 228 0048 1846     		mov	r0, r3
 229              	.LVL17:
 230 004a 7047     		bx	lr
 231              	.LVL18:
 232              	.L11:
 218:../system/src/stm32l4-hal-driver/stm32l4xx_hal_i2c_ex.c ****   }
 219:../system/src/stm32l4-hal-driver/stm32l4xx_hal_i2c_ex.c ****   else
 220:../system/src/stm32l4-hal-driver/stm32l4xx_hal_i2c_ex.c ****   {
 221:../system/src/stm32l4-hal-driver/stm32l4xx_hal_i2c_ex.c ****     return HAL_BUSY;
 233              		.loc 1 221 0
 234 004c 0220     		movs	r0, #2
 235              	.LVL19:
 236 004e 7047     		bx	lr
 237              	.LVL20:
 238              	.L12:
 200:../system/src/stm32l4-hal-driver/stm32l4xx_hal_i2c_ex.c **** 
 239              		.loc 1 200 0
 240 0050 0220     		movs	r0, #2
 241              	.LVL21:
 222:../system/src/stm32l4-hal-driver/stm32l4xx_hal_i2c_ex.c ****   }
 223:../system/src/stm32l4-hal-driver/stm32l4xx_hal_i2c_ex.c **** }
 242              		.loc 1 223 0
 243 0052 7047     		bx	lr
 244              		.cfi_endproc
 245              	.LFE319:
 247              		.section	.text.HAL_I2CEx_DisableWakeUp,"ax",%progbits
 248              		.align	1
 249              		.global	HAL_I2CEx_DisableWakeUp
 250              		.syntax unified
 251              		.thumb
 252              		.thumb_func
 253              		.fpu fpv4-sp-d16
 255              	HAL_I2CEx_DisableWakeUp:
 256              	.LFB320:
 224:../system/src/stm32l4-hal-driver/stm32l4xx_hal_i2c_ex.c **** 
 225:../system/src/stm32l4-hal-driver/stm32l4xx_hal_i2c_ex.c **** /**
 226:../system/src/stm32l4-hal-driver/stm32l4xx_hal_i2c_ex.c ****   * @brief  Disable I2C wakeup from Stop mode(s).
 227:../system/src/stm32l4-hal-driver/stm32l4xx_hal_i2c_ex.c ****   * @param  hi2c Pointer to a I2C_HandleTypeDef structure that contains
 228:../system/src/stm32l4-hal-driver/stm32l4xx_hal_i2c_ex.c ****   *                the configuration information for the specified I2Cx peripheral.
 229:../system/src/stm32l4-hal-driver/stm32l4xx_hal_i2c_ex.c ****   * @retval HAL status
 230:../system/src/stm32l4-hal-driver/stm32l4xx_hal_i2c_ex.c ****   */
 231:../system/src/stm32l4-hal-driver/stm32l4xx_hal_i2c_ex.c **** HAL_StatusTypeDef HAL_I2CEx_DisableWakeUp(I2C_HandleTypeDef *hi2c)
 232:../system/src/stm32l4-hal-driver/stm32l4xx_hal_i2c_ex.c **** {
 257              		.loc 1 232 0
 258              		.cfi_startproc
 259              		@ args = 0, pretend = 0, frame = 0
 260              		@ frame_needed = 0, uses_anonymous_args = 0
 261              		@ link register save eliminated.
 262              	.LVL22:
 233:../system/src/stm32l4-hal-driver/stm32l4xx_hal_i2c_ex.c ****   /* Check the parameters */
 234:../system/src/stm32l4-hal-driver/stm32l4xx_hal_i2c_ex.c ****   assert_param(IS_I2C_WAKEUP_FROMSTOP_INSTANCE(hi2c->Instance));
 235:../system/src/stm32l4-hal-driver/stm32l4xx_hal_i2c_ex.c **** 
 236:../system/src/stm32l4-hal-driver/stm32l4xx_hal_i2c_ex.c ****   if (hi2c->State == HAL_I2C_STATE_READY)
 263              		.loc 1 236 0
 264 0000 90F84130 		ldrb	r3, [r0, #65]	@ zero_extendqisi2
 265 0004 DBB2     		uxtb	r3, r3
 266 0006 202B     		cmp	r3, #32
 267 0008 20D1     		bne	.L15
 237:../system/src/stm32l4-hal-driver/stm32l4xx_hal_i2c_ex.c ****   {
 238:../system/src/stm32l4-hal-driver/stm32l4xx_hal_i2c_ex.c ****     /* Process Locked */
 239:../system/src/stm32l4-hal-driver/stm32l4xx_hal_i2c_ex.c ****     __HAL_LOCK(hi2c);
 268              		.loc 1 239 0
 269 000a 90F84030 		ldrb	r3, [r0, #64]	@ zero_extendqisi2
 270 000e 012B     		cmp	r3, #1
 271 0010 1ED0     		beq	.L16
 272              		.loc 1 239 0 is_stmt 0 discriminator 2
 273 0012 0123     		movs	r3, #1
 274 0014 80F84030 		strb	r3, [r0, #64]
 240:../system/src/stm32l4-hal-driver/stm32l4xx_hal_i2c_ex.c **** 
 241:../system/src/stm32l4-hal-driver/stm32l4xx_hal_i2c_ex.c ****     hi2c->State = HAL_I2C_STATE_BUSY;
 275              		.loc 1 241 0 is_stmt 1 discriminator 2
 276 0018 2423     		movs	r3, #36
 277 001a 80F84130 		strb	r3, [r0, #65]
 242:../system/src/stm32l4-hal-driver/stm32l4xx_hal_i2c_ex.c **** 
 243:../system/src/stm32l4-hal-driver/stm32l4xx_hal_i2c_ex.c ****     /* Disable the selected I2C peripheral */
 244:../system/src/stm32l4-hal-driver/stm32l4xx_hal_i2c_ex.c ****     __HAL_I2C_DISABLE(hi2c);
 278              		.loc 1 244 0 discriminator 2
 279 001e 0268     		ldr	r2, [r0]
 280 0020 1368     		ldr	r3, [r2]
 281 0022 23F00103 		bic	r3, r3, #1
 282 0026 1360     		str	r3, [r2]
 245:../system/src/stm32l4-hal-driver/stm32l4xx_hal_i2c_ex.c **** 
 246:../system/src/stm32l4-hal-driver/stm32l4xx_hal_i2c_ex.c ****     /* Enable wakeup from stop mode */
 247:../system/src/stm32l4-hal-driver/stm32l4xx_hal_i2c_ex.c ****     hi2c->Instance->CR1 &= ~(I2C_CR1_WUPEN);
 283              		.loc 1 247 0 discriminator 2
 284 0028 0268     		ldr	r2, [r0]
 285 002a 1368     		ldr	r3, [r2]
 286 002c 23F48023 		bic	r3, r3, #262144
 287 0030 1360     		str	r3, [r2]
 248:../system/src/stm32l4-hal-driver/stm32l4xx_hal_i2c_ex.c **** 
 249:../system/src/stm32l4-hal-driver/stm32l4xx_hal_i2c_ex.c ****     __HAL_I2C_ENABLE(hi2c);
 288              		.loc 1 249 0 discriminator 2
 289 0032 0268     		ldr	r2, [r0]
 290 0034 1368     		ldr	r3, [r2]
 291 0036 43F00103 		orr	r3, r3, #1
 292 003a 1360     		str	r3, [r2]
 250:../system/src/stm32l4-hal-driver/stm32l4xx_hal_i2c_ex.c **** 
 251:../system/src/stm32l4-hal-driver/stm32l4xx_hal_i2c_ex.c ****     hi2c->State = HAL_I2C_STATE_READY;
 293              		.loc 1 251 0 discriminator 2
 294 003c 2023     		movs	r3, #32
 295 003e 80F84130 		strb	r3, [r0, #65]
 252:../system/src/stm32l4-hal-driver/stm32l4xx_hal_i2c_ex.c **** 
 253:../system/src/stm32l4-hal-driver/stm32l4xx_hal_i2c_ex.c ****     /* Process Unlocked */
 254:../system/src/stm32l4-hal-driver/stm32l4xx_hal_i2c_ex.c ****     __HAL_UNLOCK(hi2c);
 296              		.loc 1 254 0 discriminator 2
 297 0042 0023     		movs	r3, #0
 298 0044 80F84030 		strb	r3, [r0, #64]
 255:../system/src/stm32l4-hal-driver/stm32l4xx_hal_i2c_ex.c **** 
 256:../system/src/stm32l4-hal-driver/stm32l4xx_hal_i2c_ex.c ****     return HAL_OK;
 299              		.loc 1 256 0 discriminator 2
 300 0048 1846     		mov	r0, r3
 301              	.LVL23:
 302 004a 7047     		bx	lr
 303              	.LVL24:
 304              	.L15:
 257:../system/src/stm32l4-hal-driver/stm32l4xx_hal_i2c_ex.c ****   }
 258:../system/src/stm32l4-hal-driver/stm32l4xx_hal_i2c_ex.c ****   else
 259:../system/src/stm32l4-hal-driver/stm32l4xx_hal_i2c_ex.c ****   {
 260:../system/src/stm32l4-hal-driver/stm32l4xx_hal_i2c_ex.c ****     return HAL_BUSY;
 305              		.loc 1 260 0
 306 004c 0220     		movs	r0, #2
 307              	.LVL25:
 308 004e 7047     		bx	lr
 309              	.LVL26:
 310              	.L16:
 239:../system/src/stm32l4-hal-driver/stm32l4xx_hal_i2c_ex.c **** 
 311              		.loc 1 239 0
 312 0050 0220     		movs	r0, #2
 313              	.LVL27:
 261:../system/src/stm32l4-hal-driver/stm32l4xx_hal_i2c_ex.c ****   }
 262:../system/src/stm32l4-hal-driver/stm32l4xx_hal_i2c_ex.c **** }
 314              		.loc 1 262 0
 315 0052 7047     		bx	lr
 316              		.cfi_endproc
 317              	.LFE320:
 319              		.section	.text.HAL_I2CEx_EnableFastModePlus,"ax",%progbits
 320              		.align	1
 321              		.global	HAL_I2CEx_EnableFastModePlus
 322              		.syntax unified
 323              		.thumb
 324              		.thumb_func
 325              		.fpu fpv4-sp-d16
 327              	HAL_I2CEx_EnableFastModePlus:
 328              	.LFB321:
 263:../system/src/stm32l4-hal-driver/stm32l4xx_hal_i2c_ex.c **** 
 264:../system/src/stm32l4-hal-driver/stm32l4xx_hal_i2c_ex.c **** /**
 265:../system/src/stm32l4-hal-driver/stm32l4xx_hal_i2c_ex.c ****   * @brief Enable the I2C fast mode plus driving capability.
 266:../system/src/stm32l4-hal-driver/stm32l4xx_hal_i2c_ex.c ****   * @param ConfigFastModePlus Selects the pin.
 267:../system/src/stm32l4-hal-driver/stm32l4xx_hal_i2c_ex.c ****   *   This parameter can be one of the @ref I2CEx_FastModePlus values
 268:../system/src/stm32l4-hal-driver/stm32l4xx_hal_i2c_ex.c ****   * @note  For I2C1, fast mode plus driving capability can be enabled on all selected
 269:../system/src/stm32l4-hal-driver/stm32l4xx_hal_i2c_ex.c ****   *        I2C1 pins using I2C_FASTMODEPLUS_I2C1 parameter or independently
 270:../system/src/stm32l4-hal-driver/stm32l4xx_hal_i2c_ex.c ****   *        on each one of the following pins PB6, PB7, PB8 and PB9.
 271:../system/src/stm32l4-hal-driver/stm32l4xx_hal_i2c_ex.c ****   * @note  For remaining I2C1 pins (PA14, PA15...) fast mode plus driving capability
 272:../system/src/stm32l4-hal-driver/stm32l4xx_hal_i2c_ex.c ****   *        can be enabled only by using I2C_FASTMODEPLUS_I2C1 parameter.
 273:../system/src/stm32l4-hal-driver/stm32l4xx_hal_i2c_ex.c ****   * @note  For all I2C2 pins fast mode plus driving capability can be enabled
 274:../system/src/stm32l4-hal-driver/stm32l4xx_hal_i2c_ex.c ****   *        only by using I2C_FASTMODEPLUS_I2C2 parameter.
 275:../system/src/stm32l4-hal-driver/stm32l4xx_hal_i2c_ex.c ****   * @note  For all I2C3 pins fast mode plus driving capability can be enabled
 276:../system/src/stm32l4-hal-driver/stm32l4xx_hal_i2c_ex.c ****   *        only by using I2C_FASTMODEPLUS_I2C3 parameter.
 277:../system/src/stm32l4-hal-driver/stm32l4xx_hal_i2c_ex.c ****   * @note  For all I2C4 pins fast mode plus driving capability can be enabled
 278:../system/src/stm32l4-hal-driver/stm32l4xx_hal_i2c_ex.c ****   *        only by using I2C_FASTMODEPLUS_I2C4 parameter.
 279:../system/src/stm32l4-hal-driver/stm32l4xx_hal_i2c_ex.c ****   * @retval None
 280:../system/src/stm32l4-hal-driver/stm32l4xx_hal_i2c_ex.c ****   */
 281:../system/src/stm32l4-hal-driver/stm32l4xx_hal_i2c_ex.c **** void HAL_I2CEx_EnableFastModePlus(uint32_t ConfigFastModePlus)
 282:../system/src/stm32l4-hal-driver/stm32l4xx_hal_i2c_ex.c **** {
 329              		.loc 1 282 0
 330              		.cfi_startproc
 331              		@ args = 0, pretend = 0, frame = 8
 332              		@ frame_needed = 0, uses_anonymous_args = 0
 333              		@ link register save eliminated.
 334              	.LVL28:
 335 0000 82B0     		sub	sp, sp, #8
 336              		.cfi_def_cfa_offset 8
 337              	.LBB2:
 283:../system/src/stm32l4-hal-driver/stm32l4xx_hal_i2c_ex.c ****   /* Check the parameter */
 284:../system/src/stm32l4-hal-driver/stm32l4xx_hal_i2c_ex.c ****   assert_param(IS_I2C_FASTMODEPLUS(ConfigFastModePlus));
 285:../system/src/stm32l4-hal-driver/stm32l4xx_hal_i2c_ex.c **** 
 286:../system/src/stm32l4-hal-driver/stm32l4xx_hal_i2c_ex.c ****   /* Enable SYSCFG clock */
 287:../system/src/stm32l4-hal-driver/stm32l4xx_hal_i2c_ex.c ****   __HAL_RCC_SYSCFG_CLK_ENABLE();
 338              		.loc 1 287 0
 339 0002 084B     		ldr	r3, .L19
 340 0004 1A6E     		ldr	r2, [r3, #96]
 341 0006 42F00102 		orr	r2, r2, #1
 342 000a 1A66     		str	r2, [r3, #96]
 343 000c 1B6E     		ldr	r3, [r3, #96]
 344 000e 03F00103 		and	r3, r3, #1
 345 0012 0193     		str	r3, [sp, #4]
 346 0014 019B     		ldr	r3, [sp, #4]
 347              	.LBE2:
 288:../system/src/stm32l4-hal-driver/stm32l4xx_hal_i2c_ex.c **** 
 289:../system/src/stm32l4-hal-driver/stm32l4xx_hal_i2c_ex.c ****   /* Enable fast mode plus driving capability for selected pin */
 290:../system/src/stm32l4-hal-driver/stm32l4xx_hal_i2c_ex.c ****   SET_BIT(SYSCFG->CFGR1, (uint32_t)ConfigFastModePlus);
 348              		.loc 1 290 0
 349 0016 044A     		ldr	r2, .L19+4
 350 0018 5368     		ldr	r3, [r2, #4]
 351 001a 1843     		orrs	r0, r0, r3
 352              	.LVL29:
 353 001c 5060     		str	r0, [r2, #4]
 291:../system/src/stm32l4-hal-driver/stm32l4xx_hal_i2c_ex.c **** }
 354              		.loc 1 291 0
 355 001e 02B0     		add	sp, sp, #8
 356              		.cfi_def_cfa_offset 0
 357              		@ sp needed
 358 0020 7047     		bx	lr
 359              	.L20:
 360 0022 00BF     		.align	2
 361              	.L19:
 362 0024 00100240 		.word	1073876992
 363 0028 00000140 		.word	1073807360
 364              		.cfi_endproc
 365              	.LFE321:
 367              		.section	.text.HAL_I2CEx_DisableFastModePlus,"ax",%progbits
 368              		.align	1
 369              		.global	HAL_I2CEx_DisableFastModePlus
 370              		.syntax unified
 371              		.thumb
 372              		.thumb_func
 373              		.fpu fpv4-sp-d16
 375              	HAL_I2CEx_DisableFastModePlus:
 376              	.LFB322:
 292:../system/src/stm32l4-hal-driver/stm32l4xx_hal_i2c_ex.c **** 
 293:../system/src/stm32l4-hal-driver/stm32l4xx_hal_i2c_ex.c **** /**
 294:../system/src/stm32l4-hal-driver/stm32l4xx_hal_i2c_ex.c ****   * @brief Disable the I2C fast mode plus driving capability.
 295:../system/src/stm32l4-hal-driver/stm32l4xx_hal_i2c_ex.c ****   * @param ConfigFastModePlus Selects the pin.
 296:../system/src/stm32l4-hal-driver/stm32l4xx_hal_i2c_ex.c ****   *   This parameter can be one of the @ref I2CEx_FastModePlus values
 297:../system/src/stm32l4-hal-driver/stm32l4xx_hal_i2c_ex.c ****   * @note  For I2C1, fast mode plus driving capability can be disabled on all selected
 298:../system/src/stm32l4-hal-driver/stm32l4xx_hal_i2c_ex.c ****   *        I2C1 pins using I2C_FASTMODEPLUS_I2C1 parameter or independently
 299:../system/src/stm32l4-hal-driver/stm32l4xx_hal_i2c_ex.c ****   *        on each one of the following pins PB6, PB7, PB8 and PB9.
 300:../system/src/stm32l4-hal-driver/stm32l4xx_hal_i2c_ex.c ****   * @note  For remaining I2C1 pins (PA14, PA15...) fast mode plus driving capability
 301:../system/src/stm32l4-hal-driver/stm32l4xx_hal_i2c_ex.c ****   *        can be disabled only by using I2C_FASTMODEPLUS_I2C1 parameter.
 302:../system/src/stm32l4-hal-driver/stm32l4xx_hal_i2c_ex.c ****   * @note  For all I2C2 pins fast mode plus driving capability can be disabled
 303:../system/src/stm32l4-hal-driver/stm32l4xx_hal_i2c_ex.c ****   *        only by using I2C_FASTMODEPLUS_I2C2 parameter.
 304:../system/src/stm32l4-hal-driver/stm32l4xx_hal_i2c_ex.c ****   * @note  For all I2C3 pins fast mode plus driving capability can be disabled
 305:../system/src/stm32l4-hal-driver/stm32l4xx_hal_i2c_ex.c ****   *        only by using I2C_FASTMODEPLUS_I2C3 parameter.
 306:../system/src/stm32l4-hal-driver/stm32l4xx_hal_i2c_ex.c ****   * @note  For all I2C4 pins fast mode plus driving capability can be disabled
 307:../system/src/stm32l4-hal-driver/stm32l4xx_hal_i2c_ex.c ****   *        only by using I2C_FASTMODEPLUS_I2C4 parameter.
 308:../system/src/stm32l4-hal-driver/stm32l4xx_hal_i2c_ex.c ****   * @retval None
 309:../system/src/stm32l4-hal-driver/stm32l4xx_hal_i2c_ex.c ****   */
 310:../system/src/stm32l4-hal-driver/stm32l4xx_hal_i2c_ex.c **** void HAL_I2CEx_DisableFastModePlus(uint32_t ConfigFastModePlus)
 311:../system/src/stm32l4-hal-driver/stm32l4xx_hal_i2c_ex.c **** {
 377              		.loc 1 311 0
 378              		.cfi_startproc
 379              		@ args = 0, pretend = 0, frame = 8
 380              		@ frame_needed = 0, uses_anonymous_args = 0
 381              		@ link register save eliminated.
 382              	.LVL30:
 383 0000 82B0     		sub	sp, sp, #8
 384              		.cfi_def_cfa_offset 8
 385              	.LBB3:
 312:../system/src/stm32l4-hal-driver/stm32l4xx_hal_i2c_ex.c ****   /* Check the parameter */
 313:../system/src/stm32l4-hal-driver/stm32l4xx_hal_i2c_ex.c ****   assert_param(IS_I2C_FASTMODEPLUS(ConfigFastModePlus));
 314:../system/src/stm32l4-hal-driver/stm32l4xx_hal_i2c_ex.c **** 
 315:../system/src/stm32l4-hal-driver/stm32l4xx_hal_i2c_ex.c ****   /* Enable SYSCFG clock */
 316:../system/src/stm32l4-hal-driver/stm32l4xx_hal_i2c_ex.c ****   __HAL_RCC_SYSCFG_CLK_ENABLE();
 386              		.loc 1 316 0
 387 0002 084B     		ldr	r3, .L23
 388 0004 1A6E     		ldr	r2, [r3, #96]
 389 0006 42F00102 		orr	r2, r2, #1
 390 000a 1A66     		str	r2, [r3, #96]
 391 000c 1B6E     		ldr	r3, [r3, #96]
 392 000e 03F00103 		and	r3, r3, #1
 393 0012 0193     		str	r3, [sp, #4]
 394 0014 019B     		ldr	r3, [sp, #4]
 395              	.LBE3:
 317:../system/src/stm32l4-hal-driver/stm32l4xx_hal_i2c_ex.c **** 
 318:../system/src/stm32l4-hal-driver/stm32l4xx_hal_i2c_ex.c ****   /* Disable fast mode plus driving capability for selected pin */
 319:../system/src/stm32l4-hal-driver/stm32l4xx_hal_i2c_ex.c ****   CLEAR_BIT(SYSCFG->CFGR1, (uint32_t)ConfigFastModePlus);
 396              		.loc 1 319 0
 397 0016 044A     		ldr	r2, .L23+4
 398 0018 5368     		ldr	r3, [r2, #4]
 399 001a 23EA0000 		bic	r0, r3, r0
 400              	.LVL31:
 401 001e 5060     		str	r0, [r2, #4]
 320:../system/src/stm32l4-hal-driver/stm32l4xx_hal_i2c_ex.c **** }
 402              		.loc 1 320 0
 403 0020 02B0     		add	sp, sp, #8
 404              		.cfi_def_cfa_offset 0
 405              		@ sp needed
 406 0022 7047     		bx	lr
 407              	.L24:
 408              		.align	2
 409              	.L23:
 410 0024 00100240 		.word	1073876992
 411 0028 00000140 		.word	1073807360
 412              		.cfi_endproc
 413              	.LFE322:
 415              		.text
 416              	.Letext0:
 417              		.file 2 "/usr/local/bin/gcc-arm-none-eabi-7-2018-q2-update/lib/gcc/arm-none-eabi/7.3.1/include/std
 418              		.file 3 "../system/include/cmsis/stm32l4xx/core_cm4.h"
 419              		.file 4 "../system/include/cmsis/stm32l4xx/device/system_stm32l4xx.h"
 420              		.file 5 "../system/include/cmsis/stm32l4xx/device/stm32l471xx.h"
 421              		.file 6 "../system/include/stm32l4-hal-driver/stm32l4xx_hal_def.h"
 422              		.file 7 "../system/include/stm32l4-hal-driver/stm32l4xx_hal_dma.h"
 423              		.file 8 "../system/include/stm32l4-hal-driver/stm32l4xx_hal_flash.h"
 424              		.file 9 "../system/include/stm32l4-hal-driver/stm32l4xx_hal_i2c.h"
 425              		.file 10 "../system/include/stm32l4-hal-driver/stm32l4xx_hal.h"