   1              		.cpu cortex-m4
   2              		.eabi_attribute 27, 1
   3              		.eabi_attribute 28, 1
   4              		.eabi_attribute 20, 1
   5              		.eabi_attribute 21, 1
   6              		.eabi_attribute 23, 3
   7              		.eabi_attribute 24, 1
   8              		.eabi_attribute 25, 1
   9              		.eabi_attribute 26, 1
  10              		.eabi_attribute 30, 1
  11              		.eabi_attribute 34, 1
  12              		.eabi_attribute 18, 4
  13              		.file	"stm32l4xx_hal_dac_ex.c"
  14              		.text
  15              	.Ltext0:
  16              		.cfi_sections	.debug_frame
  17              		.section	.text.HAL_DACEx_TriangleWaveGenerate,"ax",%progbits
  18              		.align	1
  19              		.global	HAL_DACEx_TriangleWaveGenerate
  20              		.syntax unified
  21              		.thumb
  22              		.thumb_func
  23              		.fpu fpv4-sp-d16
  25              	HAL_DACEx_TriangleWaveGenerate:
  26              	.LFB317:
  27              		.file 1 "../system/src/stm32l4-hal-driver/stm32l4xx_hal_dac_ex.c"
   1:../system/src/stm32l4-hal-driver/stm32l4xx_hal_dac_ex.c **** /**
   2:../system/src/stm32l4-hal-driver/stm32l4xx_hal_dac_ex.c ****   ******************************************************************************
   3:../system/src/stm32l4-hal-driver/stm32l4xx_hal_dac_ex.c ****   * @file    stm32l4xx_hal_dac_ex.c
   4:../system/src/stm32l4-hal-driver/stm32l4xx_hal_dac_ex.c ****   * @author  MCD Application Team
   5:../system/src/stm32l4-hal-driver/stm32l4xx_hal_dac_ex.c ****   * @brief   DAC HAL module driver.
   6:../system/src/stm32l4-hal-driver/stm32l4xx_hal_dac_ex.c ****   *          This file provides firmware functions to manage the extended
   7:../system/src/stm32l4-hal-driver/stm32l4xx_hal_dac_ex.c ****   *          functionalities of the DAC peripheral.
   8:../system/src/stm32l4-hal-driver/stm32l4xx_hal_dac_ex.c ****   *
   9:../system/src/stm32l4-hal-driver/stm32l4xx_hal_dac_ex.c ****   *
  10:../system/src/stm32l4-hal-driver/stm32l4xx_hal_dac_ex.c ****   @verbatim
  11:../system/src/stm32l4-hal-driver/stm32l4xx_hal_dac_ex.c ****   ==============================================================================
  12:../system/src/stm32l4-hal-driver/stm32l4xx_hal_dac_ex.c ****                       ##### How to use this driver #####
  13:../system/src/stm32l4-hal-driver/stm32l4xx_hal_dac_ex.c ****   ==============================================================================
  14:../system/src/stm32l4-hal-driver/stm32l4xx_hal_dac_ex.c ****     [..]
  15:../system/src/stm32l4-hal-driver/stm32l4xx_hal_dac_ex.c ****      *** Dual mode IO operation ***
  16:../system/src/stm32l4-hal-driver/stm32l4xx_hal_dac_ex.c ****      ==============================
  17:../system/src/stm32l4-hal-driver/stm32l4xx_hal_dac_ex.c ****       (+) When Dual mode is enabled (i.e. DAC Channel1 and Channel2 are used simultaneously) :
  18:../system/src/stm32l4-hal-driver/stm32l4xx_hal_dac_ex.c ****           Use HAL_DACEx_DualGetValue() to get digital data to be converted and use
  19:../system/src/stm32l4-hal-driver/stm32l4xx_hal_dac_ex.c ****           HAL_DACEx_DualSetValue() to set digital value to converted simultaneously in
  20:../system/src/stm32l4-hal-driver/stm32l4xx_hal_dac_ex.c ****           Channel 1 and Channel 2.
  21:../system/src/stm32l4-hal-driver/stm32l4xx_hal_dac_ex.c **** 
  22:../system/src/stm32l4-hal-driver/stm32l4xx_hal_dac_ex.c ****      *** Signal generation operation ***
  23:../system/src/stm32l4-hal-driver/stm32l4xx_hal_dac_ex.c ****      ===================================
  24:../system/src/stm32l4-hal-driver/stm32l4xx_hal_dac_ex.c ****       (+) Use HAL_DACEx_TriangleWaveGenerate() to generate Triangle signal.
  25:../system/src/stm32l4-hal-driver/stm32l4xx_hal_dac_ex.c ****       (+) Use HAL_DACEx_NoiseWaveGenerate() to generate Noise signal.
  26:../system/src/stm32l4-hal-driver/stm32l4xx_hal_dac_ex.c **** 
  27:../system/src/stm32l4-hal-driver/stm32l4xx_hal_dac_ex.c ****       (+) HAL_DACEx_SelfCalibrate to calibrate one DAC channel.
  28:../system/src/stm32l4-hal-driver/stm32l4xx_hal_dac_ex.c ****       (+) HAL_DACEx_SetUserTrimming to set user trimming value.
  29:../system/src/stm32l4-hal-driver/stm32l4xx_hal_dac_ex.c ****       (+) HAL_DACEx_GetTrimOffset to retrieve trimming value (factory setting
  30:../system/src/stm32l4-hal-driver/stm32l4xx_hal_dac_ex.c ****           after reset, user setting if HAL_DACEx_SetUserTrimming have been used
  31:../system/src/stm32l4-hal-driver/stm32l4xx_hal_dac_ex.c ****           at least one time after reset).
  32:../system/src/stm32l4-hal-driver/stm32l4xx_hal_dac_ex.c **** 
  33:../system/src/stm32l4-hal-driver/stm32l4xx_hal_dac_ex.c ****  @endverbatim
  34:../system/src/stm32l4-hal-driver/stm32l4xx_hal_dac_ex.c ****   ******************************************************************************
  35:../system/src/stm32l4-hal-driver/stm32l4xx_hal_dac_ex.c ****   * @attention
  36:../system/src/stm32l4-hal-driver/stm32l4xx_hal_dac_ex.c ****   *
  37:../system/src/stm32l4-hal-driver/stm32l4xx_hal_dac_ex.c ****   * <h2><center>&copy; Copyright (c) 2017 STMicroelectronics.
  38:../system/src/stm32l4-hal-driver/stm32l4xx_hal_dac_ex.c ****   * All rights reserved.</center></h2>
  39:../system/src/stm32l4-hal-driver/stm32l4xx_hal_dac_ex.c ****   *
  40:../system/src/stm32l4-hal-driver/stm32l4xx_hal_dac_ex.c ****   * This software component is licensed by ST under BSD 3-Clause license,
  41:../system/src/stm32l4-hal-driver/stm32l4xx_hal_dac_ex.c ****   * the "License"; You may not use this file except in compliance with the
  42:../system/src/stm32l4-hal-driver/stm32l4xx_hal_dac_ex.c ****   * License. You may obtain a copy of the License at:
  43:../system/src/stm32l4-hal-driver/stm32l4xx_hal_dac_ex.c ****   *                        opensource.org/licenses/BSD-3-Clause
  44:../system/src/stm32l4-hal-driver/stm32l4xx_hal_dac_ex.c ****   *
  45:../system/src/stm32l4-hal-driver/stm32l4xx_hal_dac_ex.c ****   ******************************************************************************
  46:../system/src/stm32l4-hal-driver/stm32l4xx_hal_dac_ex.c ****   */
  47:../system/src/stm32l4-hal-driver/stm32l4xx_hal_dac_ex.c **** 
  48:../system/src/stm32l4-hal-driver/stm32l4xx_hal_dac_ex.c **** 
  49:../system/src/stm32l4-hal-driver/stm32l4xx_hal_dac_ex.c **** /* Includes ------------------------------------------------------------------*/
  50:../system/src/stm32l4-hal-driver/stm32l4xx_hal_dac_ex.c **** #include "stm32l4xx_hal.h"
  51:../system/src/stm32l4-hal-driver/stm32l4xx_hal_dac_ex.c **** 
  52:../system/src/stm32l4-hal-driver/stm32l4xx_hal_dac_ex.c **** /** @addtogroup STM32L4xx_HAL_Driver
  53:../system/src/stm32l4-hal-driver/stm32l4xx_hal_dac_ex.c ****   * @{
  54:../system/src/stm32l4-hal-driver/stm32l4xx_hal_dac_ex.c ****   */
  55:../system/src/stm32l4-hal-driver/stm32l4xx_hal_dac_ex.c **** 
  56:../system/src/stm32l4-hal-driver/stm32l4xx_hal_dac_ex.c **** #ifdef HAL_DAC_MODULE_ENABLED
  57:../system/src/stm32l4-hal-driver/stm32l4xx_hal_dac_ex.c **** 
  58:../system/src/stm32l4-hal-driver/stm32l4xx_hal_dac_ex.c **** #if defined(DAC1)
  59:../system/src/stm32l4-hal-driver/stm32l4xx_hal_dac_ex.c **** 
  60:../system/src/stm32l4-hal-driver/stm32l4xx_hal_dac_ex.c **** /** @defgroup DACEx DACEx
  61:../system/src/stm32l4-hal-driver/stm32l4xx_hal_dac_ex.c ****   * @brief DAC Extended HAL module driver
  62:../system/src/stm32l4-hal-driver/stm32l4xx_hal_dac_ex.c ****   * @{
  63:../system/src/stm32l4-hal-driver/stm32l4xx_hal_dac_ex.c ****   */
  64:../system/src/stm32l4-hal-driver/stm32l4xx_hal_dac_ex.c **** 
  65:../system/src/stm32l4-hal-driver/stm32l4xx_hal_dac_ex.c **** /* Private typedef -----------------------------------------------------------*/
  66:../system/src/stm32l4-hal-driver/stm32l4xx_hal_dac_ex.c **** /* Private define ------------------------------------------------------------*/
  67:../system/src/stm32l4-hal-driver/stm32l4xx_hal_dac_ex.c **** /* Private macro -------------------------------------------------------------*/
  68:../system/src/stm32l4-hal-driver/stm32l4xx_hal_dac_ex.c **** /* Private variables ---------------------------------------------------------*/
  69:../system/src/stm32l4-hal-driver/stm32l4xx_hal_dac_ex.c **** /* Private function prototypes -----------------------------------------------*/
  70:../system/src/stm32l4-hal-driver/stm32l4xx_hal_dac_ex.c **** /* Exported functions --------------------------------------------------------*/
  71:../system/src/stm32l4-hal-driver/stm32l4xx_hal_dac_ex.c **** 
  72:../system/src/stm32l4-hal-driver/stm32l4xx_hal_dac_ex.c **** /** @defgroup DACEx_Exported_Functions DACEx Exported Functions
  73:../system/src/stm32l4-hal-driver/stm32l4xx_hal_dac_ex.c ****   * @{
  74:../system/src/stm32l4-hal-driver/stm32l4xx_hal_dac_ex.c ****   */
  75:../system/src/stm32l4-hal-driver/stm32l4xx_hal_dac_ex.c **** 
  76:../system/src/stm32l4-hal-driver/stm32l4xx_hal_dac_ex.c **** /** @defgroup DACEx_Exported_Functions_Group2 IO operation functions
  77:../system/src/stm32l4-hal-driver/stm32l4xx_hal_dac_ex.c ****  *  @brief    Extended IO operation functions
  78:../system/src/stm32l4-hal-driver/stm32l4xx_hal_dac_ex.c ****  *
  79:../system/src/stm32l4-hal-driver/stm32l4xx_hal_dac_ex.c **** @verbatim
  80:../system/src/stm32l4-hal-driver/stm32l4xx_hal_dac_ex.c ****   ==============================================================================
  81:../system/src/stm32l4-hal-driver/stm32l4xx_hal_dac_ex.c ****                  ##### Extended features functions #####
  82:../system/src/stm32l4-hal-driver/stm32l4xx_hal_dac_ex.c ****   ==============================================================================
  83:../system/src/stm32l4-hal-driver/stm32l4xx_hal_dac_ex.c ****     [..]  This section provides functions allowing to:
  84:../system/src/stm32l4-hal-driver/stm32l4xx_hal_dac_ex.c ****       (+) Start conversion.
  85:../system/src/stm32l4-hal-driver/stm32l4xx_hal_dac_ex.c ****       (+) Stop conversion.
  86:../system/src/stm32l4-hal-driver/stm32l4xx_hal_dac_ex.c ****       (+) Start conversion and enable DMA transfer.
  87:../system/src/stm32l4-hal-driver/stm32l4xx_hal_dac_ex.c ****       (+) Stop conversion and disable DMA transfer.
  88:../system/src/stm32l4-hal-driver/stm32l4xx_hal_dac_ex.c ****       (+) Get result of conversion.
  89:../system/src/stm32l4-hal-driver/stm32l4xx_hal_dac_ex.c ****       (+) Get result of dual mode conversion.
  90:../system/src/stm32l4-hal-driver/stm32l4xx_hal_dac_ex.c **** 
  91:../system/src/stm32l4-hal-driver/stm32l4xx_hal_dac_ex.c **** @endverbatim
  92:../system/src/stm32l4-hal-driver/stm32l4xx_hal_dac_ex.c ****   * @{
  93:../system/src/stm32l4-hal-driver/stm32l4xx_hal_dac_ex.c ****   */
  94:../system/src/stm32l4-hal-driver/stm32l4xx_hal_dac_ex.c **** 
  95:../system/src/stm32l4-hal-driver/stm32l4xx_hal_dac_ex.c **** /**
  96:../system/src/stm32l4-hal-driver/stm32l4xx_hal_dac_ex.c ****   * @brief  Enable or disable the selected DAC channel wave generation.
  97:../system/src/stm32l4-hal-driver/stm32l4xx_hal_dac_ex.c ****   * @param  hdac pointer to a DAC_HandleTypeDef structure that contains
  98:../system/src/stm32l4-hal-driver/stm32l4xx_hal_dac_ex.c ****   *         the configuration information for the specified DAC.
  99:../system/src/stm32l4-hal-driver/stm32l4xx_hal_dac_ex.c ****   * @param  Channel The selected DAC channel.
 100:../system/src/stm32l4-hal-driver/stm32l4xx_hal_dac_ex.c ****   *          This parameter can be one of the following values:
 101:../system/src/stm32l4-hal-driver/stm32l4xx_hal_dac_ex.c ****   *            @arg DAC_CHANNEL_1: DAC Channel1 selected
 102:../system/src/stm32l4-hal-driver/stm32l4xx_hal_dac_ex.c ****   *            @arg DAC_CHANNEL_2: DAC Channel2 selected
 103:../system/src/stm32l4-hal-driver/stm32l4xx_hal_dac_ex.c ****   * @param  Amplitude Select max triangle amplitude.
 104:../system/src/stm32l4-hal-driver/stm32l4xx_hal_dac_ex.c ****   *          This parameter can be one of the following values:
 105:../system/src/stm32l4-hal-driver/stm32l4xx_hal_dac_ex.c ****   *            @arg DAC_TRIANGLEAMPLITUDE_1: Select max triangle amplitude of 1
 106:../system/src/stm32l4-hal-driver/stm32l4xx_hal_dac_ex.c ****   *            @arg DAC_TRIANGLEAMPLITUDE_3: Select max triangle amplitude of 3
 107:../system/src/stm32l4-hal-driver/stm32l4xx_hal_dac_ex.c ****   *            @arg DAC_TRIANGLEAMPLITUDE_7: Select max triangle amplitude of 7
 108:../system/src/stm32l4-hal-driver/stm32l4xx_hal_dac_ex.c ****   *            @arg DAC_TRIANGLEAMPLITUDE_15: Select max triangle amplitude of 15
 109:../system/src/stm32l4-hal-driver/stm32l4xx_hal_dac_ex.c ****   *            @arg DAC_TRIANGLEAMPLITUDE_31: Select max triangle amplitude of 31
 110:../system/src/stm32l4-hal-driver/stm32l4xx_hal_dac_ex.c ****   *            @arg DAC_TRIANGLEAMPLITUDE_63: Select max triangle amplitude of 63
 111:../system/src/stm32l4-hal-driver/stm32l4xx_hal_dac_ex.c ****   *            @arg DAC_TRIANGLEAMPLITUDE_127: Select max triangle amplitude of 127
 112:../system/src/stm32l4-hal-driver/stm32l4xx_hal_dac_ex.c ****   *            @arg DAC_TRIANGLEAMPLITUDE_255: Select max triangle amplitude of 255
 113:../system/src/stm32l4-hal-driver/stm32l4xx_hal_dac_ex.c ****   *            @arg DAC_TRIANGLEAMPLITUDE_511: Select max triangle amplitude of 511
 114:../system/src/stm32l4-hal-driver/stm32l4xx_hal_dac_ex.c ****   *            @arg DAC_TRIANGLEAMPLITUDE_1023: Select max triangle amplitude of 1023
 115:../system/src/stm32l4-hal-driver/stm32l4xx_hal_dac_ex.c ****   *            @arg DAC_TRIANGLEAMPLITUDE_2047: Select max triangle amplitude of 2047
 116:../system/src/stm32l4-hal-driver/stm32l4xx_hal_dac_ex.c ****   *            @arg DAC_TRIANGLEAMPLITUDE_4095: Select max triangle amplitude of 4095
 117:../system/src/stm32l4-hal-driver/stm32l4xx_hal_dac_ex.c ****   * @retval HAL status
 118:../system/src/stm32l4-hal-driver/stm32l4xx_hal_dac_ex.c ****   */
 119:../system/src/stm32l4-hal-driver/stm32l4xx_hal_dac_ex.c **** HAL_StatusTypeDef HAL_DACEx_TriangleWaveGenerate(DAC_HandleTypeDef *hdac, uint32_t Channel, uint32_
 120:../system/src/stm32l4-hal-driver/stm32l4xx_hal_dac_ex.c **** {
  28              		.loc 1 120 0
  29              		.cfi_startproc
  30              		@ args = 0, pretend = 0, frame = 0
  31              		@ frame_needed = 0, uses_anonymous_args = 0
  32              		@ link register save eliminated.
  33              	.LVL0:
 121:../system/src/stm32l4-hal-driver/stm32l4xx_hal_dac_ex.c ****   /* Check the parameters */
 122:../system/src/stm32l4-hal-driver/stm32l4xx_hal_dac_ex.c ****   assert_param(IS_DAC_CHANNEL(Channel));
 123:../system/src/stm32l4-hal-driver/stm32l4xx_hal_dac_ex.c ****   assert_param(IS_DAC_LFSR_UNMASK_TRIANGLE_AMPLITUDE(Amplitude));
 124:../system/src/stm32l4-hal-driver/stm32l4xx_hal_dac_ex.c **** 
 125:../system/src/stm32l4-hal-driver/stm32l4xx_hal_dac_ex.c ****   /* Process locked */
 126:../system/src/stm32l4-hal-driver/stm32l4xx_hal_dac_ex.c ****   __HAL_LOCK(hdac);
  34              		.loc 1 126 0
  35 0000 4379     		ldrb	r3, [r0, #5]	@ zero_extendqisi2
  36 0002 012B     		cmp	r3, #1
  37 0004 18D0     		beq	.L3
 120:../system/src/stm32l4-hal-driver/stm32l4xx_hal_dac_ex.c ****   /* Check the parameters */
  38              		.loc 1 120 0 discriminator 2
  39 0006 70B4     		push	{r4, r5, r6}
  40              		.cfi_def_cfa_offset 12
  41              		.cfi_offset 4, -12
  42              		.cfi_offset 5, -8
  43              		.cfi_offset 6, -4
  44              		.loc 1 126 0 discriminator 2
  45 0008 0125     		movs	r5, #1
  46 000a 4571     		strb	r5, [r0, #5]
 127:../system/src/stm32l4-hal-driver/stm32l4xx_hal_dac_ex.c **** 
 128:../system/src/stm32l4-hal-driver/stm32l4xx_hal_dac_ex.c ****   /* Change DAC state */
 129:../system/src/stm32l4-hal-driver/stm32l4xx_hal_dac_ex.c ****   hdac->State = HAL_DAC_STATE_BUSY;
  47              		.loc 1 129 0 discriminator 2
  48 000c 0223     		movs	r3, #2
  49 000e 0371     		strb	r3, [r0, #4]
 130:../system/src/stm32l4-hal-driver/stm32l4xx_hal_dac_ex.c **** 
 131:../system/src/stm32l4-hal-driver/stm32l4xx_hal_dac_ex.c ****   /* Enable the triangle wave generation for the selected DAC channel */
 132:../system/src/stm32l4-hal-driver/stm32l4xx_hal_dac_ex.c ****   MODIFY_REG(hdac->Instance->CR, ((DAC_CR_WAVE1) | (DAC_CR_MAMP1)) << (Channel & 0x10UL), (DAC_CR_W
  50              		.loc 1 132 0 discriminator 2
  51 0010 0668     		ldr	r6, [r0]
  52 0012 3368     		ldr	r3, [r6]
  53 0014 01F01001 		and	r1, r1, #16
  54              	.LVL1:
  55 0018 4FF47C64 		mov	r4, #4032
  56 001c 8C40     		lsls	r4, r4, r1
  57 001e 23EA0403 		bic	r3, r3, r4
  58 0022 42F08002 		orr	r2, r2, #128
  59              	.LVL2:
  60 0026 8A40     		lsls	r2, r2, r1
  61 0028 1A43     		orrs	r2, r2, r3
  62 002a 3260     		str	r2, [r6]
 133:../system/src/stm32l4-hal-driver/stm32l4xx_hal_dac_ex.c **** 
 134:../system/src/stm32l4-hal-driver/stm32l4xx_hal_dac_ex.c ****   /* Change DAC state */
 135:../system/src/stm32l4-hal-driver/stm32l4xx_hal_dac_ex.c ****   hdac->State = HAL_DAC_STATE_READY;
  63              		.loc 1 135 0 discriminator 2
  64 002c 0571     		strb	r5, [r0, #4]
 136:../system/src/stm32l4-hal-driver/stm32l4xx_hal_dac_ex.c **** 
 137:../system/src/stm32l4-hal-driver/stm32l4xx_hal_dac_ex.c ****   /* Process unlocked */
 138:../system/src/stm32l4-hal-driver/stm32l4xx_hal_dac_ex.c ****   __HAL_UNLOCK(hdac);
  65              		.loc 1 138 0 discriminator 2
  66 002e 0023     		movs	r3, #0
  67 0030 4371     		strb	r3, [r0, #5]
 139:../system/src/stm32l4-hal-driver/stm32l4xx_hal_dac_ex.c **** 
 140:../system/src/stm32l4-hal-driver/stm32l4xx_hal_dac_ex.c ****   /* Return function status */
 141:../system/src/stm32l4-hal-driver/stm32l4xx_hal_dac_ex.c ****   return HAL_OK;
  68              		.loc 1 141 0 discriminator 2
  69 0032 1846     		mov	r0, r3
  70              	.LVL3:
 142:../system/src/stm32l4-hal-driver/stm32l4xx_hal_dac_ex.c **** }
  71              		.loc 1 142 0 discriminator 2
  72 0034 70BC     		pop	{r4, r5, r6}
  73              		.cfi_restore 6
  74              		.cfi_restore 5
  75              		.cfi_restore 4
  76              		.cfi_def_cfa_offset 0
  77 0036 7047     		bx	lr
  78              	.LVL4:
  79              	.L3:
 126:../system/src/stm32l4-hal-driver/stm32l4xx_hal_dac_ex.c **** 
  80              		.loc 1 126 0
  81 0038 0220     		movs	r0, #2
  82              	.LVL5:
  83              		.loc 1 142 0
  84 003a 7047     		bx	lr
  85              		.cfi_endproc
  86              	.LFE317:
  88              		.section	.text.HAL_DACEx_NoiseWaveGenerate,"ax",%progbits
  89              		.align	1
  90              		.global	HAL_DACEx_NoiseWaveGenerate
  91              		.syntax unified
  92              		.thumb
  93              		.thumb_func
  94              		.fpu fpv4-sp-d16
  96              	HAL_DACEx_NoiseWaveGenerate:
  97              	.LFB318:
 143:../system/src/stm32l4-hal-driver/stm32l4xx_hal_dac_ex.c **** 
 144:../system/src/stm32l4-hal-driver/stm32l4xx_hal_dac_ex.c **** /**
 145:../system/src/stm32l4-hal-driver/stm32l4xx_hal_dac_ex.c ****   * @brief  Enable or disable the selected DAC channel wave generation.
 146:../system/src/stm32l4-hal-driver/stm32l4xx_hal_dac_ex.c ****   * @param  hdac pointer to a DAC_HandleTypeDef structure that contains
 147:../system/src/stm32l4-hal-driver/stm32l4xx_hal_dac_ex.c ****   *         the configuration information for the specified DAC.
 148:../system/src/stm32l4-hal-driver/stm32l4xx_hal_dac_ex.c ****   * @param  Channel The selected DAC channel.
 149:../system/src/stm32l4-hal-driver/stm32l4xx_hal_dac_ex.c ****   *          This parameter can be one of the following values:
 150:../system/src/stm32l4-hal-driver/stm32l4xx_hal_dac_ex.c ****   *            @arg DAC_CHANNEL_1: DAC Channel1 selected
 151:../system/src/stm32l4-hal-driver/stm32l4xx_hal_dac_ex.c ****   *            @arg DAC_CHANNEL_2: DAC Channel2 selected
 152:../system/src/stm32l4-hal-driver/stm32l4xx_hal_dac_ex.c ****   * @param  Amplitude Unmask DAC channel LFSR for noise wave generation.
 153:../system/src/stm32l4-hal-driver/stm32l4xx_hal_dac_ex.c ****   *          This parameter can be one of the following values:
 154:../system/src/stm32l4-hal-driver/stm32l4xx_hal_dac_ex.c ****   *            @arg DAC_LFSRUNMASK_BIT0: Unmask DAC channel LFSR bit0 for noise wave generation
 155:../system/src/stm32l4-hal-driver/stm32l4xx_hal_dac_ex.c ****   *            @arg DAC_LFSRUNMASK_BITS1_0: Unmask DAC channel LFSR bit[1:0] for noise wave generat
 156:../system/src/stm32l4-hal-driver/stm32l4xx_hal_dac_ex.c ****   *            @arg DAC_LFSRUNMASK_BITS2_0: Unmask DAC channel LFSR bit[2:0] for noise wave generat
 157:../system/src/stm32l4-hal-driver/stm32l4xx_hal_dac_ex.c ****   *            @arg DAC_LFSRUNMASK_BITS3_0: Unmask DAC channel LFSR bit[3:0] for noise wave generat
 158:../system/src/stm32l4-hal-driver/stm32l4xx_hal_dac_ex.c ****   *            @arg DAC_LFSRUNMASK_BITS4_0: Unmask DAC channel LFSR bit[4:0] for noise wave generat
 159:../system/src/stm32l4-hal-driver/stm32l4xx_hal_dac_ex.c ****   *            @arg DAC_LFSRUNMASK_BITS5_0: Unmask DAC channel LFSR bit[5:0] for noise wave generat
 160:../system/src/stm32l4-hal-driver/stm32l4xx_hal_dac_ex.c ****   *            @arg DAC_LFSRUNMASK_BITS6_0: Unmask DAC channel LFSR bit[6:0] for noise wave generat
 161:../system/src/stm32l4-hal-driver/stm32l4xx_hal_dac_ex.c ****   *            @arg DAC_LFSRUNMASK_BITS7_0: Unmask DAC channel LFSR bit[7:0] for noise wave generat
 162:../system/src/stm32l4-hal-driver/stm32l4xx_hal_dac_ex.c ****   *            @arg DAC_LFSRUNMASK_BITS8_0: Unmask DAC channel LFSR bit[8:0] for noise wave generat
 163:../system/src/stm32l4-hal-driver/stm32l4xx_hal_dac_ex.c ****   *            @arg DAC_LFSRUNMASK_BITS9_0: Unmask DAC channel LFSR bit[9:0] for noise wave generat
 164:../system/src/stm32l4-hal-driver/stm32l4xx_hal_dac_ex.c ****   *            @arg DAC_LFSRUNMASK_BITS10_0: Unmask DAC channel LFSR bit[10:0] for noise wave gener
 165:../system/src/stm32l4-hal-driver/stm32l4xx_hal_dac_ex.c ****   *            @arg DAC_LFSRUNMASK_BITS11_0: Unmask DAC channel LFSR bit[11:0] for noise wave gener
 166:../system/src/stm32l4-hal-driver/stm32l4xx_hal_dac_ex.c ****   * @retval HAL status
 167:../system/src/stm32l4-hal-driver/stm32l4xx_hal_dac_ex.c ****   */
 168:../system/src/stm32l4-hal-driver/stm32l4xx_hal_dac_ex.c **** HAL_StatusTypeDef HAL_DACEx_NoiseWaveGenerate(DAC_HandleTypeDef *hdac, uint32_t Channel, uint32_t A
 169:../system/src/stm32l4-hal-driver/stm32l4xx_hal_dac_ex.c **** {
  98              		.loc 1 169 0
  99              		.cfi_startproc
 100              		@ args = 0, pretend = 0, frame = 0
 101              		@ frame_needed = 0, uses_anonymous_args = 0
 102              		@ link register save eliminated.
 103              	.LVL6:
 170:../system/src/stm32l4-hal-driver/stm32l4xx_hal_dac_ex.c ****   /* Check the parameters */
 171:../system/src/stm32l4-hal-driver/stm32l4xx_hal_dac_ex.c ****   assert_param(IS_DAC_CHANNEL(Channel));
 172:../system/src/stm32l4-hal-driver/stm32l4xx_hal_dac_ex.c ****   assert_param(IS_DAC_LFSR_UNMASK_TRIANGLE_AMPLITUDE(Amplitude));
 173:../system/src/stm32l4-hal-driver/stm32l4xx_hal_dac_ex.c **** 
 174:../system/src/stm32l4-hal-driver/stm32l4xx_hal_dac_ex.c ****   /* Process locked */
 175:../system/src/stm32l4-hal-driver/stm32l4xx_hal_dac_ex.c ****   __HAL_LOCK(hdac);
 104              		.loc 1 175 0
 105 0000 4379     		ldrb	r3, [r0, #5]	@ zero_extendqisi2
 106 0002 012B     		cmp	r3, #1
 107 0004 18D0     		beq	.L10
 169:../system/src/stm32l4-hal-driver/stm32l4xx_hal_dac_ex.c ****   /* Check the parameters */
 108              		.loc 1 169 0 discriminator 2
 109 0006 70B4     		push	{r4, r5, r6}
 110              		.cfi_def_cfa_offset 12
 111              		.cfi_offset 4, -12
 112              		.cfi_offset 5, -8
 113              		.cfi_offset 6, -4
 114              		.loc 1 175 0 discriminator 2
 115 0008 0125     		movs	r5, #1
 116 000a 4571     		strb	r5, [r0, #5]
 176:../system/src/stm32l4-hal-driver/stm32l4xx_hal_dac_ex.c **** 
 177:../system/src/stm32l4-hal-driver/stm32l4xx_hal_dac_ex.c ****   /* Change DAC state */
 178:../system/src/stm32l4-hal-driver/stm32l4xx_hal_dac_ex.c ****   hdac->State = HAL_DAC_STATE_BUSY;
 117              		.loc 1 178 0 discriminator 2
 118 000c 0223     		movs	r3, #2
 119 000e 0371     		strb	r3, [r0, #4]
 179:../system/src/stm32l4-hal-driver/stm32l4xx_hal_dac_ex.c **** 
 180:../system/src/stm32l4-hal-driver/stm32l4xx_hal_dac_ex.c ****   /* Enable the noise wave generation for the selected DAC channel */
 181:../system/src/stm32l4-hal-driver/stm32l4xx_hal_dac_ex.c ****   MODIFY_REG(hdac->Instance->CR, ((DAC_CR_WAVE1) | (DAC_CR_MAMP1)) << (Channel & 0x10UL), (DAC_CR_W
 120              		.loc 1 181 0 discriminator 2
 121 0010 0668     		ldr	r6, [r0]
 122 0012 3368     		ldr	r3, [r6]
 123 0014 01F01001 		and	r1, r1, #16
 124              	.LVL7:
 125 0018 4FF47C64 		mov	r4, #4032
 126 001c 8C40     		lsls	r4, r4, r1
 127 001e 23EA0403 		bic	r3, r3, r4
 128 0022 42F04002 		orr	r2, r2, #64
 129              	.LVL8:
 130 0026 8A40     		lsls	r2, r2, r1
 131 0028 1A43     		orrs	r2, r2, r3
 132 002a 3260     		str	r2, [r6]
 182:../system/src/stm32l4-hal-driver/stm32l4xx_hal_dac_ex.c **** 
 183:../system/src/stm32l4-hal-driver/stm32l4xx_hal_dac_ex.c ****   /* Change DAC state */
 184:../system/src/stm32l4-hal-driver/stm32l4xx_hal_dac_ex.c ****   hdac->State = HAL_DAC_STATE_READY;
 133              		.loc 1 184 0 discriminator 2
 134 002c 0571     		strb	r5, [r0, #4]
 185:../system/src/stm32l4-hal-driver/stm32l4xx_hal_dac_ex.c **** 
 186:../system/src/stm32l4-hal-driver/stm32l4xx_hal_dac_ex.c ****   /* Process unlocked */
 187:../system/src/stm32l4-hal-driver/stm32l4xx_hal_dac_ex.c ****   __HAL_UNLOCK(hdac);
 135              		.loc 1 187 0 discriminator 2
 136 002e 0023     		movs	r3, #0
 137 0030 4371     		strb	r3, [r0, #5]
 188:../system/src/stm32l4-hal-driver/stm32l4xx_hal_dac_ex.c **** 
 189:../system/src/stm32l4-hal-driver/stm32l4xx_hal_dac_ex.c ****   /* Return function status */
 190:../system/src/stm32l4-hal-driver/stm32l4xx_hal_dac_ex.c ****   return HAL_OK;
 138              		.loc 1 190 0 discriminator 2
 139 0032 1846     		mov	r0, r3
 140              	.LVL9:
 191:../system/src/stm32l4-hal-driver/stm32l4xx_hal_dac_ex.c **** }
 141              		.loc 1 191 0 discriminator 2
 142 0034 70BC     		pop	{r4, r5, r6}
 143              		.cfi_restore 6
 144              		.cfi_restore 5
 145              		.cfi_restore 4
 146              		.cfi_def_cfa_offset 0
 147 0036 7047     		bx	lr
 148              	.LVL10:
 149              	.L10:
 175:../system/src/stm32l4-hal-driver/stm32l4xx_hal_dac_ex.c **** 
 150              		.loc 1 175 0
 151 0038 0220     		movs	r0, #2
 152              	.LVL11:
 153              		.loc 1 191 0
 154 003a 7047     		bx	lr
 155              		.cfi_endproc
 156              	.LFE318:
 158              		.section	.text.HAL_DACEx_DualSetValue,"ax",%progbits
 159              		.align	1
 160              		.global	HAL_DACEx_DualSetValue
 161              		.syntax unified
 162              		.thumb
 163              		.thumb_func
 164              		.fpu fpv4-sp-d16
 166              	HAL_DACEx_DualSetValue:
 167              	.LFB319:
 192:../system/src/stm32l4-hal-driver/stm32l4xx_hal_dac_ex.c **** 
 193:../system/src/stm32l4-hal-driver/stm32l4xx_hal_dac_ex.c **** #if defined (STM32L431xx) || defined (STM32L432xx) || defined (STM32L433xx) || defined (STM32L442xx
 194:../system/src/stm32l4-hal-driver/stm32l4xx_hal_dac_ex.c ****     defined (STM32L471xx) || defined (STM32L475xx) || defined (STM32L476xx) || defined (STM32L485xx
 195:../system/src/stm32l4-hal-driver/stm32l4xx_hal_dac_ex.c ****     defined (STM32L4P5xx) || defined (STM32L4Q5xx) || \
 196:../system/src/stm32l4-hal-driver/stm32l4xx_hal_dac_ex.c ****     defined (STM32L4R5xx) || defined (STM32L4R7xx) || defined (STM32L4R9xx) || defined (STM32L4S5xx
 197:../system/src/stm32l4-hal-driver/stm32l4xx_hal_dac_ex.c **** 
 198:../system/src/stm32l4-hal-driver/stm32l4xx_hal_dac_ex.c **** /**
 199:../system/src/stm32l4-hal-driver/stm32l4xx_hal_dac_ex.c ****   * @brief  Set the specified data holding register value for dual DAC channel.
 200:../system/src/stm32l4-hal-driver/stm32l4xx_hal_dac_ex.c ****   * @param  hdac pointer to a DAC_HandleTypeDef structure that contains
 201:../system/src/stm32l4-hal-driver/stm32l4xx_hal_dac_ex.c ****   *               the configuration information for the specified DAC.
 202:../system/src/stm32l4-hal-driver/stm32l4xx_hal_dac_ex.c ****   * @param  Alignment Specifies the data alignment for dual channel DAC.
 203:../system/src/stm32l4-hal-driver/stm32l4xx_hal_dac_ex.c ****   *          This parameter can be one of the following values:
 204:../system/src/stm32l4-hal-driver/stm32l4xx_hal_dac_ex.c ****   *            DAC_ALIGN_8B_R: 8bit right data alignment selected
 205:../system/src/stm32l4-hal-driver/stm32l4xx_hal_dac_ex.c ****   *            DAC_ALIGN_12B_L: 12bit left data alignment selected
 206:../system/src/stm32l4-hal-driver/stm32l4xx_hal_dac_ex.c ****   *            DAC_ALIGN_12B_R: 12bit right data alignment selected
 207:../system/src/stm32l4-hal-driver/stm32l4xx_hal_dac_ex.c ****   * @param  Data1 Data for DAC Channel1 to be loaded in the selected data holding register.
 208:../system/src/stm32l4-hal-driver/stm32l4xx_hal_dac_ex.c ****   * @param  Data2 Data for DAC Channel2 to be loaded in the selected data  holding register.
 209:../system/src/stm32l4-hal-driver/stm32l4xx_hal_dac_ex.c ****   * @note   In dual mode, a unique register access is required to write in both
 210:../system/src/stm32l4-hal-driver/stm32l4xx_hal_dac_ex.c ****   *          DAC channels at the same time.
 211:../system/src/stm32l4-hal-driver/stm32l4xx_hal_dac_ex.c ****   * @retval HAL status
 212:../system/src/stm32l4-hal-driver/stm32l4xx_hal_dac_ex.c ****   */
 213:../system/src/stm32l4-hal-driver/stm32l4xx_hal_dac_ex.c **** HAL_StatusTypeDef HAL_DACEx_DualSetValue(DAC_HandleTypeDef *hdac, uint32_t Alignment, uint32_t Data
 214:../system/src/stm32l4-hal-driver/stm32l4xx_hal_dac_ex.c **** {
 168              		.loc 1 214 0
 169              		.cfi_startproc
 170              		@ args = 0, pretend = 0, frame = 0
 171              		@ frame_needed = 0, uses_anonymous_args = 0
 172              		@ link register save eliminated.
 173              	.LVL12:
 215:../system/src/stm32l4-hal-driver/stm32l4xx_hal_dac_ex.c ****   uint32_t data;
 216:../system/src/stm32l4-hal-driver/stm32l4xx_hal_dac_ex.c ****   uint32_t tmp;
 217:../system/src/stm32l4-hal-driver/stm32l4xx_hal_dac_ex.c **** 
 218:../system/src/stm32l4-hal-driver/stm32l4xx_hal_dac_ex.c ****   /* Check the parameters */
 219:../system/src/stm32l4-hal-driver/stm32l4xx_hal_dac_ex.c ****   assert_param(IS_DAC_ALIGN(Alignment));
 220:../system/src/stm32l4-hal-driver/stm32l4xx_hal_dac_ex.c ****   assert_param(IS_DAC_DATA(Data1));
 221:../system/src/stm32l4-hal-driver/stm32l4xx_hal_dac_ex.c ****   assert_param(IS_DAC_DATA(Data2));
 222:../system/src/stm32l4-hal-driver/stm32l4xx_hal_dac_ex.c **** 
 223:../system/src/stm32l4-hal-driver/stm32l4xx_hal_dac_ex.c ****   /* Calculate and set dual DAC data holding register value */
 224:../system/src/stm32l4-hal-driver/stm32l4xx_hal_dac_ex.c ****   if (Alignment == DAC_ALIGN_8B_R)
 174              		.loc 1 224 0
 175 0000 0829     		cmp	r1, #8
 176 0002 06D0     		beq	.L18
 225:../system/src/stm32l4-hal-driver/stm32l4xx_hal_dac_ex.c ****   {
 226:../system/src/stm32l4-hal-driver/stm32l4xx_hal_dac_ex.c ****     data = ((uint32_t)Data2 << 8U) | Data1;
 227:../system/src/stm32l4-hal-driver/stm32l4xx_hal_dac_ex.c ****   }
 228:../system/src/stm32l4-hal-driver/stm32l4xx_hal_dac_ex.c ****   else
 229:../system/src/stm32l4-hal-driver/stm32l4xx_hal_dac_ex.c ****   {
 230:../system/src/stm32l4-hal-driver/stm32l4xx_hal_dac_ex.c ****     data = ((uint32_t)Data2 << 16U) | Data1;
 177              		.loc 1 230 0
 178 0004 42EA0342 		orr	r2, r2, r3, lsl #16
 179              	.LVL13:
 180              	.L17:
 231:../system/src/stm32l4-hal-driver/stm32l4xx_hal_dac_ex.c ****   }
 232:../system/src/stm32l4-hal-driver/stm32l4xx_hal_dac_ex.c **** 
 233:../system/src/stm32l4-hal-driver/stm32l4xx_hal_dac_ex.c ****   tmp = (uint32_t)hdac->Instance;
 181              		.loc 1 233 0
 182 0008 0368     		ldr	r3, [r0]
 183              	.LVL14:
 234:../system/src/stm32l4-hal-driver/stm32l4xx_hal_dac_ex.c ****   tmp += DAC_DHR12RD_ALIGNMENT(Alignment);
 184              		.loc 1 234 0
 185 000a 1944     		add	r1, r1, r3
 186              	.LVL15:
 235:../system/src/stm32l4-hal-driver/stm32l4xx_hal_dac_ex.c **** 
 236:../system/src/stm32l4-hal-driver/stm32l4xx_hal_dac_ex.c ****   /* Set the dual DAC selected data holding register */
 237:../system/src/stm32l4-hal-driver/stm32l4xx_hal_dac_ex.c ****   *(__IO uint32_t *)tmp = data;
 187              		.loc 1 237 0
 188 000c 0A62     		str	r2, [r1, #32]
 238:../system/src/stm32l4-hal-driver/stm32l4xx_hal_dac_ex.c **** 
 239:../system/src/stm32l4-hal-driver/stm32l4xx_hal_dac_ex.c ****   /* Return function status */
 240:../system/src/stm32l4-hal-driver/stm32l4xx_hal_dac_ex.c ****   return HAL_OK;
 241:../system/src/stm32l4-hal-driver/stm32l4xx_hal_dac_ex.c **** }
 189              		.loc 1 241 0
 190 000e 0020     		movs	r0, #0
 191              	.LVL16:
 192 0010 7047     		bx	lr
 193              	.LVL17:
 194              	.L18:
 226:../system/src/stm32l4-hal-driver/stm32l4xx_hal_dac_ex.c ****   }
 195              		.loc 1 226 0
 196 0012 42EA0322 		orr	r2, r2, r3, lsl #8
 197              	.LVL18:
 198 0016 F7E7     		b	.L17
 199              		.cfi_endproc
 200              	.LFE319:
 202              		.section	.text.HAL_DACEx_ConvCpltCallbackCh2,"ax",%progbits
 203              		.align	1
 204              		.weak	HAL_DACEx_ConvCpltCallbackCh2
 205              		.syntax unified
 206              		.thumb
 207              		.thumb_func
 208              		.fpu fpv4-sp-d16
 210              	HAL_DACEx_ConvCpltCallbackCh2:
 211              	.LFB320:
 242:../system/src/stm32l4-hal-driver/stm32l4xx_hal_dac_ex.c **** 
 243:../system/src/stm32l4-hal-driver/stm32l4xx_hal_dac_ex.c **** /**
 244:../system/src/stm32l4-hal-driver/stm32l4xx_hal_dac_ex.c ****   * @brief  Conversion complete callback in non-blocking mode for Channel2.
 245:../system/src/stm32l4-hal-driver/stm32l4xx_hal_dac_ex.c ****   * @param  hdac pointer to a DAC_HandleTypeDef structure that contains
 246:../system/src/stm32l4-hal-driver/stm32l4xx_hal_dac_ex.c ****   *         the configuration information for the specified DAC.
 247:../system/src/stm32l4-hal-driver/stm32l4xx_hal_dac_ex.c ****   * @retval None
 248:../system/src/stm32l4-hal-driver/stm32l4xx_hal_dac_ex.c ****   */
 249:../system/src/stm32l4-hal-driver/stm32l4xx_hal_dac_ex.c **** __weak void HAL_DACEx_ConvCpltCallbackCh2(DAC_HandleTypeDef *hdac)
 250:../system/src/stm32l4-hal-driver/stm32l4xx_hal_dac_ex.c **** {
 212              		.loc 1 250 0
 213              		.cfi_startproc
 214              		@ args = 0, pretend = 0, frame = 0
 215              		@ frame_needed = 0, uses_anonymous_args = 0
 216              		@ link register save eliminated.
 217              	.LVL19:
 251:../system/src/stm32l4-hal-driver/stm32l4xx_hal_dac_ex.c ****   /* Prevent unused argument(s) compilation warning */
 252:../system/src/stm32l4-hal-driver/stm32l4xx_hal_dac_ex.c ****   UNUSED(hdac);
 253:../system/src/stm32l4-hal-driver/stm32l4xx_hal_dac_ex.c **** 
 254:../system/src/stm32l4-hal-driver/stm32l4xx_hal_dac_ex.c ****   /* NOTE : This function should not be modified, when the callback is needed,
 255:../system/src/stm32l4-hal-driver/stm32l4xx_hal_dac_ex.c ****             the HAL_DACEx_ConvCpltCallbackCh2 could be implemented in the user file
 256:../system/src/stm32l4-hal-driver/stm32l4xx_hal_dac_ex.c ****    */
 257:../system/src/stm32l4-hal-driver/stm32l4xx_hal_dac_ex.c **** }
 218              		.loc 1 257 0
 219 0000 7047     		bx	lr
 220              		.cfi_endproc
 221              	.LFE320:
 223              		.section	.text.HAL_DACEx_ConvHalfCpltCallbackCh2,"ax",%progbits
 224              		.align	1
 225              		.weak	HAL_DACEx_ConvHalfCpltCallbackCh2
 226              		.syntax unified
 227              		.thumb
 228              		.thumb_func
 229              		.fpu fpv4-sp-d16
 231              	HAL_DACEx_ConvHalfCpltCallbackCh2:
 232              	.LFB321:
 258:../system/src/stm32l4-hal-driver/stm32l4xx_hal_dac_ex.c **** 
 259:../system/src/stm32l4-hal-driver/stm32l4xx_hal_dac_ex.c **** /**
 260:../system/src/stm32l4-hal-driver/stm32l4xx_hal_dac_ex.c ****   * @brief  Conversion half DMA transfer callback in non-blocking mode for Channel2.
 261:../system/src/stm32l4-hal-driver/stm32l4xx_hal_dac_ex.c ****   * @param  hdac pointer to a DAC_HandleTypeDef structure that contains
 262:../system/src/stm32l4-hal-driver/stm32l4xx_hal_dac_ex.c ****   *         the configuration information for the specified DAC.
 263:../system/src/stm32l4-hal-driver/stm32l4xx_hal_dac_ex.c ****   * @retval None
 264:../system/src/stm32l4-hal-driver/stm32l4xx_hal_dac_ex.c ****   */
 265:../system/src/stm32l4-hal-driver/stm32l4xx_hal_dac_ex.c **** __weak void HAL_DACEx_ConvHalfCpltCallbackCh2(DAC_HandleTypeDef *hdac)
 266:../system/src/stm32l4-hal-driver/stm32l4xx_hal_dac_ex.c **** {
 233              		.loc 1 266 0
 234              		.cfi_startproc
 235              		@ args = 0, pretend = 0, frame = 0
 236              		@ frame_needed = 0, uses_anonymous_args = 0
 237              		@ link register save eliminated.
 238              	.LVL20:
 267:../system/src/stm32l4-hal-driver/stm32l4xx_hal_dac_ex.c ****   /* Prevent unused argument(s) compilation warning */
 268:../system/src/stm32l4-hal-driver/stm32l4xx_hal_dac_ex.c ****   UNUSED(hdac);
 269:../system/src/stm32l4-hal-driver/stm32l4xx_hal_dac_ex.c **** 
 270:../system/src/stm32l4-hal-driver/stm32l4xx_hal_dac_ex.c ****   /* NOTE : This function should not be modified, when the callback is needed,
 271:../system/src/stm32l4-hal-driver/stm32l4xx_hal_dac_ex.c ****             the HAL_DACEx_ConvHalfCpltCallbackCh2 could be implemented in the user file
 272:../system/src/stm32l4-hal-driver/stm32l4xx_hal_dac_ex.c ****    */
 273:../system/src/stm32l4-hal-driver/stm32l4xx_hal_dac_ex.c **** }
 239              		.loc 1 273 0
 240 0000 7047     		bx	lr
 241              		.cfi_endproc
 242              	.LFE321:
 244              		.section	.text.HAL_DACEx_ErrorCallbackCh2,"ax",%progbits
 245              		.align	1
 246              		.weak	HAL_DACEx_ErrorCallbackCh2
 247              		.syntax unified
 248              		.thumb
 249              		.thumb_func
 250              		.fpu fpv4-sp-d16
 252              	HAL_DACEx_ErrorCallbackCh2:
 253              	.LFB322:
 274:../system/src/stm32l4-hal-driver/stm32l4xx_hal_dac_ex.c **** 
 275:../system/src/stm32l4-hal-driver/stm32l4xx_hal_dac_ex.c **** /**
 276:../system/src/stm32l4-hal-driver/stm32l4xx_hal_dac_ex.c ****   * @brief  Error DAC callback for Channel2.
 277:../system/src/stm32l4-hal-driver/stm32l4xx_hal_dac_ex.c ****   * @param  hdac pointer to a DAC_HandleTypeDef structure that contains
 278:../system/src/stm32l4-hal-driver/stm32l4xx_hal_dac_ex.c ****   *         the configuration information for the specified DAC.
 279:../system/src/stm32l4-hal-driver/stm32l4xx_hal_dac_ex.c ****   * @retval None
 280:../system/src/stm32l4-hal-driver/stm32l4xx_hal_dac_ex.c ****   */
 281:../system/src/stm32l4-hal-driver/stm32l4xx_hal_dac_ex.c **** __weak void HAL_DACEx_ErrorCallbackCh2(DAC_HandleTypeDef *hdac)
 282:../system/src/stm32l4-hal-driver/stm32l4xx_hal_dac_ex.c **** {
 254              		.loc 1 282 0
 255              		.cfi_startproc
 256              		@ args = 0, pretend = 0, frame = 0
 257              		@ frame_needed = 0, uses_anonymous_args = 0
 258              		@ link register save eliminated.
 259              	.LVL21:
 283:../system/src/stm32l4-hal-driver/stm32l4xx_hal_dac_ex.c ****   /* Prevent unused argument(s) compilation warning */
 284:../system/src/stm32l4-hal-driver/stm32l4xx_hal_dac_ex.c ****   UNUSED(hdac);
 285:../system/src/stm32l4-hal-driver/stm32l4xx_hal_dac_ex.c **** 
 286:../system/src/stm32l4-hal-driver/stm32l4xx_hal_dac_ex.c ****   /* NOTE : This function should not be modified, when the callback is needed,
 287:../system/src/stm32l4-hal-driver/stm32l4xx_hal_dac_ex.c ****             the HAL_DACEx_ErrorCallbackCh2 could be implemented in the user file
 288:../system/src/stm32l4-hal-driver/stm32l4xx_hal_dac_ex.c ****    */
 289:../system/src/stm32l4-hal-driver/stm32l4xx_hal_dac_ex.c **** }
 260              		.loc 1 289 0
 261 0000 7047     		bx	lr
 262              		.cfi_endproc
 263              	.LFE322:
 265              		.section	.text.HAL_DACEx_DMAUnderrunCallbackCh2,"ax",%progbits
 266              		.align	1
 267              		.weak	HAL_DACEx_DMAUnderrunCallbackCh2
 268              		.syntax unified
 269              		.thumb
 270              		.thumb_func
 271              		.fpu fpv4-sp-d16
 273              	HAL_DACEx_DMAUnderrunCallbackCh2:
 274              	.LFB323:
 290:../system/src/stm32l4-hal-driver/stm32l4xx_hal_dac_ex.c **** 
 291:../system/src/stm32l4-hal-driver/stm32l4xx_hal_dac_ex.c **** /**
 292:../system/src/stm32l4-hal-driver/stm32l4xx_hal_dac_ex.c ****   * @brief  DMA underrun DAC callback for Channel2.
 293:../system/src/stm32l4-hal-driver/stm32l4xx_hal_dac_ex.c ****   * @param  hdac pointer to a DAC_HandleTypeDef structure that contains
 294:../system/src/stm32l4-hal-driver/stm32l4xx_hal_dac_ex.c ****   *         the configuration information for the specified DAC.
 295:../system/src/stm32l4-hal-driver/stm32l4xx_hal_dac_ex.c ****   * @retval None
 296:../system/src/stm32l4-hal-driver/stm32l4xx_hal_dac_ex.c ****   */
 297:../system/src/stm32l4-hal-driver/stm32l4xx_hal_dac_ex.c **** __weak void HAL_DACEx_DMAUnderrunCallbackCh2(DAC_HandleTypeDef *hdac)
 298:../system/src/stm32l4-hal-driver/stm32l4xx_hal_dac_ex.c **** {
 275              		.loc 1 298 0
 276              		.cfi_startproc
 277              		@ args = 0, pretend = 0, frame = 0
 278              		@ frame_needed = 0, uses_anonymous_args = 0
 279              		@ link register save eliminated.
 280              	.LVL22:
 299:../system/src/stm32l4-hal-driver/stm32l4xx_hal_dac_ex.c ****   /* Prevent unused argument(s) compilation warning */
 300:../system/src/stm32l4-hal-driver/stm32l4xx_hal_dac_ex.c ****   UNUSED(hdac);
 301:../system/src/stm32l4-hal-driver/stm32l4xx_hal_dac_ex.c **** 
 302:../system/src/stm32l4-hal-driver/stm32l4xx_hal_dac_ex.c ****   /* NOTE : This function should not be modified, when the callback is needed,
 303:../system/src/stm32l4-hal-driver/stm32l4xx_hal_dac_ex.c ****             the HAL_DACEx_DMAUnderrunCallbackCh2 could be implemented in the user file
 304:../system/src/stm32l4-hal-driver/stm32l4xx_hal_dac_ex.c ****    */
 305:../system/src/stm32l4-hal-driver/stm32l4xx_hal_dac_ex.c **** }
 281              		.loc 1 305 0
 282 0000 7047     		bx	lr
 283              		.cfi_endproc
 284              	.LFE323:
 286              		.section	.text.HAL_DACEx_SelfCalibrate,"ax",%progbits
 287              		.align	1
 288              		.global	HAL_DACEx_SelfCalibrate
 289              		.syntax unified
 290              		.thumb
 291              		.thumb_func
 292              		.fpu fpv4-sp-d16
 294              	HAL_DACEx_SelfCalibrate:
 295              	.LFB324:
 306:../system/src/stm32l4-hal-driver/stm32l4xx_hal_dac_ex.c **** #endif  /* STM32L431xx STM32L432xx STM32L433xx STM32L442xx STM32L443xx                         */
 307:../system/src/stm32l4-hal-driver/stm32l4xx_hal_dac_ex.c ****         /* STM32L471xx STM32L475xx STM32L476xx STM32L485xx STM32L486xx STM32L496xx STM32L4A6xx */
 308:../system/src/stm32l4-hal-driver/stm32l4xx_hal_dac_ex.c ****         /* STM32L4P5xx STM32L4Q5xx                                                             */
 309:../system/src/stm32l4-hal-driver/stm32l4xx_hal_dac_ex.c ****         /* STM32L4R5xx STM32L4R7xx STM32L4R9xx STM32L4S5xx STM32L4S7xx STM32L4S9xx             */
 310:../system/src/stm32l4-hal-driver/stm32l4xx_hal_dac_ex.c **** 
 311:../system/src/stm32l4-hal-driver/stm32l4xx_hal_dac_ex.c **** /**
 312:../system/src/stm32l4-hal-driver/stm32l4xx_hal_dac_ex.c ****   * @brief  Run the self calibration of one DAC channel.
 313:../system/src/stm32l4-hal-driver/stm32l4xx_hal_dac_ex.c ****   * @param  hdac pointer to a DAC_HandleTypeDef structure that contains
 314:../system/src/stm32l4-hal-driver/stm32l4xx_hal_dac_ex.c ****   *         the configuration information for the specified DAC.
 315:../system/src/stm32l4-hal-driver/stm32l4xx_hal_dac_ex.c ****   * @param  sConfig DAC channel configuration structure.
 316:../system/src/stm32l4-hal-driver/stm32l4xx_hal_dac_ex.c ****   * @param  Channel The selected DAC channel.
 317:../system/src/stm32l4-hal-driver/stm32l4xx_hal_dac_ex.c ****   *          This parameter can be one of the following values:
 318:../system/src/stm32l4-hal-driver/stm32l4xx_hal_dac_ex.c ****   *            @arg DAC_CHANNEL_1: DAC Channel1 selected
 319:../system/src/stm32l4-hal-driver/stm32l4xx_hal_dac_ex.c ****   *            @arg DAC_CHANNEL_2: DAC Channel2 selected
 320:../system/src/stm32l4-hal-driver/stm32l4xx_hal_dac_ex.c ****   * @retval Updates DAC_TrimmingValue. , DAC_UserTrimming set to DAC_UserTrimming
 321:../system/src/stm32l4-hal-driver/stm32l4xx_hal_dac_ex.c ****   * @retval HAL status
 322:../system/src/stm32l4-hal-driver/stm32l4xx_hal_dac_ex.c ****   * @note   Calibration runs about 7 ms.
 323:../system/src/stm32l4-hal-driver/stm32l4xx_hal_dac_ex.c ****   */
 324:../system/src/stm32l4-hal-driver/stm32l4xx_hal_dac_ex.c **** 
 325:../system/src/stm32l4-hal-driver/stm32l4xx_hal_dac_ex.c **** HAL_StatusTypeDef HAL_DACEx_SelfCalibrate(DAC_HandleTypeDef *hdac, DAC_ChannelConfTypeDef *sConfig,
 326:../system/src/stm32l4-hal-driver/stm32l4xx_hal_dac_ex.c **** {
 296              		.loc 1 326 0
 297              		.cfi_startproc
 298              		@ args = 0, pretend = 0, frame = 8
 299              		@ frame_needed = 0, uses_anonymous_args = 0
 300              	.LVL23:
 327:../system/src/stm32l4-hal-driver/stm32l4xx_hal_dac_ex.c ****   HAL_StatusTypeDef status = HAL_OK;
 328:../system/src/stm32l4-hal-driver/stm32l4xx_hal_dac_ex.c **** 
 329:../system/src/stm32l4-hal-driver/stm32l4xx_hal_dac_ex.c ****   __IO uint32_t tmp;
 330:../system/src/stm32l4-hal-driver/stm32l4xx_hal_dac_ex.c ****   uint32_t trimmingvalue;
 331:../system/src/stm32l4-hal-driver/stm32l4xx_hal_dac_ex.c ****   uint32_t delta;
 332:../system/src/stm32l4-hal-driver/stm32l4xx_hal_dac_ex.c **** 
 333:../system/src/stm32l4-hal-driver/stm32l4xx_hal_dac_ex.c ****   /* store/restore channel configuration structure purpose */
 334:../system/src/stm32l4-hal-driver/stm32l4xx_hal_dac_ex.c ****   uint32_t oldmodeconfiguration;
 335:../system/src/stm32l4-hal-driver/stm32l4xx_hal_dac_ex.c **** 
 336:../system/src/stm32l4-hal-driver/stm32l4xx_hal_dac_ex.c ****   /* Check the parameters */
 337:../system/src/stm32l4-hal-driver/stm32l4xx_hal_dac_ex.c ****   assert_param(IS_DAC_CHANNEL(Channel));
 338:../system/src/stm32l4-hal-driver/stm32l4xx_hal_dac_ex.c **** 
 339:../system/src/stm32l4-hal-driver/stm32l4xx_hal_dac_ex.c ****  /* Check the DAC handle allocation */
 340:../system/src/stm32l4-hal-driver/stm32l4xx_hal_dac_ex.c ****  /* Check if DAC running */
 341:../system/src/stm32l4-hal-driver/stm32l4xx_hal_dac_ex.c ****   if (hdac == NULL)
 301              		.loc 1 341 0
 302 0000 0028     		cmp	r0, #0
 303 0002 00F08480 		beq	.L32
 326:../system/src/stm32l4-hal-driver/stm32l4xx_hal_dac_ex.c ****   HAL_StatusTypeDef status = HAL_OK;
 304              		.loc 1 326 0
 305 0006 2DE9F04F 		push	{r4, r5, r6, r7, r8, r9, r10, fp, lr}
 306              		.cfi_def_cfa_offset 36
 307              		.cfi_offset 4, -36
 308              		.cfi_offset 5, -32
 309              		.cfi_offset 6, -28
 310              		.cfi_offset 7, -24
 311              		.cfi_offset 8, -20
 312              		.cfi_offset 9, -16
 313              		.cfi_offset 10, -12
 314              		.cfi_offset 11, -8
 315              		.cfi_offset 14, -4
 316 000a 83B0     		sub	sp, sp, #12
 317              		.cfi_def_cfa_offset 48
 318 000c 0446     		mov	r4, r0
 342:../system/src/stm32l4-hal-driver/stm32l4xx_hal_dac_ex.c ****   {
 343:../system/src/stm32l4-hal-driver/stm32l4xx_hal_dac_ex.c ****     status = HAL_ERROR;
 344:../system/src/stm32l4-hal-driver/stm32l4xx_hal_dac_ex.c ****   }
 345:../system/src/stm32l4-hal-driver/stm32l4xx_hal_dac_ex.c ****   else if (hdac->State == HAL_DAC_STATE_BUSY)
 319              		.loc 1 345 0
 320 000e 0379     		ldrb	r3, [r0, #4]	@ zero_extendqisi2
 321 0010 DBB2     		uxtb	r3, r3
 322 0012 022B     		cmp	r3, #2
 323 0014 7DD0     		beq	.L33
 346:../system/src/stm32l4-hal-driver/stm32l4xx_hal_dac_ex.c ****   {
 347:../system/src/stm32l4-hal-driver/stm32l4xx_hal_dac_ex.c ****     status = HAL_ERROR;
 348:../system/src/stm32l4-hal-driver/stm32l4xx_hal_dac_ex.c ****   }
 349:../system/src/stm32l4-hal-driver/stm32l4xx_hal_dac_ex.c ****   else
 350:../system/src/stm32l4-hal-driver/stm32l4xx_hal_dac_ex.c ****   {
 351:../system/src/stm32l4-hal-driver/stm32l4xx_hal_dac_ex.c ****     /* Process locked */
 352:../system/src/stm32l4-hal-driver/stm32l4xx_hal_dac_ex.c ****     __HAL_LOCK(hdac);
 324              		.loc 1 352 0
 325 0016 4379     		ldrb	r3, [r0, #5]	@ zero_extendqisi2
 326 0018 012B     		cmp	r3, #1
 327 001a 7CD0     		beq	.L34
 328              		.loc 1 352 0 is_stmt 0 discriminator 2
 329 001c 0123     		movs	r3, #1
 330 001e 4371     		strb	r3, [r0, #5]
 353:../system/src/stm32l4-hal-driver/stm32l4xx_hal_dac_ex.c **** 
 354:../system/src/stm32l4-hal-driver/stm32l4xx_hal_dac_ex.c ****     /* Store configuration */
 355:../system/src/stm32l4-hal-driver/stm32l4xx_hal_dac_ex.c ****     oldmodeconfiguration = (hdac->Instance->MCR & (DAC_MCR_MODE1 << (Channel & 0x10UL)));
 331              		.loc 1 355 0 is_stmt 1 discriminator 2
 332 0020 0068     		ldr	r0, [r0]
 333              	.LVL24:
 334 0022 C56B     		ldr	r5, [r0, #60]
 335 0024 02F01007 		and	r7, r2, #16
 336 0028 4FF00708 		mov	r8, #7
 337 002c 08FA07F8 		lsl	r8, r8, r7
 338 0030 05EA080B 		and	fp, r5, r8
 339              	.LVL25:
 356:../system/src/stm32l4-hal-driver/stm32l4xx_hal_dac_ex.c **** 
 357:../system/src/stm32l4-hal-driver/stm32l4xx_hal_dac_ex.c ****     /* Disable the selected DAC channel */
 358:../system/src/stm32l4-hal-driver/stm32l4xx_hal_dac_ex.c ****     CLEAR_BIT((hdac->Instance->CR), (DAC_CR_EN1 << (Channel & 0x10UL)));
 340              		.loc 1 358 0 discriminator 2
 341 0034 0568     		ldr	r5, [r0]
 342 0036 BB40     		lsls	r3, r3, r7
 343 0038 25EA0303 		bic	r3, r5, r3
 344 003c 0360     		str	r3, [r0]
 359:../system/src/stm32l4-hal-driver/stm32l4xx_hal_dac_ex.c **** 
 360:../system/src/stm32l4-hal-driver/stm32l4xx_hal_dac_ex.c ****     /* Set mode in MCR  for calibration */
 361:../system/src/stm32l4-hal-driver/stm32l4xx_hal_dac_ex.c ****     MODIFY_REG(hdac->Instance->MCR, (DAC_MCR_MODE1 << (Channel & 0x10UL)), 0U);
 345              		.loc 1 361 0 discriminator 2
 346 003e 2068     		ldr	r0, [r4]
 347 0040 C36B     		ldr	r3, [r0, #60]
 348 0042 6FEA0808 		mvn	r8, r8
 349 0046 03EA0803 		and	r3, r3, r8
 350 004a C363     		str	r3, [r0, #60]
 362:../system/src/stm32l4-hal-driver/stm32l4xx_hal_dac_ex.c **** 
 363:../system/src/stm32l4-hal-driver/stm32l4xx_hal_dac_ex.c ****     /* Set DAC Channel1 DHR register to the middle value */
 364:../system/src/stm32l4-hal-driver/stm32l4xx_hal_dac_ex.c ****     tmp = (uint32_t)hdac->Instance;
 351              		.loc 1 364 0 discriminator 2
 352 004c 2368     		ldr	r3, [r4]
 353 004e 0193     		str	r3, [sp, #4]
 365:../system/src/stm32l4-hal-driver/stm32l4xx_hal_dac_ex.c **** 
 366:../system/src/stm32l4-hal-driver/stm32l4xx_hal_dac_ex.c **** #if defined (STM32L431xx) || defined (STM32L432xx) || defined (STM32L433xx) || defined (STM32L442xx
 367:../system/src/stm32l4-hal-driver/stm32l4xx_hal_dac_ex.c ****     defined (STM32L471xx) || defined (STM32L475xx) || defined (STM32L476xx) || defined (STM32L485xx
 368:../system/src/stm32l4-hal-driver/stm32l4xx_hal_dac_ex.c ****     defined (STM32L4P5xx) || defined (STM32L4Q5xx) || \
 369:../system/src/stm32l4-hal-driver/stm32l4xx_hal_dac_ex.c ****     defined (STM32L4R5xx) || defined (STM32L4R7xx) || defined (STM32L4R9xx) || defined (STM32L4S5xx
 370:../system/src/stm32l4-hal-driver/stm32l4xx_hal_dac_ex.c ****     if(Channel == DAC_CHANNEL_1)
 354              		.loc 1 370 0 discriminator 2
 355 0050 9AB9     		cbnz	r2, .L25
 371:../system/src/stm32l4-hal-driver/stm32l4xx_hal_dac_ex.c ****     {
 372:../system/src/stm32l4-hal-driver/stm32l4xx_hal_dac_ex.c ****       tmp += DAC_DHR12R1_ALIGNMENT(DAC_ALIGN_12B_R);
 356              		.loc 1 372 0
 357 0052 019B     		ldr	r3, [sp, #4]
 358 0054 0833     		adds	r3, r3, #8
 359 0056 0193     		str	r3, [sp, #4]
 360              	.L26:
 361 0058 8A46     		mov	r10, r1
 373:../system/src/stm32l4-hal-driver/stm32l4xx_hal_dac_ex.c ****     }
 374:../system/src/stm32l4-hal-driver/stm32l4xx_hal_dac_ex.c ****     else
 375:../system/src/stm32l4-hal-driver/stm32l4xx_hal_dac_ex.c ****     {
 376:../system/src/stm32l4-hal-driver/stm32l4xx_hal_dac_ex.c ****       tmp += DAC_DHR12R2_ALIGNMENT(DAC_ALIGN_12B_R);
 377:../system/src/stm32l4-hal-driver/stm32l4xx_hal_dac_ex.c ****     }
 378:../system/src/stm32l4-hal-driver/stm32l4xx_hal_dac_ex.c **** #endif  /* STM32L431xx STM32L432xx STM32L433xx STM32L442xx STM32L443xx                         */
 379:../system/src/stm32l4-hal-driver/stm32l4xx_hal_dac_ex.c ****         /* STM32L471xx STM32L475xx STM32L476xx STM32L485xx STM32L486xx STM32L496xx STM32L4A6xx */
 380:../system/src/stm32l4-hal-driver/stm32l4xx_hal_dac_ex.c ****         /* STM32L4P5xx STM32L4Q5xx                                                             */
 381:../system/src/stm32l4-hal-driver/stm32l4xx_hal_dac_ex.c ****         /* STM32L4R5xx STM32L4R7xx STM32L4R9xx STM32L4S5xx STM32L4S7xx STM32L4S9xx             */
 382:../system/src/stm32l4-hal-driver/stm32l4xx_hal_dac_ex.c **** #if defined (STM32L451xx) || defined (STM32L452xx) || defined (STM32L462xx)
 383:../system/src/stm32l4-hal-driver/stm32l4xx_hal_dac_ex.c ****     tmp += DAC_DHR12R1_ALIGNMENT(DAC_ALIGN_12B_R);
 384:../system/src/stm32l4-hal-driver/stm32l4xx_hal_dac_ex.c **** #endif /* STM32L451xx STM32L452xx STM32L462xx */
 385:../system/src/stm32l4-hal-driver/stm32l4xx_hal_dac_ex.c ****     *(__IO uint32_t *) tmp = 0x0800U;
 362              		.loc 1 385 0
 363 005a 019B     		ldr	r3, [sp, #4]
 364 005c 4FF40062 		mov	r2, #2048
 365              	.LVL26:
 366 0060 1A60     		str	r2, [r3]
 386:../system/src/stm32l4-hal-driver/stm32l4xx_hal_dac_ex.c **** 
 387:../system/src/stm32l4-hal-driver/stm32l4xx_hal_dac_ex.c ****     /* Enable the selected DAC channel calibration */
 388:../system/src/stm32l4-hal-driver/stm32l4xx_hal_dac_ex.c ****     /* i.e. set DAC_CR_CENx bit */
 389:../system/src/stm32l4-hal-driver/stm32l4xx_hal_dac_ex.c ****     SET_BIT((hdac->Instance->CR), (DAC_CR_CEN1 << (Channel & 0x10UL)));
 367              		.loc 1 389 0
 368 0062 2268     		ldr	r2, [r4]
 369 0064 1368     		ldr	r3, [r2]
 370 0066 4FF48049 		mov	r9, #16384
 371 006a 09FA07F9 		lsl	r9, r9, r7
 372 006e 43EA0903 		orr	r3, r3, r9
 373 0072 1360     		str	r3, [r2]
 374              	.LVL27:
 390:../system/src/stm32l4-hal-driver/stm32l4xx_hal_dac_ex.c **** 
 391:../system/src/stm32l4-hal-driver/stm32l4xx_hal_dac_ex.c ****     /* Init trimming counter */
 392:../system/src/stm32l4-hal-driver/stm32l4xx_hal_dac_ex.c ****     /* Medium value */
 393:../system/src/stm32l4-hal-driver/stm32l4xx_hal_dac_ex.c ****     trimmingvalue = 16U;
 394:../system/src/stm32l4-hal-driver/stm32l4xx_hal_dac_ex.c ****     delta = 8U;
 375              		.loc 1 394 0
 376 0074 0825     		movs	r5, #8
 393:../system/src/stm32l4-hal-driver/stm32l4xx_hal_dac_ex.c ****     delta = 8U;
 377              		.loc 1 393 0
 378 0076 1026     		movs	r6, #16
 395:../system/src/stm32l4-hal-driver/stm32l4xx_hal_dac_ex.c ****     while (delta != 0U)
 379              		.loc 1 395 0
 380 0078 05E0     		b	.L27
 381              	.LVL28:
 382              	.L25:
 376:../system/src/stm32l4-hal-driver/stm32l4xx_hal_dac_ex.c ****     }
 383              		.loc 1 376 0
 384 007a 019B     		ldr	r3, [sp, #4]
 385 007c 1433     		adds	r3, r3, #20
 386 007e 0193     		str	r3, [sp, #4]
 387 0080 EAE7     		b	.L26
 388              	.LVL29:
 389              	.L40:
 396:../system/src/stm32l4-hal-driver/stm32l4xx_hal_dac_ex.c ****     {
 397:../system/src/stm32l4-hal-driver/stm32l4xx_hal_dac_ex.c ****       /* Set candidate trimming */
 398:../system/src/stm32l4-hal-driver/stm32l4xx_hal_dac_ex.c ****       MODIFY_REG(hdac->Instance->CCR, (DAC_CCR_OTRIM1 << (Channel & 0x10UL)), (trimmingvalue << (Ch
 399:../system/src/stm32l4-hal-driver/stm32l4xx_hal_dac_ex.c **** 
 400:../system/src/stm32l4-hal-driver/stm32l4xx_hal_dac_ex.c ****       /* tOFFTRIMmax delay x ms as per datasheet (electrical characteristics */
 401:../system/src/stm32l4-hal-driver/stm32l4xx_hal_dac_ex.c ****       /* i.e. minimum time needed between two calibration steps */
 402:../system/src/stm32l4-hal-driver/stm32l4xx_hal_dac_ex.c ****       HAL_Delay(1);
 403:../system/src/stm32l4-hal-driver/stm32l4xx_hal_dac_ex.c **** 
 404:../system/src/stm32l4-hal-driver/stm32l4xx_hal_dac_ex.c ****       if ((hdac->Instance->SR & (DAC_SR_CAL_FLAG1 << (Channel & 0x10UL))) == (DAC_SR_CAL_FLAG1 << (
 405:../system/src/stm32l4-hal-driver/stm32l4xx_hal_dac_ex.c ****       {
 406:../system/src/stm32l4-hal-driver/stm32l4xx_hal_dac_ex.c ****         /* DAC_SR_CAL_FLAGx is HIGH try higher trimming */
 407:../system/src/stm32l4-hal-driver/stm32l4xx_hal_dac_ex.c ****         trimmingvalue -= delta;
 390              		.loc 1 407 0
 391 0082 761B     		subs	r6, r6, r5
 392              	.LVL30:
 393              	.L29:
 408:../system/src/stm32l4-hal-driver/stm32l4xx_hal_dac_ex.c ****       }
 409:../system/src/stm32l4-hal-driver/stm32l4xx_hal_dac_ex.c ****       else
 410:../system/src/stm32l4-hal-driver/stm32l4xx_hal_dac_ex.c ****       {
 411:../system/src/stm32l4-hal-driver/stm32l4xx_hal_dac_ex.c ****         /* DAC_SR_CAL_FLAGx is LOW try lower trimming */
 412:../system/src/stm32l4-hal-driver/stm32l4xx_hal_dac_ex.c ****         trimmingvalue += delta;
 413:../system/src/stm32l4-hal-driver/stm32l4xx_hal_dac_ex.c ****       }
 414:../system/src/stm32l4-hal-driver/stm32l4xx_hal_dac_ex.c ****       delta >>= 1U;
 394              		.loc 1 414 0
 395 0084 6D08     		lsrs	r5, r5, #1
 396              	.LVL31:
 397              	.L27:
 395:../system/src/stm32l4-hal-driver/stm32l4xx_hal_dac_ex.c ****     {
 398              		.loc 1 395 0
 399 0086 9DB1     		cbz	r5, .L39
 398:../system/src/stm32l4-hal-driver/stm32l4xx_hal_dac_ex.c **** 
 400              		.loc 1 398 0
 401 0088 2168     		ldr	r1, [r4]
 402 008a 8B6B     		ldr	r3, [r1, #56]
 403 008c 1F22     		movs	r2, #31
 404 008e BA40     		lsls	r2, r2, r7
 405 0090 23EA0203 		bic	r3, r3, r2
 406 0094 06FA07F2 		lsl	r2, r6, r7
 407 0098 1343     		orrs	r3, r3, r2
 408 009a 8B63     		str	r3, [r1, #56]
 402:../system/src/stm32l4-hal-driver/stm32l4xx_hal_dac_ex.c **** 
 409              		.loc 1 402 0
 410 009c 0120     		movs	r0, #1
 411 009e FFF7FEFF 		bl	HAL_Delay
 412              	.LVL32:
 404:../system/src/stm32l4-hal-driver/stm32l4xx_hal_dac_ex.c ****       {
 413              		.loc 1 404 0
 414 00a2 2368     		ldr	r3, [r4]
 415 00a4 5B6B     		ldr	r3, [r3, #52]
 416 00a6 39EA0303 		bics	r3, r9, r3
 417 00aa EAD0     		beq	.L40
 412:../system/src/stm32l4-hal-driver/stm32l4xx_hal_dac_ex.c ****       }
 418              		.loc 1 412 0
 419 00ac 2E44     		add	r6, r6, r5
 420              	.LVL33:
 421 00ae E9E7     		b	.L29
 422              	.L39:
 415:../system/src/stm32l4-hal-driver/stm32l4xx_hal_dac_ex.c ****     }
 416:../system/src/stm32l4-hal-driver/stm32l4xx_hal_dac_ex.c **** 
 417:../system/src/stm32l4-hal-driver/stm32l4xx_hal_dac_ex.c ****     /* Still need to check if right calibration is current value or one step below */
 418:../system/src/stm32l4-hal-driver/stm32l4xx_hal_dac_ex.c ****     /* Indeed the first value that causes the DAC_SR_CAL_FLAGx bit to change from 0 to 1  */
 419:../system/src/stm32l4-hal-driver/stm32l4xx_hal_dac_ex.c ****     /* Set candidate trimming */
 420:../system/src/stm32l4-hal-driver/stm32l4xx_hal_dac_ex.c ****     MODIFY_REG(hdac->Instance->CCR, (DAC_CCR_OTRIM1 << (Channel & 0x10UL)), (trimmingvalue << (Chan
 423              		.loc 1 420 0
 424 00b0 2268     		ldr	r2, [r4]
 425 00b2 936B     		ldr	r3, [r2, #56]
 426 00b4 1F25     		movs	r5, #31
 427              	.LVL34:
 428 00b6 BD40     		lsls	r5, r5, r7
 429 00b8 ED43     		mvns	r5, r5
 430 00ba 2B40     		ands	r3, r3, r5
 431 00bc 06FA07F1 		lsl	r1, r6, r7
 432 00c0 0B43     		orrs	r3, r3, r1
 433 00c2 9363     		str	r3, [r2, #56]
 421:../system/src/stm32l4-hal-driver/stm32l4xx_hal_dac_ex.c **** 
 422:../system/src/stm32l4-hal-driver/stm32l4xx_hal_dac_ex.c ****     /* tOFFTRIMmax delay x ms as per datasheet (electrical characteristics */
 423:../system/src/stm32l4-hal-driver/stm32l4xx_hal_dac_ex.c ****     /* i.e. minimum time needed between two calibration steps */
 424:../system/src/stm32l4-hal-driver/stm32l4xx_hal_dac_ex.c ****     HAL_Delay(1U);
 434              		.loc 1 424 0
 435 00c4 0120     		movs	r0, #1
 436 00c6 FFF7FEFF 		bl	HAL_Delay
 437              	.LVL35:
 425:../system/src/stm32l4-hal-driver/stm32l4xx_hal_dac_ex.c **** 
 426:../system/src/stm32l4-hal-driver/stm32l4xx_hal_dac_ex.c ****     if ((hdac->Instance->SR & (DAC_SR_CAL_FLAG1 << (Channel & 0x10UL))) == 0UL)
 438              		.loc 1 426 0
 439 00ca 2368     		ldr	r3, [r4]
 440 00cc 5A6B     		ldr	r2, [r3, #52]
 441 00ce 19EA020F 		tst	r9, r2
 442 00d2 06D1     		bne	.L31
 427:../system/src/stm32l4-hal-driver/stm32l4xx_hal_dac_ex.c ****     {
 428:../system/src/stm32l4-hal-driver/stm32l4xx_hal_dac_ex.c ****       /* OPAMP_CSR_OUTCAL is actually one value more */
 429:../system/src/stm32l4-hal-driver/stm32l4xx_hal_dac_ex.c ****       trimmingvalue++;
 443              		.loc 1 429 0
 444 00d4 0136     		adds	r6, r6, #1
 445              	.LVL36:
 430:../system/src/stm32l4-hal-driver/stm32l4xx_hal_dac_ex.c ****       /* Set right trimming */
 431:../system/src/stm32l4-hal-driver/stm32l4xx_hal_dac_ex.c ****       MODIFY_REG(hdac->Instance->CCR, (DAC_CCR_OTRIM1 << (Channel & 0x10UL)), (trimmingvalue << (Ch
 446              		.loc 1 431 0
 447 00d6 9A6B     		ldr	r2, [r3, #56]
 448 00d8 1540     		ands	r5, r5, r2
 449 00da 06FA07F7 		lsl	r7, r6, r7
 450 00de 2F43     		orrs	r7, r7, r5
 451 00e0 9F63     		str	r7, [r3, #56]
 452              	.L31:
 432:../system/src/stm32l4-hal-driver/stm32l4xx_hal_dac_ex.c ****     }
 433:../system/src/stm32l4-hal-driver/stm32l4xx_hal_dac_ex.c **** 
 434:../system/src/stm32l4-hal-driver/stm32l4xx_hal_dac_ex.c ****     /* Disable the selected DAC channel calibration */
 435:../system/src/stm32l4-hal-driver/stm32l4xx_hal_dac_ex.c ****     /* i.e. clear DAC_CR_CENx bit */
 436:../system/src/stm32l4-hal-driver/stm32l4xx_hal_dac_ex.c ****     CLEAR_BIT((hdac->Instance->CR), (DAC_CR_CEN1 << (Channel & 0x10UL)));
 453              		.loc 1 436 0
 454 00e2 2268     		ldr	r2, [r4]
 455 00e4 1368     		ldr	r3, [r2]
 456 00e6 23EA0903 		bic	r3, r3, r9
 457 00ea 1360     		str	r3, [r2]
 437:../system/src/stm32l4-hal-driver/stm32l4xx_hal_dac_ex.c **** 
 438:../system/src/stm32l4-hal-driver/stm32l4xx_hal_dac_ex.c ****     sConfig->DAC_TrimmingValue = trimmingvalue;
 458              		.loc 1 438 0
 459 00ec CAF81460 		str	r6, [r10, #20]
 439:../system/src/stm32l4-hal-driver/stm32l4xx_hal_dac_ex.c ****     sConfig->DAC_UserTrimming = DAC_TRIMMING_USER;
 460              		.loc 1 439 0
 461 00f0 0123     		movs	r3, #1
 462 00f2 CAF81030 		str	r3, [r10, #16]
 440:../system/src/stm32l4-hal-driver/stm32l4xx_hal_dac_ex.c **** 
 441:../system/src/stm32l4-hal-driver/stm32l4xx_hal_dac_ex.c ****     /* Restore configuration */
 442:../system/src/stm32l4-hal-driver/stm32l4xx_hal_dac_ex.c ****     MODIFY_REG(hdac->Instance->MCR, (DAC_MCR_MODE1 << (Channel & 0x10UL)), oldmodeconfiguration);
 463              		.loc 1 442 0
 464 00f6 2268     		ldr	r2, [r4]
 465 00f8 D36B     		ldr	r3, [r2, #60]
 466 00fa 08EA0308 		and	r8, r8, r3
 467 00fe 48EA0B03 		orr	r3, r8, fp
 468 0102 D363     		str	r3, [r2, #60]
 443:../system/src/stm32l4-hal-driver/stm32l4xx_hal_dac_ex.c **** 
 444:../system/src/stm32l4-hal-driver/stm32l4xx_hal_dac_ex.c ****     /* Process unlocked */
 445:../system/src/stm32l4-hal-driver/stm32l4xx_hal_dac_ex.c ****     __HAL_UNLOCK(hdac);
 469              		.loc 1 445 0
 470 0104 0020     		movs	r0, #0
 471 0106 6071     		strb	r0, [r4, #5]
 472              	.LVL37:
 473              	.L24:
 446:../system/src/stm32l4-hal-driver/stm32l4xx_hal_dac_ex.c ****   }
 447:../system/src/stm32l4-hal-driver/stm32l4xx_hal_dac_ex.c **** 
 448:../system/src/stm32l4-hal-driver/stm32l4xx_hal_dac_ex.c ****   return status;
 449:../system/src/stm32l4-hal-driver/stm32l4xx_hal_dac_ex.c **** }
 474              		.loc 1 449 0
 475 0108 03B0     		add	sp, sp, #12
 476              		.cfi_def_cfa_offset 36
 477              		@ sp needed
 478 010a BDE8F08F 		pop	{r4, r5, r6, r7, r8, r9, r10, fp, pc}
 479              	.LVL38:
 480              	.L32:
 481              		.cfi_def_cfa_offset 0
 482              		.cfi_restore 4
 483              		.cfi_restore 5
 484              		.cfi_restore 6
 485              		.cfi_restore 7
 486              		.cfi_restore 8
 487              		.cfi_restore 9
 488              		.cfi_restore 10
 489              		.cfi_restore 11
 490              		.cfi_restore 14
 343:../system/src/stm32l4-hal-driver/stm32l4xx_hal_dac_ex.c ****   }
 491              		.loc 1 343 0
 492 010e 0120     		movs	r0, #1
 493              	.LVL39:
 494              		.loc 1 449 0
 495 0110 7047     		bx	lr
 496              	.LVL40:
 497              	.L33:
 498              		.cfi_def_cfa_offset 48
 499              		.cfi_offset 4, -36
 500              		.cfi_offset 5, -32
 501              		.cfi_offset 6, -28
 502              		.cfi_offset 7, -24
 503              		.cfi_offset 8, -20
 504              		.cfi_offset 9, -16
 505              		.cfi_offset 10, -12
 506              		.cfi_offset 11, -8
 507              		.cfi_offset 14, -4
 347:../system/src/stm32l4-hal-driver/stm32l4xx_hal_dac_ex.c ****   }
 508              		.loc 1 347 0
 509 0112 0120     		movs	r0, #1
 510              	.LVL41:
 511 0114 F8E7     		b	.L24
 512              	.LVL42:
 513              	.L34:
 352:../system/src/stm32l4-hal-driver/stm32l4xx_hal_dac_ex.c **** 
 514              		.loc 1 352 0
 515 0116 0220     		movs	r0, #2
 516              	.LVL43:
 517 0118 F6E7     		b	.L24
 518              		.cfi_endproc
 519              	.LFE324:
 521              		.section	.text.HAL_DACEx_SetUserTrimming,"ax",%progbits
 522              		.align	1
 523              		.global	HAL_DACEx_SetUserTrimming
 524              		.syntax unified
 525              		.thumb
 526              		.thumb_func
 527              		.fpu fpv4-sp-d16
 529              	HAL_DACEx_SetUserTrimming:
 530              	.LFB325:
 450:../system/src/stm32l4-hal-driver/stm32l4xx_hal_dac_ex.c **** 
 451:../system/src/stm32l4-hal-driver/stm32l4xx_hal_dac_ex.c **** /**
 452:../system/src/stm32l4-hal-driver/stm32l4xx_hal_dac_ex.c ****   * @brief  Set the trimming mode and trimming value (user trimming mode applied).
 453:../system/src/stm32l4-hal-driver/stm32l4xx_hal_dac_ex.c ****   * @param  hdac pointer to a DAC_HandleTypeDef structure that contains
 454:../system/src/stm32l4-hal-driver/stm32l4xx_hal_dac_ex.c ****   *         the configuration information for the specified DAC.
 455:../system/src/stm32l4-hal-driver/stm32l4xx_hal_dac_ex.c ****   * @param  sConfig DAC configuration structure updated with new DAC trimming value.
 456:../system/src/stm32l4-hal-driver/stm32l4xx_hal_dac_ex.c ****   * @param  Channel The selected DAC channel.
 457:../system/src/stm32l4-hal-driver/stm32l4xx_hal_dac_ex.c ****   *          This parameter can be one of the following values:
 458:../system/src/stm32l4-hal-driver/stm32l4xx_hal_dac_ex.c ****   *            @arg DAC_CHANNEL_1: DAC Channel1 selected
 459:../system/src/stm32l4-hal-driver/stm32l4xx_hal_dac_ex.c ****   *            @arg DAC_CHANNEL_2: DAC Channel2 selected
 460:../system/src/stm32l4-hal-driver/stm32l4xx_hal_dac_ex.c ****   * @param  NewTrimmingValue DAC new trimming value
 461:../system/src/stm32l4-hal-driver/stm32l4xx_hal_dac_ex.c ****   * @retval HAL status
 462:../system/src/stm32l4-hal-driver/stm32l4xx_hal_dac_ex.c ****   */
 463:../system/src/stm32l4-hal-driver/stm32l4xx_hal_dac_ex.c **** 
 464:../system/src/stm32l4-hal-driver/stm32l4xx_hal_dac_ex.c **** HAL_StatusTypeDef HAL_DACEx_SetUserTrimming(DAC_HandleTypeDef *hdac, DAC_ChannelConfTypeDef *sConfi
 465:../system/src/stm32l4-hal-driver/stm32l4xx_hal_dac_ex.c ****                                             uint32_t NewTrimmingValue)
 466:../system/src/stm32l4-hal-driver/stm32l4xx_hal_dac_ex.c **** {
 531              		.loc 1 466 0
 532              		.cfi_startproc
 533              		@ args = 0, pretend = 0, frame = 0
 534              		@ frame_needed = 0, uses_anonymous_args = 0
 535              		@ link register save eliminated.
 536              	.LVL44:
 467:../system/src/stm32l4-hal-driver/stm32l4xx_hal_dac_ex.c ****   HAL_StatusTypeDef status = HAL_OK;
 468:../system/src/stm32l4-hal-driver/stm32l4xx_hal_dac_ex.c **** 
 469:../system/src/stm32l4-hal-driver/stm32l4xx_hal_dac_ex.c ****   /* Check the parameters */
 470:../system/src/stm32l4-hal-driver/stm32l4xx_hal_dac_ex.c ****   assert_param(IS_DAC_CHANNEL(Channel));
 471:../system/src/stm32l4-hal-driver/stm32l4xx_hal_dac_ex.c ****   assert_param(IS_DAC_NEWTRIMMINGVALUE(NewTrimmingValue));
 472:../system/src/stm32l4-hal-driver/stm32l4xx_hal_dac_ex.c **** 
 473:../system/src/stm32l4-hal-driver/stm32l4xx_hal_dac_ex.c ****  /* Check the DAC handle allocation */
 474:../system/src/stm32l4-hal-driver/stm32l4xx_hal_dac_ex.c ****   if (hdac == NULL)
 537              		.loc 1 474 0
 538 0000 C0B1     		cbz	r0, .L43
 466:../system/src/stm32l4-hal-driver/stm32l4xx_hal_dac_ex.c ****   HAL_StatusTypeDef status = HAL_OK;
 539              		.loc 1 466 0
 540 0002 F0B4     		push	{r4, r5, r6, r7}
 541              		.cfi_def_cfa_offset 16
 542              		.cfi_offset 4, -16
 543              		.cfi_offset 5, -12
 544              		.cfi_offset 6, -8
 545              		.cfi_offset 7, -4
 546 0004 0446     		mov	r4, r0
 475:../system/src/stm32l4-hal-driver/stm32l4xx_hal_dac_ex.c ****   {
 476:../system/src/stm32l4-hal-driver/stm32l4xx_hal_dac_ex.c ****     status = HAL_ERROR;
 477:../system/src/stm32l4-hal-driver/stm32l4xx_hal_dac_ex.c ****   }
 478:../system/src/stm32l4-hal-driver/stm32l4xx_hal_dac_ex.c ****   else
 479:../system/src/stm32l4-hal-driver/stm32l4xx_hal_dac_ex.c ****   {
 480:../system/src/stm32l4-hal-driver/stm32l4xx_hal_dac_ex.c ****     /* Process locked */
 481:../system/src/stm32l4-hal-driver/stm32l4xx_hal_dac_ex.c ****     __HAL_LOCK(hdac);
 547              		.loc 1 481 0
 548 0006 4079     		ldrb	r0, [r0, #5]	@ zero_extendqisi2
 549              	.LVL45:
 550 0008 0128     		cmp	r0, #1
 551 000a 15D0     		beq	.L44
 552              		.loc 1 481 0 is_stmt 0 discriminator 2
 553 000c 0126     		movs	r6, #1
 554 000e 6671     		strb	r6, [r4, #5]
 482:../system/src/stm32l4-hal-driver/stm32l4xx_hal_dac_ex.c **** 
 483:../system/src/stm32l4-hal-driver/stm32l4xx_hal_dac_ex.c ****     /* Set new trimming */
 484:../system/src/stm32l4-hal-driver/stm32l4xx_hal_dac_ex.c ****     MODIFY_REG(hdac->Instance->CCR, (DAC_CCR_OTRIM1 << (Channel & 0x10UL)), (NewTrimmingValue << (C
 555              		.loc 1 484 0 is_stmt 1 discriminator 2
 556 0010 2768     		ldr	r7, [r4]
 557 0012 B86B     		ldr	r0, [r7, #56]
 558 0014 02F01002 		and	r2, r2, #16
 559              	.LVL46:
 560 0018 1F25     		movs	r5, #31
 561 001a 9540     		lsls	r5, r5, r2
 562 001c 20EA0500 		bic	r0, r0, r5
 563 0020 03FA02F2 		lsl	r2, r3, r2
 564 0024 0243     		orrs	r2, r2, r0
 565 0026 BA63     		str	r2, [r7, #56]
 485:../system/src/stm32l4-hal-driver/stm32l4xx_hal_dac_ex.c **** 
 486:../system/src/stm32l4-hal-driver/stm32l4xx_hal_dac_ex.c ****     /* Update trimming mode */
 487:../system/src/stm32l4-hal-driver/stm32l4xx_hal_dac_ex.c ****     sConfig->DAC_UserTrimming = DAC_TRIMMING_USER;
 566              		.loc 1 487 0 discriminator 2
 567 0028 0E61     		str	r6, [r1, #16]
 488:../system/src/stm32l4-hal-driver/stm32l4xx_hal_dac_ex.c ****     sConfig->DAC_TrimmingValue = NewTrimmingValue;
 568              		.loc 1 488 0 discriminator 2
 569 002a 4B61     		str	r3, [r1, #20]
 489:../system/src/stm32l4-hal-driver/stm32l4xx_hal_dac_ex.c **** 
 490:../system/src/stm32l4-hal-driver/stm32l4xx_hal_dac_ex.c ****     /* Process unlocked */
 491:../system/src/stm32l4-hal-driver/stm32l4xx_hal_dac_ex.c ****     __HAL_UNLOCK(hdac);
 570              		.loc 1 491 0 discriminator 2
 571 002c 0020     		movs	r0, #0
 572 002e 6071     		strb	r0, [r4, #5]
 573              	.L42:
 492:../system/src/stm32l4-hal-driver/stm32l4xx_hal_dac_ex.c ****   }
 493:../system/src/stm32l4-hal-driver/stm32l4xx_hal_dac_ex.c ****   return status;
 494:../system/src/stm32l4-hal-driver/stm32l4xx_hal_dac_ex.c **** }
 574              		.loc 1 494 0
 575 0030 F0BC     		pop	{r4, r5, r6, r7}
 576              		.cfi_restore 7
 577              		.cfi_restore 6
 578              		.cfi_restore 5
 579              		.cfi_restore 4
 580              		.cfi_def_cfa_offset 0
 581              	.LVL47:
 582 0032 7047     		bx	lr
 583              	.LVL48:
 584              	.L43:
 476:../system/src/stm32l4-hal-driver/stm32l4xx_hal_dac_ex.c ****   }
 585              		.loc 1 476 0
 586 0034 0120     		movs	r0, #1
 587              	.LVL49:
 588              		.loc 1 494 0
 589 0036 7047     		bx	lr
 590              	.LVL50:
 591              	.L44:
 592              		.cfi_def_cfa_offset 16
 593              		.cfi_offset 4, -16
 594              		.cfi_offset 5, -12
 595              		.cfi_offset 6, -8
 596              		.cfi_offset 7, -4
 481:../system/src/stm32l4-hal-driver/stm32l4xx_hal_dac_ex.c **** 
 597              		.loc 1 481 0
 598 0038 0220     		movs	r0, #2
 599 003a F9E7     		b	.L42
 600              		.cfi_endproc
 601              	.LFE325:
 603              		.section	.text.HAL_DACEx_GetTrimOffset,"ax",%progbits
 604              		.align	1
 605              		.global	HAL_DACEx_GetTrimOffset
 606              		.syntax unified
 607              		.thumb
 608              		.thumb_func
 609              		.fpu fpv4-sp-d16
 611              	HAL_DACEx_GetTrimOffset:
 612              	.LFB326:
 495:../system/src/stm32l4-hal-driver/stm32l4xx_hal_dac_ex.c **** 
 496:../system/src/stm32l4-hal-driver/stm32l4xx_hal_dac_ex.c **** /**
 497:../system/src/stm32l4-hal-driver/stm32l4xx_hal_dac_ex.c ****   * @brief  Return the DAC trimming value.
 498:../system/src/stm32l4-hal-driver/stm32l4xx_hal_dac_ex.c ****   * @param  hdac DAC handle
 499:../system/src/stm32l4-hal-driver/stm32l4xx_hal_dac_ex.c ****   * @param  Channel The selected DAC channel.
 500:../system/src/stm32l4-hal-driver/stm32l4xx_hal_dac_ex.c ****   *          This parameter can be one of the following values:
 501:../system/src/stm32l4-hal-driver/stm32l4xx_hal_dac_ex.c ****   *            @arg DAC_CHANNEL_1: DAC Channel1 selected
 502:../system/src/stm32l4-hal-driver/stm32l4xx_hal_dac_ex.c ****   *            @arg DAC_CHANNEL_2: DAC Channel2 selected
 503:../system/src/stm32l4-hal-driver/stm32l4xx_hal_dac_ex.c ****   * @retval Trimming value : range: 0->31
 504:../system/src/stm32l4-hal-driver/stm32l4xx_hal_dac_ex.c ****   *
 505:../system/src/stm32l4-hal-driver/stm32l4xx_hal_dac_ex.c ****  */
 506:../system/src/stm32l4-hal-driver/stm32l4xx_hal_dac_ex.c **** 
 507:../system/src/stm32l4-hal-driver/stm32l4xx_hal_dac_ex.c **** uint32_t HAL_DACEx_GetTrimOffset(DAC_HandleTypeDef *hdac, uint32_t Channel)
 508:../system/src/stm32l4-hal-driver/stm32l4xx_hal_dac_ex.c **** {
 613              		.loc 1 508 0
 614              		.cfi_startproc
 615              		@ args = 0, pretend = 0, frame = 0
 616              		@ frame_needed = 0, uses_anonymous_args = 0
 617              		@ link register save eliminated.
 618              	.LVL51:
 509:../system/src/stm32l4-hal-driver/stm32l4xx_hal_dac_ex.c ****     /* Check the parameter */
 510:../system/src/stm32l4-hal-driver/stm32l4xx_hal_dac_ex.c ****     assert_param(IS_DAC_CHANNEL(Channel));
 511:../system/src/stm32l4-hal-driver/stm32l4xx_hal_dac_ex.c **** 
 512:../system/src/stm32l4-hal-driver/stm32l4xx_hal_dac_ex.c ****     /* Retrieve trimming  */
 513:../system/src/stm32l4-hal-driver/stm32l4xx_hal_dac_ex.c ****   return ((hdac->Instance->CCR & (DAC_CCR_OTRIM1 << (Channel & 0x10UL))) >> (Channel & 0x10UL));
 619              		.loc 1 513 0
 620 0000 0368     		ldr	r3, [r0]
 621 0002 9B6B     		ldr	r3, [r3, #56]
 622 0004 01F01001 		and	r1, r1, #16
 623              	.LVL52:
 624 0008 1F22     		movs	r2, #31
 625 000a 8A40     		lsls	r2, r2, r1
 626 000c 1340     		ands	r3, r3, r2
 514:../system/src/stm32l4-hal-driver/stm32l4xx_hal_dac_ex.c **** }
 627              		.loc 1 514 0
 628 000e 23FA01F0 		lsr	r0, r3, r1
 629              	.LVL53:
 630 0012 7047     		bx	lr
 631              		.cfi_endproc
 632              	.LFE326:
 634              		.section	.text.HAL_DACEx_DualGetValue,"ax",%progbits
 635              		.align	1
 636              		.global	HAL_DACEx_DualGetValue
 637              		.syntax unified
 638              		.thumb
 639              		.thumb_func
 640              		.fpu fpv4-sp-d16
 642              	HAL_DACEx_DualGetValue:
 643              	.LFB327:
 515:../system/src/stm32l4-hal-driver/stm32l4xx_hal_dac_ex.c **** 
 516:../system/src/stm32l4-hal-driver/stm32l4xx_hal_dac_ex.c **** /**
 517:../system/src/stm32l4-hal-driver/stm32l4xx_hal_dac_ex.c ****   * @}
 518:../system/src/stm32l4-hal-driver/stm32l4xx_hal_dac_ex.c ****   */
 519:../system/src/stm32l4-hal-driver/stm32l4xx_hal_dac_ex.c **** 
 520:../system/src/stm32l4-hal-driver/stm32l4xx_hal_dac_ex.c **** #if defined (STM32L431xx) || defined (STM32L432xx) || defined (STM32L433xx) || defined (STM32L442xx
 521:../system/src/stm32l4-hal-driver/stm32l4xx_hal_dac_ex.c ****     defined (STM32L471xx) || defined (STM32L475xx) || defined (STM32L476xx) || defined (STM32L485xx
 522:../system/src/stm32l4-hal-driver/stm32l4xx_hal_dac_ex.c ****     defined (STM32L4P5xx) || defined (STM32L4Q5xx) || \
 523:../system/src/stm32l4-hal-driver/stm32l4xx_hal_dac_ex.c ****     defined (STM32L4R5xx) || defined (STM32L4R7xx) || defined (STM32L4R9xx) || defined (STM32L4S5xx
 524:../system/src/stm32l4-hal-driver/stm32l4xx_hal_dac_ex.c **** 
 525:../system/src/stm32l4-hal-driver/stm32l4xx_hal_dac_ex.c **** /** @defgroup DACEx_Exported_Functions_Group3 Peripheral Control functions
 526:../system/src/stm32l4-hal-driver/stm32l4xx_hal_dac_ex.c ****  *  @brief    Extended Peripheral Control functions
 527:../system/src/stm32l4-hal-driver/stm32l4xx_hal_dac_ex.c ****  *
 528:../system/src/stm32l4-hal-driver/stm32l4xx_hal_dac_ex.c **** @verbatim
 529:../system/src/stm32l4-hal-driver/stm32l4xx_hal_dac_ex.c ****   ==============================================================================
 530:../system/src/stm32l4-hal-driver/stm32l4xx_hal_dac_ex.c ****              ##### Peripheral Control functions #####
 531:../system/src/stm32l4-hal-driver/stm32l4xx_hal_dac_ex.c ****   ==============================================================================
 532:../system/src/stm32l4-hal-driver/stm32l4xx_hal_dac_ex.c ****     [..]  This section provides functions allowing to:
 533:../system/src/stm32l4-hal-driver/stm32l4xx_hal_dac_ex.c ****       (+) Set the specified data holding register value for DAC channel.
 534:../system/src/stm32l4-hal-driver/stm32l4xx_hal_dac_ex.c **** 
 535:../system/src/stm32l4-hal-driver/stm32l4xx_hal_dac_ex.c **** @endverbatim
 536:../system/src/stm32l4-hal-driver/stm32l4xx_hal_dac_ex.c ****   * @{
 537:../system/src/stm32l4-hal-driver/stm32l4xx_hal_dac_ex.c ****   */
 538:../system/src/stm32l4-hal-driver/stm32l4xx_hal_dac_ex.c **** 
 539:../system/src/stm32l4-hal-driver/stm32l4xx_hal_dac_ex.c **** /**
 540:../system/src/stm32l4-hal-driver/stm32l4xx_hal_dac_ex.c ****   * @brief  Return the last data output value of the selected DAC channel.
 541:../system/src/stm32l4-hal-driver/stm32l4xx_hal_dac_ex.c ****   * @param  hdac pointer to a DAC_HandleTypeDef structure that contains
 542:../system/src/stm32l4-hal-driver/stm32l4xx_hal_dac_ex.c ****   *         the configuration information for the specified DAC.
 543:../system/src/stm32l4-hal-driver/stm32l4xx_hal_dac_ex.c ****   * @retval The selected DAC channel data output value.
 544:../system/src/stm32l4-hal-driver/stm32l4xx_hal_dac_ex.c ****   */
 545:../system/src/stm32l4-hal-driver/stm32l4xx_hal_dac_ex.c **** uint32_t HAL_DACEx_DualGetValue(DAC_HandleTypeDef *hdac)
 546:../system/src/stm32l4-hal-driver/stm32l4xx_hal_dac_ex.c **** {
 644              		.loc 1 546 0
 645              		.cfi_startproc
 646              		@ args = 0, pretend = 0, frame = 0
 647              		@ frame_needed = 0, uses_anonymous_args = 0
 648              		@ link register save eliminated.
 649              	.LVL54:
 547:../system/src/stm32l4-hal-driver/stm32l4xx_hal_dac_ex.c ****   uint32_t tmp = 0U;
 548:../system/src/stm32l4-hal-driver/stm32l4xx_hal_dac_ex.c **** 
 549:../system/src/stm32l4-hal-driver/stm32l4xx_hal_dac_ex.c ****   tmp |= hdac->Instance->DOR1;
 650              		.loc 1 549 0
 651 0000 0368     		ldr	r3, [r0]
 652 0002 DA6A     		ldr	r2, [r3, #44]
 653              	.LVL55:
 550:../system/src/stm32l4-hal-driver/stm32l4xx_hal_dac_ex.c **** 
 551:../system/src/stm32l4-hal-driver/stm32l4xx_hal_dac_ex.c ****   tmp |= hdac->Instance->DOR2 << 16U;
 654              		.loc 1 551 0
 655 0004 186B     		ldr	r0, [r3, #48]
 656              	.LVL56:
 552:../system/src/stm32l4-hal-driver/stm32l4xx_hal_dac_ex.c **** 
 553:../system/src/stm32l4-hal-driver/stm32l4xx_hal_dac_ex.c ****   /* Returns the DAC channel data output register value */
 554:../system/src/stm32l4-hal-driver/stm32l4xx_hal_dac_ex.c ****   return tmp;
 555:../system/src/stm32l4-hal-driver/stm32l4xx_hal_dac_ex.c **** }
 657              		.loc 1 555 0
 658 0006 42EA0040 		orr	r0, r2, r0, lsl #16
 659              	.LVL57:
 660 000a 7047     		bx	lr
 661              		.cfi_endproc
 662              	.LFE327:
 664              		.section	.text.DAC_DMAConvCpltCh2,"ax",%progbits
 665              		.align	1
 666              		.global	DAC_DMAConvCpltCh2
 667              		.syntax unified
 668              		.thumb
 669              		.thumb_func
 670              		.fpu fpv4-sp-d16
 672              	DAC_DMAConvCpltCh2:
 673              	.LFB328:
 556:../system/src/stm32l4-hal-driver/stm32l4xx_hal_dac_ex.c **** 
 557:../system/src/stm32l4-hal-driver/stm32l4xx_hal_dac_ex.c **** /**
 558:../system/src/stm32l4-hal-driver/stm32l4xx_hal_dac_ex.c ****   * @}
 559:../system/src/stm32l4-hal-driver/stm32l4xx_hal_dac_ex.c ****   */
 560:../system/src/stm32l4-hal-driver/stm32l4xx_hal_dac_ex.c **** 
 561:../system/src/stm32l4-hal-driver/stm32l4xx_hal_dac_ex.c **** #endif  /* STM32L431xx STM32L432xx STM32L433xx STM32L442xx STM32L443xx                         */
 562:../system/src/stm32l4-hal-driver/stm32l4xx_hal_dac_ex.c ****         /* STM32L471xx STM32L475xx STM32L476xx STM32L485xx STM32L486xx STM32L496xx STM32L4A6xx */
 563:../system/src/stm32l4-hal-driver/stm32l4xx_hal_dac_ex.c ****         /* STM32L4P5xx STM32L4Q5xx                                                             */
 564:../system/src/stm32l4-hal-driver/stm32l4xx_hal_dac_ex.c ****         /* STM32L4R5xx STM32L4R7xx STM32L4R9xx STM32L4S5xx STM32L4S7xx STM32L4S9xx             */
 565:../system/src/stm32l4-hal-driver/stm32l4xx_hal_dac_ex.c **** 
 566:../system/src/stm32l4-hal-driver/stm32l4xx_hal_dac_ex.c **** /**
 567:../system/src/stm32l4-hal-driver/stm32l4xx_hal_dac_ex.c ****   * @}
 568:../system/src/stm32l4-hal-driver/stm32l4xx_hal_dac_ex.c ****   */
 569:../system/src/stm32l4-hal-driver/stm32l4xx_hal_dac_ex.c **** 
 570:../system/src/stm32l4-hal-driver/stm32l4xx_hal_dac_ex.c **** #if defined (STM32L431xx) || defined (STM32L432xx) || defined (STM32L433xx) || defined (STM32L442xx
 571:../system/src/stm32l4-hal-driver/stm32l4xx_hal_dac_ex.c ****     defined (STM32L471xx) || defined (STM32L475xx) || defined (STM32L476xx) || defined (STM32L485xx
 572:../system/src/stm32l4-hal-driver/stm32l4xx_hal_dac_ex.c ****     defined (STM32L4P5xx) || defined (STM32L4Q5xx) || \
 573:../system/src/stm32l4-hal-driver/stm32l4xx_hal_dac_ex.c ****     defined (STM32L4R5xx) || defined (STM32L4R7xx) || defined (STM32L4R9xx) || defined (STM32L4S5xx
 574:../system/src/stm32l4-hal-driver/stm32l4xx_hal_dac_ex.c **** 
 575:../system/src/stm32l4-hal-driver/stm32l4xx_hal_dac_ex.c **** /* Private functions ---------------------------------------------------------*/
 576:../system/src/stm32l4-hal-driver/stm32l4xx_hal_dac_ex.c **** /** @defgroup DACEx_Private_Functions DACEx private functions
 577:../system/src/stm32l4-hal-driver/stm32l4xx_hal_dac_ex.c ****  *  @brief    Extended private functions
 578:../system/src/stm32l4-hal-driver/stm32l4xx_hal_dac_ex.c ****    * @{
 579:../system/src/stm32l4-hal-driver/stm32l4xx_hal_dac_ex.c ****   */
 580:../system/src/stm32l4-hal-driver/stm32l4xx_hal_dac_ex.c **** 
 581:../system/src/stm32l4-hal-driver/stm32l4xx_hal_dac_ex.c **** /**
 582:../system/src/stm32l4-hal-driver/stm32l4xx_hal_dac_ex.c ****   * @brief  DMA conversion complete callback.
 583:../system/src/stm32l4-hal-driver/stm32l4xx_hal_dac_ex.c ****   * @param  hdma pointer to a DMA_HandleTypeDef structure that contains
 584:../system/src/stm32l4-hal-driver/stm32l4xx_hal_dac_ex.c ****   *                the configuration information for the specified DMA module.
 585:../system/src/stm32l4-hal-driver/stm32l4xx_hal_dac_ex.c ****   * @retval None
 586:../system/src/stm32l4-hal-driver/stm32l4xx_hal_dac_ex.c ****   */
 587:../system/src/stm32l4-hal-driver/stm32l4xx_hal_dac_ex.c **** void DAC_DMAConvCpltCh2(DMA_HandleTypeDef *hdma)
 588:../system/src/stm32l4-hal-driver/stm32l4xx_hal_dac_ex.c **** {
 674              		.loc 1 588 0
 675              		.cfi_startproc
 676              		@ args = 0, pretend = 0, frame = 0
 677              		@ frame_needed = 0, uses_anonymous_args = 0
 678              	.LVL58:
 679 0000 10B5     		push	{r4, lr}
 680              		.cfi_def_cfa_offset 8
 681              		.cfi_offset 4, -8
 682              		.cfi_offset 14, -4
 589:../system/src/stm32l4-hal-driver/stm32l4xx_hal_dac_ex.c ****   DAC_HandleTypeDef *hdac = (DAC_HandleTypeDef *)((DMA_HandleTypeDef *)hdma)->Parent;
 683              		.loc 1 589 0
 684 0002 846A     		ldr	r4, [r0, #40]
 685              	.LVL59:
 590:../system/src/stm32l4-hal-driver/stm32l4xx_hal_dac_ex.c **** 
 591:../system/src/stm32l4-hal-driver/stm32l4xx_hal_dac_ex.c **** #if (USE_HAL_DAC_REGISTER_CALLBACKS == 1)
 592:../system/src/stm32l4-hal-driver/stm32l4xx_hal_dac_ex.c ****   hdac->ConvCpltCallbackCh2(hdac);
 593:../system/src/stm32l4-hal-driver/stm32l4xx_hal_dac_ex.c **** #else
 594:../system/src/stm32l4-hal-driver/stm32l4xx_hal_dac_ex.c ****   HAL_DACEx_ConvCpltCallbackCh2(hdac);
 686              		.loc 1 594 0
 687 0004 2046     		mov	r0, r4
 688              	.LVL60:
 689 0006 FFF7FEFF 		bl	HAL_DACEx_ConvCpltCallbackCh2
 690              	.LVL61:
 595:../system/src/stm32l4-hal-driver/stm32l4xx_hal_dac_ex.c **** #endif /* USE_HAL_DAC_REGISTER_CALLBACKS */
 596:../system/src/stm32l4-hal-driver/stm32l4xx_hal_dac_ex.c **** 
 597:../system/src/stm32l4-hal-driver/stm32l4xx_hal_dac_ex.c ****   hdac->State = HAL_DAC_STATE_READY;
 691              		.loc 1 597 0
 692 000a 0123     		movs	r3, #1
 693 000c 2371     		strb	r3, [r4, #4]
 598:../system/src/stm32l4-hal-driver/stm32l4xx_hal_dac_ex.c **** }
 694              		.loc 1 598 0
 695 000e 10BD     		pop	{r4, pc}
 696              		.cfi_endproc
 697              	.LFE328:
 699              		.section	.text.DAC_DMAHalfConvCpltCh2,"ax",%progbits
 700              		.align	1
 701              		.global	DAC_DMAHalfConvCpltCh2
 702              		.syntax unified
 703              		.thumb
 704              		.thumb_func
 705              		.fpu fpv4-sp-d16
 707              	DAC_DMAHalfConvCpltCh2:
 708              	.LFB329:
 599:../system/src/stm32l4-hal-driver/stm32l4xx_hal_dac_ex.c **** 
 600:../system/src/stm32l4-hal-driver/stm32l4xx_hal_dac_ex.c **** /**
 601:../system/src/stm32l4-hal-driver/stm32l4xx_hal_dac_ex.c ****   * @brief  DMA half transfer complete callback.
 602:../system/src/stm32l4-hal-driver/stm32l4xx_hal_dac_ex.c ****   * @param  hdma pointer to a DMA_HandleTypeDef structure that contains
 603:../system/src/stm32l4-hal-driver/stm32l4xx_hal_dac_ex.c ****   *                the configuration information for the specified DMA module.
 604:../system/src/stm32l4-hal-driver/stm32l4xx_hal_dac_ex.c ****   * @retval None
 605:../system/src/stm32l4-hal-driver/stm32l4xx_hal_dac_ex.c ****   */
 606:../system/src/stm32l4-hal-driver/stm32l4xx_hal_dac_ex.c **** void DAC_DMAHalfConvCpltCh2(DMA_HandleTypeDef *hdma)
 607:../system/src/stm32l4-hal-driver/stm32l4xx_hal_dac_ex.c **** {
 709              		.loc 1 607 0
 710              		.cfi_startproc
 711              		@ args = 0, pretend = 0, frame = 0
 712              		@ frame_needed = 0, uses_anonymous_args = 0
 713              	.LVL62:
 714 0000 08B5     		push	{r3, lr}
 715              		.cfi_def_cfa_offset 8
 716              		.cfi_offset 3, -8
 717              		.cfi_offset 14, -4
 718              	.LVL63:
 608:../system/src/stm32l4-hal-driver/stm32l4xx_hal_dac_ex.c ****   DAC_HandleTypeDef *hdac = (DAC_HandleTypeDef *)((DMA_HandleTypeDef *)hdma)->Parent;
 609:../system/src/stm32l4-hal-driver/stm32l4xx_hal_dac_ex.c ****   /* Conversion complete callback */
 610:../system/src/stm32l4-hal-driver/stm32l4xx_hal_dac_ex.c **** #if (USE_HAL_DAC_REGISTER_CALLBACKS == 1)
 611:../system/src/stm32l4-hal-driver/stm32l4xx_hal_dac_ex.c ****   hdac->ConvHalfCpltCallbackCh2(hdac);
 612:../system/src/stm32l4-hal-driver/stm32l4xx_hal_dac_ex.c **** #else
 613:../system/src/stm32l4-hal-driver/stm32l4xx_hal_dac_ex.c ****   HAL_DACEx_ConvHalfCpltCallbackCh2(hdac);
 719              		.loc 1 613 0
 720 0002 806A     		ldr	r0, [r0, #40]
 721              	.LVL64:
 722 0004 FFF7FEFF 		bl	HAL_DACEx_ConvHalfCpltCallbackCh2
 723              	.LVL65:
 614:../system/src/stm32l4-hal-driver/stm32l4xx_hal_dac_ex.c **** #endif /* USE_HAL_DAC_REGISTER_CALLBACKS */
 615:../system/src/stm32l4-hal-driver/stm32l4xx_hal_dac_ex.c **** }
 724              		.loc 1 615 0
 725 0008 08BD     		pop	{r3, pc}
 726              		.cfi_endproc
 727              	.LFE329:
 729              		.section	.text.DAC_DMAErrorCh2,"ax",%progbits
 730              		.align	1
 731              		.global	DAC_DMAErrorCh2
 732              		.syntax unified
 733              		.thumb
 734              		.thumb_func
 735              		.fpu fpv4-sp-d16
 737              	DAC_DMAErrorCh2:
 738              	.LFB330:
 616:../system/src/stm32l4-hal-driver/stm32l4xx_hal_dac_ex.c **** 
 617:../system/src/stm32l4-hal-driver/stm32l4xx_hal_dac_ex.c **** /**
 618:../system/src/stm32l4-hal-driver/stm32l4xx_hal_dac_ex.c ****   * @brief  DMA error callback.
 619:../system/src/stm32l4-hal-driver/stm32l4xx_hal_dac_ex.c ****   * @param  hdma pointer to a DMA_HandleTypeDef structure that contains
 620:../system/src/stm32l4-hal-driver/stm32l4xx_hal_dac_ex.c ****   *                the configuration information for the specified DMA module.
 621:../system/src/stm32l4-hal-driver/stm32l4xx_hal_dac_ex.c ****   * @retval None
 622:../system/src/stm32l4-hal-driver/stm32l4xx_hal_dac_ex.c ****   */
 623:../system/src/stm32l4-hal-driver/stm32l4xx_hal_dac_ex.c **** void DAC_DMAErrorCh2(DMA_HandleTypeDef *hdma)
 624:../system/src/stm32l4-hal-driver/stm32l4xx_hal_dac_ex.c **** {
 739              		.loc 1 624 0
 740              		.cfi_startproc
 741              		@ args = 0, pretend = 0, frame = 0
 742              		@ frame_needed = 0, uses_anonymous_args = 0
 743              	.LVL66:
 744 0000 10B5     		push	{r4, lr}
 745              		.cfi_def_cfa_offset 8
 746              		.cfi_offset 4, -8
 747              		.cfi_offset 14, -4
 625:../system/src/stm32l4-hal-driver/stm32l4xx_hal_dac_ex.c ****   DAC_HandleTypeDef *hdac = (DAC_HandleTypeDef *)((DMA_HandleTypeDef *)hdma)->Parent;
 748              		.loc 1 625 0
 749 0002 846A     		ldr	r4, [r0, #40]
 750              	.LVL67:
 626:../system/src/stm32l4-hal-driver/stm32l4xx_hal_dac_ex.c **** 
 627:../system/src/stm32l4-hal-driver/stm32l4xx_hal_dac_ex.c ****   /* Set DAC error code to DMA error */
 628:../system/src/stm32l4-hal-driver/stm32l4xx_hal_dac_ex.c ****   hdac->ErrorCode |= HAL_DAC_ERROR_DMA;
 751              		.loc 1 628 0
 752 0004 2369     		ldr	r3, [r4, #16]
 753 0006 43F00403 		orr	r3, r3, #4
 754 000a 2361     		str	r3, [r4, #16]
 629:../system/src/stm32l4-hal-driver/stm32l4xx_hal_dac_ex.c **** 
 630:../system/src/stm32l4-hal-driver/stm32l4xx_hal_dac_ex.c **** #if (USE_HAL_DAC_REGISTER_CALLBACKS == 1)
 631:../system/src/stm32l4-hal-driver/stm32l4xx_hal_dac_ex.c ****   hdac->ErrorCallbackCh2(hdac);
 632:../system/src/stm32l4-hal-driver/stm32l4xx_hal_dac_ex.c **** #else
 633:../system/src/stm32l4-hal-driver/stm32l4xx_hal_dac_ex.c ****   HAL_DACEx_ErrorCallbackCh2(hdac);
 755              		.loc 1 633 0
 756 000c 2046     		mov	r0, r4
 757              	.LVL68:
 758 000e FFF7FEFF 		bl	HAL_DACEx_ErrorCallbackCh2
 759              	.LVL69:
 634:../system/src/stm32l4-hal-driver/stm32l4xx_hal_dac_ex.c **** #endif /* USE_HAL_DAC_REGISTER_CALLBACKS */
 635:../system/src/stm32l4-hal-driver/stm32l4xx_hal_dac_ex.c **** 
 636:../system/src/stm32l4-hal-driver/stm32l4xx_hal_dac_ex.c ****   hdac->State = HAL_DAC_STATE_READY;
 760              		.loc 1 636 0
 761 0012 0123     		movs	r3, #1
 762 0014 2371     		strb	r3, [r4, #4]
 637:../system/src/stm32l4-hal-driver/stm32l4xx_hal_dac_ex.c **** }
 763              		.loc 1 637 0
 764 0016 10BD     		pop	{r4, pc}
 765              		.cfi_endproc
 766              	.LFE330:
 768              		.text
 769              	.Letext0:
 770              		.file 2 "/usr/local/bin/gcc-arm-none-eabi-7-2018-q2-update/lib/gcc/arm-none-eabi/7.3.1/include/std
 771              		.file 3 "../system/include/cmsis/stm32l4xx/core_cm4.h"
 772              		.file 4 "../system/include/cmsis/stm32l4xx/device/system_stm32l4xx.h"
 773              		.file 5 "../system/include/cmsis/stm32l4xx/device/stm32l471xx.h"
 774              		.file 6 "../system/include/stm32l4-hal-driver/stm32l4xx_hal_def.h"
 775              		.file 7 "../system/include/stm32l4-hal-driver/stm32l4xx_hal_dma.h"
 776              		.file 8 "../system/include/stm32l4-hal-driver/stm32l4xx_hal_dac.h"
 777              		.file 9 "../system/include/stm32l4-hal-driver/stm32l4xx_hal_flash.h"
 778              		.file 10 "../system/include/stm32l4-hal-driver/stm32l4xx_hal.h"