   1              		.cpu cortex-m4
   2              		.eabi_attribute 27, 1
   3              		.eabi_attribute 28, 1
   4              		.eabi_attribute 20, 1
   5              		.eabi_attribute 21, 1
   6              		.eabi_attribute 23, 3
   7              		.eabi_attribute 24, 1
   8              		.eabi_attribute 25, 1
   9              		.eabi_attribute 26, 1
  10              		.eabi_attribute 30, 1
  11              		.eabi_attribute 34, 1
  12              		.eabi_attribute 18, 4
  13              		.file	"stm32l4xx_ll_rtc.c"
  14              		.text
  15              	.Ltext0:
  16              		.cfi_sections	.debug_frame
  17              		.section	.text.LL_RTC_StructInit,"ax",%progbits
  18              		.align	1
  19              		.global	LL_RTC_StructInit
  20              		.syntax unified
  21              		.thumb
  22              		.thumb_func
  23              		.fpu fpv4-sp-d16
  25              	LL_RTC_StructInit:
  26              	.LFB359:
  27              		.file 1 "../system/src/stm32l4-hal-driver/stm32l4xx_ll_rtc.c"
   1:../system/src/stm32l4-hal-driver/stm32l4xx_ll_rtc.c **** /**
   2:../system/src/stm32l4-hal-driver/stm32l4xx_ll_rtc.c ****   ******************************************************************************
   3:../system/src/stm32l4-hal-driver/stm32l4xx_ll_rtc.c ****   * @file    stm32l4xx_ll_rtc.c
   4:../system/src/stm32l4-hal-driver/stm32l4xx_ll_rtc.c ****   * @author  MCD Application Team
   5:../system/src/stm32l4-hal-driver/stm32l4xx_ll_rtc.c ****   * @brief   RTC LL module driver.
   6:../system/src/stm32l4-hal-driver/stm32l4xx_ll_rtc.c ****   ******************************************************************************
   7:../system/src/stm32l4-hal-driver/stm32l4xx_ll_rtc.c ****   * @attention
   8:../system/src/stm32l4-hal-driver/stm32l4xx_ll_rtc.c ****   *
   9:../system/src/stm32l4-hal-driver/stm32l4xx_ll_rtc.c ****   * <h2><center>&copy; Copyright (c) 2017 STMicroelectronics.
  10:../system/src/stm32l4-hal-driver/stm32l4xx_ll_rtc.c ****   * All rights reserved.</center></h2>
  11:../system/src/stm32l4-hal-driver/stm32l4xx_ll_rtc.c ****   *
  12:../system/src/stm32l4-hal-driver/stm32l4xx_ll_rtc.c ****   * This software component is licensed by ST under BSD 3-Clause license,
  13:../system/src/stm32l4-hal-driver/stm32l4xx_ll_rtc.c ****   * the "License"; You may not use this file except in compliance with the
  14:../system/src/stm32l4-hal-driver/stm32l4xx_ll_rtc.c ****   * License. You may obtain a copy of the License at:
  15:../system/src/stm32l4-hal-driver/stm32l4xx_ll_rtc.c ****   *                        opensource.org/licenses/BSD-3-Clause
  16:../system/src/stm32l4-hal-driver/stm32l4xx_ll_rtc.c ****   *
  17:../system/src/stm32l4-hal-driver/stm32l4xx_ll_rtc.c ****   ******************************************************************************
  18:../system/src/stm32l4-hal-driver/stm32l4xx_ll_rtc.c ****   */
  19:../system/src/stm32l4-hal-driver/stm32l4xx_ll_rtc.c **** #if defined(USE_FULL_LL_DRIVER)
  20:../system/src/stm32l4-hal-driver/stm32l4xx_ll_rtc.c **** 
  21:../system/src/stm32l4-hal-driver/stm32l4xx_ll_rtc.c **** /* Includes ------------------------------------------------------------------*/
  22:../system/src/stm32l4-hal-driver/stm32l4xx_ll_rtc.c **** #include "stm32l4xx_ll_rtc.h"
  23:../system/src/stm32l4-hal-driver/stm32l4xx_ll_rtc.c **** #include "stm32l4xx_ll_cortex.h"
  24:../system/src/stm32l4-hal-driver/stm32l4xx_ll_rtc.c **** #ifdef  USE_FULL_ASSERT
  25:../system/src/stm32l4-hal-driver/stm32l4xx_ll_rtc.c **** #include "stm32_assert.h"
  26:../system/src/stm32l4-hal-driver/stm32l4xx_ll_rtc.c **** #else
  27:../system/src/stm32l4-hal-driver/stm32l4xx_ll_rtc.c **** #define assert_param(expr) ((void)0U)
  28:../system/src/stm32l4-hal-driver/stm32l4xx_ll_rtc.c **** #endif
  29:../system/src/stm32l4-hal-driver/stm32l4xx_ll_rtc.c **** 
  30:../system/src/stm32l4-hal-driver/stm32l4xx_ll_rtc.c **** /** @addtogroup STM32L4xx_LL_Driver
  31:../system/src/stm32l4-hal-driver/stm32l4xx_ll_rtc.c ****   * @{
  32:../system/src/stm32l4-hal-driver/stm32l4xx_ll_rtc.c ****   */
  33:../system/src/stm32l4-hal-driver/stm32l4xx_ll_rtc.c **** 
  34:../system/src/stm32l4-hal-driver/stm32l4xx_ll_rtc.c **** #if defined(RTC)
  35:../system/src/stm32l4-hal-driver/stm32l4xx_ll_rtc.c **** 
  36:../system/src/stm32l4-hal-driver/stm32l4xx_ll_rtc.c **** /** @addtogroup RTC_LL
  37:../system/src/stm32l4-hal-driver/stm32l4xx_ll_rtc.c ****   * @{
  38:../system/src/stm32l4-hal-driver/stm32l4xx_ll_rtc.c ****   */
  39:../system/src/stm32l4-hal-driver/stm32l4xx_ll_rtc.c **** 
  40:../system/src/stm32l4-hal-driver/stm32l4xx_ll_rtc.c **** /* Private types -------------------------------------------------------------*/
  41:../system/src/stm32l4-hal-driver/stm32l4xx_ll_rtc.c **** /* Private variables ---------------------------------------------------------*/
  42:../system/src/stm32l4-hal-driver/stm32l4xx_ll_rtc.c **** /* Private constants ---------------------------------------------------------*/
  43:../system/src/stm32l4-hal-driver/stm32l4xx_ll_rtc.c **** /** @addtogroup RTC_LL_Private_Constants
  44:../system/src/stm32l4-hal-driver/stm32l4xx_ll_rtc.c ****   * @{
  45:../system/src/stm32l4-hal-driver/stm32l4xx_ll_rtc.c ****   */
  46:../system/src/stm32l4-hal-driver/stm32l4xx_ll_rtc.c **** /* Default values used for prescaler */
  47:../system/src/stm32l4-hal-driver/stm32l4xx_ll_rtc.c **** #define RTC_ASYNCH_PRESC_DEFAULT     0x0000007FU
  48:../system/src/stm32l4-hal-driver/stm32l4xx_ll_rtc.c **** #define RTC_SYNCH_PRESC_DEFAULT      0x000000FFU
  49:../system/src/stm32l4-hal-driver/stm32l4xx_ll_rtc.c **** 
  50:../system/src/stm32l4-hal-driver/stm32l4xx_ll_rtc.c **** /* Values used for timeout */
  51:../system/src/stm32l4-hal-driver/stm32l4xx_ll_rtc.c **** #define RTC_INITMODE_TIMEOUT         1000U /* 1s when tick set to 1ms */
  52:../system/src/stm32l4-hal-driver/stm32l4xx_ll_rtc.c **** #define RTC_SYNCHRO_TIMEOUT          1000U /* 1s when tick set to 1ms */
  53:../system/src/stm32l4-hal-driver/stm32l4xx_ll_rtc.c **** /**
  54:../system/src/stm32l4-hal-driver/stm32l4xx_ll_rtc.c ****   * @}
  55:../system/src/stm32l4-hal-driver/stm32l4xx_ll_rtc.c ****   */
  56:../system/src/stm32l4-hal-driver/stm32l4xx_ll_rtc.c **** 
  57:../system/src/stm32l4-hal-driver/stm32l4xx_ll_rtc.c **** /* Private macros ------------------------------------------------------------*/
  58:../system/src/stm32l4-hal-driver/stm32l4xx_ll_rtc.c **** /** @addtogroup RTC_LL_Private_Macros
  59:../system/src/stm32l4-hal-driver/stm32l4xx_ll_rtc.c ****   * @{
  60:../system/src/stm32l4-hal-driver/stm32l4xx_ll_rtc.c ****   */
  61:../system/src/stm32l4-hal-driver/stm32l4xx_ll_rtc.c **** 
  62:../system/src/stm32l4-hal-driver/stm32l4xx_ll_rtc.c **** #define IS_LL_RTC_HOURFORMAT(__VALUE__) (((__VALUE__) == LL_RTC_HOURFORMAT_24HOUR) \
  63:../system/src/stm32l4-hal-driver/stm32l4xx_ll_rtc.c ****                                       || ((__VALUE__) == LL_RTC_HOURFORMAT_AMPM))
  64:../system/src/stm32l4-hal-driver/stm32l4xx_ll_rtc.c **** 
  65:../system/src/stm32l4-hal-driver/stm32l4xx_ll_rtc.c **** #define IS_LL_RTC_ASYNCH_PREDIV(__VALUE__)   ((__VALUE__) <= 0x7FU)
  66:../system/src/stm32l4-hal-driver/stm32l4xx_ll_rtc.c **** 
  67:../system/src/stm32l4-hal-driver/stm32l4xx_ll_rtc.c **** #define IS_LL_RTC_SYNCH_PREDIV(__VALUE__)    ((__VALUE__) <= 0x7FFFU)
  68:../system/src/stm32l4-hal-driver/stm32l4xx_ll_rtc.c **** 
  69:../system/src/stm32l4-hal-driver/stm32l4xx_ll_rtc.c **** #define IS_LL_RTC_FORMAT(__VALUE__) (((__VALUE__) == LL_RTC_FORMAT_BIN) \
  70:../system/src/stm32l4-hal-driver/stm32l4xx_ll_rtc.c ****                                   || ((__VALUE__) == LL_RTC_FORMAT_BCD))
  71:../system/src/stm32l4-hal-driver/stm32l4xx_ll_rtc.c **** 
  72:../system/src/stm32l4-hal-driver/stm32l4xx_ll_rtc.c **** #define IS_LL_RTC_TIME_FORMAT(__VALUE__) (((__VALUE__) == LL_RTC_TIME_FORMAT_AM_OR_24) \
  73:../system/src/stm32l4-hal-driver/stm32l4xx_ll_rtc.c ****                                        || ((__VALUE__) == LL_RTC_TIME_FORMAT_PM))
  74:../system/src/stm32l4-hal-driver/stm32l4xx_ll_rtc.c **** 
  75:../system/src/stm32l4-hal-driver/stm32l4xx_ll_rtc.c **** #define IS_LL_RTC_HOUR12(__HOUR__)            (((__HOUR__) > 0U) && ((__HOUR__) <= 12U))
  76:../system/src/stm32l4-hal-driver/stm32l4xx_ll_rtc.c **** #define IS_LL_RTC_HOUR24(__HOUR__)            ((__HOUR__) <= 23U)
  77:../system/src/stm32l4-hal-driver/stm32l4xx_ll_rtc.c **** #define IS_LL_RTC_MINUTES(__MINUTES__)        ((__MINUTES__) <= 59U)
  78:../system/src/stm32l4-hal-driver/stm32l4xx_ll_rtc.c **** #define IS_LL_RTC_SECONDS(__SECONDS__)        ((__SECONDS__) <= 59U)
  79:../system/src/stm32l4-hal-driver/stm32l4xx_ll_rtc.c **** 
  80:../system/src/stm32l4-hal-driver/stm32l4xx_ll_rtc.c **** #define IS_LL_RTC_WEEKDAY(__VALUE__) (((__VALUE__) == LL_RTC_WEEKDAY_MONDAY) \
  81:../system/src/stm32l4-hal-driver/stm32l4xx_ll_rtc.c ****                                    || ((__VALUE__) == LL_RTC_WEEKDAY_TUESDAY) \
  82:../system/src/stm32l4-hal-driver/stm32l4xx_ll_rtc.c ****                                    || ((__VALUE__) == LL_RTC_WEEKDAY_WEDNESDAY) \
  83:../system/src/stm32l4-hal-driver/stm32l4xx_ll_rtc.c ****                                    || ((__VALUE__) == LL_RTC_WEEKDAY_THURSDAY) \
  84:../system/src/stm32l4-hal-driver/stm32l4xx_ll_rtc.c ****                                    || ((__VALUE__) == LL_RTC_WEEKDAY_FRIDAY) \
  85:../system/src/stm32l4-hal-driver/stm32l4xx_ll_rtc.c ****                                    || ((__VALUE__) == LL_RTC_WEEKDAY_SATURDAY) \
  86:../system/src/stm32l4-hal-driver/stm32l4xx_ll_rtc.c ****                                    || ((__VALUE__) == LL_RTC_WEEKDAY_SUNDAY))
  87:../system/src/stm32l4-hal-driver/stm32l4xx_ll_rtc.c **** 
  88:../system/src/stm32l4-hal-driver/stm32l4xx_ll_rtc.c **** #define IS_LL_RTC_DAY(__DAY__)    (((__DAY__) >= 1U) && ((__DAY__) <= 31U))
  89:../system/src/stm32l4-hal-driver/stm32l4xx_ll_rtc.c **** 
  90:../system/src/stm32l4-hal-driver/stm32l4xx_ll_rtc.c **** #define IS_LL_RTC_MONTH(__MONTH__) (((__MONTH__) >= 1U) && ((__MONTH__) <= 12U))
  91:../system/src/stm32l4-hal-driver/stm32l4xx_ll_rtc.c **** 
  92:../system/src/stm32l4-hal-driver/stm32l4xx_ll_rtc.c **** #define IS_LL_RTC_YEAR(__YEAR__) ((__YEAR__) <= 99U)
  93:../system/src/stm32l4-hal-driver/stm32l4xx_ll_rtc.c **** 
  94:../system/src/stm32l4-hal-driver/stm32l4xx_ll_rtc.c **** #define IS_LL_RTC_ALMA_MASK(__VALUE__) (((__VALUE__) == LL_RTC_ALMA_MASK_NONE) \
  95:../system/src/stm32l4-hal-driver/stm32l4xx_ll_rtc.c ****                                      || ((__VALUE__) == LL_RTC_ALMA_MASK_DATEWEEKDAY) \
  96:../system/src/stm32l4-hal-driver/stm32l4xx_ll_rtc.c ****                                      || ((__VALUE__) == LL_RTC_ALMA_MASK_HOURS) \
  97:../system/src/stm32l4-hal-driver/stm32l4xx_ll_rtc.c ****                                      || ((__VALUE__) == LL_RTC_ALMA_MASK_MINUTES) \
  98:../system/src/stm32l4-hal-driver/stm32l4xx_ll_rtc.c ****                                      || ((__VALUE__) == LL_RTC_ALMA_MASK_SECONDS) \
  99:../system/src/stm32l4-hal-driver/stm32l4xx_ll_rtc.c ****                                      || ((__VALUE__) == LL_RTC_ALMA_MASK_ALL))
 100:../system/src/stm32l4-hal-driver/stm32l4xx_ll_rtc.c **** 
 101:../system/src/stm32l4-hal-driver/stm32l4xx_ll_rtc.c **** #define IS_LL_RTC_ALMB_MASK(__VALUE__) (((__VALUE__) == LL_RTC_ALMB_MASK_NONE) \
 102:../system/src/stm32l4-hal-driver/stm32l4xx_ll_rtc.c ****                                      || ((__VALUE__) == LL_RTC_ALMB_MASK_DATEWEEKDAY) \
 103:../system/src/stm32l4-hal-driver/stm32l4xx_ll_rtc.c ****                                      || ((__VALUE__) == LL_RTC_ALMB_MASK_HOURS) \
 104:../system/src/stm32l4-hal-driver/stm32l4xx_ll_rtc.c ****                                      || ((__VALUE__) == LL_RTC_ALMB_MASK_MINUTES) \
 105:../system/src/stm32l4-hal-driver/stm32l4xx_ll_rtc.c ****                                      || ((__VALUE__) == LL_RTC_ALMB_MASK_SECONDS) \
 106:../system/src/stm32l4-hal-driver/stm32l4xx_ll_rtc.c ****                                      || ((__VALUE__) == LL_RTC_ALMB_MASK_ALL))
 107:../system/src/stm32l4-hal-driver/stm32l4xx_ll_rtc.c **** 
 108:../system/src/stm32l4-hal-driver/stm32l4xx_ll_rtc.c **** 
 109:../system/src/stm32l4-hal-driver/stm32l4xx_ll_rtc.c **** #define IS_LL_RTC_ALMA_DATE_WEEKDAY_SEL(__SEL__) (((__SEL__) == LL_RTC_ALMA_DATEWEEKDAYSEL_DATE) ||
 110:../system/src/stm32l4-hal-driver/stm32l4xx_ll_rtc.c ****                                                   ((__SEL__) == LL_RTC_ALMA_DATEWEEKDAYSEL_WEEKDAY)
 111:../system/src/stm32l4-hal-driver/stm32l4xx_ll_rtc.c **** 
 112:../system/src/stm32l4-hal-driver/stm32l4xx_ll_rtc.c **** #define IS_LL_RTC_ALMB_DATE_WEEKDAY_SEL(__SEL__) (((__SEL__) == LL_RTC_ALMB_DATEWEEKDAYSEL_DATE) ||
 113:../system/src/stm32l4-hal-driver/stm32l4xx_ll_rtc.c ****                                                   ((__SEL__) == LL_RTC_ALMB_DATEWEEKDAYSEL_WEEKDAY)
 114:../system/src/stm32l4-hal-driver/stm32l4xx_ll_rtc.c **** 
 115:../system/src/stm32l4-hal-driver/stm32l4xx_ll_rtc.c **** 
 116:../system/src/stm32l4-hal-driver/stm32l4xx_ll_rtc.c **** /**
 117:../system/src/stm32l4-hal-driver/stm32l4xx_ll_rtc.c ****   * @}
 118:../system/src/stm32l4-hal-driver/stm32l4xx_ll_rtc.c ****   */
 119:../system/src/stm32l4-hal-driver/stm32l4xx_ll_rtc.c **** /* Private function prototypes -----------------------------------------------*/
 120:../system/src/stm32l4-hal-driver/stm32l4xx_ll_rtc.c **** /* Exported functions --------------------------------------------------------*/
 121:../system/src/stm32l4-hal-driver/stm32l4xx_ll_rtc.c **** /** @addtogroup RTC_LL_Exported_Functions
 122:../system/src/stm32l4-hal-driver/stm32l4xx_ll_rtc.c ****   * @{
 123:../system/src/stm32l4-hal-driver/stm32l4xx_ll_rtc.c ****   */
 124:../system/src/stm32l4-hal-driver/stm32l4xx_ll_rtc.c **** 
 125:../system/src/stm32l4-hal-driver/stm32l4xx_ll_rtc.c **** /** @addtogroup RTC_LL_EF_Init
 126:../system/src/stm32l4-hal-driver/stm32l4xx_ll_rtc.c ****   * @{
 127:../system/src/stm32l4-hal-driver/stm32l4xx_ll_rtc.c ****   */
 128:../system/src/stm32l4-hal-driver/stm32l4xx_ll_rtc.c **** 
 129:../system/src/stm32l4-hal-driver/stm32l4xx_ll_rtc.c **** /**
 130:../system/src/stm32l4-hal-driver/stm32l4xx_ll_rtc.c ****   * @brief  De-Initializes the RTC registers to their default reset values.
 131:../system/src/stm32l4-hal-driver/stm32l4xx_ll_rtc.c ****   * @note   This function does not reset the RTC Clock source and RTC Backup Data
 132:../system/src/stm32l4-hal-driver/stm32l4xx_ll_rtc.c ****   *         registers.
 133:../system/src/stm32l4-hal-driver/stm32l4xx_ll_rtc.c ****   * @param  RTCx RTC Instance
 134:../system/src/stm32l4-hal-driver/stm32l4xx_ll_rtc.c ****   * @retval An ErrorStatus enumeration value:
 135:../system/src/stm32l4-hal-driver/stm32l4xx_ll_rtc.c ****   *          - SUCCESS: RTC registers are de-initialized
 136:../system/src/stm32l4-hal-driver/stm32l4xx_ll_rtc.c ****   *          - ERROR: RTC registers are not de-initialized
 137:../system/src/stm32l4-hal-driver/stm32l4xx_ll_rtc.c ****   */
 138:../system/src/stm32l4-hal-driver/stm32l4xx_ll_rtc.c **** ErrorStatus LL_RTC_DeInit(RTC_TypeDef *RTCx)
 139:../system/src/stm32l4-hal-driver/stm32l4xx_ll_rtc.c **** {
 140:../system/src/stm32l4-hal-driver/stm32l4xx_ll_rtc.c ****   ErrorStatus status;
 141:../system/src/stm32l4-hal-driver/stm32l4xx_ll_rtc.c **** 
 142:../system/src/stm32l4-hal-driver/stm32l4xx_ll_rtc.c ****   /* Check the parameter */
 143:../system/src/stm32l4-hal-driver/stm32l4xx_ll_rtc.c ****   assert_param(IS_RTC_ALL_INSTANCE(RTCx));
 144:../system/src/stm32l4-hal-driver/stm32l4xx_ll_rtc.c **** 
 145:../system/src/stm32l4-hal-driver/stm32l4xx_ll_rtc.c ****   /* Disable the write protection for RTC registers */
 146:../system/src/stm32l4-hal-driver/stm32l4xx_ll_rtc.c ****   LL_RTC_DisableWriteProtection(RTCx);
 147:../system/src/stm32l4-hal-driver/stm32l4xx_ll_rtc.c **** 
 148:../system/src/stm32l4-hal-driver/stm32l4xx_ll_rtc.c ****   /* Set Initialization mode */
 149:../system/src/stm32l4-hal-driver/stm32l4xx_ll_rtc.c ****   status = LL_RTC_EnterInitMode(RTCx);
 150:../system/src/stm32l4-hal-driver/stm32l4xx_ll_rtc.c ****   if(status != ERROR)
 151:../system/src/stm32l4-hal-driver/stm32l4xx_ll_rtc.c ****   {
 152:../system/src/stm32l4-hal-driver/stm32l4xx_ll_rtc.c ****     /* Reset TR, DR and CR registers */
 153:../system/src/stm32l4-hal-driver/stm32l4xx_ll_rtc.c ****     LL_RTC_WriteReg(RTCx, TR, 0x00000000U);
 154:../system/src/stm32l4-hal-driver/stm32l4xx_ll_rtc.c **** 
 155:../system/src/stm32l4-hal-driver/stm32l4xx_ll_rtc.c ****     LL_RTC_WriteReg(RTCx, WUTR, RTC_WUTR_WUT);
 156:../system/src/stm32l4-hal-driver/stm32l4xx_ll_rtc.c ****     LL_RTC_WriteReg(RTCx, DR, (RTC_DR_WDU_0 | RTC_DR_MU_0 | RTC_DR_DU_0));
 157:../system/src/stm32l4-hal-driver/stm32l4xx_ll_rtc.c ****     /* Reset All CR bits except CR[2:0] */
 158:../system/src/stm32l4-hal-driver/stm32l4xx_ll_rtc.c ****     LL_RTC_WriteReg(RTCx, CR, (LL_RTC_ReadReg(RTCx, CR) & RTC_CR_WUCKSEL));
 159:../system/src/stm32l4-hal-driver/stm32l4xx_ll_rtc.c **** 
 160:../system/src/stm32l4-hal-driver/stm32l4xx_ll_rtc.c ****     LL_RTC_WriteReg(RTCx, PRER, (RTC_PRER_PREDIV_A | RTC_SYNCH_PRESC_DEFAULT));
 161:../system/src/stm32l4-hal-driver/stm32l4xx_ll_rtc.c ****     LL_RTC_WriteReg(RTCx, ALRMAR,   0x00000000U);
 162:../system/src/stm32l4-hal-driver/stm32l4xx_ll_rtc.c ****     LL_RTC_WriteReg(RTCx, ALRMBR,   0x00000000U);
 163:../system/src/stm32l4-hal-driver/stm32l4xx_ll_rtc.c ****     LL_RTC_WriteReg(RTCx, SHIFTR,   0x00000000U);
 164:../system/src/stm32l4-hal-driver/stm32l4xx_ll_rtc.c ****     LL_RTC_WriteReg(RTCx, CALR,     0x00000000U);
 165:../system/src/stm32l4-hal-driver/stm32l4xx_ll_rtc.c ****     LL_RTC_WriteReg(RTCx, ALRMASSR, 0x00000000U);
 166:../system/src/stm32l4-hal-driver/stm32l4xx_ll_rtc.c ****     LL_RTC_WriteReg(RTCx, ALRMBSSR, 0x00000000U);
 167:../system/src/stm32l4-hal-driver/stm32l4xx_ll_rtc.c **** 
 168:../system/src/stm32l4-hal-driver/stm32l4xx_ll_rtc.c **** #if defined(STM32L412xx) || defined(STM32L422xx) || defined (STM32L4P5xx) || defined (STM32L4Q5xx)
 169:../system/src/stm32l4-hal-driver/stm32l4xx_ll_rtc.c **** #else /* #if defined(STM32L412xx) || defined(STM32L422xx) || defined (STM32L4P5xx) || defined (STM3
 170:../system/src/stm32l4-hal-driver/stm32l4xx_ll_rtc.c ****     /* Reset Tamper and alternate functions configuration register */
 171:../system/src/stm32l4-hal-driver/stm32l4xx_ll_rtc.c ****     LL_RTC_WriteReg(RTCx, TAMPCR, 0x00000000U);
 172:../system/src/stm32l4-hal-driver/stm32l4xx_ll_rtc.c **** 
 173:../system/src/stm32l4-hal-driver/stm32l4xx_ll_rtc.c ****     /* Reset Option register */
 174:../system/src/stm32l4-hal-driver/stm32l4xx_ll_rtc.c ****     LL_RTC_WriteReg(RTCx, OR, 0x00000000U);
 175:../system/src/stm32l4-hal-driver/stm32l4xx_ll_rtc.c **** #endif /* #if defined(STM32L412xx) || defined(STM32L422xx) || defined (STM32L4P5xx) || defined (STM
 176:../system/src/stm32l4-hal-driver/stm32l4xx_ll_rtc.c **** 
 177:../system/src/stm32l4-hal-driver/stm32l4xx_ll_rtc.c ****     /* Exit Initialization mode */
 178:../system/src/stm32l4-hal-driver/stm32l4xx_ll_rtc.c ****     LL_RTC_DisableInitMode(RTCx);
 179:../system/src/stm32l4-hal-driver/stm32l4xx_ll_rtc.c ****   }
 180:../system/src/stm32l4-hal-driver/stm32l4xx_ll_rtc.c **** 
 181:../system/src/stm32l4-hal-driver/stm32l4xx_ll_rtc.c ****   /* Enable the write protection for RTC registers */
 182:../system/src/stm32l4-hal-driver/stm32l4xx_ll_rtc.c ****   LL_RTC_EnableWriteProtection(RTCx);
 183:../system/src/stm32l4-hal-driver/stm32l4xx_ll_rtc.c **** 
 184:../system/src/stm32l4-hal-driver/stm32l4xx_ll_rtc.c ****   return status;
 185:../system/src/stm32l4-hal-driver/stm32l4xx_ll_rtc.c **** }
 186:../system/src/stm32l4-hal-driver/stm32l4xx_ll_rtc.c **** 
 187:../system/src/stm32l4-hal-driver/stm32l4xx_ll_rtc.c **** /**
 188:../system/src/stm32l4-hal-driver/stm32l4xx_ll_rtc.c ****   * @brief  Initializes the RTC registers according to the specified parameters
 189:../system/src/stm32l4-hal-driver/stm32l4xx_ll_rtc.c ****   *         in RTC_InitStruct.
 190:../system/src/stm32l4-hal-driver/stm32l4xx_ll_rtc.c ****   * @param  RTCx RTC Instance
 191:../system/src/stm32l4-hal-driver/stm32l4xx_ll_rtc.c ****   * @param  RTC_InitStruct pointer to a @ref LL_RTC_InitTypeDef structure that contains
 192:../system/src/stm32l4-hal-driver/stm32l4xx_ll_rtc.c ****   *         the configuration information for the RTC peripheral.
 193:../system/src/stm32l4-hal-driver/stm32l4xx_ll_rtc.c ****   * @note   The RTC Prescaler register is write protected and can be written in
 194:../system/src/stm32l4-hal-driver/stm32l4xx_ll_rtc.c ****   *         initialization mode only.
 195:../system/src/stm32l4-hal-driver/stm32l4xx_ll_rtc.c ****   * @retval An ErrorStatus enumeration value:
 196:../system/src/stm32l4-hal-driver/stm32l4xx_ll_rtc.c ****   *          - SUCCESS: RTC registers are initialized
 197:../system/src/stm32l4-hal-driver/stm32l4xx_ll_rtc.c ****   *          - ERROR: RTC registers are not initialized
 198:../system/src/stm32l4-hal-driver/stm32l4xx_ll_rtc.c ****   */
 199:../system/src/stm32l4-hal-driver/stm32l4xx_ll_rtc.c **** ErrorStatus LL_RTC_Init(RTC_TypeDef *RTCx, LL_RTC_InitTypeDef *RTC_InitStruct)
 200:../system/src/stm32l4-hal-driver/stm32l4xx_ll_rtc.c **** {
 201:../system/src/stm32l4-hal-driver/stm32l4xx_ll_rtc.c ****   ErrorStatus status = ERROR;
 202:../system/src/stm32l4-hal-driver/stm32l4xx_ll_rtc.c **** 
 203:../system/src/stm32l4-hal-driver/stm32l4xx_ll_rtc.c ****   /* Check the parameters */
 204:../system/src/stm32l4-hal-driver/stm32l4xx_ll_rtc.c ****   assert_param(IS_RTC_ALL_INSTANCE(RTCx));
 205:../system/src/stm32l4-hal-driver/stm32l4xx_ll_rtc.c ****   assert_param(IS_LL_RTC_HOURFORMAT(RTC_InitStruct->HourFormat));
 206:../system/src/stm32l4-hal-driver/stm32l4xx_ll_rtc.c ****   assert_param(IS_LL_RTC_ASYNCH_PREDIV(RTC_InitStruct->AsynchPrescaler));
 207:../system/src/stm32l4-hal-driver/stm32l4xx_ll_rtc.c ****   assert_param(IS_LL_RTC_SYNCH_PREDIV(RTC_InitStruct->SynchPrescaler));
 208:../system/src/stm32l4-hal-driver/stm32l4xx_ll_rtc.c **** 
 209:../system/src/stm32l4-hal-driver/stm32l4xx_ll_rtc.c ****   /* Disable the write protection for RTC registers */
 210:../system/src/stm32l4-hal-driver/stm32l4xx_ll_rtc.c ****   LL_RTC_DisableWriteProtection(RTCx);
 211:../system/src/stm32l4-hal-driver/stm32l4xx_ll_rtc.c **** 
 212:../system/src/stm32l4-hal-driver/stm32l4xx_ll_rtc.c ****   /* Set Initialization mode */
 213:../system/src/stm32l4-hal-driver/stm32l4xx_ll_rtc.c ****   if (LL_RTC_EnterInitMode(RTCx) != ERROR)
 214:../system/src/stm32l4-hal-driver/stm32l4xx_ll_rtc.c ****   {
 215:../system/src/stm32l4-hal-driver/stm32l4xx_ll_rtc.c ****     /* Set Hour Format */
 216:../system/src/stm32l4-hal-driver/stm32l4xx_ll_rtc.c ****     LL_RTC_SetHourFormat(RTCx, RTC_InitStruct->HourFormat);
 217:../system/src/stm32l4-hal-driver/stm32l4xx_ll_rtc.c **** 
 218:../system/src/stm32l4-hal-driver/stm32l4xx_ll_rtc.c ****     /* Configure Synchronous and Asynchronous prescaler factor */
 219:../system/src/stm32l4-hal-driver/stm32l4xx_ll_rtc.c ****     LL_RTC_SetSynchPrescaler(RTCx, RTC_InitStruct->SynchPrescaler);
 220:../system/src/stm32l4-hal-driver/stm32l4xx_ll_rtc.c ****     LL_RTC_SetAsynchPrescaler(RTCx, RTC_InitStruct->AsynchPrescaler);
 221:../system/src/stm32l4-hal-driver/stm32l4xx_ll_rtc.c **** 
 222:../system/src/stm32l4-hal-driver/stm32l4xx_ll_rtc.c ****     /* Exit Initialization mode */
 223:../system/src/stm32l4-hal-driver/stm32l4xx_ll_rtc.c ****     LL_RTC_DisableInitMode(RTCx);
 224:../system/src/stm32l4-hal-driver/stm32l4xx_ll_rtc.c **** 
 225:../system/src/stm32l4-hal-driver/stm32l4xx_ll_rtc.c ****     status = SUCCESS;
 226:../system/src/stm32l4-hal-driver/stm32l4xx_ll_rtc.c ****   }
 227:../system/src/stm32l4-hal-driver/stm32l4xx_ll_rtc.c ****   /* Enable the write protection for RTC registers */
 228:../system/src/stm32l4-hal-driver/stm32l4xx_ll_rtc.c ****   LL_RTC_EnableWriteProtection(RTCx);
 229:../system/src/stm32l4-hal-driver/stm32l4xx_ll_rtc.c **** 
 230:../system/src/stm32l4-hal-driver/stm32l4xx_ll_rtc.c ****   return status;
 231:../system/src/stm32l4-hal-driver/stm32l4xx_ll_rtc.c **** }
 232:../system/src/stm32l4-hal-driver/stm32l4xx_ll_rtc.c **** 
 233:../system/src/stm32l4-hal-driver/stm32l4xx_ll_rtc.c **** /**
 234:../system/src/stm32l4-hal-driver/stm32l4xx_ll_rtc.c ****   * @brief  Set each @ref LL_RTC_InitTypeDef field to default value.
 235:../system/src/stm32l4-hal-driver/stm32l4xx_ll_rtc.c ****   * @param  RTC_InitStruct pointer to a @ref LL_RTC_InitTypeDef structure which will be initialized
 236:../system/src/stm32l4-hal-driver/stm32l4xx_ll_rtc.c ****   * @retval None
 237:../system/src/stm32l4-hal-driver/stm32l4xx_ll_rtc.c ****   */
 238:../system/src/stm32l4-hal-driver/stm32l4xx_ll_rtc.c **** void LL_RTC_StructInit(LL_RTC_InitTypeDef *RTC_InitStruct)
 239:../system/src/stm32l4-hal-driver/stm32l4xx_ll_rtc.c **** {
  28              		.loc 1 239 0
  29              		.cfi_startproc
  30              		@ args = 0, pretend = 0, frame = 0
  31              		@ frame_needed = 0, uses_anonymous_args = 0
  32              		@ link register save eliminated.
  33              	.LVL0:
 240:../system/src/stm32l4-hal-driver/stm32l4xx_ll_rtc.c ****   /* Set RTC_InitStruct fields to default values */
 241:../system/src/stm32l4-hal-driver/stm32l4xx_ll_rtc.c ****   RTC_InitStruct->HourFormat      = LL_RTC_HOURFORMAT_24HOUR;
  34              		.loc 1 241 0
  35 0000 0023     		movs	r3, #0
  36 0002 0360     		str	r3, [r0]
 242:../system/src/stm32l4-hal-driver/stm32l4xx_ll_rtc.c ****   RTC_InitStruct->AsynchPrescaler = RTC_ASYNCH_PRESC_DEFAULT;
  37              		.loc 1 242 0
  38 0004 7F23     		movs	r3, #127
  39 0006 4360     		str	r3, [r0, #4]
 243:../system/src/stm32l4-hal-driver/stm32l4xx_ll_rtc.c ****   RTC_InitStruct->SynchPrescaler  = RTC_SYNCH_PRESC_DEFAULT;
  40              		.loc 1 243 0
  41 0008 FF23     		movs	r3, #255
  42 000a 8360     		str	r3, [r0, #8]
 244:../system/src/stm32l4-hal-driver/stm32l4xx_ll_rtc.c **** }
  43              		.loc 1 244 0
  44 000c 7047     		bx	lr
  45              		.cfi_endproc
  46              	.LFE359:
  48              		.section	.text.LL_RTC_TIME_StructInit,"ax",%progbits
  49              		.align	1
  50              		.global	LL_RTC_TIME_StructInit
  51              		.syntax unified
  52              		.thumb
  53              		.thumb_func
  54              		.fpu fpv4-sp-d16
  56              	LL_RTC_TIME_StructInit:
  57              	.LFB361:
 245:../system/src/stm32l4-hal-driver/stm32l4xx_ll_rtc.c **** 
 246:../system/src/stm32l4-hal-driver/stm32l4xx_ll_rtc.c **** /**
 247:../system/src/stm32l4-hal-driver/stm32l4xx_ll_rtc.c ****   * @brief  Set the RTC current time.
 248:../system/src/stm32l4-hal-driver/stm32l4xx_ll_rtc.c ****   * @param  RTCx RTC Instance
 249:../system/src/stm32l4-hal-driver/stm32l4xx_ll_rtc.c ****   * @param  RTC_Format This parameter can be one of the following values:
 250:../system/src/stm32l4-hal-driver/stm32l4xx_ll_rtc.c ****   *         @arg @ref LL_RTC_FORMAT_BIN
 251:../system/src/stm32l4-hal-driver/stm32l4xx_ll_rtc.c ****   *         @arg @ref LL_RTC_FORMAT_BCD
 252:../system/src/stm32l4-hal-driver/stm32l4xx_ll_rtc.c ****   * @param  RTC_TimeStruct pointer to a RTC_TimeTypeDef structure that contains
 253:../system/src/stm32l4-hal-driver/stm32l4xx_ll_rtc.c ****   *                        the time configuration information for the RTC.
 254:../system/src/stm32l4-hal-driver/stm32l4xx_ll_rtc.c ****   * @retval An ErrorStatus enumeration value:
 255:../system/src/stm32l4-hal-driver/stm32l4xx_ll_rtc.c ****   *          - SUCCESS: RTC Time register is configured
 256:../system/src/stm32l4-hal-driver/stm32l4xx_ll_rtc.c ****   *          - ERROR: RTC Time register is not configured
 257:../system/src/stm32l4-hal-driver/stm32l4xx_ll_rtc.c ****   */
 258:../system/src/stm32l4-hal-driver/stm32l4xx_ll_rtc.c **** ErrorStatus LL_RTC_TIME_Init(RTC_TypeDef *RTCx, uint32_t RTC_Format, LL_RTC_TimeTypeDef *RTC_TimeSt
 259:../system/src/stm32l4-hal-driver/stm32l4xx_ll_rtc.c **** {
 260:../system/src/stm32l4-hal-driver/stm32l4xx_ll_rtc.c ****   ErrorStatus status = ERROR;
 261:../system/src/stm32l4-hal-driver/stm32l4xx_ll_rtc.c **** 
 262:../system/src/stm32l4-hal-driver/stm32l4xx_ll_rtc.c ****   /* Check the parameters */
 263:../system/src/stm32l4-hal-driver/stm32l4xx_ll_rtc.c ****   assert_param(IS_RTC_ALL_INSTANCE(RTCx));
 264:../system/src/stm32l4-hal-driver/stm32l4xx_ll_rtc.c ****   assert_param(IS_LL_RTC_FORMAT(RTC_Format));
 265:../system/src/stm32l4-hal-driver/stm32l4xx_ll_rtc.c **** 
 266:../system/src/stm32l4-hal-driver/stm32l4xx_ll_rtc.c ****   if (RTC_Format == LL_RTC_FORMAT_BIN)
 267:../system/src/stm32l4-hal-driver/stm32l4xx_ll_rtc.c ****   {
 268:../system/src/stm32l4-hal-driver/stm32l4xx_ll_rtc.c ****     if (LL_RTC_GetHourFormat(RTCx) != LL_RTC_HOURFORMAT_24HOUR)
 269:../system/src/stm32l4-hal-driver/stm32l4xx_ll_rtc.c ****     {
 270:../system/src/stm32l4-hal-driver/stm32l4xx_ll_rtc.c ****       assert_param(IS_LL_RTC_HOUR12(RTC_TimeStruct->Hours));
 271:../system/src/stm32l4-hal-driver/stm32l4xx_ll_rtc.c ****       assert_param(IS_LL_RTC_TIME_FORMAT(RTC_TimeStruct->TimeFormat));
 272:../system/src/stm32l4-hal-driver/stm32l4xx_ll_rtc.c ****     }
 273:../system/src/stm32l4-hal-driver/stm32l4xx_ll_rtc.c ****     else
 274:../system/src/stm32l4-hal-driver/stm32l4xx_ll_rtc.c ****     {
 275:../system/src/stm32l4-hal-driver/stm32l4xx_ll_rtc.c ****       RTC_TimeStruct->TimeFormat = 0x00U;
 276:../system/src/stm32l4-hal-driver/stm32l4xx_ll_rtc.c ****       assert_param(IS_LL_RTC_HOUR24(RTC_TimeStruct->Hours));
 277:../system/src/stm32l4-hal-driver/stm32l4xx_ll_rtc.c ****     }
 278:../system/src/stm32l4-hal-driver/stm32l4xx_ll_rtc.c ****     assert_param(IS_LL_RTC_MINUTES(RTC_TimeStruct->Minutes));
 279:../system/src/stm32l4-hal-driver/stm32l4xx_ll_rtc.c ****     assert_param(IS_LL_RTC_SECONDS(RTC_TimeStruct->Seconds));
 280:../system/src/stm32l4-hal-driver/stm32l4xx_ll_rtc.c ****   }
 281:../system/src/stm32l4-hal-driver/stm32l4xx_ll_rtc.c ****   else
 282:../system/src/stm32l4-hal-driver/stm32l4xx_ll_rtc.c ****   {
 283:../system/src/stm32l4-hal-driver/stm32l4xx_ll_rtc.c ****     if (LL_RTC_GetHourFormat(RTCx) != LL_RTC_HOURFORMAT_24HOUR)
 284:../system/src/stm32l4-hal-driver/stm32l4xx_ll_rtc.c ****     {
 285:../system/src/stm32l4-hal-driver/stm32l4xx_ll_rtc.c ****       assert_param(IS_LL_RTC_HOUR12(__LL_RTC_CONVERT_BCD2BIN(RTC_TimeStruct->Hours)));
 286:../system/src/stm32l4-hal-driver/stm32l4xx_ll_rtc.c ****       assert_param(IS_LL_RTC_TIME_FORMAT(RTC_TimeStruct->TimeFormat));
 287:../system/src/stm32l4-hal-driver/stm32l4xx_ll_rtc.c ****     }
 288:../system/src/stm32l4-hal-driver/stm32l4xx_ll_rtc.c ****     else
 289:../system/src/stm32l4-hal-driver/stm32l4xx_ll_rtc.c ****     {
 290:../system/src/stm32l4-hal-driver/stm32l4xx_ll_rtc.c ****       RTC_TimeStruct->TimeFormat = 0x00U;
 291:../system/src/stm32l4-hal-driver/stm32l4xx_ll_rtc.c ****       assert_param(IS_LL_RTC_HOUR24(__LL_RTC_CONVERT_BCD2BIN(RTC_TimeStruct->Hours)));
 292:../system/src/stm32l4-hal-driver/stm32l4xx_ll_rtc.c ****     }
 293:../system/src/stm32l4-hal-driver/stm32l4xx_ll_rtc.c ****     assert_param(IS_LL_RTC_MINUTES(__LL_RTC_CONVERT_BCD2BIN(RTC_TimeStruct->Minutes)));
 294:../system/src/stm32l4-hal-driver/stm32l4xx_ll_rtc.c ****     assert_param(IS_LL_RTC_SECONDS(__LL_RTC_CONVERT_BCD2BIN(RTC_TimeStruct->Seconds)));
 295:../system/src/stm32l4-hal-driver/stm32l4xx_ll_rtc.c ****   }
 296:../system/src/stm32l4-hal-driver/stm32l4xx_ll_rtc.c **** 
 297:../system/src/stm32l4-hal-driver/stm32l4xx_ll_rtc.c ****   /* Disable the write protection for RTC registers */
 298:../system/src/stm32l4-hal-driver/stm32l4xx_ll_rtc.c ****   LL_RTC_DisableWriteProtection(RTCx);
 299:../system/src/stm32l4-hal-driver/stm32l4xx_ll_rtc.c **** 
 300:../system/src/stm32l4-hal-driver/stm32l4xx_ll_rtc.c ****   /* Set Initialization mode */
 301:../system/src/stm32l4-hal-driver/stm32l4xx_ll_rtc.c ****   if (LL_RTC_EnterInitMode(RTCx) != ERROR)
 302:../system/src/stm32l4-hal-driver/stm32l4xx_ll_rtc.c ****   {
 303:../system/src/stm32l4-hal-driver/stm32l4xx_ll_rtc.c ****     /* Check the input parameters format */
 304:../system/src/stm32l4-hal-driver/stm32l4xx_ll_rtc.c ****     if (RTC_Format != LL_RTC_FORMAT_BIN)
 305:../system/src/stm32l4-hal-driver/stm32l4xx_ll_rtc.c ****     {
 306:../system/src/stm32l4-hal-driver/stm32l4xx_ll_rtc.c ****       LL_RTC_TIME_Config(RTCx, RTC_TimeStruct->TimeFormat, RTC_TimeStruct->Hours,
 307:../system/src/stm32l4-hal-driver/stm32l4xx_ll_rtc.c ****                          RTC_TimeStruct->Minutes, RTC_TimeStruct->Seconds);
 308:../system/src/stm32l4-hal-driver/stm32l4xx_ll_rtc.c ****     }
 309:../system/src/stm32l4-hal-driver/stm32l4xx_ll_rtc.c ****     else
 310:../system/src/stm32l4-hal-driver/stm32l4xx_ll_rtc.c ****     {
 311:../system/src/stm32l4-hal-driver/stm32l4xx_ll_rtc.c ****       LL_RTC_TIME_Config(RTCx, RTC_TimeStruct->TimeFormat, __LL_RTC_CONVERT_BIN2BCD(RTC_TimeStruct-
 312:../system/src/stm32l4-hal-driver/stm32l4xx_ll_rtc.c ****                          __LL_RTC_CONVERT_BIN2BCD(RTC_TimeStruct->Minutes),
 313:../system/src/stm32l4-hal-driver/stm32l4xx_ll_rtc.c ****                          __LL_RTC_CONVERT_BIN2BCD(RTC_TimeStruct->Seconds));
 314:../system/src/stm32l4-hal-driver/stm32l4xx_ll_rtc.c ****     }
 315:../system/src/stm32l4-hal-driver/stm32l4xx_ll_rtc.c **** 
 316:../system/src/stm32l4-hal-driver/stm32l4xx_ll_rtc.c ****     /* Exit Initialization mode */
 317:../system/src/stm32l4-hal-driver/stm32l4xx_ll_rtc.c ****     LL_RTC_DisableInitMode(RTC);
 318:../system/src/stm32l4-hal-driver/stm32l4xx_ll_rtc.c **** 
 319:../system/src/stm32l4-hal-driver/stm32l4xx_ll_rtc.c ****     /* If  RTC_CR_BYPSHAD bit = 0, wait for synchro else this check is not needed */
 320:../system/src/stm32l4-hal-driver/stm32l4xx_ll_rtc.c ****     if (LL_RTC_IsShadowRegBypassEnabled(RTCx) == 0U)
 321:../system/src/stm32l4-hal-driver/stm32l4xx_ll_rtc.c ****     {
 322:../system/src/stm32l4-hal-driver/stm32l4xx_ll_rtc.c ****       status = LL_RTC_WaitForSynchro(RTCx);
 323:../system/src/stm32l4-hal-driver/stm32l4xx_ll_rtc.c ****     }
 324:../system/src/stm32l4-hal-driver/stm32l4xx_ll_rtc.c ****     else
 325:../system/src/stm32l4-hal-driver/stm32l4xx_ll_rtc.c ****     {
 326:../system/src/stm32l4-hal-driver/stm32l4xx_ll_rtc.c ****       status = SUCCESS;
 327:../system/src/stm32l4-hal-driver/stm32l4xx_ll_rtc.c ****     }
 328:../system/src/stm32l4-hal-driver/stm32l4xx_ll_rtc.c ****   }
 329:../system/src/stm32l4-hal-driver/stm32l4xx_ll_rtc.c ****   /* Enable the write protection for RTC registers */
 330:../system/src/stm32l4-hal-driver/stm32l4xx_ll_rtc.c ****   LL_RTC_EnableWriteProtection(RTCx);
 331:../system/src/stm32l4-hal-driver/stm32l4xx_ll_rtc.c **** 
 332:../system/src/stm32l4-hal-driver/stm32l4xx_ll_rtc.c ****   return status;
 333:../system/src/stm32l4-hal-driver/stm32l4xx_ll_rtc.c **** }
 334:../system/src/stm32l4-hal-driver/stm32l4xx_ll_rtc.c **** 
 335:../system/src/stm32l4-hal-driver/stm32l4xx_ll_rtc.c **** /**
 336:../system/src/stm32l4-hal-driver/stm32l4xx_ll_rtc.c ****   * @brief  Set each @ref LL_RTC_TimeTypeDef field to default value (Time = 00h:00min:00sec).
 337:../system/src/stm32l4-hal-driver/stm32l4xx_ll_rtc.c ****   * @param  RTC_TimeStruct pointer to a @ref LL_RTC_TimeTypeDef structure which will be initialized
 338:../system/src/stm32l4-hal-driver/stm32l4xx_ll_rtc.c ****   * @retval None
 339:../system/src/stm32l4-hal-driver/stm32l4xx_ll_rtc.c ****   */
 340:../system/src/stm32l4-hal-driver/stm32l4xx_ll_rtc.c **** void LL_RTC_TIME_StructInit(LL_RTC_TimeTypeDef *RTC_TimeStruct)
 341:../system/src/stm32l4-hal-driver/stm32l4xx_ll_rtc.c **** {
  58              		.loc 1 341 0
  59              		.cfi_startproc
  60              		@ args = 0, pretend = 0, frame = 0
  61              		@ frame_needed = 0, uses_anonymous_args = 0
  62              		@ link register save eliminated.
  63              	.LVL1:
 342:../system/src/stm32l4-hal-driver/stm32l4xx_ll_rtc.c ****   /* Time = 00h:00min:00sec */
 343:../system/src/stm32l4-hal-driver/stm32l4xx_ll_rtc.c ****   RTC_TimeStruct->TimeFormat = LL_RTC_TIME_FORMAT_AM_OR_24;
  64              		.loc 1 343 0
  65 0000 0023     		movs	r3, #0
  66 0002 0360     		str	r3, [r0]
 344:../system/src/stm32l4-hal-driver/stm32l4xx_ll_rtc.c ****   RTC_TimeStruct->Hours      = 0U;
  67              		.loc 1 344 0
  68 0004 0371     		strb	r3, [r0, #4]
 345:../system/src/stm32l4-hal-driver/stm32l4xx_ll_rtc.c ****   RTC_TimeStruct->Minutes    = 0U;
  69              		.loc 1 345 0
  70 0006 4371     		strb	r3, [r0, #5]
 346:../system/src/stm32l4-hal-driver/stm32l4xx_ll_rtc.c ****   RTC_TimeStruct->Seconds    = 0U;
  71              		.loc 1 346 0
  72 0008 8371     		strb	r3, [r0, #6]
 347:../system/src/stm32l4-hal-driver/stm32l4xx_ll_rtc.c **** }
  73              		.loc 1 347 0
  74 000a 7047     		bx	lr
  75              		.cfi_endproc
  76              	.LFE361:
  78              		.section	.text.LL_RTC_DATE_StructInit,"ax",%progbits
  79              		.align	1
  80              		.global	LL_RTC_DATE_StructInit
  81              		.syntax unified
  82              		.thumb
  83              		.thumb_func
  84              		.fpu fpv4-sp-d16
  86              	LL_RTC_DATE_StructInit:
  87              	.LFB363:
 348:../system/src/stm32l4-hal-driver/stm32l4xx_ll_rtc.c **** 
 349:../system/src/stm32l4-hal-driver/stm32l4xx_ll_rtc.c **** /**
 350:../system/src/stm32l4-hal-driver/stm32l4xx_ll_rtc.c ****   * @brief  Set the RTC current date.
 351:../system/src/stm32l4-hal-driver/stm32l4xx_ll_rtc.c ****   * @param  RTCx RTC Instance
 352:../system/src/stm32l4-hal-driver/stm32l4xx_ll_rtc.c ****   * @param  RTC_Format This parameter can be one of the following values:
 353:../system/src/stm32l4-hal-driver/stm32l4xx_ll_rtc.c ****   *         @arg @ref LL_RTC_FORMAT_BIN
 354:../system/src/stm32l4-hal-driver/stm32l4xx_ll_rtc.c ****   *         @arg @ref LL_RTC_FORMAT_BCD
 355:../system/src/stm32l4-hal-driver/stm32l4xx_ll_rtc.c ****   * @param  RTC_DateStruct pointer to a RTC_DateTypeDef structure that contains
 356:../system/src/stm32l4-hal-driver/stm32l4xx_ll_rtc.c ****   *                         the date configuration information for the RTC.
 357:../system/src/stm32l4-hal-driver/stm32l4xx_ll_rtc.c ****   * @retval An ErrorStatus enumeration value:
 358:../system/src/stm32l4-hal-driver/stm32l4xx_ll_rtc.c ****   *          - SUCCESS: RTC Day register is configured
 359:../system/src/stm32l4-hal-driver/stm32l4xx_ll_rtc.c ****   *          - ERROR: RTC Day register is not configured
 360:../system/src/stm32l4-hal-driver/stm32l4xx_ll_rtc.c ****   */
 361:../system/src/stm32l4-hal-driver/stm32l4xx_ll_rtc.c **** ErrorStatus LL_RTC_DATE_Init(RTC_TypeDef *RTCx, uint32_t RTC_Format, LL_RTC_DateTypeDef *RTC_DateSt
 362:../system/src/stm32l4-hal-driver/stm32l4xx_ll_rtc.c **** {
 363:../system/src/stm32l4-hal-driver/stm32l4xx_ll_rtc.c ****   ErrorStatus status = ERROR;
 364:../system/src/stm32l4-hal-driver/stm32l4xx_ll_rtc.c **** 
 365:../system/src/stm32l4-hal-driver/stm32l4xx_ll_rtc.c ****   /* Check the parameters */
 366:../system/src/stm32l4-hal-driver/stm32l4xx_ll_rtc.c ****   assert_param(IS_RTC_ALL_INSTANCE(RTCx));
 367:../system/src/stm32l4-hal-driver/stm32l4xx_ll_rtc.c ****   assert_param(IS_LL_RTC_FORMAT(RTC_Format));
 368:../system/src/stm32l4-hal-driver/stm32l4xx_ll_rtc.c **** 
 369:../system/src/stm32l4-hal-driver/stm32l4xx_ll_rtc.c ****   if ((RTC_Format == LL_RTC_FORMAT_BIN) && ((RTC_DateStruct->Month & 0x10U) == 0x10U))
 370:../system/src/stm32l4-hal-driver/stm32l4xx_ll_rtc.c ****   {
 371:../system/src/stm32l4-hal-driver/stm32l4xx_ll_rtc.c ****     RTC_DateStruct->Month = (uint8_t)(((uint32_t) RTC_DateStruct->Month & (uint32_t)~(0x10U)) + 0x0
 372:../system/src/stm32l4-hal-driver/stm32l4xx_ll_rtc.c ****   }
 373:../system/src/stm32l4-hal-driver/stm32l4xx_ll_rtc.c **** 
 374:../system/src/stm32l4-hal-driver/stm32l4xx_ll_rtc.c ****   if (RTC_Format == LL_RTC_FORMAT_BIN)
 375:../system/src/stm32l4-hal-driver/stm32l4xx_ll_rtc.c ****   {
 376:../system/src/stm32l4-hal-driver/stm32l4xx_ll_rtc.c ****     assert_param(IS_LL_RTC_YEAR(RTC_DateStruct->Year));
 377:../system/src/stm32l4-hal-driver/stm32l4xx_ll_rtc.c ****     assert_param(IS_LL_RTC_MONTH(RTC_DateStruct->Month));
 378:../system/src/stm32l4-hal-driver/stm32l4xx_ll_rtc.c ****     assert_param(IS_LL_RTC_DAY(RTC_DateStruct->Day));
 379:../system/src/stm32l4-hal-driver/stm32l4xx_ll_rtc.c ****   }
 380:../system/src/stm32l4-hal-driver/stm32l4xx_ll_rtc.c ****   else
 381:../system/src/stm32l4-hal-driver/stm32l4xx_ll_rtc.c ****   {
 382:../system/src/stm32l4-hal-driver/stm32l4xx_ll_rtc.c ****     assert_param(IS_LL_RTC_YEAR(__LL_RTC_CONVERT_BCD2BIN(RTC_DateStruct->Year)));
 383:../system/src/stm32l4-hal-driver/stm32l4xx_ll_rtc.c ****     assert_param(IS_LL_RTC_MONTH(__LL_RTC_CONVERT_BCD2BIN(RTC_DateStruct->Month)));
 384:../system/src/stm32l4-hal-driver/stm32l4xx_ll_rtc.c ****     assert_param(IS_LL_RTC_DAY(__LL_RTC_CONVERT_BCD2BIN(RTC_DateStruct->Day)));
 385:../system/src/stm32l4-hal-driver/stm32l4xx_ll_rtc.c ****   }
 386:../system/src/stm32l4-hal-driver/stm32l4xx_ll_rtc.c ****   assert_param(IS_LL_RTC_WEEKDAY(RTC_DateStruct->WeekDay));
 387:../system/src/stm32l4-hal-driver/stm32l4xx_ll_rtc.c **** 
 388:../system/src/stm32l4-hal-driver/stm32l4xx_ll_rtc.c ****   /* Disable the write protection for RTC registers */
 389:../system/src/stm32l4-hal-driver/stm32l4xx_ll_rtc.c ****   LL_RTC_DisableWriteProtection(RTCx);
 390:../system/src/stm32l4-hal-driver/stm32l4xx_ll_rtc.c **** 
 391:../system/src/stm32l4-hal-driver/stm32l4xx_ll_rtc.c ****   /* Set Initialization mode */
 392:../system/src/stm32l4-hal-driver/stm32l4xx_ll_rtc.c ****   if (LL_RTC_EnterInitMode(RTCx) != ERROR)
 393:../system/src/stm32l4-hal-driver/stm32l4xx_ll_rtc.c ****   {
 394:../system/src/stm32l4-hal-driver/stm32l4xx_ll_rtc.c ****     /* Check the input parameters format */
 395:../system/src/stm32l4-hal-driver/stm32l4xx_ll_rtc.c ****     if (RTC_Format != LL_RTC_FORMAT_BIN)
 396:../system/src/stm32l4-hal-driver/stm32l4xx_ll_rtc.c ****     {
 397:../system/src/stm32l4-hal-driver/stm32l4xx_ll_rtc.c ****       LL_RTC_DATE_Config(RTCx, RTC_DateStruct->WeekDay, RTC_DateStruct->Day, RTC_DateStruct->Month,
 398:../system/src/stm32l4-hal-driver/stm32l4xx_ll_rtc.c ****     }
 399:../system/src/stm32l4-hal-driver/stm32l4xx_ll_rtc.c ****     else
 400:../system/src/stm32l4-hal-driver/stm32l4xx_ll_rtc.c ****     {
 401:../system/src/stm32l4-hal-driver/stm32l4xx_ll_rtc.c ****       LL_RTC_DATE_Config(RTCx, RTC_DateStruct->WeekDay, __LL_RTC_CONVERT_BIN2BCD(RTC_DateStruct->Da
 402:../system/src/stm32l4-hal-driver/stm32l4xx_ll_rtc.c ****                          __LL_RTC_CONVERT_BIN2BCD(RTC_DateStruct->Month), __LL_RTC_CONVERT_BIN2BCD(
 403:../system/src/stm32l4-hal-driver/stm32l4xx_ll_rtc.c ****     }
 404:../system/src/stm32l4-hal-driver/stm32l4xx_ll_rtc.c **** 
 405:../system/src/stm32l4-hal-driver/stm32l4xx_ll_rtc.c ****     /* Exit Initialization mode */
 406:../system/src/stm32l4-hal-driver/stm32l4xx_ll_rtc.c ****     LL_RTC_DisableInitMode(RTC);
 407:../system/src/stm32l4-hal-driver/stm32l4xx_ll_rtc.c **** 
 408:../system/src/stm32l4-hal-driver/stm32l4xx_ll_rtc.c ****     /* If  RTC_CR_BYPSHAD bit = 0, wait for synchro else this check is not needed */
 409:../system/src/stm32l4-hal-driver/stm32l4xx_ll_rtc.c ****     if (LL_RTC_IsShadowRegBypassEnabled(RTCx) == 0U)
 410:../system/src/stm32l4-hal-driver/stm32l4xx_ll_rtc.c ****     {
 411:../system/src/stm32l4-hal-driver/stm32l4xx_ll_rtc.c ****       status = LL_RTC_WaitForSynchro(RTCx);
 412:../system/src/stm32l4-hal-driver/stm32l4xx_ll_rtc.c ****     }
 413:../system/src/stm32l4-hal-driver/stm32l4xx_ll_rtc.c ****     else
 414:../system/src/stm32l4-hal-driver/stm32l4xx_ll_rtc.c ****     {
 415:../system/src/stm32l4-hal-driver/stm32l4xx_ll_rtc.c ****       status = SUCCESS;
 416:../system/src/stm32l4-hal-driver/stm32l4xx_ll_rtc.c ****     }
 417:../system/src/stm32l4-hal-driver/stm32l4xx_ll_rtc.c ****   }
 418:../system/src/stm32l4-hal-driver/stm32l4xx_ll_rtc.c ****   /* Enable the write protection for RTC registers */
 419:../system/src/stm32l4-hal-driver/stm32l4xx_ll_rtc.c ****   LL_RTC_EnableWriteProtection(RTCx);
 420:../system/src/stm32l4-hal-driver/stm32l4xx_ll_rtc.c **** 
 421:../system/src/stm32l4-hal-driver/stm32l4xx_ll_rtc.c ****   return status;
 422:../system/src/stm32l4-hal-driver/stm32l4xx_ll_rtc.c **** }
 423:../system/src/stm32l4-hal-driver/stm32l4xx_ll_rtc.c **** 
 424:../system/src/stm32l4-hal-driver/stm32l4xx_ll_rtc.c **** /**
 425:../system/src/stm32l4-hal-driver/stm32l4xx_ll_rtc.c ****   * @brief  Set each @ref LL_RTC_DateTypeDef field to default value (date = Monday, January 01 xx00
 426:../system/src/stm32l4-hal-driver/stm32l4xx_ll_rtc.c ****   * @param  RTC_DateStruct pointer to a @ref LL_RTC_DateTypeDef structure which will be initialized
 427:../system/src/stm32l4-hal-driver/stm32l4xx_ll_rtc.c ****   * @retval None
 428:../system/src/stm32l4-hal-driver/stm32l4xx_ll_rtc.c ****   */
 429:../system/src/stm32l4-hal-driver/stm32l4xx_ll_rtc.c **** void LL_RTC_DATE_StructInit(LL_RTC_DateTypeDef *RTC_DateStruct)
 430:../system/src/stm32l4-hal-driver/stm32l4xx_ll_rtc.c **** {
  88              		.loc 1 430 0
  89              		.cfi_startproc
  90              		@ args = 0, pretend = 0, frame = 0
  91              		@ frame_needed = 0, uses_anonymous_args = 0
  92              		@ link register save eliminated.
  93              	.LVL2:
 431:../system/src/stm32l4-hal-driver/stm32l4xx_ll_rtc.c ****   /* Monday, January 01 xx00 */
 432:../system/src/stm32l4-hal-driver/stm32l4xx_ll_rtc.c ****   RTC_DateStruct->WeekDay = LL_RTC_WEEKDAY_MONDAY;
  94              		.loc 1 432 0
  95 0000 0123     		movs	r3, #1
  96 0002 0370     		strb	r3, [r0]
 433:../system/src/stm32l4-hal-driver/stm32l4xx_ll_rtc.c ****   RTC_DateStruct->Day     = 1U;
  97              		.loc 1 433 0
  98 0004 8370     		strb	r3, [r0, #2]
 434:../system/src/stm32l4-hal-driver/stm32l4xx_ll_rtc.c ****   RTC_DateStruct->Month   = LL_RTC_MONTH_JANUARY;
  99              		.loc 1 434 0
 100 0006 4370     		strb	r3, [r0, #1]
 435:../system/src/stm32l4-hal-driver/stm32l4xx_ll_rtc.c ****   RTC_DateStruct->Year    = 0U;
 101              		.loc 1 435 0
 102 0008 0023     		movs	r3, #0
 103 000a C370     		strb	r3, [r0, #3]
 436:../system/src/stm32l4-hal-driver/stm32l4xx_ll_rtc.c **** }
 104              		.loc 1 436 0
 105 000c 7047     		bx	lr
 106              		.cfi_endproc
 107              	.LFE363:
 109              		.section	.text.LL_RTC_ALMA_Init,"ax",%progbits
 110              		.align	1
 111              		.global	LL_RTC_ALMA_Init
 112              		.syntax unified
 113              		.thumb
 114              		.thumb_func
 115              		.fpu fpv4-sp-d16
 117              	LL_RTC_ALMA_Init:
 118              	.LFB364:
 437:../system/src/stm32l4-hal-driver/stm32l4xx_ll_rtc.c **** 
 438:../system/src/stm32l4-hal-driver/stm32l4xx_ll_rtc.c **** /**
 439:../system/src/stm32l4-hal-driver/stm32l4xx_ll_rtc.c ****   * @brief  Set the RTC Alarm A.
 440:../system/src/stm32l4-hal-driver/stm32l4xx_ll_rtc.c ****   * @note   The Alarm register can only be written when the corresponding Alarm
 441:../system/src/stm32l4-hal-driver/stm32l4xx_ll_rtc.c ****   *         is disabled (Use @ref LL_RTC_ALMA_Disable function).
 442:../system/src/stm32l4-hal-driver/stm32l4xx_ll_rtc.c ****   * @param  RTCx RTC Instance
 443:../system/src/stm32l4-hal-driver/stm32l4xx_ll_rtc.c ****   * @param  RTC_Format This parameter can be one of the following values:
 444:../system/src/stm32l4-hal-driver/stm32l4xx_ll_rtc.c ****   *         @arg @ref LL_RTC_FORMAT_BIN
 445:../system/src/stm32l4-hal-driver/stm32l4xx_ll_rtc.c ****   *         @arg @ref LL_RTC_FORMAT_BCD
 446:../system/src/stm32l4-hal-driver/stm32l4xx_ll_rtc.c ****   * @param  RTC_AlarmStruct pointer to a @ref LL_RTC_AlarmTypeDef structure that
 447:../system/src/stm32l4-hal-driver/stm32l4xx_ll_rtc.c ****   *                         contains the alarm configuration parameters.
 448:../system/src/stm32l4-hal-driver/stm32l4xx_ll_rtc.c ****   * @retval An ErrorStatus enumeration value:
 449:../system/src/stm32l4-hal-driver/stm32l4xx_ll_rtc.c ****   *          - SUCCESS: ALARMA registers are configured
 450:../system/src/stm32l4-hal-driver/stm32l4xx_ll_rtc.c ****   *          - ERROR: ALARMA registers are not configured
 451:../system/src/stm32l4-hal-driver/stm32l4xx_ll_rtc.c ****   */
 452:../system/src/stm32l4-hal-driver/stm32l4xx_ll_rtc.c **** ErrorStatus LL_RTC_ALMA_Init(RTC_TypeDef *RTCx, uint32_t RTC_Format, LL_RTC_AlarmTypeDef *RTC_Alarm
 453:../system/src/stm32l4-hal-driver/stm32l4xx_ll_rtc.c **** {
 119              		.loc 1 453 0
 120              		.cfi_startproc
 121              		@ args = 0, pretend = 0, frame = 0
 122              		@ frame_needed = 0, uses_anonymous_args = 0
 123              		@ link register save eliminated.
 124              	.LVL3:
 125 0000 F0B4     		push	{r4, r5, r6, r7}
 126              		.cfi_def_cfa_offset 16
 127              		.cfi_offset 4, -16
 128              		.cfi_offset 5, -12
 129              		.cfi_offset 6, -8
 130              		.cfi_offset 7, -4
 454:../system/src/stm32l4-hal-driver/stm32l4xx_ll_rtc.c ****   /* Check the parameters */
 455:../system/src/stm32l4-hal-driver/stm32l4xx_ll_rtc.c ****   assert_param(IS_RTC_ALL_INSTANCE(RTCx));
 456:../system/src/stm32l4-hal-driver/stm32l4xx_ll_rtc.c ****   assert_param(IS_LL_RTC_FORMAT(RTC_Format));
 457:../system/src/stm32l4-hal-driver/stm32l4xx_ll_rtc.c ****   assert_param(IS_LL_RTC_ALMA_MASK(RTC_AlarmStruct->AlarmMask));
 458:../system/src/stm32l4-hal-driver/stm32l4xx_ll_rtc.c ****   assert_param(IS_LL_RTC_ALMA_DATE_WEEKDAY_SEL(RTC_AlarmStruct->AlarmDateWeekDaySel));
 459:../system/src/stm32l4-hal-driver/stm32l4xx_ll_rtc.c **** 
 460:../system/src/stm32l4-hal-driver/stm32l4xx_ll_rtc.c ****   if (RTC_Format == LL_RTC_FORMAT_BIN)
 131              		.loc 1 460 0
 132 0002 0C46     		mov	r4, r1
 133 0004 C1B9     		cbnz	r1, .L5
 134              	.LVL4:
 135              	.LBB122:
 136              	.LBB123:
 137              		.file 2 "../system/include/stm32l4-hal-driver/stm32l4xx_ll_rtc.h"
   1:../system/include/stm32l4-hal-driver/stm32l4xx_ll_rtc.h **** /**
   2:../system/include/stm32l4-hal-driver/stm32l4xx_ll_rtc.h ****   ******************************************************************************
   3:../system/include/stm32l4-hal-driver/stm32l4xx_ll_rtc.h ****   * @file    stm32l4xx_ll_rtc.h
   4:../system/include/stm32l4-hal-driver/stm32l4xx_ll_rtc.h ****   * @author  MCD Application Team
   5:../system/include/stm32l4-hal-driver/stm32l4xx_ll_rtc.h ****   * @brief   Header file of RTC LL module.
   6:../system/include/stm32l4-hal-driver/stm32l4xx_ll_rtc.h ****   ******************************************************************************
   7:../system/include/stm32l4-hal-driver/stm32l4xx_ll_rtc.h ****   * @attention
   8:../system/include/stm32l4-hal-driver/stm32l4xx_ll_rtc.h ****   *
   9:../system/include/stm32l4-hal-driver/stm32l4xx_ll_rtc.h ****   * <h2><center>&copy; Copyright (c) 2017 STMicroelectronics.
  10:../system/include/stm32l4-hal-driver/stm32l4xx_ll_rtc.h ****   * All rights reserved.</center></h2>
  11:../system/include/stm32l4-hal-driver/stm32l4xx_ll_rtc.h ****   *
  12:../system/include/stm32l4-hal-driver/stm32l4xx_ll_rtc.h ****   * This software component is licensed by ST under BSD 3-Clause license,
  13:../system/include/stm32l4-hal-driver/stm32l4xx_ll_rtc.h ****   * the "License"; You may not use this file except in compliance with the
  14:../system/include/stm32l4-hal-driver/stm32l4xx_ll_rtc.h ****   * License. You may obtain a copy of the License at:
  15:../system/include/stm32l4-hal-driver/stm32l4xx_ll_rtc.h ****   *                        opensource.org/licenses/BSD-3-Clause
  16:../system/include/stm32l4-hal-driver/stm32l4xx_ll_rtc.h ****   *
  17:../system/include/stm32l4-hal-driver/stm32l4xx_ll_rtc.h ****   ******************************************************************************
  18:../system/include/stm32l4-hal-driver/stm32l4xx_ll_rtc.h ****   */
  19:../system/include/stm32l4-hal-driver/stm32l4xx_ll_rtc.h **** 
  20:../system/include/stm32l4-hal-driver/stm32l4xx_ll_rtc.h **** /* Define to prevent recursive inclusion -------------------------------------*/
  21:../system/include/stm32l4-hal-driver/stm32l4xx_ll_rtc.h **** #ifndef STM32L4xx_LL_RTC_H
  22:../system/include/stm32l4-hal-driver/stm32l4xx_ll_rtc.h **** #define STM32L4xx_LL_RTC_H
  23:../system/include/stm32l4-hal-driver/stm32l4xx_ll_rtc.h **** 
  24:../system/include/stm32l4-hal-driver/stm32l4xx_ll_rtc.h **** #ifdef __cplusplus
  25:../system/include/stm32l4-hal-driver/stm32l4xx_ll_rtc.h **** extern "C" {
  26:../system/include/stm32l4-hal-driver/stm32l4xx_ll_rtc.h **** #endif
  27:../system/include/stm32l4-hal-driver/stm32l4xx_ll_rtc.h **** 
  28:../system/include/stm32l4-hal-driver/stm32l4xx_ll_rtc.h **** /* Includes ------------------------------------------------------------------*/
  29:../system/include/stm32l4-hal-driver/stm32l4xx_ll_rtc.h **** #include "stm32l4xx.h"
  30:../system/include/stm32l4-hal-driver/stm32l4xx_ll_rtc.h **** 
  31:../system/include/stm32l4-hal-driver/stm32l4xx_ll_rtc.h **** /** @addtogroup STM32L4xx_LL_Driver
  32:../system/include/stm32l4-hal-driver/stm32l4xx_ll_rtc.h ****   * @{
  33:../system/include/stm32l4-hal-driver/stm32l4xx_ll_rtc.h ****   */
  34:../system/include/stm32l4-hal-driver/stm32l4xx_ll_rtc.h **** 
  35:../system/include/stm32l4-hal-driver/stm32l4xx_ll_rtc.h **** #if defined(RTC)
  36:../system/include/stm32l4-hal-driver/stm32l4xx_ll_rtc.h **** 
  37:../system/include/stm32l4-hal-driver/stm32l4xx_ll_rtc.h **** /** @defgroup RTC_LL RTC
  38:../system/include/stm32l4-hal-driver/stm32l4xx_ll_rtc.h ****   * @{
  39:../system/include/stm32l4-hal-driver/stm32l4xx_ll_rtc.h ****   */
  40:../system/include/stm32l4-hal-driver/stm32l4xx_ll_rtc.h **** 
  41:../system/include/stm32l4-hal-driver/stm32l4xx_ll_rtc.h **** /* Private types -------------------------------------------------------------*/
  42:../system/include/stm32l4-hal-driver/stm32l4xx_ll_rtc.h **** /* Private variables ---------------------------------------------------------*/
  43:../system/include/stm32l4-hal-driver/stm32l4xx_ll_rtc.h **** /* Private constants ---------------------------------------------------------*/
  44:../system/include/stm32l4-hal-driver/stm32l4xx_ll_rtc.h **** /** @defgroup RTC_LL_Private_Constants RTC Private Constants
  45:../system/include/stm32l4-hal-driver/stm32l4xx_ll_rtc.h ****   * @{
  46:../system/include/stm32l4-hal-driver/stm32l4xx_ll_rtc.h ****   */
  47:../system/include/stm32l4-hal-driver/stm32l4xx_ll_rtc.h **** /* Masks Definition */
  48:../system/include/stm32l4-hal-driver/stm32l4xx_ll_rtc.h **** #define RTC_LL_INIT_MASK              0xFFFFFFFFU
  49:../system/include/stm32l4-hal-driver/stm32l4xx_ll_rtc.h **** #define RTC_LL_RSF_MASK               0xFFFFFF5FU
  50:../system/include/stm32l4-hal-driver/stm32l4xx_ll_rtc.h **** 
  51:../system/include/stm32l4-hal-driver/stm32l4xx_ll_rtc.h **** /* Write protection defines */
  52:../system/include/stm32l4-hal-driver/stm32l4xx_ll_rtc.h **** #define RTC_WRITE_PROTECTION_DISABLE  0xFFU
  53:../system/include/stm32l4-hal-driver/stm32l4xx_ll_rtc.h **** #define RTC_WRITE_PROTECTION_ENABLE_1 0xCAU
  54:../system/include/stm32l4-hal-driver/stm32l4xx_ll_rtc.h **** #define RTC_WRITE_PROTECTION_ENABLE_2 0x53U
  55:../system/include/stm32l4-hal-driver/stm32l4xx_ll_rtc.h **** 
  56:../system/include/stm32l4-hal-driver/stm32l4xx_ll_rtc.h **** /* Defines used to combine date & time */
  57:../system/include/stm32l4-hal-driver/stm32l4xx_ll_rtc.h **** #define RTC_OFFSET_WEEKDAY            24U
  58:../system/include/stm32l4-hal-driver/stm32l4xx_ll_rtc.h **** #define RTC_OFFSET_DAY                16U
  59:../system/include/stm32l4-hal-driver/stm32l4xx_ll_rtc.h **** #define RTC_OFFSET_MONTH              8U
  60:../system/include/stm32l4-hal-driver/stm32l4xx_ll_rtc.h **** #define RTC_OFFSET_HOUR               16U
  61:../system/include/stm32l4-hal-driver/stm32l4xx_ll_rtc.h **** #define RTC_OFFSET_MINUTE             8U
  62:../system/include/stm32l4-hal-driver/stm32l4xx_ll_rtc.h **** 
  63:../system/include/stm32l4-hal-driver/stm32l4xx_ll_rtc.h **** /**
  64:../system/include/stm32l4-hal-driver/stm32l4xx_ll_rtc.h ****   * @}
  65:../system/include/stm32l4-hal-driver/stm32l4xx_ll_rtc.h ****   */
  66:../system/include/stm32l4-hal-driver/stm32l4xx_ll_rtc.h **** 
  67:../system/include/stm32l4-hal-driver/stm32l4xx_ll_rtc.h **** /* Private macros ------------------------------------------------------------*/
  68:../system/include/stm32l4-hal-driver/stm32l4xx_ll_rtc.h **** #if defined(USE_FULL_LL_DRIVER)
  69:../system/include/stm32l4-hal-driver/stm32l4xx_ll_rtc.h **** /** @defgroup RTC_LL_Private_Macros RTC Private Macros
  70:../system/include/stm32l4-hal-driver/stm32l4xx_ll_rtc.h ****   * @{
  71:../system/include/stm32l4-hal-driver/stm32l4xx_ll_rtc.h ****   */
  72:../system/include/stm32l4-hal-driver/stm32l4xx_ll_rtc.h **** /**
  73:../system/include/stm32l4-hal-driver/stm32l4xx_ll_rtc.h ****   * @}
  74:../system/include/stm32l4-hal-driver/stm32l4xx_ll_rtc.h ****   */
  75:../system/include/stm32l4-hal-driver/stm32l4xx_ll_rtc.h **** #endif /*USE_FULL_LL_DRIVER*/
  76:../system/include/stm32l4-hal-driver/stm32l4xx_ll_rtc.h **** 
  77:../system/include/stm32l4-hal-driver/stm32l4xx_ll_rtc.h **** /* Exported types ------------------------------------------------------------*/
  78:../system/include/stm32l4-hal-driver/stm32l4xx_ll_rtc.h **** #if defined(USE_FULL_LL_DRIVER)
  79:../system/include/stm32l4-hal-driver/stm32l4xx_ll_rtc.h **** /** @defgroup RTC_LL_ES_INIT RTC Exported Init structure
  80:../system/include/stm32l4-hal-driver/stm32l4xx_ll_rtc.h ****   * @{
  81:../system/include/stm32l4-hal-driver/stm32l4xx_ll_rtc.h ****   */
  82:../system/include/stm32l4-hal-driver/stm32l4xx_ll_rtc.h **** 
  83:../system/include/stm32l4-hal-driver/stm32l4xx_ll_rtc.h **** /**
  84:../system/include/stm32l4-hal-driver/stm32l4xx_ll_rtc.h ****   * @brief  RTC Init structures definition
  85:../system/include/stm32l4-hal-driver/stm32l4xx_ll_rtc.h ****   */
  86:../system/include/stm32l4-hal-driver/stm32l4xx_ll_rtc.h **** typedef struct
  87:../system/include/stm32l4-hal-driver/stm32l4xx_ll_rtc.h **** {
  88:../system/include/stm32l4-hal-driver/stm32l4xx_ll_rtc.h ****   uint32_t HourFormat;   /*!< Specifies the RTC Hours Format.
  89:../system/include/stm32l4-hal-driver/stm32l4xx_ll_rtc.h ****                               This parameter can be a value of @ref RTC_LL_EC_HOURFORMAT
  90:../system/include/stm32l4-hal-driver/stm32l4xx_ll_rtc.h **** 
  91:../system/include/stm32l4-hal-driver/stm32l4xx_ll_rtc.h ****                               This feature can be modified afterwards using unitary function
  92:../system/include/stm32l4-hal-driver/stm32l4xx_ll_rtc.h ****                               @ref LL_RTC_SetHourFormat(). */
  93:../system/include/stm32l4-hal-driver/stm32l4xx_ll_rtc.h **** 
  94:../system/include/stm32l4-hal-driver/stm32l4xx_ll_rtc.h ****   uint32_t AsynchPrescaler; /*!< Specifies the RTC Asynchronous Predivider value.
  95:../system/include/stm32l4-hal-driver/stm32l4xx_ll_rtc.h ****                               This parameter must be a number between Min_Data = 0x00 and Max_Data 
  96:../system/include/stm32l4-hal-driver/stm32l4xx_ll_rtc.h **** 
  97:../system/include/stm32l4-hal-driver/stm32l4xx_ll_rtc.h ****                               This feature can be modified afterwards using unitary function
  98:../system/include/stm32l4-hal-driver/stm32l4xx_ll_rtc.h ****                               @ref LL_RTC_SetAsynchPrescaler(). */
  99:../system/include/stm32l4-hal-driver/stm32l4xx_ll_rtc.h **** 
 100:../system/include/stm32l4-hal-driver/stm32l4xx_ll_rtc.h ****   uint32_t SynchPrescaler;  /*!< Specifies the RTC Synchronous Predivider value.
 101:../system/include/stm32l4-hal-driver/stm32l4xx_ll_rtc.h ****                               This parameter must be a number between Min_Data = 0x00 and Max_Data 
 102:../system/include/stm32l4-hal-driver/stm32l4xx_ll_rtc.h **** 
 103:../system/include/stm32l4-hal-driver/stm32l4xx_ll_rtc.h ****                               This feature can be modified afterwards using unitary function
 104:../system/include/stm32l4-hal-driver/stm32l4xx_ll_rtc.h ****                               @ref LL_RTC_SetSynchPrescaler(). */
 105:../system/include/stm32l4-hal-driver/stm32l4xx_ll_rtc.h **** } LL_RTC_InitTypeDef;
 106:../system/include/stm32l4-hal-driver/stm32l4xx_ll_rtc.h **** 
 107:../system/include/stm32l4-hal-driver/stm32l4xx_ll_rtc.h **** /**
 108:../system/include/stm32l4-hal-driver/stm32l4xx_ll_rtc.h ****   * @brief  RTC Time structure definition
 109:../system/include/stm32l4-hal-driver/stm32l4xx_ll_rtc.h ****   */
 110:../system/include/stm32l4-hal-driver/stm32l4xx_ll_rtc.h **** typedef struct
 111:../system/include/stm32l4-hal-driver/stm32l4xx_ll_rtc.h **** {
 112:../system/include/stm32l4-hal-driver/stm32l4xx_ll_rtc.h ****   uint32_t TimeFormat; /*!< Specifies the RTC AM/PM Time.
 113:../system/include/stm32l4-hal-driver/stm32l4xx_ll_rtc.h ****                             This parameter can be a value of @ref RTC_LL_EC_TIME_FORMAT
 114:../system/include/stm32l4-hal-driver/stm32l4xx_ll_rtc.h **** 
 115:../system/include/stm32l4-hal-driver/stm32l4xx_ll_rtc.h ****                             This feature can be modified afterwards using unitary function @ref LL_
 116:../system/include/stm32l4-hal-driver/stm32l4xx_ll_rtc.h **** 
 117:../system/include/stm32l4-hal-driver/stm32l4xx_ll_rtc.h ****   uint8_t Hours;       /*!< Specifies the RTC Time Hours.
 118:../system/include/stm32l4-hal-driver/stm32l4xx_ll_rtc.h ****                             This parameter must be a number between Min_Data = 0 and Max_Data = 12 
 119:../system/include/stm32l4-hal-driver/stm32l4xx_ll_rtc.h ****                             This parameter must be a number between Min_Data = 0 and Max_Data = 23 
 120:../system/include/stm32l4-hal-driver/stm32l4xx_ll_rtc.h **** 
 121:../system/include/stm32l4-hal-driver/stm32l4xx_ll_rtc.h ****                             This feature can be modified afterwards using unitary function @ref LL_
 122:../system/include/stm32l4-hal-driver/stm32l4xx_ll_rtc.h **** 
 123:../system/include/stm32l4-hal-driver/stm32l4xx_ll_rtc.h ****   uint8_t Minutes;     /*!< Specifies the RTC Time Minutes.
 124:../system/include/stm32l4-hal-driver/stm32l4xx_ll_rtc.h ****                             This parameter must be a number between Min_Data = 0 and Max_Data = 59
 125:../system/include/stm32l4-hal-driver/stm32l4xx_ll_rtc.h **** 
 126:../system/include/stm32l4-hal-driver/stm32l4xx_ll_rtc.h ****                             This feature can be modified afterwards using unitary function @ref LL_
 127:../system/include/stm32l4-hal-driver/stm32l4xx_ll_rtc.h **** 
 128:../system/include/stm32l4-hal-driver/stm32l4xx_ll_rtc.h ****   uint8_t Seconds;     /*!< Specifies the RTC Time Seconds.
 129:../system/include/stm32l4-hal-driver/stm32l4xx_ll_rtc.h ****                             This parameter must be a number between Min_Data = 0 and Max_Data = 59
 130:../system/include/stm32l4-hal-driver/stm32l4xx_ll_rtc.h **** 
 131:../system/include/stm32l4-hal-driver/stm32l4xx_ll_rtc.h ****                             This feature can be modified afterwards using unitary function @ref LL_
 132:../system/include/stm32l4-hal-driver/stm32l4xx_ll_rtc.h **** } LL_RTC_TimeTypeDef;
 133:../system/include/stm32l4-hal-driver/stm32l4xx_ll_rtc.h **** 
 134:../system/include/stm32l4-hal-driver/stm32l4xx_ll_rtc.h **** /**
 135:../system/include/stm32l4-hal-driver/stm32l4xx_ll_rtc.h ****   * @brief  RTC Date structure definition
 136:../system/include/stm32l4-hal-driver/stm32l4xx_ll_rtc.h ****   */
 137:../system/include/stm32l4-hal-driver/stm32l4xx_ll_rtc.h **** typedef struct
 138:../system/include/stm32l4-hal-driver/stm32l4xx_ll_rtc.h **** {
 139:../system/include/stm32l4-hal-driver/stm32l4xx_ll_rtc.h ****   uint8_t WeekDay;  /*!< Specifies the RTC Date WeekDay.
 140:../system/include/stm32l4-hal-driver/stm32l4xx_ll_rtc.h ****                          This parameter can be a value of @ref RTC_LL_EC_WEEKDAY
 141:../system/include/stm32l4-hal-driver/stm32l4xx_ll_rtc.h **** 
 142:../system/include/stm32l4-hal-driver/stm32l4xx_ll_rtc.h ****                          This feature can be modified afterwards using unitary function @ref LL_RTC
 143:../system/include/stm32l4-hal-driver/stm32l4xx_ll_rtc.h **** 
 144:../system/include/stm32l4-hal-driver/stm32l4xx_ll_rtc.h ****   uint8_t Month;    /*!< Specifies the RTC Date Month.
 145:../system/include/stm32l4-hal-driver/stm32l4xx_ll_rtc.h ****                          This parameter can be a value of @ref RTC_LL_EC_MONTH
 146:../system/include/stm32l4-hal-driver/stm32l4xx_ll_rtc.h **** 
 147:../system/include/stm32l4-hal-driver/stm32l4xx_ll_rtc.h ****                          This feature can be modified afterwards using unitary function @ref LL_RTC
 148:../system/include/stm32l4-hal-driver/stm32l4xx_ll_rtc.h **** 
 149:../system/include/stm32l4-hal-driver/stm32l4xx_ll_rtc.h ****   uint8_t Day;      /*!< Specifies the RTC Date Day.
 150:../system/include/stm32l4-hal-driver/stm32l4xx_ll_rtc.h ****                          This parameter must be a number between Min_Data = 1 and Max_Data = 31
 151:../system/include/stm32l4-hal-driver/stm32l4xx_ll_rtc.h **** 
 152:../system/include/stm32l4-hal-driver/stm32l4xx_ll_rtc.h ****                          This feature can be modified afterwards using unitary function @ref LL_RTC
 153:../system/include/stm32l4-hal-driver/stm32l4xx_ll_rtc.h **** 
 154:../system/include/stm32l4-hal-driver/stm32l4xx_ll_rtc.h ****   uint8_t Year;     /*!< Specifies the RTC Date Year.
 155:../system/include/stm32l4-hal-driver/stm32l4xx_ll_rtc.h ****                          This parameter must be a number between Min_Data = 0 and Max_Data = 99
 156:../system/include/stm32l4-hal-driver/stm32l4xx_ll_rtc.h **** 
 157:../system/include/stm32l4-hal-driver/stm32l4xx_ll_rtc.h ****                          This feature can be modified afterwards using unitary function @ref LL_RTC
 158:../system/include/stm32l4-hal-driver/stm32l4xx_ll_rtc.h **** } LL_RTC_DateTypeDef;
 159:../system/include/stm32l4-hal-driver/stm32l4xx_ll_rtc.h **** 
 160:../system/include/stm32l4-hal-driver/stm32l4xx_ll_rtc.h **** /**
 161:../system/include/stm32l4-hal-driver/stm32l4xx_ll_rtc.h ****   * @brief  RTC Alarm structure definition
 162:../system/include/stm32l4-hal-driver/stm32l4xx_ll_rtc.h ****   */
 163:../system/include/stm32l4-hal-driver/stm32l4xx_ll_rtc.h **** typedef struct
 164:../system/include/stm32l4-hal-driver/stm32l4xx_ll_rtc.h **** {
 165:../system/include/stm32l4-hal-driver/stm32l4xx_ll_rtc.h ****   LL_RTC_TimeTypeDef AlarmTime;  /*!< Specifies the RTC Alarm Time members. */
 166:../system/include/stm32l4-hal-driver/stm32l4xx_ll_rtc.h **** 
 167:../system/include/stm32l4-hal-driver/stm32l4xx_ll_rtc.h ****   uint32_t AlarmMask;            /*!< Specifies the RTC Alarm Masks.
 168:../system/include/stm32l4-hal-driver/stm32l4xx_ll_rtc.h ****                                       This parameter can be a value of @ref RTC_LL_EC_ALMA_MASK for
 169:../system/include/stm32l4-hal-driver/stm32l4xx_ll_rtc.h **** 
 170:../system/include/stm32l4-hal-driver/stm32l4xx_ll_rtc.h ****                                       This feature can be modified afterwards using unitary functio
 171:../system/include/stm32l4-hal-driver/stm32l4xx_ll_rtc.h ****                                       or @ref LL_RTC_ALMB_SetMask() for ALARM B
 172:../system/include/stm32l4-hal-driver/stm32l4xx_ll_rtc.h ****                                  */
 173:../system/include/stm32l4-hal-driver/stm32l4xx_ll_rtc.h **** 
 174:../system/include/stm32l4-hal-driver/stm32l4xx_ll_rtc.h ****   uint32_t AlarmDateWeekDaySel;  /*!< Specifies the RTC Alarm is on day or WeekDay.
 175:../system/include/stm32l4-hal-driver/stm32l4xx_ll_rtc.h ****                                       This parameter can be a value of @ref RTC_LL_EC_ALMA_WEEKDAY_
 176:../system/include/stm32l4-hal-driver/stm32l4xx_ll_rtc.h **** 
 177:../system/include/stm32l4-hal-driver/stm32l4xx_ll_rtc.h ****                                       This feature can be modified afterwards using unitary functio
 178:../system/include/stm32l4-hal-driver/stm32l4xx_ll_rtc.h ****                                       for ALARM A or @ref LL_RTC_ALMB_EnableWeekday() or @ref LL_RT
 179:../system/include/stm32l4-hal-driver/stm32l4xx_ll_rtc.h ****                                  */
 180:../system/include/stm32l4-hal-driver/stm32l4xx_ll_rtc.h **** 
 181:../system/include/stm32l4-hal-driver/stm32l4xx_ll_rtc.h ****   uint8_t AlarmDateWeekDay;      /*!< Specifies the RTC Alarm Day/WeekDay.
 182:../system/include/stm32l4-hal-driver/stm32l4xx_ll_rtc.h ****                                       If AlarmDateWeekDaySel set to day, this parameter  must be a 
 183:../system/include/stm32l4-hal-driver/stm32l4xx_ll_rtc.h **** 
 184:../system/include/stm32l4-hal-driver/stm32l4xx_ll_rtc.h ****                                       This feature can be modified afterwards using unitary functio
 185:../system/include/stm32l4-hal-driver/stm32l4xx_ll_rtc.h ****                                       for ALARM A or @ref LL_RTC_ALMB_SetDay() for ALARM B.
 186:../system/include/stm32l4-hal-driver/stm32l4xx_ll_rtc.h **** 
 187:../system/include/stm32l4-hal-driver/stm32l4xx_ll_rtc.h ****                                       If AlarmDateWeekDaySel set to Weekday, this parameter can be 
 188:../system/include/stm32l4-hal-driver/stm32l4xx_ll_rtc.h **** 
 189:../system/include/stm32l4-hal-driver/stm32l4xx_ll_rtc.h ****                                       This feature can be modified afterwards using unitary functio
 190:../system/include/stm32l4-hal-driver/stm32l4xx_ll_rtc.h ****                                       for ALARM A or @ref LL_RTC_ALMB_SetWeekDay() for ALARM B.
 191:../system/include/stm32l4-hal-driver/stm32l4xx_ll_rtc.h ****                                  */
 192:../system/include/stm32l4-hal-driver/stm32l4xx_ll_rtc.h **** } LL_RTC_AlarmTypeDef;
 193:../system/include/stm32l4-hal-driver/stm32l4xx_ll_rtc.h **** 
 194:../system/include/stm32l4-hal-driver/stm32l4xx_ll_rtc.h **** /**
 195:../system/include/stm32l4-hal-driver/stm32l4xx_ll_rtc.h ****   * @}
 196:../system/include/stm32l4-hal-driver/stm32l4xx_ll_rtc.h ****   */
 197:../system/include/stm32l4-hal-driver/stm32l4xx_ll_rtc.h **** #endif /* USE_FULL_LL_DRIVER */
 198:../system/include/stm32l4-hal-driver/stm32l4xx_ll_rtc.h **** 
 199:../system/include/stm32l4-hal-driver/stm32l4xx_ll_rtc.h **** /* Exported constants --------------------------------------------------------*/
 200:../system/include/stm32l4-hal-driver/stm32l4xx_ll_rtc.h **** /** @defgroup RTC_LL_Exported_Constants RTC Exported Constants
 201:../system/include/stm32l4-hal-driver/stm32l4xx_ll_rtc.h ****   * @{
 202:../system/include/stm32l4-hal-driver/stm32l4xx_ll_rtc.h ****   */
 203:../system/include/stm32l4-hal-driver/stm32l4xx_ll_rtc.h **** 
 204:../system/include/stm32l4-hal-driver/stm32l4xx_ll_rtc.h **** #if defined(USE_FULL_LL_DRIVER)
 205:../system/include/stm32l4-hal-driver/stm32l4xx_ll_rtc.h **** /** @defgroup RTC_LL_EC_FORMAT FORMAT
 206:../system/include/stm32l4-hal-driver/stm32l4xx_ll_rtc.h ****   * @{
 207:../system/include/stm32l4-hal-driver/stm32l4xx_ll_rtc.h ****   */
 208:../system/include/stm32l4-hal-driver/stm32l4xx_ll_rtc.h **** #define LL_RTC_FORMAT_BIN                  0x00000000U /*!< Binary data format */
 209:../system/include/stm32l4-hal-driver/stm32l4xx_ll_rtc.h **** #define LL_RTC_FORMAT_BCD                  0x00000001U /*!< BCD data format */
 210:../system/include/stm32l4-hal-driver/stm32l4xx_ll_rtc.h **** /**
 211:../system/include/stm32l4-hal-driver/stm32l4xx_ll_rtc.h ****   * @}
 212:../system/include/stm32l4-hal-driver/stm32l4xx_ll_rtc.h ****   */
 213:../system/include/stm32l4-hal-driver/stm32l4xx_ll_rtc.h **** 
 214:../system/include/stm32l4-hal-driver/stm32l4xx_ll_rtc.h **** /** @defgroup RTC_LL_EC_ALMA_WEEKDAY_SELECTION RTC Alarm A Date WeekDay
 215:../system/include/stm32l4-hal-driver/stm32l4xx_ll_rtc.h ****   * @{
 216:../system/include/stm32l4-hal-driver/stm32l4xx_ll_rtc.h ****   */
 217:../system/include/stm32l4-hal-driver/stm32l4xx_ll_rtc.h **** #define LL_RTC_ALMA_DATEWEEKDAYSEL_DATE    0x00000000U             /*!< Alarm A Date is selected */
 218:../system/include/stm32l4-hal-driver/stm32l4xx_ll_rtc.h **** #define LL_RTC_ALMA_DATEWEEKDAYSEL_WEEKDAY RTC_ALRMAR_WDSEL        /*!< Alarm A WeekDay is selected
 219:../system/include/stm32l4-hal-driver/stm32l4xx_ll_rtc.h **** /**
 220:../system/include/stm32l4-hal-driver/stm32l4xx_ll_rtc.h ****   * @}
 221:../system/include/stm32l4-hal-driver/stm32l4xx_ll_rtc.h ****   */
 222:../system/include/stm32l4-hal-driver/stm32l4xx_ll_rtc.h **** 
 223:../system/include/stm32l4-hal-driver/stm32l4xx_ll_rtc.h **** /** @defgroup RTC_LL_EC_ALMB_WEEKDAY_SELECTION RTC Alarm B Date WeekDay
 224:../system/include/stm32l4-hal-driver/stm32l4xx_ll_rtc.h ****   * @{
 225:../system/include/stm32l4-hal-driver/stm32l4xx_ll_rtc.h ****   */
 226:../system/include/stm32l4-hal-driver/stm32l4xx_ll_rtc.h **** #define LL_RTC_ALMB_DATEWEEKDAYSEL_DATE    0x00000000U             /*!< Alarm B Date is selected */
 227:../system/include/stm32l4-hal-driver/stm32l4xx_ll_rtc.h **** #define LL_RTC_ALMB_DATEWEEKDAYSEL_WEEKDAY RTC_ALRMBR_WDSEL        /*!< Alarm B WeekDay is selected
 228:../system/include/stm32l4-hal-driver/stm32l4xx_ll_rtc.h **** /**
 229:../system/include/stm32l4-hal-driver/stm32l4xx_ll_rtc.h ****   * @}
 230:../system/include/stm32l4-hal-driver/stm32l4xx_ll_rtc.h ****   */
 231:../system/include/stm32l4-hal-driver/stm32l4xx_ll_rtc.h **** 
 232:../system/include/stm32l4-hal-driver/stm32l4xx_ll_rtc.h **** #endif /* USE_FULL_LL_DRIVER */
 233:../system/include/stm32l4-hal-driver/stm32l4xx_ll_rtc.h **** 
 234:../system/include/stm32l4-hal-driver/stm32l4xx_ll_rtc.h **** /** @defgroup RTC_LL_EC_GET_FLAG Get Flags Defines
 235:../system/include/stm32l4-hal-driver/stm32l4xx_ll_rtc.h ****   * @brief    Flags defines which can be used with LL_RTC_ReadReg function
 236:../system/include/stm32l4-hal-driver/stm32l4xx_ll_rtc.h ****   * @{
 237:../system/include/stm32l4-hal-driver/stm32l4xx_ll_rtc.h ****   */
 238:../system/include/stm32l4-hal-driver/stm32l4xx_ll_rtc.h **** #if defined(STM32L412xx) || defined(STM32L422xx) || defined (STM32L4P5xx) || defined (STM32L4Q5xx)
 239:../system/include/stm32l4-hal-driver/stm32l4xx_ll_rtc.h **** #define LL_RTC_SCR_ITSF                    RTC_SCR_CITSF
 240:../system/include/stm32l4-hal-driver/stm32l4xx_ll_rtc.h **** #define LL_RTC_SCR_TSOVF                   RTC_SCR_CTSOVF
 241:../system/include/stm32l4-hal-driver/stm32l4xx_ll_rtc.h **** #define LL_RTC_SCR_TSF                     RTC_SCR_CTSF
 242:../system/include/stm32l4-hal-driver/stm32l4xx_ll_rtc.h **** #define LL_RTC_SCR_WUTF                    RTC_SCR_CWUTF
 243:../system/include/stm32l4-hal-driver/stm32l4xx_ll_rtc.h **** #define LL_RTC_SCR_ALRBF                   RTC_SCR_CALRBF
 244:../system/include/stm32l4-hal-driver/stm32l4xx_ll_rtc.h **** #define LL_RTC_SCR_ALRAF                   RTC_SCR_CALRAF
 245:../system/include/stm32l4-hal-driver/stm32l4xx_ll_rtc.h **** 
 246:../system/include/stm32l4-hal-driver/stm32l4xx_ll_rtc.h **** #define LL_RTC_ICSR_RECALPF                RTC_ICSR_RECALPF
 247:../system/include/stm32l4-hal-driver/stm32l4xx_ll_rtc.h **** #define LL_RTC_ICSR_INITF                  RTC_ICSR_INITF
 248:../system/include/stm32l4-hal-driver/stm32l4xx_ll_rtc.h **** #define LL_RTC_ICSR_RSF                    RTC_ICSR_RSF
 249:../system/include/stm32l4-hal-driver/stm32l4xx_ll_rtc.h **** #define LL_RTC_ICSR_INITS                  RTC_ICSR_INITS
 250:../system/include/stm32l4-hal-driver/stm32l4xx_ll_rtc.h **** #define LL_RTC_ICSR_SHPF                   RTC_ICSR_SHPF
 251:../system/include/stm32l4-hal-driver/stm32l4xx_ll_rtc.h **** #define LL_RTC_ICSR_WUTWF                  RTC_ICSR_WUTWF
 252:../system/include/stm32l4-hal-driver/stm32l4xx_ll_rtc.h **** #else /* #if defined(STM32L412xx) || defined(STM32L422xx) || defined (STM32L4P5xx) || defined (STM3
 253:../system/include/stm32l4-hal-driver/stm32l4xx_ll_rtc.h **** #define LL_RTC_ISR_ITSF                    RTC_ISR_ITSF
 254:../system/include/stm32l4-hal-driver/stm32l4xx_ll_rtc.h **** #define LL_RTC_ISR_RECALPF                 RTC_ISR_RECALPF
 255:../system/include/stm32l4-hal-driver/stm32l4xx_ll_rtc.h **** #define LL_RTC_ISR_TAMP3F                  RTC_ISR_TAMP3F
 256:../system/include/stm32l4-hal-driver/stm32l4xx_ll_rtc.h **** #define LL_RTC_ISR_TAMP2F                  RTC_ISR_TAMP2F
 257:../system/include/stm32l4-hal-driver/stm32l4xx_ll_rtc.h **** #define LL_RTC_ISR_TAMP1F                  RTC_ISR_TAMP1F
 258:../system/include/stm32l4-hal-driver/stm32l4xx_ll_rtc.h **** #define LL_RTC_ISR_TSOVF                   RTC_ISR_TSOVF
 259:../system/include/stm32l4-hal-driver/stm32l4xx_ll_rtc.h **** #define LL_RTC_ISR_TSF                     RTC_ISR_TSF
 260:../system/include/stm32l4-hal-driver/stm32l4xx_ll_rtc.h **** #define LL_RTC_ISR_WUTF                    RTC_ISR_WUTF
 261:../system/include/stm32l4-hal-driver/stm32l4xx_ll_rtc.h **** #define LL_RTC_ISR_ALRBF                   RTC_ISR_ALRBF
 262:../system/include/stm32l4-hal-driver/stm32l4xx_ll_rtc.h **** #define LL_RTC_ISR_ALRAF                   RTC_ISR_ALRAF
 263:../system/include/stm32l4-hal-driver/stm32l4xx_ll_rtc.h **** #define LL_RTC_ISR_INITF                   RTC_ISR_INITF
 264:../system/include/stm32l4-hal-driver/stm32l4xx_ll_rtc.h **** #define LL_RTC_ISR_RSF                     RTC_ISR_RSF
 265:../system/include/stm32l4-hal-driver/stm32l4xx_ll_rtc.h **** #define LL_RTC_ISR_INITS                   RTC_ISR_INITS
 266:../system/include/stm32l4-hal-driver/stm32l4xx_ll_rtc.h **** #define LL_RTC_ISR_SHPF                    RTC_ISR_SHPF
 267:../system/include/stm32l4-hal-driver/stm32l4xx_ll_rtc.h **** #define LL_RTC_ISR_WUTWF                   RTC_ISR_WUTWF
 268:../system/include/stm32l4-hal-driver/stm32l4xx_ll_rtc.h **** #define LL_RTC_ISR_ALRBWF                  RTC_ISR_ALRBWF
 269:../system/include/stm32l4-hal-driver/stm32l4xx_ll_rtc.h **** #define LL_RTC_ISR_ALRAWF                  RTC_ISR_ALRAWF
 270:../system/include/stm32l4-hal-driver/stm32l4xx_ll_rtc.h **** #endif /* #if defined(STM32L412xx) || defined(STM32L422xx) || defined (STM32L4P5xx) || defined (STM
 271:../system/include/stm32l4-hal-driver/stm32l4xx_ll_rtc.h **** /**
 272:../system/include/stm32l4-hal-driver/stm32l4xx_ll_rtc.h ****   * @}
 273:../system/include/stm32l4-hal-driver/stm32l4xx_ll_rtc.h ****   */
 274:../system/include/stm32l4-hal-driver/stm32l4xx_ll_rtc.h **** 
 275:../system/include/stm32l4-hal-driver/stm32l4xx_ll_rtc.h **** /** @defgroup RTC_LL_EC_IT IT Defines
 276:../system/include/stm32l4-hal-driver/stm32l4xx_ll_rtc.h ****   * @brief    IT defines which can be used with LL_RTC_ReadReg and  LL_RTC_WriteReg functions
 277:../system/include/stm32l4-hal-driver/stm32l4xx_ll_rtc.h ****   * @{
 278:../system/include/stm32l4-hal-driver/stm32l4xx_ll_rtc.h ****   */
 279:../system/include/stm32l4-hal-driver/stm32l4xx_ll_rtc.h **** #define LL_RTC_CR_TSIE                     RTC_CR_TSIE
 280:../system/include/stm32l4-hal-driver/stm32l4xx_ll_rtc.h **** #define LL_RTC_CR_WUTIE                    RTC_CR_WUTIE
 281:../system/include/stm32l4-hal-driver/stm32l4xx_ll_rtc.h **** #define LL_RTC_CR_ALRBIE                   RTC_CR_ALRBIE
 282:../system/include/stm32l4-hal-driver/stm32l4xx_ll_rtc.h **** #define LL_RTC_CR_ALRAIE                   RTC_CR_ALRAIE
 283:../system/include/stm32l4-hal-driver/stm32l4xx_ll_rtc.h **** #if defined(STM32L412xx) || defined(STM32L422xx) || defined (STM32L4P5xx) || defined (STM32L4Q5xx)
 284:../system/include/stm32l4-hal-driver/stm32l4xx_ll_rtc.h **** #else /* #if defined(STM32L412xx) || defined(STM32L422xx) || defined (STM32L4P5xx) || defined (STM3
 285:../system/include/stm32l4-hal-driver/stm32l4xx_ll_rtc.h **** #define LL_RTC_TAMPCR_TAMP3IE              RTC_TAMPCR_TAMP3IE
 286:../system/include/stm32l4-hal-driver/stm32l4xx_ll_rtc.h **** #define LL_RTC_TAMPCR_TAMP2IE              RTC_TAMPCR_TAMP2IE
 287:../system/include/stm32l4-hal-driver/stm32l4xx_ll_rtc.h **** #define LL_RTC_TAMPCR_TAMP1IE              RTC_TAMPCR_TAMP1IE
 288:../system/include/stm32l4-hal-driver/stm32l4xx_ll_rtc.h **** #define LL_RTC_TAMPCR_TAMPIE               RTC_TAMPCR_TAMPIE
 289:../system/include/stm32l4-hal-driver/stm32l4xx_ll_rtc.h **** #endif /* #if defined(STM32L412xx) || defined(STM32L422xx) || defined (STM32L4P5xx) || defined (STM
 290:../system/include/stm32l4-hal-driver/stm32l4xx_ll_rtc.h **** /**
 291:../system/include/stm32l4-hal-driver/stm32l4xx_ll_rtc.h ****   * @}
 292:../system/include/stm32l4-hal-driver/stm32l4xx_ll_rtc.h ****   */
 293:../system/include/stm32l4-hal-driver/stm32l4xx_ll_rtc.h **** 
 294:../system/include/stm32l4-hal-driver/stm32l4xx_ll_rtc.h **** /** @defgroup RTC_LL_EC_WEEKDAY  WEEK DAY
 295:../system/include/stm32l4-hal-driver/stm32l4xx_ll_rtc.h ****   * @{
 296:../system/include/stm32l4-hal-driver/stm32l4xx_ll_rtc.h ****   */
 297:../system/include/stm32l4-hal-driver/stm32l4xx_ll_rtc.h **** #define LL_RTC_WEEKDAY_MONDAY              (uint8_t)0x01 /*!< Monday    */
 298:../system/include/stm32l4-hal-driver/stm32l4xx_ll_rtc.h **** #define LL_RTC_WEEKDAY_TUESDAY             (uint8_t)0x02 /*!< Tuesday   */
 299:../system/include/stm32l4-hal-driver/stm32l4xx_ll_rtc.h **** #define LL_RTC_WEEKDAY_WEDNESDAY           (uint8_t)0x03 /*!< Wednesday */
 300:../system/include/stm32l4-hal-driver/stm32l4xx_ll_rtc.h **** #define LL_RTC_WEEKDAY_THURSDAY            (uint8_t)0x04 /*!< Thrusday  */
 301:../system/include/stm32l4-hal-driver/stm32l4xx_ll_rtc.h **** #define LL_RTC_WEEKDAY_FRIDAY              (uint8_t)0x05 /*!< Friday    */
 302:../system/include/stm32l4-hal-driver/stm32l4xx_ll_rtc.h **** #define LL_RTC_WEEKDAY_SATURDAY            (uint8_t)0x06 /*!< Saturday  */
 303:../system/include/stm32l4-hal-driver/stm32l4xx_ll_rtc.h **** #define LL_RTC_WEEKDAY_SUNDAY              (uint8_t)0x07 /*!< Sunday    */
 304:../system/include/stm32l4-hal-driver/stm32l4xx_ll_rtc.h **** /**
 305:../system/include/stm32l4-hal-driver/stm32l4xx_ll_rtc.h ****   * @}
 306:../system/include/stm32l4-hal-driver/stm32l4xx_ll_rtc.h ****   */
 307:../system/include/stm32l4-hal-driver/stm32l4xx_ll_rtc.h **** 
 308:../system/include/stm32l4-hal-driver/stm32l4xx_ll_rtc.h **** /** @defgroup RTC_LL_EC_MONTH  MONTH
 309:../system/include/stm32l4-hal-driver/stm32l4xx_ll_rtc.h ****   * @{
 310:../system/include/stm32l4-hal-driver/stm32l4xx_ll_rtc.h ****   */
 311:../system/include/stm32l4-hal-driver/stm32l4xx_ll_rtc.h **** #define LL_RTC_MONTH_JANUARY               (uint8_t)0x01  /*!< January   */
 312:../system/include/stm32l4-hal-driver/stm32l4xx_ll_rtc.h **** #define LL_RTC_MONTH_FEBRUARY              (uint8_t)0x02  /*!< February  */
 313:../system/include/stm32l4-hal-driver/stm32l4xx_ll_rtc.h **** #define LL_RTC_MONTH_MARCH                 (uint8_t)0x03  /*!< March     */
 314:../system/include/stm32l4-hal-driver/stm32l4xx_ll_rtc.h **** #define LL_RTC_MONTH_APRIL                 (uint8_t)0x04  /*!< April     */
 315:../system/include/stm32l4-hal-driver/stm32l4xx_ll_rtc.h **** #define LL_RTC_MONTH_MAY                   (uint8_t)0x05  /*!< May       */
 316:../system/include/stm32l4-hal-driver/stm32l4xx_ll_rtc.h **** #define LL_RTC_MONTH_JUNE                  (uint8_t)0x06  /*!< June      */
 317:../system/include/stm32l4-hal-driver/stm32l4xx_ll_rtc.h **** #define LL_RTC_MONTH_JULY                  (uint8_t)0x07  /*!< July      */
 318:../system/include/stm32l4-hal-driver/stm32l4xx_ll_rtc.h **** #define LL_RTC_MONTH_AUGUST                (uint8_t)0x08  /*!< August    */
 319:../system/include/stm32l4-hal-driver/stm32l4xx_ll_rtc.h **** #define LL_RTC_MONTH_SEPTEMBER             (uint8_t)0x09  /*!< September */
 320:../system/include/stm32l4-hal-driver/stm32l4xx_ll_rtc.h **** #define LL_RTC_MONTH_OCTOBER               (uint8_t)0x10  /*!< October   */
 321:../system/include/stm32l4-hal-driver/stm32l4xx_ll_rtc.h **** #define LL_RTC_MONTH_NOVEMBER              (uint8_t)0x11  /*!< November  */
 322:../system/include/stm32l4-hal-driver/stm32l4xx_ll_rtc.h **** #define LL_RTC_MONTH_DECEMBER              (uint8_t)0x12  /*!< December  */
 323:../system/include/stm32l4-hal-driver/stm32l4xx_ll_rtc.h **** /**
 324:../system/include/stm32l4-hal-driver/stm32l4xx_ll_rtc.h ****   * @}
 325:../system/include/stm32l4-hal-driver/stm32l4xx_ll_rtc.h ****   */
 326:../system/include/stm32l4-hal-driver/stm32l4xx_ll_rtc.h **** 
 327:../system/include/stm32l4-hal-driver/stm32l4xx_ll_rtc.h **** /** @defgroup RTC_LL_EC_HOURFORMAT  HOUR FORMAT
 328:../system/include/stm32l4-hal-driver/stm32l4xx_ll_rtc.h ****   * @{
 329:../system/include/stm32l4-hal-driver/stm32l4xx_ll_rtc.h ****   */
 330:../system/include/stm32l4-hal-driver/stm32l4xx_ll_rtc.h **** #define LL_RTC_HOURFORMAT_24HOUR           0x00000000U           /*!< 24 hour/day format */
 331:../system/include/stm32l4-hal-driver/stm32l4xx_ll_rtc.h **** #define LL_RTC_HOURFORMAT_AMPM             RTC_CR_FMT            /*!< AM/PM hour format */
 332:../system/include/stm32l4-hal-driver/stm32l4xx_ll_rtc.h **** /**
 333:../system/include/stm32l4-hal-driver/stm32l4xx_ll_rtc.h ****   * @}
 334:../system/include/stm32l4-hal-driver/stm32l4xx_ll_rtc.h ****   */
 335:../system/include/stm32l4-hal-driver/stm32l4xx_ll_rtc.h **** 
 336:../system/include/stm32l4-hal-driver/stm32l4xx_ll_rtc.h **** /** @defgroup RTC_LL_EC_ALARMOUT  ALARM OUTPUT
 337:../system/include/stm32l4-hal-driver/stm32l4xx_ll_rtc.h ****   * @{
 338:../system/include/stm32l4-hal-driver/stm32l4xx_ll_rtc.h ****   */
 339:../system/include/stm32l4-hal-driver/stm32l4xx_ll_rtc.h **** #define LL_RTC_ALARMOUT_DISABLE            0x00000000U             /*!< Output disabled */
 340:../system/include/stm32l4-hal-driver/stm32l4xx_ll_rtc.h **** #define LL_RTC_ALARMOUT_ALMA               RTC_CR_OSEL_0           /*!< Alarm A output enabled */
 341:../system/include/stm32l4-hal-driver/stm32l4xx_ll_rtc.h **** #define LL_RTC_ALARMOUT_ALMB               RTC_CR_OSEL_1           /*!< Alarm B output enabled */
 342:../system/include/stm32l4-hal-driver/stm32l4xx_ll_rtc.h **** #define LL_RTC_ALARMOUT_WAKEUP             RTC_CR_OSEL             /*!< Wakeup output enabled */
 343:../system/include/stm32l4-hal-driver/stm32l4xx_ll_rtc.h **** /**
 344:../system/include/stm32l4-hal-driver/stm32l4xx_ll_rtc.h ****   * @}
 345:../system/include/stm32l4-hal-driver/stm32l4xx_ll_rtc.h ****   */
 346:../system/include/stm32l4-hal-driver/stm32l4xx_ll_rtc.h **** 
 347:../system/include/stm32l4-hal-driver/stm32l4xx_ll_rtc.h **** /** @defgroup RTC_LL_EC_ALARM_OUTPUTTYPE  ALARM OUTPUT TYPE
 348:../system/include/stm32l4-hal-driver/stm32l4xx_ll_rtc.h ****   * @{
 349:../system/include/stm32l4-hal-driver/stm32l4xx_ll_rtc.h ****   */
 350:../system/include/stm32l4-hal-driver/stm32l4xx_ll_rtc.h **** #if defined(STM32L412xx) || defined(STM32L422xx) || defined (STM32L4P5xx) || defined (STM32L4Q5xx)
 351:../system/include/stm32l4-hal-driver/stm32l4xx_ll_rtc.h **** #define LL_RTC_ALARM_OUTPUTTYPE_OPENDRAIN  RTC_CR_TAMPALRM_TYPE   /*!< RTC_ALARM is open-drain outp
 352:../system/include/stm32l4-hal-driver/stm32l4xx_ll_rtc.h **** #define LL_RTC_ALARM_OUTPUTTYPE_PUSHPULL   0x00000000U            /*!< RTC_ALARM is push-pull outpu
 353:../system/include/stm32l4-hal-driver/stm32l4xx_ll_rtc.h **** #else /* #if defined(STM32L412xx) || defined(STM32L422xx) || defined (STM32L4P5xx) || defined (STM3
 354:../system/include/stm32l4-hal-driver/stm32l4xx_ll_rtc.h **** #define LL_RTC_ALARM_OUTPUTTYPE_OPENDRAIN  0x00000000U            /*!< RTC_ALARM is open-drain outp
 355:../system/include/stm32l4-hal-driver/stm32l4xx_ll_rtc.h **** #define LL_RTC_ALARM_OUTPUTTYPE_PUSHPULL   RTC_OR_ALARMOUTTYPE    /*!< RTC_ALARM, when mapped on PC
 356:../system/include/stm32l4-hal-driver/stm32l4xx_ll_rtc.h **** #endif /* #if defined(STM32L412xx) || defined(STM32L422xx) || defined (STM32L4P5xx) || defined (STM
 357:../system/include/stm32l4-hal-driver/stm32l4xx_ll_rtc.h **** /**
 358:../system/include/stm32l4-hal-driver/stm32l4xx_ll_rtc.h ****   * @}
 359:../system/include/stm32l4-hal-driver/stm32l4xx_ll_rtc.h ****   */
 360:../system/include/stm32l4-hal-driver/stm32l4xx_ll_rtc.h **** 
 361:../system/include/stm32l4-hal-driver/stm32l4xx_ll_rtc.h **** /** @defgroup RTC_LL_EC_OUTPUTPOLARITY_PIN  OUTPUT POLARITY PIN
 362:../system/include/stm32l4-hal-driver/stm32l4xx_ll_rtc.h ****   * @{
 363:../system/include/stm32l4-hal-driver/stm32l4xx_ll_rtc.h ****   */
 364:../system/include/stm32l4-hal-driver/stm32l4xx_ll_rtc.h **** #define LL_RTC_OUTPUTPOLARITY_PIN_HIGH     0x00000000U           /*!< Pin is high when ALRAF/ALRBF/
 365:../system/include/stm32l4-hal-driver/stm32l4xx_ll_rtc.h **** #define LL_RTC_OUTPUTPOLARITY_PIN_LOW      RTC_CR_POL            /*!< Pin is low when ALRAF/ALRBF/W
 366:../system/include/stm32l4-hal-driver/stm32l4xx_ll_rtc.h **** /**
 367:../system/include/stm32l4-hal-driver/stm32l4xx_ll_rtc.h ****   * @}
 368:../system/include/stm32l4-hal-driver/stm32l4xx_ll_rtc.h ****   */
 369:../system/include/stm32l4-hal-driver/stm32l4xx_ll_rtc.h **** 
 370:../system/include/stm32l4-hal-driver/stm32l4xx_ll_rtc.h **** /** @defgroup RTC_LL_EC_TIME_FORMAT TIME FORMAT
 371:../system/include/stm32l4-hal-driver/stm32l4xx_ll_rtc.h ****   * @{
 372:../system/include/stm32l4-hal-driver/stm32l4xx_ll_rtc.h ****   */
 373:../system/include/stm32l4-hal-driver/stm32l4xx_ll_rtc.h **** #define LL_RTC_TIME_FORMAT_AM_OR_24        0x00000000U           /*!< AM or 24-hour format */
 374:../system/include/stm32l4-hal-driver/stm32l4xx_ll_rtc.h **** #define LL_RTC_TIME_FORMAT_PM              RTC_TR_PM             /*!< PM */
 375:../system/include/stm32l4-hal-driver/stm32l4xx_ll_rtc.h **** /**
 376:../system/include/stm32l4-hal-driver/stm32l4xx_ll_rtc.h ****   * @}
 377:../system/include/stm32l4-hal-driver/stm32l4xx_ll_rtc.h ****   */
 378:../system/include/stm32l4-hal-driver/stm32l4xx_ll_rtc.h **** 
 379:../system/include/stm32l4-hal-driver/stm32l4xx_ll_rtc.h **** /** @defgroup RTC_LL_EC_SHIFT_SECOND  SHIFT SECOND
 380:../system/include/stm32l4-hal-driver/stm32l4xx_ll_rtc.h ****   * @{
 381:../system/include/stm32l4-hal-driver/stm32l4xx_ll_rtc.h ****   */
 382:../system/include/stm32l4-hal-driver/stm32l4xx_ll_rtc.h **** #define LL_RTC_SHIFT_SECOND_DELAY          0x00000000U           /* Delay (seconds) = SUBFS / (PRED
 383:../system/include/stm32l4-hal-driver/stm32l4xx_ll_rtc.h **** #define LL_RTC_SHIFT_SECOND_ADVANCE        RTC_SHIFTR_ADD1S      /* Advance (seconds) = (1 - (SUBFS
 384:../system/include/stm32l4-hal-driver/stm32l4xx_ll_rtc.h **** /**
 385:../system/include/stm32l4-hal-driver/stm32l4xx_ll_rtc.h ****   * @}
 386:../system/include/stm32l4-hal-driver/stm32l4xx_ll_rtc.h ****   */
 387:../system/include/stm32l4-hal-driver/stm32l4xx_ll_rtc.h **** 
 388:../system/include/stm32l4-hal-driver/stm32l4xx_ll_rtc.h **** /** @defgroup RTC_LL_EC_ALMA_MASK  ALARMA MASK
 389:../system/include/stm32l4-hal-driver/stm32l4xx_ll_rtc.h ****   * @{
 390:../system/include/stm32l4-hal-driver/stm32l4xx_ll_rtc.h ****   */
 391:../system/include/stm32l4-hal-driver/stm32l4xx_ll_rtc.h **** #define LL_RTC_ALMA_MASK_NONE              0x00000000U             /*!< No masks applied on Alarm A
 392:../system/include/stm32l4-hal-driver/stm32l4xx_ll_rtc.h **** #define LL_RTC_ALMA_MASK_DATEWEEKDAY       RTC_ALRMAR_MSK4         /*!< Date/day do not care in Ala
 393:../system/include/stm32l4-hal-driver/stm32l4xx_ll_rtc.h **** #define LL_RTC_ALMA_MASK_HOURS             RTC_ALRMAR_MSK3         /*!< Hours do not care in Alarm 
 394:../system/include/stm32l4-hal-driver/stm32l4xx_ll_rtc.h **** #define LL_RTC_ALMA_MASK_MINUTES           RTC_ALRMAR_MSK2         /*!< Minutes do not care in Alar
 395:../system/include/stm32l4-hal-driver/stm32l4xx_ll_rtc.h **** #define LL_RTC_ALMA_MASK_SECONDS           RTC_ALRMAR_MSK1         /*!< Seconds do not care in Alar
 396:../system/include/stm32l4-hal-driver/stm32l4xx_ll_rtc.h **** #define LL_RTC_ALMA_MASK_ALL               (RTC_ALRMAR_MSK4 | RTC_ALRMAR_MSK3 | RTC_ALRMAR_MSK2 | R
 397:../system/include/stm32l4-hal-driver/stm32l4xx_ll_rtc.h **** /**
 398:../system/include/stm32l4-hal-driver/stm32l4xx_ll_rtc.h ****   * @}
 399:../system/include/stm32l4-hal-driver/stm32l4xx_ll_rtc.h ****   */
 400:../system/include/stm32l4-hal-driver/stm32l4xx_ll_rtc.h **** 
 401:../system/include/stm32l4-hal-driver/stm32l4xx_ll_rtc.h **** /** @defgroup RTC_LL_EC_ALMA_TIME_FORMAT  ALARMA TIME FORMAT
 402:../system/include/stm32l4-hal-driver/stm32l4xx_ll_rtc.h ****   * @{
 403:../system/include/stm32l4-hal-driver/stm32l4xx_ll_rtc.h ****   */
 404:../system/include/stm32l4-hal-driver/stm32l4xx_ll_rtc.h **** #define LL_RTC_ALMA_TIME_FORMAT_AM         0x00000000U           /*!< AM or 24-hour format */
 405:../system/include/stm32l4-hal-driver/stm32l4xx_ll_rtc.h **** #define LL_RTC_ALMA_TIME_FORMAT_PM         RTC_ALRMAR_PM         /*!< PM */
 406:../system/include/stm32l4-hal-driver/stm32l4xx_ll_rtc.h **** /**
 407:../system/include/stm32l4-hal-driver/stm32l4xx_ll_rtc.h ****   * @}
 408:../system/include/stm32l4-hal-driver/stm32l4xx_ll_rtc.h ****   */
 409:../system/include/stm32l4-hal-driver/stm32l4xx_ll_rtc.h **** 
 410:../system/include/stm32l4-hal-driver/stm32l4xx_ll_rtc.h **** #if defined (STM32L4P5xx) || defined (STM32L4Q5xx)
 411:../system/include/stm32l4-hal-driver/stm32l4xx_ll_rtc.h **** /** @defgroup RTC_ALMA_SUBSECONDBIN_AUTOCLR  RTCEx_AlarmA_Sub_Seconds_binary_Clear_Definitions RTC 
 412:../system/include/stm32l4-hal-driver/stm32l4xx_ll_rtc.h ****   * @{
 413:../system/include/stm32l4-hal-driver/stm32l4xx_ll_rtc.h ****   */
 414:../system/include/stm32l4-hal-driver/stm32l4xx_ll_rtc.h **** #define LL_RTC_ALMA_SUBSECONDBIN_AUTOCLR_NO    0UL                  /*!<  The synchronous binary co
 415:../system/include/stm32l4-hal-driver/stm32l4xx_ll_rtc.h **** #define LL_RTC_ALMA_SUBSECONDBIN_AUTOCLR_YES   RTC_ALRMASSR_SSCLR   /*!<  The synchronous binary co
 416:../system/include/stm32l4-hal-driver/stm32l4xx_ll_rtc.h ****                                                                           RTC_ALRMABINR -> SS[31:0]
 417:../system/include/stm32l4-hal-driver/stm32l4xx_ll_rtc.h ****                                                                           when reaching RTC_ALRMABI
 418:../system/include/stm32l4-hal-driver/stm32l4xx_ll_rtc.h **** /**
 419:../system/include/stm32l4-hal-driver/stm32l4xx_ll_rtc.h ****   * @}
 420:../system/include/stm32l4-hal-driver/stm32l4xx_ll_rtc.h ****   */
 421:../system/include/stm32l4-hal-driver/stm32l4xx_ll_rtc.h **** #endif /* #if defined (STM32L4P5xx) || defined (STM32L4Q5xx) */
 422:../system/include/stm32l4-hal-driver/stm32l4xx_ll_rtc.h **** 
 423:../system/include/stm32l4-hal-driver/stm32l4xx_ll_rtc.h **** /** @defgroup RTC_LL_EC_ALMB_MASK  ALARMB MASK
 424:../system/include/stm32l4-hal-driver/stm32l4xx_ll_rtc.h ****   * @{
 425:../system/include/stm32l4-hal-driver/stm32l4xx_ll_rtc.h ****   */
 426:../system/include/stm32l4-hal-driver/stm32l4xx_ll_rtc.h **** #define LL_RTC_ALMB_MASK_NONE              0x00000000U             /*!< No masks applied on Alarm B
 427:../system/include/stm32l4-hal-driver/stm32l4xx_ll_rtc.h **** #define LL_RTC_ALMB_MASK_DATEWEEKDAY       RTC_ALRMBR_MSK4         /*!< Date/day do not care in Ala
 428:../system/include/stm32l4-hal-driver/stm32l4xx_ll_rtc.h **** #define LL_RTC_ALMB_MASK_HOURS             RTC_ALRMBR_MSK3         /*!< Hours do not care in Alarm 
 429:../system/include/stm32l4-hal-driver/stm32l4xx_ll_rtc.h **** #define LL_RTC_ALMB_MASK_MINUTES           RTC_ALRMBR_MSK2         /*!< Minutes do not care in Alar
 430:../system/include/stm32l4-hal-driver/stm32l4xx_ll_rtc.h **** #define LL_RTC_ALMB_MASK_SECONDS           RTC_ALRMBR_MSK1         /*!< Seconds do not care in Alar
 431:../system/include/stm32l4-hal-driver/stm32l4xx_ll_rtc.h **** #define LL_RTC_ALMB_MASK_ALL               (RTC_ALRMBR_MSK4 | RTC_ALRMBR_MSK3 | RTC_ALRMBR_MSK2 | R
 432:../system/include/stm32l4-hal-driver/stm32l4xx_ll_rtc.h **** /**
 433:../system/include/stm32l4-hal-driver/stm32l4xx_ll_rtc.h ****   * @}
 434:../system/include/stm32l4-hal-driver/stm32l4xx_ll_rtc.h ****   */
 435:../system/include/stm32l4-hal-driver/stm32l4xx_ll_rtc.h **** 
 436:../system/include/stm32l4-hal-driver/stm32l4xx_ll_rtc.h **** /** @defgroup RTC_LL_EC_ALMB_TIME_FORMAT  ALARMB TIME FORMAT
 437:../system/include/stm32l4-hal-driver/stm32l4xx_ll_rtc.h ****   * @{
 438:../system/include/stm32l4-hal-driver/stm32l4xx_ll_rtc.h ****   */
 439:../system/include/stm32l4-hal-driver/stm32l4xx_ll_rtc.h **** #define LL_RTC_ALMB_TIME_FORMAT_AM         0x00000000U           /*!< AM or 24-hour format */
 440:../system/include/stm32l4-hal-driver/stm32l4xx_ll_rtc.h **** #define LL_RTC_ALMB_TIME_FORMAT_PM         RTC_ALRMBR_PM         /*!< PM */
 441:../system/include/stm32l4-hal-driver/stm32l4xx_ll_rtc.h **** /**
 442:../system/include/stm32l4-hal-driver/stm32l4xx_ll_rtc.h ****   * @}
 443:../system/include/stm32l4-hal-driver/stm32l4xx_ll_rtc.h ****   */
 444:../system/include/stm32l4-hal-driver/stm32l4xx_ll_rtc.h **** 
 445:../system/include/stm32l4-hal-driver/stm32l4xx_ll_rtc.h **** #if defined (STM32L4P5xx) || defined (STM32L4Q5xx)
 446:../system/include/stm32l4-hal-driver/stm32l4xx_ll_rtc.h **** /** @defgroup RTC_ALMB_SUBSECONDBIN_AUTOCLR  RTCEx_AlarmB_Sub_Seconds_binary_Clear_Definitions RTC 
 447:../system/include/stm32l4-hal-driver/stm32l4xx_ll_rtc.h ****   * @{
 448:../system/include/stm32l4-hal-driver/stm32l4xx_ll_rtc.h ****   */
 449:../system/include/stm32l4-hal-driver/stm32l4xx_ll_rtc.h **** #define LL_RTC_ALMB_SUBSECONDBIN_AUTOCLR_NO    0UL                  /*!<  The synchronous binary co
 450:../system/include/stm32l4-hal-driver/stm32l4xx_ll_rtc.h **** #define LL_RTC_ALMB_SUBSECONDBIN_AUTOCLR_YES   RTC_ALRMBSSR_SSCLR   /*!<  The synchronous binary co
 451:../system/include/stm32l4-hal-driver/stm32l4xx_ll_rtc.h ****                                                                           RTC_ALRMABINR -> SS[31:0]
 452:../system/include/stm32l4-hal-driver/stm32l4xx_ll_rtc.h ****                                                                           when reaching RTC_ALRMABI
 453:../system/include/stm32l4-hal-driver/stm32l4xx_ll_rtc.h **** /**
 454:../system/include/stm32l4-hal-driver/stm32l4xx_ll_rtc.h ****   * @}
 455:../system/include/stm32l4-hal-driver/stm32l4xx_ll_rtc.h ****   */
 456:../system/include/stm32l4-hal-driver/stm32l4xx_ll_rtc.h **** 
 457:../system/include/stm32l4-hal-driver/stm32l4xx_ll_rtc.h **** /** @defgroup RTC_ALMB_FLAG_AUTOCLR  RTCEx_Alarm_Flag_Clear_Definitions RTC Alarm Flag auto clear D
 458:../system/include/stm32l4-hal-driver/stm32l4xx_ll_rtc.h ****   * @note   Bit is write-protected. @ref LL_RTC_DisableWriteProtection function should be called be
 459:../system/include/stm32l4-hal-driver/stm32l4xx_ll_rtc.h ****   * @{
 460:../system/include/stm32l4-hal-driver/stm32l4xx_ll_rtc.h ****   */
 461:../system/include/stm32l4-hal-driver/stm32l4xx_ll_rtc.h **** #define LL_RTC_ALMB_FLAG_AUTOCLR_NO    0UL                  /*!<  */
 462:../system/include/stm32l4-hal-driver/stm32l4xx_ll_rtc.h **** #define LL_RTC_ALMB_FLAG_AUTOCLR_YES   RTC_CR_ALRBMSK       /*!<  */
 463:../system/include/stm32l4-hal-driver/stm32l4xx_ll_rtc.h **** /**
 464:../system/include/stm32l4-hal-driver/stm32l4xx_ll_rtc.h ****   * @}
 465:../system/include/stm32l4-hal-driver/stm32l4xx_ll_rtc.h ****   */
 466:../system/include/stm32l4-hal-driver/stm32l4xx_ll_rtc.h **** #endif /* #if defined (STM32L4P5xx) || defined (STM32L4Q5xx) */
 467:../system/include/stm32l4-hal-driver/stm32l4xx_ll_rtc.h **** 
 468:../system/include/stm32l4-hal-driver/stm32l4xx_ll_rtc.h **** /** @defgroup RTC_LL_EC_TIMESTAMP_EDGE  TIMESTAMP EDGE
 469:../system/include/stm32l4-hal-driver/stm32l4xx_ll_rtc.h ****   * @{
 470:../system/include/stm32l4-hal-driver/stm32l4xx_ll_rtc.h ****   */
 471:../system/include/stm32l4-hal-driver/stm32l4xx_ll_rtc.h **** #define LL_RTC_TIMESTAMP_EDGE_RISING       0x00000000U           /*!< RTC_TS input rising edge gene
 472:../system/include/stm32l4-hal-driver/stm32l4xx_ll_rtc.h **** #define LL_RTC_TIMESTAMP_EDGE_FALLING      RTC_CR_TSEDGE         /*!< RTC_TS input falling edge gen
 473:../system/include/stm32l4-hal-driver/stm32l4xx_ll_rtc.h **** /**
 474:../system/include/stm32l4-hal-driver/stm32l4xx_ll_rtc.h ****   * @}
 475:../system/include/stm32l4-hal-driver/stm32l4xx_ll_rtc.h ****   */
 476:../system/include/stm32l4-hal-driver/stm32l4xx_ll_rtc.h **** 
 477:../system/include/stm32l4-hal-driver/stm32l4xx_ll_rtc.h **** /** @defgroup RTC_LL_EC_TS_TIME_FORMAT  TIMESTAMP TIME FORMAT
 478:../system/include/stm32l4-hal-driver/stm32l4xx_ll_rtc.h ****   * @{
 479:../system/include/stm32l4-hal-driver/stm32l4xx_ll_rtc.h ****   */
 480:../system/include/stm32l4-hal-driver/stm32l4xx_ll_rtc.h **** #define LL_RTC_TS_TIME_FORMAT_AM           0x00000000U           /*!< AM or 24-hour format */
 481:../system/include/stm32l4-hal-driver/stm32l4xx_ll_rtc.h **** #define LL_RTC_TS_TIME_FORMAT_PM           RTC_TSTR_PM           /*!< PM */
 482:../system/include/stm32l4-hal-driver/stm32l4xx_ll_rtc.h **** /**
 483:../system/include/stm32l4-hal-driver/stm32l4xx_ll_rtc.h ****   * @}
 484:../system/include/stm32l4-hal-driver/stm32l4xx_ll_rtc.h ****   */
 485:../system/include/stm32l4-hal-driver/stm32l4xx_ll_rtc.h **** 
 486:../system/include/stm32l4-hal-driver/stm32l4xx_ll_rtc.h **** #if defined(STM32L412xx) || defined(STM32L422xx) || defined (STM32L4P5xx) || defined (STM32L4Q5xx)
 487:../system/include/stm32l4-hal-driver/stm32l4xx_ll_rtc.h **** /** @defgroup RTC_LL_EC_TAMPER  TAMPER
 488:../system/include/stm32l4-hal-driver/stm32l4xx_ll_rtc.h ****   * @{
 489:../system/include/stm32l4-hal-driver/stm32l4xx_ll_rtc.h ****   */
 490:../system/include/stm32l4-hal-driver/stm32l4xx_ll_rtc.h **** #define LL_RTC_TAMPER_1                    TAMP_CR1_TAMP1E /*!< Tamper 1 input detection */
 491:../system/include/stm32l4-hal-driver/stm32l4xx_ll_rtc.h **** #define LL_RTC_TAMPER_2                    TAMP_CR1_TAMP2E /*!< Tamper 2 input detection */
 492:../system/include/stm32l4-hal-driver/stm32l4xx_ll_rtc.h **** #if defined (STM32L4P5xx) || defined (STM32L4Q5xx)
 493:../system/include/stm32l4-hal-driver/stm32l4xx_ll_rtc.h **** #define LL_RTC_TAMPER_3                    TAMP_CR1_TAMP3E /*!< Tamper 3 input detection */
 494:../system/include/stm32l4-hal-driver/stm32l4xx_ll_rtc.h **** #endif
 495:../system/include/stm32l4-hal-driver/stm32l4xx_ll_rtc.h **** /**
 496:../system/include/stm32l4-hal-driver/stm32l4xx_ll_rtc.h ****   * @}
 497:../system/include/stm32l4-hal-driver/stm32l4xx_ll_rtc.h ****   */
 498:../system/include/stm32l4-hal-driver/stm32l4xx_ll_rtc.h **** 
 499:../system/include/stm32l4-hal-driver/stm32l4xx_ll_rtc.h **** /** @defgroup RTC_LL_EC_TAMPER_MASK  TAMPER MASK
 500:../system/include/stm32l4-hal-driver/stm32l4xx_ll_rtc.h ****   * @{
 501:../system/include/stm32l4-hal-driver/stm32l4xx_ll_rtc.h ****   */
 502:../system/include/stm32l4-hal-driver/stm32l4xx_ll_rtc.h **** #define LL_RTC_TAMPER_MASK_TAMPER1         TAMP_CR2_TAMP1MSK /*!< Tamper 1 event generates a trigge
 503:../system/include/stm32l4-hal-driver/stm32l4xx_ll_rtc.h **** #define LL_RTC_TAMPER_MASK_TAMPER2         TAMP_CR2_TAMP2MSK /*!< Tamper 2 event generates a trigge
 504:../system/include/stm32l4-hal-driver/stm32l4xx_ll_rtc.h **** #if defined (STM32L4P5xx) || defined (STM32L4Q5xx)
 505:../system/include/stm32l4-hal-driver/stm32l4xx_ll_rtc.h **** #define LL_RTC_TAMPER_MASK_TAMPER3         TAMP_CR2_TAMP3MSK /*!< Tamper 3 event generates a trigge
 506:../system/include/stm32l4-hal-driver/stm32l4xx_ll_rtc.h **** #endif
 507:../system/include/stm32l4-hal-driver/stm32l4xx_ll_rtc.h **** /**
 508:../system/include/stm32l4-hal-driver/stm32l4xx_ll_rtc.h ****   * @}
 509:../system/include/stm32l4-hal-driver/stm32l4xx_ll_rtc.h ****   */
 510:../system/include/stm32l4-hal-driver/stm32l4xx_ll_rtc.h **** 
 511:../system/include/stm32l4-hal-driver/stm32l4xx_ll_rtc.h **** /** @defgroup RTC_LL_EC_TAMPER_NOERASE  TAMPER NO ERASE
 512:../system/include/stm32l4-hal-driver/stm32l4xx_ll_rtc.h ****   * @{
 513:../system/include/stm32l4-hal-driver/stm32l4xx_ll_rtc.h ****   */
 514:../system/include/stm32l4-hal-driver/stm32l4xx_ll_rtc.h **** #define LL_RTC_TAMPER_NOERASE_TAMPER1      TAMP_CR2_TAMP1NOERASE /*!< Tamper 1 event does not erase
 515:../system/include/stm32l4-hal-driver/stm32l4xx_ll_rtc.h **** #define LL_RTC_TAMPER_NOERASE_TAMPER2      TAMP_CR2_TAMP2NOERASE /*!< Tamper 2 event does not erase
 516:../system/include/stm32l4-hal-driver/stm32l4xx_ll_rtc.h **** #if defined (STM32L4P5xx) || defined (STM32L4Q5xx)
 517:../system/include/stm32l4-hal-driver/stm32l4xx_ll_rtc.h **** #define LL_RTC_TAMPER_NOERASE_TAMPER3      TAMP_CR2_TAMP3NOERASE /*!< Tamper 3 event does not erase
 518:../system/include/stm32l4-hal-driver/stm32l4xx_ll_rtc.h **** #endif
 519:../system/include/stm32l4-hal-driver/stm32l4xx_ll_rtc.h **** /**
 520:../system/include/stm32l4-hal-driver/stm32l4xx_ll_rtc.h ****   * @}
 521:../system/include/stm32l4-hal-driver/stm32l4xx_ll_rtc.h ****   */
 522:../system/include/stm32l4-hal-driver/stm32l4xx_ll_rtc.h **** 
 523:../system/include/stm32l4-hal-driver/stm32l4xx_ll_rtc.h **** /** @defgroup RTC_LL_EC_TAMPER_DURATION  TAMPER DURATION
 524:../system/include/stm32l4-hal-driver/stm32l4xx_ll_rtc.h ****   * @{
 525:../system/include/stm32l4-hal-driver/stm32l4xx_ll_rtc.h ****   */
 526:../system/include/stm32l4-hal-driver/stm32l4xx_ll_rtc.h **** #define LL_RTC_TAMPER_DURATION_1RTCCLK     0x00000000U            /*!< Tamper pins are pre-charged 
 527:../system/include/stm32l4-hal-driver/stm32l4xx_ll_rtc.h **** #define LL_RTC_TAMPER_DURATION_2RTCCLK     TAMP_FLTCR_TAMPPRCH_0  /*!< Tamper pins are pre-charged 
 528:../system/include/stm32l4-hal-driver/stm32l4xx_ll_rtc.h **** #define LL_RTC_TAMPER_DURATION_4RTCCLK     TAMP_FLTCR_TAMPPRCH_1  /*!< Tamper pins are pre-charged 
 529:../system/include/stm32l4-hal-driver/stm32l4xx_ll_rtc.h **** #define LL_RTC_TAMPER_DURATION_8RTCCLK     TAMP_FLTCR_TAMPPRCH    /*!< Tamper pins are pre-charged 
 530:../system/include/stm32l4-hal-driver/stm32l4xx_ll_rtc.h **** /**
 531:../system/include/stm32l4-hal-driver/stm32l4xx_ll_rtc.h ****   * @}
 532:../system/include/stm32l4-hal-driver/stm32l4xx_ll_rtc.h ****   */
 533:../system/include/stm32l4-hal-driver/stm32l4xx_ll_rtc.h **** 
 534:../system/include/stm32l4-hal-driver/stm32l4xx_ll_rtc.h **** /** @defgroup RTC_LL_EC_TAMPER_FILTER  TAMPER FILTER
 535:../system/include/stm32l4-hal-driver/stm32l4xx_ll_rtc.h ****   * @{
 536:../system/include/stm32l4-hal-driver/stm32l4xx_ll_rtc.h ****   */
 537:../system/include/stm32l4-hal-driver/stm32l4xx_ll_rtc.h **** #define LL_RTC_TAMPER_FILTER_DISABLE       0x00000000U             /*!< Tamper filter is disabled *
 538:../system/include/stm32l4-hal-driver/stm32l4xx_ll_rtc.h **** #define LL_RTC_TAMPER_FILTER_2SAMPLE       TAMP_FLTCR_TAMPFLT_0    /*!< Tamper is activated after 2
 539:../system/include/stm32l4-hal-driver/stm32l4xx_ll_rtc.h **** #define LL_RTC_TAMPER_FILTER_4SAMPLE       TAMP_FLTCR_TAMPFLT_1    /*!< Tamper is activated after 4
 540:../system/include/stm32l4-hal-driver/stm32l4xx_ll_rtc.h **** #define LL_RTC_TAMPER_FILTER_8SAMPLE       TAMP_FLTCR_TAMPFLT      /*!< Tamper is activated after 8
 541:../system/include/stm32l4-hal-driver/stm32l4xx_ll_rtc.h **** /**
 542:../system/include/stm32l4-hal-driver/stm32l4xx_ll_rtc.h ****   * @}
 543:../system/include/stm32l4-hal-driver/stm32l4xx_ll_rtc.h ****   */
 544:../system/include/stm32l4-hal-driver/stm32l4xx_ll_rtc.h **** 
 545:../system/include/stm32l4-hal-driver/stm32l4xx_ll_rtc.h **** /** @defgroup RTC_LL_EC_TAMPER_SAMPLFREQDIV  TAMPER SAMPLING FREQUENCY DIVIDER
 546:../system/include/stm32l4-hal-driver/stm32l4xx_ll_rtc.h ****   * @{
 547:../system/include/stm32l4-hal-driver/stm32l4xx_ll_rtc.h ****   */
 548:../system/include/stm32l4-hal-driver/stm32l4xx_ll_rtc.h **** #define LL_RTC_TAMPER_SAMPLFREQDIV_32768   0x00000000U                                     /*!< Eac
 549:../system/include/stm32l4-hal-driver/stm32l4xx_ll_rtc.h **** #define LL_RTC_TAMPER_SAMPLFREQDIV_16384   TAMP_FLTCR_TAMPFREQ_0                           /*!< Eac
 550:../system/include/stm32l4-hal-driver/stm32l4xx_ll_rtc.h **** #define LL_RTC_TAMPER_SAMPLFREQDIV_8192    TAMP_FLTCR_TAMPFREQ_1                           /*!< Eac
 551:../system/include/stm32l4-hal-driver/stm32l4xx_ll_rtc.h **** #define LL_RTC_TAMPER_SAMPLFREQDIV_4096    (TAMP_FLTCR_TAMPFREQ_1 | TAMP_FLTCR_TAMPFREQ_0) /*!< Eac
 552:../system/include/stm32l4-hal-driver/stm32l4xx_ll_rtc.h **** #define LL_RTC_TAMPER_SAMPLFREQDIV_2048    TAMP_FLTCR_TAMPFREQ_2                           /*!< Eac
 553:../system/include/stm32l4-hal-driver/stm32l4xx_ll_rtc.h **** #define LL_RTC_TAMPER_SAMPLFREQDIV_1024    (TAMP_FLTCR_TAMPFREQ_2 | TAMP_FLTCR_TAMPFREQ_0) /*!< Eac
 554:../system/include/stm32l4-hal-driver/stm32l4xx_ll_rtc.h **** #define LL_RTC_TAMPER_SAMPLFREQDIV_512     (TAMP_FLTCR_TAMPFREQ_2 | TAMP_FLTCR_TAMPFREQ_1) /*!< Eac
 555:../system/include/stm32l4-hal-driver/stm32l4xx_ll_rtc.h **** #define LL_RTC_TAMPER_SAMPLFREQDIV_256     TAMP_FLTCR_TAMPFREQ                             /*!< Eac
 556:../system/include/stm32l4-hal-driver/stm32l4xx_ll_rtc.h **** /**
 557:../system/include/stm32l4-hal-driver/stm32l4xx_ll_rtc.h ****   * @}
 558:../system/include/stm32l4-hal-driver/stm32l4xx_ll_rtc.h ****   */
 559:../system/include/stm32l4-hal-driver/stm32l4xx_ll_rtc.h **** 
 560:../system/include/stm32l4-hal-driver/stm32l4xx_ll_rtc.h **** /** @defgroup RTC_LL_EC_TAMPER_ACTIVELEVEL  TAMPER ACTIVE LEVEL
 561:../system/include/stm32l4-hal-driver/stm32l4xx_ll_rtc.h ****   * @{
 562:../system/include/stm32l4-hal-driver/stm32l4xx_ll_rtc.h ****   */
 563:../system/include/stm32l4-hal-driver/stm32l4xx_ll_rtc.h **** #define LL_RTC_TAMPER_ACTIVELEVEL_TAMP1    TAMP_CR2_TAMP1TRG /*!< Tamper 1 input falling edge (if T
 564:../system/include/stm32l4-hal-driver/stm32l4xx_ll_rtc.h **** #define LL_RTC_TAMPER_ACTIVELEVEL_TAMP2    TAMP_CR2_TAMP2TRG /*!< Tamper 2 input falling edge (if T
 565:../system/include/stm32l4-hal-driver/stm32l4xx_ll_rtc.h **** #if defined (STM32L4P5xx) || defined (STM32L4Q5xx)
 566:../system/include/stm32l4-hal-driver/stm32l4xx_ll_rtc.h **** #define LL_RTC_TAMPER_ACTIVELEVEL_TAMP3    TAMP_CR2_TAMP3TRG /*!< Tamper 3 input falling edge (if T
 567:../system/include/stm32l4-hal-driver/stm32l4xx_ll_rtc.h **** #endif
 568:../system/include/stm32l4-hal-driver/stm32l4xx_ll_rtc.h **** /**
 569:../system/include/stm32l4-hal-driver/stm32l4xx_ll_rtc.h ****   * @}
 570:../system/include/stm32l4-hal-driver/stm32l4xx_ll_rtc.h ****   */
 571:../system/include/stm32l4-hal-driver/stm32l4xx_ll_rtc.h **** 
 572:../system/include/stm32l4-hal-driver/stm32l4xx_ll_rtc.h **** #else /* #if defined(STM32L412xx) || defined(STM32L422xx) || defined (STM32L4P5xx) || defined (STM3
 573:../system/include/stm32l4-hal-driver/stm32l4xx_ll_rtc.h **** 
 574:../system/include/stm32l4-hal-driver/stm32l4xx_ll_rtc.h **** /** @defgroup RTC_LL_EC_TAMPER  TAMPER
 575:../system/include/stm32l4-hal-driver/stm32l4xx_ll_rtc.h ****   * @{
 576:../system/include/stm32l4-hal-driver/stm32l4xx_ll_rtc.h ****   */
 577:../system/include/stm32l4-hal-driver/stm32l4xx_ll_rtc.h **** #if defined(RTC_TAMPER1_SUPPORT)
 578:../system/include/stm32l4-hal-driver/stm32l4xx_ll_rtc.h **** #define LL_RTC_TAMPER_1                    RTC_TAMPCR_TAMP1E /*!< RTC_TAMP1 input detection */
 579:../system/include/stm32l4-hal-driver/stm32l4xx_ll_rtc.h **** #endif /* RTC_TAMPER1_SUPPORT */
 580:../system/include/stm32l4-hal-driver/stm32l4xx_ll_rtc.h **** #if defined(RTC_TAMPER2_SUPPORT)
 581:../system/include/stm32l4-hal-driver/stm32l4xx_ll_rtc.h **** #define LL_RTC_TAMPER_2                    RTC_TAMPCR_TAMP2E /*!< RTC_TAMP2 input detection */
 582:../system/include/stm32l4-hal-driver/stm32l4xx_ll_rtc.h **** #endif /* RTC_TAMPER2_SUPPORT */
 583:../system/include/stm32l4-hal-driver/stm32l4xx_ll_rtc.h **** #if defined(RTC_TAMPER3_SUPPORT)
 584:../system/include/stm32l4-hal-driver/stm32l4xx_ll_rtc.h **** #define LL_RTC_TAMPER_3                    RTC_TAMPCR_TAMP3E /*!< RTC_TAMP3 input detection */
 585:../system/include/stm32l4-hal-driver/stm32l4xx_ll_rtc.h **** #endif /* RTC_TAMPER3_SUPPORT */
 586:../system/include/stm32l4-hal-driver/stm32l4xx_ll_rtc.h **** /**
 587:../system/include/stm32l4-hal-driver/stm32l4xx_ll_rtc.h ****   * @}
 588:../system/include/stm32l4-hal-driver/stm32l4xx_ll_rtc.h ****   */
 589:../system/include/stm32l4-hal-driver/stm32l4xx_ll_rtc.h **** 
 590:../system/include/stm32l4-hal-driver/stm32l4xx_ll_rtc.h **** /** @defgroup RTC_LL_EC_TAMPER_MASK  TAMPER MASK
 591:../system/include/stm32l4-hal-driver/stm32l4xx_ll_rtc.h ****   * @{
 592:../system/include/stm32l4-hal-driver/stm32l4xx_ll_rtc.h ****   */
 593:../system/include/stm32l4-hal-driver/stm32l4xx_ll_rtc.h **** #if defined(RTC_TAMPER1_SUPPORT)
 594:../system/include/stm32l4-hal-driver/stm32l4xx_ll_rtc.h **** #define LL_RTC_TAMPER_MASK_TAMPER1         RTC_TAMPCR_TAMP1MF /*!< Tamper 1 event generates a trigg
 595:../system/include/stm32l4-hal-driver/stm32l4xx_ll_rtc.h **** #endif /* RTC_TAMPER1_SUPPORT */
 596:../system/include/stm32l4-hal-driver/stm32l4xx_ll_rtc.h **** #if defined(RTC_TAMPER2_SUPPORT)
 597:../system/include/stm32l4-hal-driver/stm32l4xx_ll_rtc.h **** #define LL_RTC_TAMPER_MASK_TAMPER2         RTC_TAMPCR_TAMP2MF /*!< Tamper 2 event generates a trigg
 598:../system/include/stm32l4-hal-driver/stm32l4xx_ll_rtc.h **** #endif /* RTC_TAMPER2_SUPPORT */
 599:../system/include/stm32l4-hal-driver/stm32l4xx_ll_rtc.h **** #if defined(RTC_TAMPER3_SUPPORT)
 600:../system/include/stm32l4-hal-driver/stm32l4xx_ll_rtc.h **** #define LL_RTC_TAMPER_MASK_TAMPER3         RTC_TAMPCR_TAMP3MF /*!< Tamper 3 event generates a trigg
 601:../system/include/stm32l4-hal-driver/stm32l4xx_ll_rtc.h **** #endif /* RTC_TAMPER3_SUPPORT */
 602:../system/include/stm32l4-hal-driver/stm32l4xx_ll_rtc.h **** /**
 603:../system/include/stm32l4-hal-driver/stm32l4xx_ll_rtc.h ****   * @}
 604:../system/include/stm32l4-hal-driver/stm32l4xx_ll_rtc.h ****   */
 605:../system/include/stm32l4-hal-driver/stm32l4xx_ll_rtc.h **** 
 606:../system/include/stm32l4-hal-driver/stm32l4xx_ll_rtc.h **** /** @defgroup RTC_LL_EC_TAMPER_NOERASE  TAMPER NO ERASE
 607:../system/include/stm32l4-hal-driver/stm32l4xx_ll_rtc.h ****   * @{
 608:../system/include/stm32l4-hal-driver/stm32l4xx_ll_rtc.h ****   */
 609:../system/include/stm32l4-hal-driver/stm32l4xx_ll_rtc.h **** #if defined(RTC_TAMPER1_SUPPORT)
 610:../system/include/stm32l4-hal-driver/stm32l4xx_ll_rtc.h **** #define LL_RTC_TAMPER_NOERASE_TAMPER1      RTC_TAMPCR_TAMP1NOERASE /*!< Tamper 1 event does not era
 611:../system/include/stm32l4-hal-driver/stm32l4xx_ll_rtc.h **** #endif /* RTC_TAMPER1_SUPPORT */
 612:../system/include/stm32l4-hal-driver/stm32l4xx_ll_rtc.h **** #if defined(RTC_TAMPER2_SUPPORT)
 613:../system/include/stm32l4-hal-driver/stm32l4xx_ll_rtc.h **** #define LL_RTC_TAMPER_NOERASE_TAMPER2      RTC_TAMPCR_TAMP2NOERASE /*!< Tamper 2 event does not era
 614:../system/include/stm32l4-hal-driver/stm32l4xx_ll_rtc.h **** #endif /* RTC_TAMPER2_SUPPORT */
 615:../system/include/stm32l4-hal-driver/stm32l4xx_ll_rtc.h **** #if defined(RTC_TAMPER3_SUPPORT)
 616:../system/include/stm32l4-hal-driver/stm32l4xx_ll_rtc.h **** #define LL_RTC_TAMPER_NOERASE_TAMPER3      RTC_TAMPCR_TAMP3NOERASE /*!< Tamper 3 event does not era
 617:../system/include/stm32l4-hal-driver/stm32l4xx_ll_rtc.h **** #endif /* RTC_TAMPER3_SUPPORT */
 618:../system/include/stm32l4-hal-driver/stm32l4xx_ll_rtc.h **** /**
 619:../system/include/stm32l4-hal-driver/stm32l4xx_ll_rtc.h ****   * @}
 620:../system/include/stm32l4-hal-driver/stm32l4xx_ll_rtc.h ****   */
 621:../system/include/stm32l4-hal-driver/stm32l4xx_ll_rtc.h **** 
 622:../system/include/stm32l4-hal-driver/stm32l4xx_ll_rtc.h **** #if defined(RTC_TAMPCR_TAMPPRCH)
 623:../system/include/stm32l4-hal-driver/stm32l4xx_ll_rtc.h **** /** @defgroup RTC_LL_EC_TAMPER_DURATION  TAMPER DURATION
 624:../system/include/stm32l4-hal-driver/stm32l4xx_ll_rtc.h ****   * @{
 625:../system/include/stm32l4-hal-driver/stm32l4xx_ll_rtc.h ****   */
 626:../system/include/stm32l4-hal-driver/stm32l4xx_ll_rtc.h **** #define LL_RTC_TAMPER_DURATION_1RTCCLK     0x00000000U                             /*!< Tamper pins
 627:../system/include/stm32l4-hal-driver/stm32l4xx_ll_rtc.h **** #define LL_RTC_TAMPER_DURATION_2RTCCLK     RTC_TAMPCR_TAMPPRCH_0  /*!< Tamper pins are pre-charged 
 628:../system/include/stm32l4-hal-driver/stm32l4xx_ll_rtc.h **** #define LL_RTC_TAMPER_DURATION_4RTCCLK     RTC_TAMPCR_TAMPPRCH_1  /*!< Tamper pins are pre-charged 
 629:../system/include/stm32l4-hal-driver/stm32l4xx_ll_rtc.h **** #define LL_RTC_TAMPER_DURATION_8RTCCLK     RTC_TAMPCR_TAMPPRCH    /*!< Tamper pins are pre-charged 
 630:../system/include/stm32l4-hal-driver/stm32l4xx_ll_rtc.h **** /**
 631:../system/include/stm32l4-hal-driver/stm32l4xx_ll_rtc.h ****   * @}
 632:../system/include/stm32l4-hal-driver/stm32l4xx_ll_rtc.h ****   */
 633:../system/include/stm32l4-hal-driver/stm32l4xx_ll_rtc.h **** #endif /* RTC_TAMPCR_TAMPPRCH */
 634:../system/include/stm32l4-hal-driver/stm32l4xx_ll_rtc.h **** 
 635:../system/include/stm32l4-hal-driver/stm32l4xx_ll_rtc.h **** #if defined(RTC_TAMPCR_TAMPFLT)
 636:../system/include/stm32l4-hal-driver/stm32l4xx_ll_rtc.h **** /** @defgroup RTC_LL_EC_TAMPER_FILTER  TAMPER FILTER
 637:../system/include/stm32l4-hal-driver/stm32l4xx_ll_rtc.h ****   * @{
 638:../system/include/stm32l4-hal-driver/stm32l4xx_ll_rtc.h ****   */
 639:../system/include/stm32l4-hal-driver/stm32l4xx_ll_rtc.h **** #define LL_RTC_TAMPER_FILTER_DISABLE       0x00000000U                              /*!< Tamper fil
 640:../system/include/stm32l4-hal-driver/stm32l4xx_ll_rtc.h **** #define LL_RTC_TAMPER_FILTER_2SAMPLE       RTC_TAMPCR_TAMPFLT_0    /*!< Tamper is activated after 2
 641:../system/include/stm32l4-hal-driver/stm32l4xx_ll_rtc.h **** #define LL_RTC_TAMPER_FILTER_4SAMPLE       RTC_TAMPCR_TAMPFLT_1    /*!< Tamper is activated after 4
 642:../system/include/stm32l4-hal-driver/stm32l4xx_ll_rtc.h **** #define LL_RTC_TAMPER_FILTER_8SAMPLE       RTC_TAMPCR_TAMPFLT      /*!< Tamper is activated after 8
 643:../system/include/stm32l4-hal-driver/stm32l4xx_ll_rtc.h **** /**
 644:../system/include/stm32l4-hal-driver/stm32l4xx_ll_rtc.h ****   * @}
 645:../system/include/stm32l4-hal-driver/stm32l4xx_ll_rtc.h ****   */
 646:../system/include/stm32l4-hal-driver/stm32l4xx_ll_rtc.h **** #endif /* RTC_TAMPCR_TAMPFLT */
 647:../system/include/stm32l4-hal-driver/stm32l4xx_ll_rtc.h **** 
 648:../system/include/stm32l4-hal-driver/stm32l4xx_ll_rtc.h **** #if defined(RTC_TAMPCR_TAMPFREQ)
 649:../system/include/stm32l4-hal-driver/stm32l4xx_ll_rtc.h **** /** @defgroup RTC_LL_EC_TAMPER_SAMPLFREQDIV  TAMPER SAMPLING FREQUENCY DIVIDER
 650:../system/include/stm32l4-hal-driver/stm32l4xx_ll_rtc.h ****   * @{
 651:../system/include/stm32l4-hal-driver/stm32l4xx_ll_rtc.h ****   */
 652:../system/include/stm32l4-hal-driver/stm32l4xx_ll_rtc.h **** #define LL_RTC_TAMPER_SAMPLFREQDIV_32768   0x00000000U                                             
 653:../system/include/stm32l4-hal-driver/stm32l4xx_ll_rtc.h **** #define LL_RTC_TAMPER_SAMPLFREQDIV_16384   RTC_TAMPCR_TAMPFREQ_0                           /*!< Eac
 654:../system/include/stm32l4-hal-driver/stm32l4xx_ll_rtc.h **** #define LL_RTC_TAMPER_SAMPLFREQDIV_8192    RTC_TAMPCR_TAMPFREQ_1                           /*!< Eac
 655:../system/include/stm32l4-hal-driver/stm32l4xx_ll_rtc.h **** #define LL_RTC_TAMPER_SAMPLFREQDIV_4096    (RTC_TAMPCR_TAMPFREQ_1 | RTC_TAMPCR_TAMPFREQ_0) /*!< Eac
 656:../system/include/stm32l4-hal-driver/stm32l4xx_ll_rtc.h **** #define LL_RTC_TAMPER_SAMPLFREQDIV_2048    RTC_TAMPCR_TAMPFREQ_2                           /*!< Eac
 657:../system/include/stm32l4-hal-driver/stm32l4xx_ll_rtc.h **** #define LL_RTC_TAMPER_SAMPLFREQDIV_1024    (RTC_TAMPCR_TAMPFREQ_2 | RTC_TAMPCR_TAMPFREQ_0) /*!< Eac
 658:../system/include/stm32l4-hal-driver/stm32l4xx_ll_rtc.h **** #define LL_RTC_TAMPER_SAMPLFREQDIV_512     (RTC_TAMPCR_TAMPFREQ_2 | RTC_TAMPCR_TAMPFREQ_1) /*!< Eac
 659:../system/include/stm32l4-hal-driver/stm32l4xx_ll_rtc.h **** #define LL_RTC_TAMPER_SAMPLFREQDIV_256     RTC_TAMPCR_TAMPFREQ                             /*!< Eac
 660:../system/include/stm32l4-hal-driver/stm32l4xx_ll_rtc.h **** /**
 661:../system/include/stm32l4-hal-driver/stm32l4xx_ll_rtc.h ****   * @}
 662:../system/include/stm32l4-hal-driver/stm32l4xx_ll_rtc.h ****   */
 663:../system/include/stm32l4-hal-driver/stm32l4xx_ll_rtc.h **** #endif /* RTC_TAMPCR_TAMPFREQ */
 664:../system/include/stm32l4-hal-driver/stm32l4xx_ll_rtc.h **** 
 665:../system/include/stm32l4-hal-driver/stm32l4xx_ll_rtc.h **** /** @defgroup RTC_LL_EC_TAMPER_ACTIVELEVEL  TAMPER ACTIVE LEVEL
 666:../system/include/stm32l4-hal-driver/stm32l4xx_ll_rtc.h ****   * @{
 667:../system/include/stm32l4-hal-driver/stm32l4xx_ll_rtc.h ****   */
 668:../system/include/stm32l4-hal-driver/stm32l4xx_ll_rtc.h **** #if defined(RTC_TAMPER1_SUPPORT)
 669:../system/include/stm32l4-hal-driver/stm32l4xx_ll_rtc.h **** #define LL_RTC_TAMPER_ACTIVELEVEL_TAMP1    RTC_TAMPCR_TAMP1TRG /*!< RTC_TAMP1 input falling edge (i
 670:../system/include/stm32l4-hal-driver/stm32l4xx_ll_rtc.h **** #endif /* RTC_TAMPER1_SUPPORT */
 671:../system/include/stm32l4-hal-driver/stm32l4xx_ll_rtc.h **** #if defined(RTC_TAMPER2_SUPPORT)
 672:../system/include/stm32l4-hal-driver/stm32l4xx_ll_rtc.h **** #define LL_RTC_TAMPER_ACTIVELEVEL_TAMP2    RTC_TAMPCR_TAMP2TRG /*!< RTC_TAMP2 input falling edge (i
 673:../system/include/stm32l4-hal-driver/stm32l4xx_ll_rtc.h **** #endif /* RTC_TAMPER2_SUPPORT */
 674:../system/include/stm32l4-hal-driver/stm32l4xx_ll_rtc.h **** #if defined(RTC_TAMPER3_SUPPORT)
 675:../system/include/stm32l4-hal-driver/stm32l4xx_ll_rtc.h **** #define LL_RTC_TAMPER_ACTIVELEVEL_TAMP3    RTC_TAMPCR_TAMP3TRG /*!< RTC_TAMP3 input falling edge (i
 676:../system/include/stm32l4-hal-driver/stm32l4xx_ll_rtc.h **** #endif /* RTC_TAMPER3_SUPPORT */
 677:../system/include/stm32l4-hal-driver/stm32l4xx_ll_rtc.h **** /**
 678:../system/include/stm32l4-hal-driver/stm32l4xx_ll_rtc.h ****   * @}
 679:../system/include/stm32l4-hal-driver/stm32l4xx_ll_rtc.h ****   */
 680:../system/include/stm32l4-hal-driver/stm32l4xx_ll_rtc.h **** 
 681:../system/include/stm32l4-hal-driver/stm32l4xx_ll_rtc.h **** #endif /* #if defined(STM32L412xx) || defined(STM32L422xx) || defined (STM32L4P5xx) || defined (STM
 682:../system/include/stm32l4-hal-driver/stm32l4xx_ll_rtc.h **** 
 683:../system/include/stm32l4-hal-driver/stm32l4xx_ll_rtc.h **** /** @defgroup RTC_LL_EC_WAKEUPCLOCK_DIV  WAKEUP CLOCK DIV
 684:../system/include/stm32l4-hal-driver/stm32l4xx_ll_rtc.h ****   * @{
 685:../system/include/stm32l4-hal-driver/stm32l4xx_ll_rtc.h ****   */
 686:../system/include/stm32l4-hal-driver/stm32l4xx_ll_rtc.h **** #define LL_RTC_WAKEUPCLOCK_DIV_16          0x00000000U                           /*!< RTC/16 clock 
 687:../system/include/stm32l4-hal-driver/stm32l4xx_ll_rtc.h **** #define LL_RTC_WAKEUPCLOCK_DIV_8           RTC_CR_WUCKSEL_0                      /*!< RTC/8 clock i
 688:../system/include/stm32l4-hal-driver/stm32l4xx_ll_rtc.h **** #define LL_RTC_WAKEUPCLOCK_DIV_4           RTC_CR_WUCKSEL_1                      /*!< RTC/4 clock i
 689:../system/include/stm32l4-hal-driver/stm32l4xx_ll_rtc.h **** #define LL_RTC_WAKEUPCLOCK_DIV_2           (RTC_CR_WUCKSEL_1 | RTC_CR_WUCKSEL_0) /*!< RTC/2 clock i
 690:../system/include/stm32l4-hal-driver/stm32l4xx_ll_rtc.h **** #define LL_RTC_WAKEUPCLOCK_CKSPRE          RTC_CR_WUCKSEL_2                      /*!< ck_spre (usua
 691:../system/include/stm32l4-hal-driver/stm32l4xx_ll_rtc.h **** #define LL_RTC_WAKEUPCLOCK_CKSPRE_WUT      (RTC_CR_WUCKSEL_2 | RTC_CR_WUCKSEL_1) /*!< ck_spre (usua
 692:../system/include/stm32l4-hal-driver/stm32l4xx_ll_rtc.h **** /**
 693:../system/include/stm32l4-hal-driver/stm32l4xx_ll_rtc.h ****   * @}
 694:../system/include/stm32l4-hal-driver/stm32l4xx_ll_rtc.h ****   */
 695:../system/include/stm32l4-hal-driver/stm32l4xx_ll_rtc.h **** 
 696:../system/include/stm32l4-hal-driver/stm32l4xx_ll_rtc.h **** #if defined(RTC_BACKUP_SUPPORT)
 697:../system/include/stm32l4-hal-driver/stm32l4xx_ll_rtc.h **** /** @defgroup RTC_LL_EC_BKP  BACKUP
 698:../system/include/stm32l4-hal-driver/stm32l4xx_ll_rtc.h ****   * @{
 699:../system/include/stm32l4-hal-driver/stm32l4xx_ll_rtc.h ****   */
 700:../system/include/stm32l4-hal-driver/stm32l4xx_ll_rtc.h **** #define LL_RTC_BKP_DR0                     0x00000000U
 701:../system/include/stm32l4-hal-driver/stm32l4xx_ll_rtc.h **** #define LL_RTC_BKP_DR1                     0x00000001U
 702:../system/include/stm32l4-hal-driver/stm32l4xx_ll_rtc.h **** #define LL_RTC_BKP_DR2                     0x00000002U
 703:../system/include/stm32l4-hal-driver/stm32l4xx_ll_rtc.h **** #define LL_RTC_BKP_DR3                     0x00000003U
 704:../system/include/stm32l4-hal-driver/stm32l4xx_ll_rtc.h **** #define LL_RTC_BKP_DR4                     0x00000004U
 705:../system/include/stm32l4-hal-driver/stm32l4xx_ll_rtc.h **** #if RTC_BKP_NUMBER > 5
 706:../system/include/stm32l4-hal-driver/stm32l4xx_ll_rtc.h **** #define LL_RTC_BKP_DR5                     0x00000005U
 707:../system/include/stm32l4-hal-driver/stm32l4xx_ll_rtc.h **** #define LL_RTC_BKP_DR6                     0x00000006U
 708:../system/include/stm32l4-hal-driver/stm32l4xx_ll_rtc.h **** #define LL_RTC_BKP_DR7                     0x00000007U
 709:../system/include/stm32l4-hal-driver/stm32l4xx_ll_rtc.h **** #define LL_RTC_BKP_DR8                     0x00000008U
 710:../system/include/stm32l4-hal-driver/stm32l4xx_ll_rtc.h **** #define LL_RTC_BKP_DR9                     0x00000009U
 711:../system/include/stm32l4-hal-driver/stm32l4xx_ll_rtc.h **** #define LL_RTC_BKP_DR10                    0x0000000AU
 712:../system/include/stm32l4-hal-driver/stm32l4xx_ll_rtc.h **** #define LL_RTC_BKP_DR11                    0x0000000BU
 713:../system/include/stm32l4-hal-driver/stm32l4xx_ll_rtc.h **** #define LL_RTC_BKP_DR12                    0x0000000CU
 714:../system/include/stm32l4-hal-driver/stm32l4xx_ll_rtc.h **** #define LL_RTC_BKP_DR13                    0x0000000DU
 715:../system/include/stm32l4-hal-driver/stm32l4xx_ll_rtc.h **** #define LL_RTC_BKP_DR14                    0x0000000EU
 716:../system/include/stm32l4-hal-driver/stm32l4xx_ll_rtc.h **** #define LL_RTC_BKP_DR15                    0x0000000FU
 717:../system/include/stm32l4-hal-driver/stm32l4xx_ll_rtc.h **** #endif /* RTC_BKP_NUMBER > 5 */
 718:../system/include/stm32l4-hal-driver/stm32l4xx_ll_rtc.h **** 
 719:../system/include/stm32l4-hal-driver/stm32l4xx_ll_rtc.h **** #if RTC_BKP_NUMBER > 16
 720:../system/include/stm32l4-hal-driver/stm32l4xx_ll_rtc.h **** #define LL_RTC_BKP_DR16                    0x00000010U
 721:../system/include/stm32l4-hal-driver/stm32l4xx_ll_rtc.h **** #define LL_RTC_BKP_DR17                    0x00000011U
 722:../system/include/stm32l4-hal-driver/stm32l4xx_ll_rtc.h **** #define LL_RTC_BKP_DR18                    0x00000012U
 723:../system/include/stm32l4-hal-driver/stm32l4xx_ll_rtc.h **** #define LL_RTC_BKP_DR19                    0x00000013U
 724:../system/include/stm32l4-hal-driver/stm32l4xx_ll_rtc.h **** #endif /* RTC_BKP_NUMBER > 16 */
 725:../system/include/stm32l4-hal-driver/stm32l4xx_ll_rtc.h **** 
 726:../system/include/stm32l4-hal-driver/stm32l4xx_ll_rtc.h **** #if RTC_BKP_NUMBER > 20
 727:../system/include/stm32l4-hal-driver/stm32l4xx_ll_rtc.h **** #define LL_RTC_BKP_DR20                    0x00000014U
 728:../system/include/stm32l4-hal-driver/stm32l4xx_ll_rtc.h **** #define LL_RTC_BKP_DR21                    0x00000015U
 729:../system/include/stm32l4-hal-driver/stm32l4xx_ll_rtc.h **** #define LL_RTC_BKP_DR22                    0x00000016U
 730:../system/include/stm32l4-hal-driver/stm32l4xx_ll_rtc.h **** #define LL_RTC_BKP_DR23                    0x00000017U
 731:../system/include/stm32l4-hal-driver/stm32l4xx_ll_rtc.h **** #define LL_RTC_BKP_DR24                    0x00000018U
 732:../system/include/stm32l4-hal-driver/stm32l4xx_ll_rtc.h **** #define LL_RTC_BKP_DR25                    0x00000019U
 733:../system/include/stm32l4-hal-driver/stm32l4xx_ll_rtc.h **** #define LL_RTC_BKP_DR26                    0x0000001AU
 734:../system/include/stm32l4-hal-driver/stm32l4xx_ll_rtc.h **** #define LL_RTC_BKP_DR27                    0x0000001BU
 735:../system/include/stm32l4-hal-driver/stm32l4xx_ll_rtc.h **** #define LL_RTC_BKP_DR28                    0x0000001CU
 736:../system/include/stm32l4-hal-driver/stm32l4xx_ll_rtc.h **** #define LL_RTC_BKP_DR29                    0x0000001DU
 737:../system/include/stm32l4-hal-driver/stm32l4xx_ll_rtc.h **** #define LL_RTC_BKP_DR30                    0x0000001EU
 738:../system/include/stm32l4-hal-driver/stm32l4xx_ll_rtc.h **** #define LL_RTC_BKP_DR31                    0x0000001FU
 739:../system/include/stm32l4-hal-driver/stm32l4xx_ll_rtc.h **** #endif /* RTC_BKP_NUMBER > 20 */
 740:../system/include/stm32l4-hal-driver/stm32l4xx_ll_rtc.h **** /**
 741:../system/include/stm32l4-hal-driver/stm32l4xx_ll_rtc.h ****   * @}
 742:../system/include/stm32l4-hal-driver/stm32l4xx_ll_rtc.h ****   */
 743:../system/include/stm32l4-hal-driver/stm32l4xx_ll_rtc.h **** #endif /* RTC_BACKUP_SUPPORT */
 744:../system/include/stm32l4-hal-driver/stm32l4xx_ll_rtc.h **** 
 745:../system/include/stm32l4-hal-driver/stm32l4xx_ll_rtc.h **** /** @defgroup RTC_LL_EC_CALIB_OUTPUT  Calibration output
 746:../system/include/stm32l4-hal-driver/stm32l4xx_ll_rtc.h ****   * @{
 747:../system/include/stm32l4-hal-driver/stm32l4xx_ll_rtc.h ****   */
 748:../system/include/stm32l4-hal-driver/stm32l4xx_ll_rtc.h **** #define LL_RTC_CALIB_OUTPUT_NONE           0x00000000U                 /*!< Calibration output disa
 749:../system/include/stm32l4-hal-driver/stm32l4xx_ll_rtc.h **** #define LL_RTC_CALIB_OUTPUT_1HZ            (RTC_CR_COE | RTC_CR_COSEL) /*!< Calibration output is 1
 750:../system/include/stm32l4-hal-driver/stm32l4xx_ll_rtc.h **** #define LL_RTC_CALIB_OUTPUT_512HZ           RTC_CR_COE                 /*!< Calibration output is 5
 751:../system/include/stm32l4-hal-driver/stm32l4xx_ll_rtc.h **** /**
 752:../system/include/stm32l4-hal-driver/stm32l4xx_ll_rtc.h ****   * @}
 753:../system/include/stm32l4-hal-driver/stm32l4xx_ll_rtc.h ****   */
 754:../system/include/stm32l4-hal-driver/stm32l4xx_ll_rtc.h **** 
 755:../system/include/stm32l4-hal-driver/stm32l4xx_ll_rtc.h **** /** @defgroup RTC_LL_EC_CALIB_INSERTPULSE  Calibration pulse insertion
 756:../system/include/stm32l4-hal-driver/stm32l4xx_ll_rtc.h ****   * @{
 757:../system/include/stm32l4-hal-driver/stm32l4xx_ll_rtc.h ****   */
 758:../system/include/stm32l4-hal-driver/stm32l4xx_ll_rtc.h **** #define LL_RTC_CALIB_INSERTPULSE_NONE      0x00000000U           /*!< No RTCCLK pulses are added */
 759:../system/include/stm32l4-hal-driver/stm32l4xx_ll_rtc.h **** #define LL_RTC_CALIB_INSERTPULSE_SET       RTC_CALR_CALP         /*!< One RTCCLK pulse is effective
 760:../system/include/stm32l4-hal-driver/stm32l4xx_ll_rtc.h **** /**
 761:../system/include/stm32l4-hal-driver/stm32l4xx_ll_rtc.h ****   * @}
 762:../system/include/stm32l4-hal-driver/stm32l4xx_ll_rtc.h ****   */
 763:../system/include/stm32l4-hal-driver/stm32l4xx_ll_rtc.h **** 
 764:../system/include/stm32l4-hal-driver/stm32l4xx_ll_rtc.h **** /** @defgroup RTC_LL_EC_CALIB_PERIOD  Calibration period
 765:../system/include/stm32l4-hal-driver/stm32l4xx_ll_rtc.h ****   * @{
 766:../system/include/stm32l4-hal-driver/stm32l4xx_ll_rtc.h ****   */
 767:../system/include/stm32l4-hal-driver/stm32l4xx_ll_rtc.h **** #define LL_RTC_CALIB_PERIOD_32SEC          0x00000000U           /*!< Use a 32-second calibration c
 768:../system/include/stm32l4-hal-driver/stm32l4xx_ll_rtc.h **** #define LL_RTC_CALIB_PERIOD_16SEC          RTC_CALR_CALW16       /*!< Use a 16-second calibration c
 769:../system/include/stm32l4-hal-driver/stm32l4xx_ll_rtc.h **** #define LL_RTC_CALIB_PERIOD_8SEC           RTC_CALR_CALW8        /*!< Use a 8-second calibration cy
 770:../system/include/stm32l4-hal-driver/stm32l4xx_ll_rtc.h **** /**
 771:../system/include/stm32l4-hal-driver/stm32l4xx_ll_rtc.h ****   * @}
 772:../system/include/stm32l4-hal-driver/stm32l4xx_ll_rtc.h ****   */
 773:../system/include/stm32l4-hal-driver/stm32l4xx_ll_rtc.h **** 
 774:../system/include/stm32l4-hal-driver/stm32l4xx_ll_rtc.h **** #if defined (STM32L4P5xx) || defined (STM32L4Q5xx)
 775:../system/include/stm32l4-hal-driver/stm32l4xx_ll_rtc.h **** /** @defgroup RTC_LL_EC_CALIB_LOWPOWER  Calibration low power
 776:../system/include/stm32l4-hal-driver/stm32l4xx_ll_rtc.h ****   * @{
 777:../system/include/stm32l4-hal-driver/stm32l4xx_ll_rtc.h ****   */
 778:../system/include/stm32l4-hal-driver/stm32l4xx_ll_rtc.h **** #define LL_RTC_CALIB_LOWPOWER_NONE         0x00000000U           /*!< High conso mode */
 779:../system/include/stm32l4-hal-driver/stm32l4xx_ll_rtc.h **** #define LL_RTC_CALIB_LOWPOWER_SET          RTC_CALR_LPCAL        /*!< low power mode */
 780:../system/include/stm32l4-hal-driver/stm32l4xx_ll_rtc.h **** /**
 781:../system/include/stm32l4-hal-driver/stm32l4xx_ll_rtc.h ****   * @}
 782:../system/include/stm32l4-hal-driver/stm32l4xx_ll_rtc.h ****   */
 783:../system/include/stm32l4-hal-driver/stm32l4xx_ll_rtc.h **** 
 784:../system/include/stm32l4-hal-driver/stm32l4xx_ll_rtc.h **** /** @defgroup RTC_LL_EC_BINARY_MODE  Binary mode (Sub Second Register)
 785:../system/include/stm32l4-hal-driver/stm32l4xx_ll_rtc.h ****   * @{
 786:../system/include/stm32l4-hal-driver/stm32l4xx_ll_rtc.h ****   */
 787:../system/include/stm32l4-hal-driver/stm32l4xx_ll_rtc.h **** #define LL_RTC_BINARY_NONE  0x00000000U     /*!< Free running BCD calendar mode (Binary mode disabl
 788:../system/include/stm32l4-hal-driver/stm32l4xx_ll_rtc.h **** #define LL_RTC_BINARY_ONLY  RTC_ICSR_BIN_0  /*!< Free running Binary mode (BCD mode disabled) */
 789:../system/include/stm32l4-hal-driver/stm32l4xx_ll_rtc.h **** #define LL_RTC_BINARY_MIX   RTC_ICSR_BIN_1  /*!< Free running BCD calendar and Binary mode enable *
 790:../system/include/stm32l4-hal-driver/stm32l4xx_ll_rtc.h **** /**
 791:../system/include/stm32l4-hal-driver/stm32l4xx_ll_rtc.h ****   * @}
 792:../system/include/stm32l4-hal-driver/stm32l4xx_ll_rtc.h ****   */
 793:../system/include/stm32l4-hal-driver/stm32l4xx_ll_rtc.h **** 
 794:../system/include/stm32l4-hal-driver/stm32l4xx_ll_rtc.h **** /** @defgroup RTC_LL_EC_BINARY_MIX_BCDU  Calendar second incrementation in Binary mix mode
 795:../system/include/stm32l4-hal-driver/stm32l4xx_ll_rtc.h ****   * @{
 796:../system/include/stm32l4-hal-driver/stm32l4xx_ll_rtc.h ****   */
 797:../system/include/stm32l4-hal-driver/stm32l4xx_ll_rtc.h **** #define LL_RTC_BINARY_MIX_BCDU_0  0x00000000u                    /*!<  1s calendar increment is gen
 798:../system/include/stm32l4-hal-driver/stm32l4xx_ll_rtc.h **** #define LL_RTC_BINARY_MIX_BCDU_1  (0x1UL << RTC_ICSR_BCDU_Pos)   /*!<  1s calendar increment is gen
 799:../system/include/stm32l4-hal-driver/stm32l4xx_ll_rtc.h **** #define LL_RTC_BINARY_MIX_BCDU_2  (0x2UL << RTC_ICSR_BCDU_Pos)   /*!<  1s calendar increment is gen
 800:../system/include/stm32l4-hal-driver/stm32l4xx_ll_rtc.h **** #define LL_RTC_BINARY_MIX_BCDU_3  (0x3UL << RTC_ICSR_BCDU_Pos)   /*!<  1s calendar increment is gen
 801:../system/include/stm32l4-hal-driver/stm32l4xx_ll_rtc.h **** #define LL_RTC_BINARY_MIX_BCDU_4  (0x4UL << RTC_ICSR_BCDU_Pos)   /*!<  1s calendar increment is gen
 802:../system/include/stm32l4-hal-driver/stm32l4xx_ll_rtc.h **** #define LL_RTC_BINARY_MIX_BCDU_5  (0x5UL << RTC_ICSR_BCDU_Pos)   /*!<  1s calendar increment is gen
 803:../system/include/stm32l4-hal-driver/stm32l4xx_ll_rtc.h **** #define LL_RTC_BINARY_MIX_BCDU_6  (0x6UL << RTC_ICSR_BCDU_Pos)   /*!<  1s calendar increment is gen
 804:../system/include/stm32l4-hal-driver/stm32l4xx_ll_rtc.h **** #define LL_RTC_BINARY_MIX_BCDU_7  (0x7UL << RTC_ICSR_BCDU_Pos)   /*!<  1s calendar increment is gen
 805:../system/include/stm32l4-hal-driver/stm32l4xx_ll_rtc.h **** /**
 806:../system/include/stm32l4-hal-driver/stm32l4xx_ll_rtc.h ****   * @}
 807:../system/include/stm32l4-hal-driver/stm32l4xx_ll_rtc.h ****   */
 808:../system/include/stm32l4-hal-driver/stm32l4xx_ll_rtc.h **** #endif /* #if defined (STM32L4P5xx) || defined (STM32L4Q5xx) */
 809:../system/include/stm32l4-hal-driver/stm32l4xx_ll_rtc.h **** 
 810:../system/include/stm32l4-hal-driver/stm32l4xx_ll_rtc.h **** /**
 811:../system/include/stm32l4-hal-driver/stm32l4xx_ll_rtc.h ****   * @}
 812:../system/include/stm32l4-hal-driver/stm32l4xx_ll_rtc.h ****   */
 813:../system/include/stm32l4-hal-driver/stm32l4xx_ll_rtc.h **** 
 814:../system/include/stm32l4-hal-driver/stm32l4xx_ll_rtc.h **** /* Exported macro ------------------------------------------------------------*/
 815:../system/include/stm32l4-hal-driver/stm32l4xx_ll_rtc.h **** /** @defgroup RTC_LL_Exported_Macros RTC Exported Macros
 816:../system/include/stm32l4-hal-driver/stm32l4xx_ll_rtc.h ****   * @{
 817:../system/include/stm32l4-hal-driver/stm32l4xx_ll_rtc.h ****   */
 818:../system/include/stm32l4-hal-driver/stm32l4xx_ll_rtc.h **** 
 819:../system/include/stm32l4-hal-driver/stm32l4xx_ll_rtc.h **** /** @defgroup RTC_LL_EM_WRITE_READ Common Write and read registers Macros
 820:../system/include/stm32l4-hal-driver/stm32l4xx_ll_rtc.h ****   * @{
 821:../system/include/stm32l4-hal-driver/stm32l4xx_ll_rtc.h ****   */
 822:../system/include/stm32l4-hal-driver/stm32l4xx_ll_rtc.h **** 
 823:../system/include/stm32l4-hal-driver/stm32l4xx_ll_rtc.h **** /**
 824:../system/include/stm32l4-hal-driver/stm32l4xx_ll_rtc.h ****   * @brief  Write a value in RTC register
 825:../system/include/stm32l4-hal-driver/stm32l4xx_ll_rtc.h ****   * @param  __INSTANCE__ RTC Instance
 826:../system/include/stm32l4-hal-driver/stm32l4xx_ll_rtc.h ****   * @param  __REG__ Register to be written
 827:../system/include/stm32l4-hal-driver/stm32l4xx_ll_rtc.h ****   * @param  __VALUE__ Value to be written in the register
 828:../system/include/stm32l4-hal-driver/stm32l4xx_ll_rtc.h ****   * @retval None
 829:../system/include/stm32l4-hal-driver/stm32l4xx_ll_rtc.h ****   */
 830:../system/include/stm32l4-hal-driver/stm32l4xx_ll_rtc.h **** #define LL_RTC_WriteReg(__INSTANCE__, __REG__, __VALUE__) WRITE_REG(__INSTANCE__->__REG__, (__VALUE
 831:../system/include/stm32l4-hal-driver/stm32l4xx_ll_rtc.h **** 
 832:../system/include/stm32l4-hal-driver/stm32l4xx_ll_rtc.h **** /**
 833:../system/include/stm32l4-hal-driver/stm32l4xx_ll_rtc.h ****   * @brief  Read a value in RTC register
 834:../system/include/stm32l4-hal-driver/stm32l4xx_ll_rtc.h ****   * @param  __INSTANCE__ RTC Instance
 835:../system/include/stm32l4-hal-driver/stm32l4xx_ll_rtc.h ****   * @param  __REG__ Register to be read
 836:../system/include/stm32l4-hal-driver/stm32l4xx_ll_rtc.h ****   * @retval Register value
 837:../system/include/stm32l4-hal-driver/stm32l4xx_ll_rtc.h ****   */
 838:../system/include/stm32l4-hal-driver/stm32l4xx_ll_rtc.h **** #define LL_RTC_ReadReg(__INSTANCE__, __REG__) READ_REG(__INSTANCE__->__REG__)
 839:../system/include/stm32l4-hal-driver/stm32l4xx_ll_rtc.h **** /**
 840:../system/include/stm32l4-hal-driver/stm32l4xx_ll_rtc.h ****   * @}
 841:../system/include/stm32l4-hal-driver/stm32l4xx_ll_rtc.h ****   */
 842:../system/include/stm32l4-hal-driver/stm32l4xx_ll_rtc.h **** 
 843:../system/include/stm32l4-hal-driver/stm32l4xx_ll_rtc.h **** /** @defgroup RTC_LL_EM_Convert Convert helper Macros
 844:../system/include/stm32l4-hal-driver/stm32l4xx_ll_rtc.h ****   * @{
 845:../system/include/stm32l4-hal-driver/stm32l4xx_ll_rtc.h ****   */
 846:../system/include/stm32l4-hal-driver/stm32l4xx_ll_rtc.h **** 
 847:../system/include/stm32l4-hal-driver/stm32l4xx_ll_rtc.h **** /**
 848:../system/include/stm32l4-hal-driver/stm32l4xx_ll_rtc.h ****   * @brief  Helper macro to convert a value from 2 digit decimal format to BCD format
 849:../system/include/stm32l4-hal-driver/stm32l4xx_ll_rtc.h ****   * @param  __VALUE__ Byte to be converted
 850:../system/include/stm32l4-hal-driver/stm32l4xx_ll_rtc.h ****   * @retval Converted byte
 851:../system/include/stm32l4-hal-driver/stm32l4xx_ll_rtc.h ****   */
 852:../system/include/stm32l4-hal-driver/stm32l4xx_ll_rtc.h **** #define __LL_RTC_CONVERT_BIN2BCD(__VALUE__) (uint8_t)((((__VALUE__) / 10U) << 4U) | ((__VALUE__) % 
 853:../system/include/stm32l4-hal-driver/stm32l4xx_ll_rtc.h **** 
 854:../system/include/stm32l4-hal-driver/stm32l4xx_ll_rtc.h **** /**
 855:../system/include/stm32l4-hal-driver/stm32l4xx_ll_rtc.h ****   * @brief  Helper macro to convert a value from BCD format to 2 digit decimal format
 856:../system/include/stm32l4-hal-driver/stm32l4xx_ll_rtc.h ****   * @param  __VALUE__ BCD value to be converted
 857:../system/include/stm32l4-hal-driver/stm32l4xx_ll_rtc.h ****   * @retval Converted byte
 858:../system/include/stm32l4-hal-driver/stm32l4xx_ll_rtc.h ****   */
 859:../system/include/stm32l4-hal-driver/stm32l4xx_ll_rtc.h **** #define __LL_RTC_CONVERT_BCD2BIN(__VALUE__) (uint8_t)(((uint8_t)((__VALUE__) & (uint8_t)0xF0U) >> (
 860:../system/include/stm32l4-hal-driver/stm32l4xx_ll_rtc.h **** 
 861:../system/include/stm32l4-hal-driver/stm32l4xx_ll_rtc.h **** /**
 862:../system/include/stm32l4-hal-driver/stm32l4xx_ll_rtc.h ****   * @}
 863:../system/include/stm32l4-hal-driver/stm32l4xx_ll_rtc.h ****   */
 864:../system/include/stm32l4-hal-driver/stm32l4xx_ll_rtc.h **** 
 865:../system/include/stm32l4-hal-driver/stm32l4xx_ll_rtc.h **** /** @defgroup RTC_LL_EM_Date Date helper Macros
 866:../system/include/stm32l4-hal-driver/stm32l4xx_ll_rtc.h ****   * @{
 867:../system/include/stm32l4-hal-driver/stm32l4xx_ll_rtc.h ****   */
 868:../system/include/stm32l4-hal-driver/stm32l4xx_ll_rtc.h **** 
 869:../system/include/stm32l4-hal-driver/stm32l4xx_ll_rtc.h **** /**
 870:../system/include/stm32l4-hal-driver/stm32l4xx_ll_rtc.h ****   * @brief  Helper macro to retrieve weekday.
 871:../system/include/stm32l4-hal-driver/stm32l4xx_ll_rtc.h ****   * @param  __RTC_DATE__ Date returned by @ref  LL_RTC_DATE_Get function.
 872:../system/include/stm32l4-hal-driver/stm32l4xx_ll_rtc.h ****   * @retval Returned value can be one of the following values:
 873:../system/include/stm32l4-hal-driver/stm32l4xx_ll_rtc.h ****   *         @arg @ref LL_RTC_WEEKDAY_MONDAY
 874:../system/include/stm32l4-hal-driver/stm32l4xx_ll_rtc.h ****   *         @arg @ref LL_RTC_WEEKDAY_TUESDAY
 875:../system/include/stm32l4-hal-driver/stm32l4xx_ll_rtc.h ****   *         @arg @ref LL_RTC_WEEKDAY_WEDNESDAY
 876:../system/include/stm32l4-hal-driver/stm32l4xx_ll_rtc.h ****   *         @arg @ref LL_RTC_WEEKDAY_THURSDAY
 877:../system/include/stm32l4-hal-driver/stm32l4xx_ll_rtc.h ****   *         @arg @ref LL_RTC_WEEKDAY_FRIDAY
 878:../system/include/stm32l4-hal-driver/stm32l4xx_ll_rtc.h ****   *         @arg @ref LL_RTC_WEEKDAY_SATURDAY
 879:../system/include/stm32l4-hal-driver/stm32l4xx_ll_rtc.h ****   *         @arg @ref LL_RTC_WEEKDAY_SUNDAY
 880:../system/include/stm32l4-hal-driver/stm32l4xx_ll_rtc.h ****   */
 881:../system/include/stm32l4-hal-driver/stm32l4xx_ll_rtc.h **** #define __LL_RTC_GET_WEEKDAY(__RTC_DATE__) (((__RTC_DATE__) >> RTC_OFFSET_WEEKDAY) & 0x000000FFU)
 882:../system/include/stm32l4-hal-driver/stm32l4xx_ll_rtc.h **** 
 883:../system/include/stm32l4-hal-driver/stm32l4xx_ll_rtc.h **** /**
 884:../system/include/stm32l4-hal-driver/stm32l4xx_ll_rtc.h ****   * @brief  Helper macro to retrieve Year in BCD format
 885:../system/include/stm32l4-hal-driver/stm32l4xx_ll_rtc.h ****   * @param  __RTC_DATE__ Value returned by @ref  LL_RTC_DATE_Get
 886:../system/include/stm32l4-hal-driver/stm32l4xx_ll_rtc.h ****   * @retval Year in BCD format (0x00 . . . 0x99)
 887:../system/include/stm32l4-hal-driver/stm32l4xx_ll_rtc.h ****   */
 888:../system/include/stm32l4-hal-driver/stm32l4xx_ll_rtc.h **** #define __LL_RTC_GET_YEAR(__RTC_DATE__) ((__RTC_DATE__) & 0x000000FFU)
 889:../system/include/stm32l4-hal-driver/stm32l4xx_ll_rtc.h **** 
 890:../system/include/stm32l4-hal-driver/stm32l4xx_ll_rtc.h **** /**
 891:../system/include/stm32l4-hal-driver/stm32l4xx_ll_rtc.h ****   * @brief  Helper macro to retrieve Month in BCD format
 892:../system/include/stm32l4-hal-driver/stm32l4xx_ll_rtc.h ****   * @param  __RTC_DATE__ Value returned by @ref  LL_RTC_DATE_Get
 893:../system/include/stm32l4-hal-driver/stm32l4xx_ll_rtc.h ****   * @retval Returned value can be one of the following values:
 894:../system/include/stm32l4-hal-driver/stm32l4xx_ll_rtc.h ****   *         @arg @ref LL_RTC_MONTH_JANUARY
 895:../system/include/stm32l4-hal-driver/stm32l4xx_ll_rtc.h ****   *         @arg @ref LL_RTC_MONTH_FEBRUARY
 896:../system/include/stm32l4-hal-driver/stm32l4xx_ll_rtc.h ****   *         @arg @ref LL_RTC_MONTH_MARCH
 897:../system/include/stm32l4-hal-driver/stm32l4xx_ll_rtc.h ****   *         @arg @ref LL_RTC_MONTH_APRIL
 898:../system/include/stm32l4-hal-driver/stm32l4xx_ll_rtc.h ****   *         @arg @ref LL_RTC_MONTH_MAY
 899:../system/include/stm32l4-hal-driver/stm32l4xx_ll_rtc.h ****   *         @arg @ref LL_RTC_MONTH_JUNE
 900:../system/include/stm32l4-hal-driver/stm32l4xx_ll_rtc.h ****   *         @arg @ref LL_RTC_MONTH_JULY
 901:../system/include/stm32l4-hal-driver/stm32l4xx_ll_rtc.h ****   *         @arg @ref LL_RTC_MONTH_AUGUST
 902:../system/include/stm32l4-hal-driver/stm32l4xx_ll_rtc.h ****   *         @arg @ref LL_RTC_MONTH_SEPTEMBER
 903:../system/include/stm32l4-hal-driver/stm32l4xx_ll_rtc.h ****   *         @arg @ref LL_RTC_MONTH_OCTOBER
 904:../system/include/stm32l4-hal-driver/stm32l4xx_ll_rtc.h ****   *         @arg @ref LL_RTC_MONTH_NOVEMBER
 905:../system/include/stm32l4-hal-driver/stm32l4xx_ll_rtc.h ****   *         @arg @ref LL_RTC_MONTH_DECEMBER
 906:../system/include/stm32l4-hal-driver/stm32l4xx_ll_rtc.h ****   */
 907:../system/include/stm32l4-hal-driver/stm32l4xx_ll_rtc.h **** #define __LL_RTC_GET_MONTH(__RTC_DATE__) (((__RTC_DATE__) >>RTC_OFFSET_MONTH) & 0x000000FFU)
 908:../system/include/stm32l4-hal-driver/stm32l4xx_ll_rtc.h **** 
 909:../system/include/stm32l4-hal-driver/stm32l4xx_ll_rtc.h **** /**
 910:../system/include/stm32l4-hal-driver/stm32l4xx_ll_rtc.h ****   * @brief  Helper macro to retrieve Day in BCD format
 911:../system/include/stm32l4-hal-driver/stm32l4xx_ll_rtc.h ****   * @param  __RTC_DATE__ Value returned by @ref  LL_RTC_DATE_Get
 912:../system/include/stm32l4-hal-driver/stm32l4xx_ll_rtc.h ****   * @retval Day in BCD format (0x01 . . . 0x31)
 913:../system/include/stm32l4-hal-driver/stm32l4xx_ll_rtc.h ****   */
 914:../system/include/stm32l4-hal-driver/stm32l4xx_ll_rtc.h **** #define __LL_RTC_GET_DAY(__RTC_DATE__) (((__RTC_DATE__) >>RTC_OFFSET_DAY) & 0x000000FFU)
 915:../system/include/stm32l4-hal-driver/stm32l4xx_ll_rtc.h **** 
 916:../system/include/stm32l4-hal-driver/stm32l4xx_ll_rtc.h **** /**
 917:../system/include/stm32l4-hal-driver/stm32l4xx_ll_rtc.h ****   * @}
 918:../system/include/stm32l4-hal-driver/stm32l4xx_ll_rtc.h ****   */
 919:../system/include/stm32l4-hal-driver/stm32l4xx_ll_rtc.h **** 
 920:../system/include/stm32l4-hal-driver/stm32l4xx_ll_rtc.h **** /** @defgroup RTC_LL_EM_Time Time helper Macros
 921:../system/include/stm32l4-hal-driver/stm32l4xx_ll_rtc.h ****   * @{
 922:../system/include/stm32l4-hal-driver/stm32l4xx_ll_rtc.h ****   */
 923:../system/include/stm32l4-hal-driver/stm32l4xx_ll_rtc.h **** 
 924:../system/include/stm32l4-hal-driver/stm32l4xx_ll_rtc.h **** /**
 925:../system/include/stm32l4-hal-driver/stm32l4xx_ll_rtc.h ****   * @brief  Helper macro to retrieve hour in BCD format
 926:../system/include/stm32l4-hal-driver/stm32l4xx_ll_rtc.h ****   * @param  __RTC_TIME__ RTC time returned by @ref LL_RTC_TIME_Get function
 927:../system/include/stm32l4-hal-driver/stm32l4xx_ll_rtc.h ****   * @retval Hours in BCD format (0x01. . .0x12 or between Min_Data=0x00 and Max_Data=0x23)
 928:../system/include/stm32l4-hal-driver/stm32l4xx_ll_rtc.h ****   */
 929:../system/include/stm32l4-hal-driver/stm32l4xx_ll_rtc.h **** #define __LL_RTC_GET_HOUR(__RTC_TIME__) (((__RTC_TIME__) >> RTC_OFFSET_HOUR) & 0x000000FFU)
 930:../system/include/stm32l4-hal-driver/stm32l4xx_ll_rtc.h **** 
 931:../system/include/stm32l4-hal-driver/stm32l4xx_ll_rtc.h **** /**
 932:../system/include/stm32l4-hal-driver/stm32l4xx_ll_rtc.h ****   * @brief  Helper macro to retrieve minute in BCD format
 933:../system/include/stm32l4-hal-driver/stm32l4xx_ll_rtc.h ****   * @param  __RTC_TIME__ RTC time returned by @ref LL_RTC_TIME_Get function
 934:../system/include/stm32l4-hal-driver/stm32l4xx_ll_rtc.h ****   * @retval Minutes in BCD format (0x00. . .0x59)
 935:../system/include/stm32l4-hal-driver/stm32l4xx_ll_rtc.h ****   */
 936:../system/include/stm32l4-hal-driver/stm32l4xx_ll_rtc.h **** #define __LL_RTC_GET_MINUTE(__RTC_TIME__) (((__RTC_TIME__) >> RTC_OFFSET_MINUTE) & 0x000000FFU)
 937:../system/include/stm32l4-hal-driver/stm32l4xx_ll_rtc.h **** 
 938:../system/include/stm32l4-hal-driver/stm32l4xx_ll_rtc.h **** /**
 939:../system/include/stm32l4-hal-driver/stm32l4xx_ll_rtc.h ****   * @brief  Helper macro to retrieve second in BCD format
 940:../system/include/stm32l4-hal-driver/stm32l4xx_ll_rtc.h ****   * @param  __RTC_TIME__ RTC time returned by @ref LL_RTC_TIME_Get function
 941:../system/include/stm32l4-hal-driver/stm32l4xx_ll_rtc.h ****   * @retval Seconds in  format (0x00. . .0x59)
 942:../system/include/stm32l4-hal-driver/stm32l4xx_ll_rtc.h ****   */
 943:../system/include/stm32l4-hal-driver/stm32l4xx_ll_rtc.h **** #define __LL_RTC_GET_SECOND(__RTC_TIME__) ((__RTC_TIME__) & 0x000000FFU)
 944:../system/include/stm32l4-hal-driver/stm32l4xx_ll_rtc.h **** 
 945:../system/include/stm32l4-hal-driver/stm32l4xx_ll_rtc.h **** /**
 946:../system/include/stm32l4-hal-driver/stm32l4xx_ll_rtc.h ****   * @}
 947:../system/include/stm32l4-hal-driver/stm32l4xx_ll_rtc.h ****   */
 948:../system/include/stm32l4-hal-driver/stm32l4xx_ll_rtc.h **** 
 949:../system/include/stm32l4-hal-driver/stm32l4xx_ll_rtc.h **** /**
 950:../system/include/stm32l4-hal-driver/stm32l4xx_ll_rtc.h ****   * @}
 951:../system/include/stm32l4-hal-driver/stm32l4xx_ll_rtc.h ****   */
 952:../system/include/stm32l4-hal-driver/stm32l4xx_ll_rtc.h **** 
 953:../system/include/stm32l4-hal-driver/stm32l4xx_ll_rtc.h **** /* Exported functions --------------------------------------------------------*/
 954:../system/include/stm32l4-hal-driver/stm32l4xx_ll_rtc.h **** /** @defgroup RTC_LL_Exported_Functions RTC Exported Functions
 955:../system/include/stm32l4-hal-driver/stm32l4xx_ll_rtc.h ****   * @{
 956:../system/include/stm32l4-hal-driver/stm32l4xx_ll_rtc.h ****   */
 957:../system/include/stm32l4-hal-driver/stm32l4xx_ll_rtc.h **** 
 958:../system/include/stm32l4-hal-driver/stm32l4xx_ll_rtc.h **** /** @defgroup RTC_LL_EF_Configuration Configuration
 959:../system/include/stm32l4-hal-driver/stm32l4xx_ll_rtc.h ****   * @{
 960:../system/include/stm32l4-hal-driver/stm32l4xx_ll_rtc.h ****   */
 961:../system/include/stm32l4-hal-driver/stm32l4xx_ll_rtc.h **** 
 962:../system/include/stm32l4-hal-driver/stm32l4xx_ll_rtc.h **** /**
 963:../system/include/stm32l4-hal-driver/stm32l4xx_ll_rtc.h ****   * @brief  Set Hours format (24 hour/day or AM/PM hour format)
 964:../system/include/stm32l4-hal-driver/stm32l4xx_ll_rtc.h ****   * @note   Bit is write-protected. @ref LL_RTC_DisableWriteProtection function should be called be
 965:../system/include/stm32l4-hal-driver/stm32l4xx_ll_rtc.h ****   * @note   It can be written in initialization mode only (@ref LL_RTC_EnableInitMode function)
 966:../system/include/stm32l4-hal-driver/stm32l4xx_ll_rtc.h ****   * @rmtoll RTC_CR           FMT           LL_RTC_SetHourFormat
 967:../system/include/stm32l4-hal-driver/stm32l4xx_ll_rtc.h ****   * @param  RTCx RTC Instance
 968:../system/include/stm32l4-hal-driver/stm32l4xx_ll_rtc.h ****   * @param  HourFormat This parameter can be one of the following values:
 969:../system/include/stm32l4-hal-driver/stm32l4xx_ll_rtc.h ****   *         @arg @ref LL_RTC_HOURFORMAT_24HOUR
 970:../system/include/stm32l4-hal-driver/stm32l4xx_ll_rtc.h ****   *         @arg @ref LL_RTC_HOURFORMAT_AMPM
 971:../system/include/stm32l4-hal-driver/stm32l4xx_ll_rtc.h ****   * @retval None
 972:../system/include/stm32l4-hal-driver/stm32l4xx_ll_rtc.h ****   */
 973:../system/include/stm32l4-hal-driver/stm32l4xx_ll_rtc.h **** __STATIC_INLINE void LL_RTC_SetHourFormat(RTC_TypeDef *RTCx, uint32_t HourFormat)
 974:../system/include/stm32l4-hal-driver/stm32l4xx_ll_rtc.h **** {
 975:../system/include/stm32l4-hal-driver/stm32l4xx_ll_rtc.h ****   MODIFY_REG(RTCx->CR, RTC_CR_FMT, HourFormat);
 976:../system/include/stm32l4-hal-driver/stm32l4xx_ll_rtc.h **** }
 977:../system/include/stm32l4-hal-driver/stm32l4xx_ll_rtc.h **** 
 978:../system/include/stm32l4-hal-driver/stm32l4xx_ll_rtc.h **** /**
 979:../system/include/stm32l4-hal-driver/stm32l4xx_ll_rtc.h ****   * @brief  Get Hours format (24 hour/day or AM/PM hour format)
 980:../system/include/stm32l4-hal-driver/stm32l4xx_ll_rtc.h ****   * @rmtoll RTC_CR           FMT           LL_RTC_GetHourFormat
 981:../system/include/stm32l4-hal-driver/stm32l4xx_ll_rtc.h ****   * @param  RTCx RTC Instance
 982:../system/include/stm32l4-hal-driver/stm32l4xx_ll_rtc.h ****   * @retval Returned value can be one of the following values:
 983:../system/include/stm32l4-hal-driver/stm32l4xx_ll_rtc.h ****   *         @arg @ref LL_RTC_HOURFORMAT_24HOUR
 984:../system/include/stm32l4-hal-driver/stm32l4xx_ll_rtc.h ****   *         @arg @ref LL_RTC_HOURFORMAT_AMPM
 985:../system/include/stm32l4-hal-driver/stm32l4xx_ll_rtc.h ****   */
 986:../system/include/stm32l4-hal-driver/stm32l4xx_ll_rtc.h **** __STATIC_INLINE uint32_t LL_RTC_GetHourFormat(RTC_TypeDef *RTCx)
 987:../system/include/stm32l4-hal-driver/stm32l4xx_ll_rtc.h **** {
 988:../system/include/stm32l4-hal-driver/stm32l4xx_ll_rtc.h ****   return (uint32_t)(READ_BIT(RTCx->CR, RTC_CR_FMT));
 138              		.loc 2 988 0
 139 0006 8368     		ldr	r3, [r0, #8]
 140              	.LVL5:
 141              	.LBE123:
 142              	.LBE122:
 461:../system/src/stm32l4-hal-driver/stm32l4xx_ll_rtc.c ****   {
 462:../system/src/stm32l4-hal-driver/stm32l4xx_ll_rtc.c ****     if (LL_RTC_GetHourFormat(RTCx) != LL_RTC_HOURFORMAT_24HOUR)
 143              		.loc 1 462 0
 144 0008 13F0400F 		tst	r3, #64
 145 000c 01D1     		bne	.L7
 463:../system/src/stm32l4-hal-driver/stm32l4xx_ll_rtc.c ****     {
 464:../system/src/stm32l4-hal-driver/stm32l4xx_ll_rtc.c ****       assert_param(IS_LL_RTC_HOUR12(RTC_AlarmStruct->AlarmTime.Hours));
 465:../system/src/stm32l4-hal-driver/stm32l4xx_ll_rtc.c ****       assert_param(IS_LL_RTC_TIME_FORMAT(RTC_AlarmStruct->AlarmTime.TimeFormat));
 466:../system/src/stm32l4-hal-driver/stm32l4xx_ll_rtc.c ****     }
 467:../system/src/stm32l4-hal-driver/stm32l4xx_ll_rtc.c ****     else
 468:../system/src/stm32l4-hal-driver/stm32l4xx_ll_rtc.c ****     {
 469:../system/src/stm32l4-hal-driver/stm32l4xx_ll_rtc.c ****       RTC_AlarmStruct->AlarmTime.TimeFormat = 0x00U;
 146              		.loc 1 469 0
 147 000e 0023     		movs	r3, #0
 148 0010 1360     		str	r3, [r2]
 149              	.L7:
 150              	.LVL6:
 151              	.LBB124:
 152              	.LBB125:
 989:../system/include/stm32l4-hal-driver/stm32l4xx_ll_rtc.h **** }
 990:../system/include/stm32l4-hal-driver/stm32l4xx_ll_rtc.h **** 
 991:../system/include/stm32l4-hal-driver/stm32l4xx_ll_rtc.h **** /**
 992:../system/include/stm32l4-hal-driver/stm32l4xx_ll_rtc.h ****   * @brief  Select the flag to be routed to RTC_ALARM output
 993:../system/include/stm32l4-hal-driver/stm32l4xx_ll_rtc.h ****   * @note   Bit is write-protected. @ref LL_RTC_DisableWriteProtection function should be called be
 994:../system/include/stm32l4-hal-driver/stm32l4xx_ll_rtc.h ****   * @rmtoll RTC_CR           OSEL          LL_RTC_SetAlarmOutEvent
 995:../system/include/stm32l4-hal-driver/stm32l4xx_ll_rtc.h ****   * @param  RTCx RTC Instance
 996:../system/include/stm32l4-hal-driver/stm32l4xx_ll_rtc.h ****   * @param  AlarmOutput This parameter can be one of the following values:
 997:../system/include/stm32l4-hal-driver/stm32l4xx_ll_rtc.h ****   *         @arg @ref LL_RTC_ALARMOUT_DISABLE
 998:../system/include/stm32l4-hal-driver/stm32l4xx_ll_rtc.h ****   *         @arg @ref LL_RTC_ALARMOUT_ALMA
 999:../system/include/stm32l4-hal-driver/stm32l4xx_ll_rtc.h ****   *         @arg @ref LL_RTC_ALARMOUT_ALMB
1000:../system/include/stm32l4-hal-driver/stm32l4xx_ll_rtc.h ****   *         @arg @ref LL_RTC_ALARMOUT_WAKEUP
1001:../system/include/stm32l4-hal-driver/stm32l4xx_ll_rtc.h ****   * @retval None
1002:../system/include/stm32l4-hal-driver/stm32l4xx_ll_rtc.h ****   */
1003:../system/include/stm32l4-hal-driver/stm32l4xx_ll_rtc.h **** __STATIC_INLINE void LL_RTC_SetAlarmOutEvent(RTC_TypeDef *RTCx, uint32_t AlarmOutput)
1004:../system/include/stm32l4-hal-driver/stm32l4xx_ll_rtc.h **** {
1005:../system/include/stm32l4-hal-driver/stm32l4xx_ll_rtc.h ****   MODIFY_REG(RTCx->CR, RTC_CR_OSEL, AlarmOutput);
1006:../system/include/stm32l4-hal-driver/stm32l4xx_ll_rtc.h **** }
1007:../system/include/stm32l4-hal-driver/stm32l4xx_ll_rtc.h **** 
1008:../system/include/stm32l4-hal-driver/stm32l4xx_ll_rtc.h **** /**
1009:../system/include/stm32l4-hal-driver/stm32l4xx_ll_rtc.h ****   * @brief  Get the flag to be routed to RTC_ALARM output
1010:../system/include/stm32l4-hal-driver/stm32l4xx_ll_rtc.h ****   * @rmtoll RTC_CR           OSEL          LL_RTC_GetAlarmOutEvent
1011:../system/include/stm32l4-hal-driver/stm32l4xx_ll_rtc.h ****   * @param  RTCx RTC Instance
1012:../system/include/stm32l4-hal-driver/stm32l4xx_ll_rtc.h ****   * @retval Returned value can be one of the following values:
1013:../system/include/stm32l4-hal-driver/stm32l4xx_ll_rtc.h ****   *         @arg @ref LL_RTC_ALARMOUT_DISABLE
1014:../system/include/stm32l4-hal-driver/stm32l4xx_ll_rtc.h ****   *         @arg @ref LL_RTC_ALARMOUT_ALMA
1015:../system/include/stm32l4-hal-driver/stm32l4xx_ll_rtc.h ****   *         @arg @ref LL_RTC_ALARMOUT_ALMB
1016:../system/include/stm32l4-hal-driver/stm32l4xx_ll_rtc.h ****   *         @arg @ref LL_RTC_ALARMOUT_WAKEUP
1017:../system/include/stm32l4-hal-driver/stm32l4xx_ll_rtc.h ****   */
1018:../system/include/stm32l4-hal-driver/stm32l4xx_ll_rtc.h **** __STATIC_INLINE uint32_t LL_RTC_GetAlarmOutEvent(RTC_TypeDef *RTCx)
1019:../system/include/stm32l4-hal-driver/stm32l4xx_ll_rtc.h **** {
1020:../system/include/stm32l4-hal-driver/stm32l4xx_ll_rtc.h ****   return (uint32_t)(READ_BIT(RTCx->CR, RTC_CR_OSEL));
1021:../system/include/stm32l4-hal-driver/stm32l4xx_ll_rtc.h **** }
1022:../system/include/stm32l4-hal-driver/stm32l4xx_ll_rtc.h **** 
1023:../system/include/stm32l4-hal-driver/stm32l4xx_ll_rtc.h **** #if defined(STM32L412xx) || defined(STM32L422xx) || defined (STM32L4P5xx) || defined (STM32L4Q5xx)
1024:../system/include/stm32l4-hal-driver/stm32l4xx_ll_rtc.h **** /**
1025:../system/include/stm32l4-hal-driver/stm32l4xx_ll_rtc.h ****   * @brief  Set RTC_ALARM output type (ALARM in push-pull or open-drain output)
1026:../system/include/stm32l4-hal-driver/stm32l4xx_ll_rtc.h ****   * @rmtoll RTC_CR           TAMPALRM_TYPE          LL_RTC_SetAlarmOutputType
1027:../system/include/stm32l4-hal-driver/stm32l4xx_ll_rtc.h ****   * @param  RTCx RTC Instance
1028:../system/include/stm32l4-hal-driver/stm32l4xx_ll_rtc.h ****   * @param  Output This parameter can be one of the following values:
1029:../system/include/stm32l4-hal-driver/stm32l4xx_ll_rtc.h ****   *         @arg @ref LL_RTC_ALARM_OUTPUTTYPE_OPENDRAIN
1030:../system/include/stm32l4-hal-driver/stm32l4xx_ll_rtc.h ****   *         @arg @ref LL_RTC_ALARM_OUTPUTTYPE_PUSHPULL
1031:../system/include/stm32l4-hal-driver/stm32l4xx_ll_rtc.h ****   * @retval None
1032:../system/include/stm32l4-hal-driver/stm32l4xx_ll_rtc.h ****   */
1033:../system/include/stm32l4-hal-driver/stm32l4xx_ll_rtc.h **** __STATIC_INLINE void LL_RTC_SetAlarmOutputType(RTC_TypeDef *RTCx, uint32_t Output)
1034:../system/include/stm32l4-hal-driver/stm32l4xx_ll_rtc.h **** {
1035:../system/include/stm32l4-hal-driver/stm32l4xx_ll_rtc.h ****   MODIFY_REG(RTCx->CR, RTC_CR_TAMPALRM_TYPE, Output);
1036:../system/include/stm32l4-hal-driver/stm32l4xx_ll_rtc.h **** }
1037:../system/include/stm32l4-hal-driver/stm32l4xx_ll_rtc.h **** 
1038:../system/include/stm32l4-hal-driver/stm32l4xx_ll_rtc.h **** /**
1039:../system/include/stm32l4-hal-driver/stm32l4xx_ll_rtc.h ****   * @brief  Get RTC_ALARM output type (ALARM in push-pull or open-drain output)
1040:../system/include/stm32l4-hal-driver/stm32l4xx_ll_rtc.h ****   * @rmtoll RTC_CR           TAMPALRM_TYPE          LL_RTC_SetAlarmOutputType
1041:../system/include/stm32l4-hal-driver/stm32l4xx_ll_rtc.h ****   * @param  RTCx RTC Instance
1042:../system/include/stm32l4-hal-driver/stm32l4xx_ll_rtc.h ****   * @retval Returned value can be one of the following values:
1043:../system/include/stm32l4-hal-driver/stm32l4xx_ll_rtc.h ****   *         @arg @ref LL_RTC_ALARM_OUTPUTTYPE_OPENDRAIN
1044:../system/include/stm32l4-hal-driver/stm32l4xx_ll_rtc.h ****   *         @arg @ref LL_RTC_ALARM_OUTPUTTYPE_PUSHPULL
1045:../system/include/stm32l4-hal-driver/stm32l4xx_ll_rtc.h ****   */
1046:../system/include/stm32l4-hal-driver/stm32l4xx_ll_rtc.h **** __STATIC_INLINE uint32_t LL_RTC_GetAlarmOutputType(RTC_TypeDef *RTCx)
1047:../system/include/stm32l4-hal-driver/stm32l4xx_ll_rtc.h **** {
1048:../system/include/stm32l4-hal-driver/stm32l4xx_ll_rtc.h ****   return (uint32_t)(READ_BIT(RTCx->CR, RTC_CR_TAMPALRM_TYPE));
1049:../system/include/stm32l4-hal-driver/stm32l4xx_ll_rtc.h **** }
1050:../system/include/stm32l4-hal-driver/stm32l4xx_ll_rtc.h **** 
1051:../system/include/stm32l4-hal-driver/stm32l4xx_ll_rtc.h **** /**
1052:../system/include/stm32l4-hal-driver/stm32l4xx_ll_rtc.h ****   * @brief  Enable initialization mode
1053:../system/include/stm32l4-hal-driver/stm32l4xx_ll_rtc.h ****   * @note   Initialization mode is used to program time and date register (RTC_TR and RTC_DR)
1054:../system/include/stm32l4-hal-driver/stm32l4xx_ll_rtc.h ****   *         and prescaler register (RTC_PRER).
1055:../system/include/stm32l4-hal-driver/stm32l4xx_ll_rtc.h ****   *         Counters are stopped and start counting from the new value when INIT is reset.
1056:../system/include/stm32l4-hal-driver/stm32l4xx_ll_rtc.h ****   * @rmtoll RTC_ICSR          INIT          LL_RTC_EnableInitMode
1057:../system/include/stm32l4-hal-driver/stm32l4xx_ll_rtc.h ****   * @param  RTCx RTC Instance
1058:../system/include/stm32l4-hal-driver/stm32l4xx_ll_rtc.h ****   * @retval None
1059:../system/include/stm32l4-hal-driver/stm32l4xx_ll_rtc.h ****   */
1060:../system/include/stm32l4-hal-driver/stm32l4xx_ll_rtc.h **** __STATIC_INLINE void LL_RTC_EnableInitMode(RTC_TypeDef *RTCx)
1061:../system/include/stm32l4-hal-driver/stm32l4xx_ll_rtc.h **** {
1062:../system/include/stm32l4-hal-driver/stm32l4xx_ll_rtc.h ****   /* Set the Initialization mode */
1063:../system/include/stm32l4-hal-driver/stm32l4xx_ll_rtc.h ****   SET_BIT(RTCx->ICSR, RTC_ICSR_INIT);
1064:../system/include/stm32l4-hal-driver/stm32l4xx_ll_rtc.h **** }
1065:../system/include/stm32l4-hal-driver/stm32l4xx_ll_rtc.h **** 
1066:../system/include/stm32l4-hal-driver/stm32l4xx_ll_rtc.h **** /**
1067:../system/include/stm32l4-hal-driver/stm32l4xx_ll_rtc.h ****   * @brief  Disable initialization mode (Free running mode)
1068:../system/include/stm32l4-hal-driver/stm32l4xx_ll_rtc.h ****   * @rmtoll RTC_ICSR          INIT          LL_RTC_DisableInitMode
1069:../system/include/stm32l4-hal-driver/stm32l4xx_ll_rtc.h ****   * @param  RTCx RTC Instance
1070:../system/include/stm32l4-hal-driver/stm32l4xx_ll_rtc.h ****   * @retval None
1071:../system/include/stm32l4-hal-driver/stm32l4xx_ll_rtc.h ****   */
1072:../system/include/stm32l4-hal-driver/stm32l4xx_ll_rtc.h **** __STATIC_INLINE void LL_RTC_DisableInitMode(RTC_TypeDef *RTCx)
1073:../system/include/stm32l4-hal-driver/stm32l4xx_ll_rtc.h **** {
1074:../system/include/stm32l4-hal-driver/stm32l4xx_ll_rtc.h ****   /* Exit Initialization mode */
1075:../system/include/stm32l4-hal-driver/stm32l4xx_ll_rtc.h ****   CLEAR_BIT(RTCx->ICSR, RTC_ICSR_INIT);
1076:../system/include/stm32l4-hal-driver/stm32l4xx_ll_rtc.h **** }
1077:../system/include/stm32l4-hal-driver/stm32l4xx_ll_rtc.h **** 
1078:../system/include/stm32l4-hal-driver/stm32l4xx_ll_rtc.h **** #else /* #if defined(STM32L412xx) || defined(STM32L422xx) || defined (STM32L4P5xx) || defined (STM3
1079:../system/include/stm32l4-hal-driver/stm32l4xx_ll_rtc.h **** 
1080:../system/include/stm32l4-hal-driver/stm32l4xx_ll_rtc.h **** /**
1081:../system/include/stm32l4-hal-driver/stm32l4xx_ll_rtc.h ****   * @brief  Set RTC_ALARM output type (ALARM in push-pull or open-drain output)
1082:../system/include/stm32l4-hal-driver/stm32l4xx_ll_rtc.h ****   * @note   Used only when RTC_ALARM is mapped on PC13
1083:../system/include/stm32l4-hal-driver/stm32l4xx_ll_rtc.h ****   * @rmtoll OR        ALARMOUTTYPE  LL_RTC_SetAlarmOutputType
1084:../system/include/stm32l4-hal-driver/stm32l4xx_ll_rtc.h ****   * @param  RTCx RTC Instance
1085:../system/include/stm32l4-hal-driver/stm32l4xx_ll_rtc.h ****   * @param  Output This parameter can be one of the following values:
1086:../system/include/stm32l4-hal-driver/stm32l4xx_ll_rtc.h ****   *         @arg @ref LL_RTC_ALARM_OUTPUTTYPE_OPENDRAIN
1087:../system/include/stm32l4-hal-driver/stm32l4xx_ll_rtc.h ****   *         @arg @ref LL_RTC_ALARM_OUTPUTTYPE_PUSHPULL
1088:../system/include/stm32l4-hal-driver/stm32l4xx_ll_rtc.h ****   * @retval None
1089:../system/include/stm32l4-hal-driver/stm32l4xx_ll_rtc.h ****   */
1090:../system/include/stm32l4-hal-driver/stm32l4xx_ll_rtc.h **** __STATIC_INLINE void LL_RTC_SetAlarmOutputType(RTC_TypeDef *RTCx, uint32_t Output)
1091:../system/include/stm32l4-hal-driver/stm32l4xx_ll_rtc.h **** {
1092:../system/include/stm32l4-hal-driver/stm32l4xx_ll_rtc.h ****   MODIFY_REG(RTCx->OR, RTC_OR_ALARMOUTTYPE, Output);
1093:../system/include/stm32l4-hal-driver/stm32l4xx_ll_rtc.h **** }
1094:../system/include/stm32l4-hal-driver/stm32l4xx_ll_rtc.h **** 
1095:../system/include/stm32l4-hal-driver/stm32l4xx_ll_rtc.h **** /**
1096:../system/include/stm32l4-hal-driver/stm32l4xx_ll_rtc.h ****   * @brief  Get RTC_ALARM output type (ALARM in push-pull or open-drain output)
1097:../system/include/stm32l4-hal-driver/stm32l4xx_ll_rtc.h ****   * @note   used only when RTC_ALARM is mapped on PC13
1098:../system/include/stm32l4-hal-driver/stm32l4xx_ll_rtc.h ****   * @rmtoll OR        ALARMOUTTYPE  LL_RTC_GetAlarmOutputType
1099:../system/include/stm32l4-hal-driver/stm32l4xx_ll_rtc.h ****   * @param  RTCx RTC Instance
1100:../system/include/stm32l4-hal-driver/stm32l4xx_ll_rtc.h ****   * @retval Returned value can be one of the following values:
1101:../system/include/stm32l4-hal-driver/stm32l4xx_ll_rtc.h ****   *         @arg @ref LL_RTC_ALARM_OUTPUTTYPE_OPENDRAIN
1102:../system/include/stm32l4-hal-driver/stm32l4xx_ll_rtc.h ****   *         @arg @ref LL_RTC_ALARM_OUTPUTTYPE_PUSHPULL
1103:../system/include/stm32l4-hal-driver/stm32l4xx_ll_rtc.h ****   */
1104:../system/include/stm32l4-hal-driver/stm32l4xx_ll_rtc.h **** __STATIC_INLINE uint32_t LL_RTC_GetAlarmOutputType(RTC_TypeDef *RTCx)
1105:../system/include/stm32l4-hal-driver/stm32l4xx_ll_rtc.h **** {
1106:../system/include/stm32l4-hal-driver/stm32l4xx_ll_rtc.h ****   return (uint32_t)(READ_BIT(RTCx->OR, RTC_OR_ALARMOUTTYPE));
1107:../system/include/stm32l4-hal-driver/stm32l4xx_ll_rtc.h **** }
1108:../system/include/stm32l4-hal-driver/stm32l4xx_ll_rtc.h **** 
1109:../system/include/stm32l4-hal-driver/stm32l4xx_ll_rtc.h **** /**
1110:../system/include/stm32l4-hal-driver/stm32l4xx_ll_rtc.h ****   * @brief  Enable initialization mode
1111:../system/include/stm32l4-hal-driver/stm32l4xx_ll_rtc.h ****   * @note   Initialization mode is used to program time and date register (RTC_TR and RTC_DR)
1112:../system/include/stm32l4-hal-driver/stm32l4xx_ll_rtc.h ****   *         and prescaler register (RTC_PRER).
1113:../system/include/stm32l4-hal-driver/stm32l4xx_ll_rtc.h ****   *         Counters are stopped and start counting from the new value when INIT is reset.
1114:../system/include/stm32l4-hal-driver/stm32l4xx_ll_rtc.h ****   * @rmtoll ISR          INIT          LL_RTC_EnableInitMode
1115:../system/include/stm32l4-hal-driver/stm32l4xx_ll_rtc.h ****   * @param  RTCx RTC Instance
1116:../system/include/stm32l4-hal-driver/stm32l4xx_ll_rtc.h ****   * @retval None
1117:../system/include/stm32l4-hal-driver/stm32l4xx_ll_rtc.h ****   */
1118:../system/include/stm32l4-hal-driver/stm32l4xx_ll_rtc.h **** __STATIC_INLINE void LL_RTC_EnableInitMode(RTC_TypeDef *RTCx)
1119:../system/include/stm32l4-hal-driver/stm32l4xx_ll_rtc.h **** {
1120:../system/include/stm32l4-hal-driver/stm32l4xx_ll_rtc.h ****   /* Set the Initialization mode */
1121:../system/include/stm32l4-hal-driver/stm32l4xx_ll_rtc.h ****   WRITE_REG(RTCx->ISR, RTC_LL_INIT_MASK);
1122:../system/include/stm32l4-hal-driver/stm32l4xx_ll_rtc.h **** }
1123:../system/include/stm32l4-hal-driver/stm32l4xx_ll_rtc.h **** 
1124:../system/include/stm32l4-hal-driver/stm32l4xx_ll_rtc.h **** /**
1125:../system/include/stm32l4-hal-driver/stm32l4xx_ll_rtc.h ****   * @brief  Disable initialization mode (Free running mode)
1126:../system/include/stm32l4-hal-driver/stm32l4xx_ll_rtc.h ****   * @rmtoll ISR          INIT          LL_RTC_DisableInitMode
1127:../system/include/stm32l4-hal-driver/stm32l4xx_ll_rtc.h ****   * @param  RTCx RTC Instance
1128:../system/include/stm32l4-hal-driver/stm32l4xx_ll_rtc.h ****   * @retval None
1129:../system/include/stm32l4-hal-driver/stm32l4xx_ll_rtc.h ****   */
1130:../system/include/stm32l4-hal-driver/stm32l4xx_ll_rtc.h **** __STATIC_INLINE void LL_RTC_DisableInitMode(RTC_TypeDef *RTCx)
1131:../system/include/stm32l4-hal-driver/stm32l4xx_ll_rtc.h **** {
1132:../system/include/stm32l4-hal-driver/stm32l4xx_ll_rtc.h ****   /* Exit Initialization mode */
1133:../system/include/stm32l4-hal-driver/stm32l4xx_ll_rtc.h ****   WRITE_REG(RTCx->ISR, (uint32_t)~RTC_ISR_INIT);
1134:../system/include/stm32l4-hal-driver/stm32l4xx_ll_rtc.h **** }
1135:../system/include/stm32l4-hal-driver/stm32l4xx_ll_rtc.h **** #endif /* #if defined(STM32L412xx) || defined(STM32L422xx) || defined (STM32L4P5xx) || defined (STM
1136:../system/include/stm32l4-hal-driver/stm32l4xx_ll_rtc.h **** 
1137:../system/include/stm32l4-hal-driver/stm32l4xx_ll_rtc.h **** 
1138:../system/include/stm32l4-hal-driver/stm32l4xx_ll_rtc.h **** #if defined (STM32L4P5xx) || defined (STM32L4Q5xx)
1139:../system/include/stm32l4-hal-driver/stm32l4xx_ll_rtc.h **** /**
1140:../system/include/stm32l4-hal-driver/stm32l4xx_ll_rtc.h ****   * @brief  Set Binary mode (Sub Second Register)
1141:../system/include/stm32l4-hal-driver/stm32l4xx_ll_rtc.h ****   * @note   Bit is write-protected. @ref LL_RTC_DisableWriteProtection function should be called be
1142:../system/include/stm32l4-hal-driver/stm32l4xx_ll_rtc.h ****   * @note   It can be written in initialization mode only (@ref LL_RTC_EnableInitMode function).
1143:../system/include/stm32l4-hal-driver/stm32l4xx_ll_rtc.h ****   * @rmtoll RTC_ICSR           BIN           LL_RTC_SetBinaryMode
1144:../system/include/stm32l4-hal-driver/stm32l4xx_ll_rtc.h ****   * @param  RTCx RTC Instance
1145:../system/include/stm32l4-hal-driver/stm32l4xx_ll_rtc.h ****   * @param  BinaryMode can be one of the following values:
1146:../system/include/stm32l4-hal-driver/stm32l4xx_ll_rtc.h ****   *         @arg @ref LL_RTC_BINARY_NONE
1147:../system/include/stm32l4-hal-driver/stm32l4xx_ll_rtc.h ****   *         @arg @ref LL_RTC_BINARY_ONLY
1148:../system/include/stm32l4-hal-driver/stm32l4xx_ll_rtc.h ****   *         @arg @ref LL_RTC_BINARY_BINARY_MIX
1149:../system/include/stm32l4-hal-driver/stm32l4xx_ll_rtc.h ****   * @retval None
1150:../system/include/stm32l4-hal-driver/stm32l4xx_ll_rtc.h ****   */
1151:../system/include/stm32l4-hal-driver/stm32l4xx_ll_rtc.h **** __STATIC_INLINE void LL_RTC_SetBinaryMode(RTC_TypeDef *RTCx, uint32_t BinaryMode)
1152:../system/include/stm32l4-hal-driver/stm32l4xx_ll_rtc.h **** {
1153:../system/include/stm32l4-hal-driver/stm32l4xx_ll_rtc.h ****   MODIFY_REG(RTCx->ICSR, RTC_ICSR_BIN, BinaryMode);
1154:../system/include/stm32l4-hal-driver/stm32l4xx_ll_rtc.h **** }
1155:../system/include/stm32l4-hal-driver/stm32l4xx_ll_rtc.h **** 
1156:../system/include/stm32l4-hal-driver/stm32l4xx_ll_rtc.h **** /**
1157:../system/include/stm32l4-hal-driver/stm32l4xx_ll_rtc.h ****   * @brief  Get Binary mode (Sub Second Register)
1158:../system/include/stm32l4-hal-driver/stm32l4xx_ll_rtc.h ****   * @rmtoll RTC_ICSR           BIN           LL_RTC_GetBinaryMode
1159:../system/include/stm32l4-hal-driver/stm32l4xx_ll_rtc.h ****   * @param  RTCx RTC Instance
1160:../system/include/stm32l4-hal-driver/stm32l4xx_ll_rtc.h ****   * @retval This parameter can be one of the following values:
1161:../system/include/stm32l4-hal-driver/stm32l4xx_ll_rtc.h ****   *         @arg @ref LL_RTC_BINARY_NONE
1162:../system/include/stm32l4-hal-driver/stm32l4xx_ll_rtc.h ****   *         @arg @ref LL_RTC_BINARY_ONLY
1163:../system/include/stm32l4-hal-driver/stm32l4xx_ll_rtc.h ****   *         @arg @ref LL_RTC_BINARY_BINARY_MIX
1164:../system/include/stm32l4-hal-driver/stm32l4xx_ll_rtc.h ****   * @retval None
1165:../system/include/stm32l4-hal-driver/stm32l4xx_ll_rtc.h ****   */
1166:../system/include/stm32l4-hal-driver/stm32l4xx_ll_rtc.h **** __STATIC_INLINE uint32_t LL_RTC_GetBinaryMode(RTC_TypeDef *RTCx)
1167:../system/include/stm32l4-hal-driver/stm32l4xx_ll_rtc.h **** {
1168:../system/include/stm32l4-hal-driver/stm32l4xx_ll_rtc.h ****   return (uint32_t)(READ_BIT(RTCx->ICSR, RTC_ICSR_BIN));
1169:../system/include/stm32l4-hal-driver/stm32l4xx_ll_rtc.h **** }
1170:../system/include/stm32l4-hal-driver/stm32l4xx_ll_rtc.h **** 
1171:../system/include/stm32l4-hal-driver/stm32l4xx_ll_rtc.h **** /**
1172:../system/include/stm32l4-hal-driver/stm32l4xx_ll_rtc.h ****   * @brief  Set Binary Mix mode BCDU
1173:../system/include/stm32l4-hal-driver/stm32l4xx_ll_rtc.h ****   * @note   Bit is write-protected. @ref LL_RTC_DisableWriteProtection function should be called be
1174:../system/include/stm32l4-hal-driver/stm32l4xx_ll_rtc.h ****   * @note   It can be written in initialization mode only (@ref LL_RTC_EnableInitMode function).
1175:../system/include/stm32l4-hal-driver/stm32l4xx_ll_rtc.h ****   * @rmtoll RTC_ICSR           BCDU          LL_RTC_SetBinMixBCDU
1176:../system/include/stm32l4-hal-driver/stm32l4xx_ll_rtc.h ****   * @param  RTCx RTC Instance
1177:../system/include/stm32l4-hal-driver/stm32l4xx_ll_rtc.h ****   * @param  BinMixBcdU can be one of the following values:
1178:../system/include/stm32l4-hal-driver/stm32l4xx_ll_rtc.h ****   *         @arg @ref LL_RTC_BINARY_MIX_BCDU_0
1179:../system/include/stm32l4-hal-driver/stm32l4xx_ll_rtc.h ****   *         @arg @ref LL_RTC_BINARY_MIX_BCDU_1
1180:../system/include/stm32l4-hal-driver/stm32l4xx_ll_rtc.h ****   *         @arg @ref LL_RTC_BINARY_MIX_BCDU_2
1181:../system/include/stm32l4-hal-driver/stm32l4xx_ll_rtc.h ****   *         @arg @ref LL_RTC_BINARY_MIX_BCDU_3
1182:../system/include/stm32l4-hal-driver/stm32l4xx_ll_rtc.h ****   *         @arg @ref LL_RTC_BINARY_MIX_BCDU_4
1183:../system/include/stm32l4-hal-driver/stm32l4xx_ll_rtc.h ****   *         @arg @ref LL_RTC_BINARY_MIX_BCDU_5
1184:../system/include/stm32l4-hal-driver/stm32l4xx_ll_rtc.h ****   *         @arg @ref LL_RTC_BINARY_MIX_BCDU_6
1185:../system/include/stm32l4-hal-driver/stm32l4xx_ll_rtc.h ****   *         @arg @ref LL_RTC_BINARY_MIX_BCDU_7
1186:../system/include/stm32l4-hal-driver/stm32l4xx_ll_rtc.h ****   * @retval None
1187:../system/include/stm32l4-hal-driver/stm32l4xx_ll_rtc.h ****   */
1188:../system/include/stm32l4-hal-driver/stm32l4xx_ll_rtc.h **** __STATIC_INLINE void LL_RTC_SetBinMixBCDU(RTC_TypeDef *RTCx, uint32_t BinMixBcdU)
1189:../system/include/stm32l4-hal-driver/stm32l4xx_ll_rtc.h **** {
1190:../system/include/stm32l4-hal-driver/stm32l4xx_ll_rtc.h ****   MODIFY_REG(RTCx->ICSR, RTC_ICSR_BCDU, BinMixBcdU);
1191:../system/include/stm32l4-hal-driver/stm32l4xx_ll_rtc.h **** }
1192:../system/include/stm32l4-hal-driver/stm32l4xx_ll_rtc.h **** 
1193:../system/include/stm32l4-hal-driver/stm32l4xx_ll_rtc.h **** /**
1194:../system/include/stm32l4-hal-driver/stm32l4xx_ll_rtc.h ****   * @brief  Get Binary Mix mode BCDU
1195:../system/include/stm32l4-hal-driver/stm32l4xx_ll_rtc.h ****   * @rmtoll RTC_ICSR           BCDU          LL_RTC_GetBinMixBCDU
1196:../system/include/stm32l4-hal-driver/stm32l4xx_ll_rtc.h ****   * @param  RTCx RTC Instance
1197:../system/include/stm32l4-hal-driver/stm32l4xx_ll_rtc.h ****   * @retval This parameter can be one of the following values:
1198:../system/include/stm32l4-hal-driver/stm32l4xx_ll_rtc.h ****   *         @arg @ref LL_RTC_BINARY_MIX_BCDU_0
1199:../system/include/stm32l4-hal-driver/stm32l4xx_ll_rtc.h ****   *         @arg @ref LL_RTC_BINARY_MIX_BCDU_1
1200:../system/include/stm32l4-hal-driver/stm32l4xx_ll_rtc.h ****   *         @arg @ref LL_RTC_BINARY_MIX_BCDU_2
1201:../system/include/stm32l4-hal-driver/stm32l4xx_ll_rtc.h ****   *         @arg @ref LL_RTC_BINARY_MIX_BCDU_3
1202:../system/include/stm32l4-hal-driver/stm32l4xx_ll_rtc.h ****   *         @arg @ref LL_RTC_BINARY_MIX_BCDU_4
1203:../system/include/stm32l4-hal-driver/stm32l4xx_ll_rtc.h ****   *         @arg @ref LL_RTC_BINARY_MIX_BCDU_5
1204:../system/include/stm32l4-hal-driver/stm32l4xx_ll_rtc.h ****   *         @arg @ref LL_RTC_BINARY_MIX_BCDU_6
1205:../system/include/stm32l4-hal-driver/stm32l4xx_ll_rtc.h ****   *         @arg @ref LL_RTC_BINARY_MIX_BCDU_7
1206:../system/include/stm32l4-hal-driver/stm32l4xx_ll_rtc.h ****   * @retval None
1207:../system/include/stm32l4-hal-driver/stm32l4xx_ll_rtc.h ****   */
1208:../system/include/stm32l4-hal-driver/stm32l4xx_ll_rtc.h **** __STATIC_INLINE uint32_t LL_RTC_GetBinMixBCDU(RTC_TypeDef *RTCx)
1209:../system/include/stm32l4-hal-driver/stm32l4xx_ll_rtc.h **** {
1210:../system/include/stm32l4-hal-driver/stm32l4xx_ll_rtc.h ****   return (uint32_t)(READ_BIT(RTCx->ICSR, RTC_ICSR_BCDU));
1211:../system/include/stm32l4-hal-driver/stm32l4xx_ll_rtc.h **** }
1212:../system/include/stm32l4-hal-driver/stm32l4xx_ll_rtc.h **** #endif /* #if defined (STM32L4P5xx) || defined (STM32L4Q5xx) */
1213:../system/include/stm32l4-hal-driver/stm32l4xx_ll_rtc.h **** 
1214:../system/include/stm32l4-hal-driver/stm32l4xx_ll_rtc.h **** 
1215:../system/include/stm32l4-hal-driver/stm32l4xx_ll_rtc.h **** /**
1216:../system/include/stm32l4-hal-driver/stm32l4xx_ll_rtc.h ****   * @brief  Set Output polarity (pin is low when ALRAF/ALRBF/WUTF is asserted)
1217:../system/include/stm32l4-hal-driver/stm32l4xx_ll_rtc.h ****   * @note   Bit is write-protected. @ref LL_RTC_DisableWriteProtection function should be called be
1218:../system/include/stm32l4-hal-driver/stm32l4xx_ll_rtc.h ****   * @rmtoll RTC_CR           POL           LL_RTC_SetOutputPolarity
1219:../system/include/stm32l4-hal-driver/stm32l4xx_ll_rtc.h ****   * @param  RTCx RTC Instance
1220:../system/include/stm32l4-hal-driver/stm32l4xx_ll_rtc.h ****   * @param  Polarity This parameter can be one of the following values:
1221:../system/include/stm32l4-hal-driver/stm32l4xx_ll_rtc.h ****   *         @arg @ref LL_RTC_OUTPUTPOLARITY_PIN_HIGH
1222:../system/include/stm32l4-hal-driver/stm32l4xx_ll_rtc.h ****   *         @arg @ref LL_RTC_OUTPUTPOLARITY_PIN_LOW
1223:../system/include/stm32l4-hal-driver/stm32l4xx_ll_rtc.h ****   * @retval None
1224:../system/include/stm32l4-hal-driver/stm32l4xx_ll_rtc.h ****   */
1225:../system/include/stm32l4-hal-driver/stm32l4xx_ll_rtc.h **** __STATIC_INLINE void LL_RTC_SetOutputPolarity(RTC_TypeDef *RTCx, uint32_t Polarity)
1226:../system/include/stm32l4-hal-driver/stm32l4xx_ll_rtc.h **** {
1227:../system/include/stm32l4-hal-driver/stm32l4xx_ll_rtc.h ****   MODIFY_REG(RTCx->CR, RTC_CR_POL, Polarity);
1228:../system/include/stm32l4-hal-driver/stm32l4xx_ll_rtc.h **** }
1229:../system/include/stm32l4-hal-driver/stm32l4xx_ll_rtc.h **** 
1230:../system/include/stm32l4-hal-driver/stm32l4xx_ll_rtc.h **** /**
1231:../system/include/stm32l4-hal-driver/stm32l4xx_ll_rtc.h ****   * @brief  Get Output polarity
1232:../system/include/stm32l4-hal-driver/stm32l4xx_ll_rtc.h ****   * @rmtoll RTC_CR           POL           LL_RTC_GetOutputPolarity
1233:../system/include/stm32l4-hal-driver/stm32l4xx_ll_rtc.h ****   * @param  RTCx RTC Instance
1234:../system/include/stm32l4-hal-driver/stm32l4xx_ll_rtc.h ****   * @retval Returned value can be one of the following values:
1235:../system/include/stm32l4-hal-driver/stm32l4xx_ll_rtc.h ****   *         @arg @ref LL_RTC_OUTPUTPOLARITY_PIN_HIGH
1236:../system/include/stm32l4-hal-driver/stm32l4xx_ll_rtc.h ****   *         @arg @ref LL_RTC_OUTPUTPOLARITY_PIN_LOW
1237:../system/include/stm32l4-hal-driver/stm32l4xx_ll_rtc.h ****   */
1238:../system/include/stm32l4-hal-driver/stm32l4xx_ll_rtc.h **** __STATIC_INLINE uint32_t LL_RTC_GetOutputPolarity(RTC_TypeDef *RTCx)
1239:../system/include/stm32l4-hal-driver/stm32l4xx_ll_rtc.h **** {
1240:../system/include/stm32l4-hal-driver/stm32l4xx_ll_rtc.h ****   return (uint32_t)(READ_BIT(RTCx->CR, RTC_CR_POL));
1241:../system/include/stm32l4-hal-driver/stm32l4xx_ll_rtc.h **** }
1242:../system/include/stm32l4-hal-driver/stm32l4xx_ll_rtc.h **** 
1243:../system/include/stm32l4-hal-driver/stm32l4xx_ll_rtc.h **** /**
1244:../system/include/stm32l4-hal-driver/stm32l4xx_ll_rtc.h ****   * @brief  Enable Bypass the shadow registers
1245:../system/include/stm32l4-hal-driver/stm32l4xx_ll_rtc.h ****   * @note   Bit is write-protected. @ref LL_RTC_DisableWriteProtection function should be called be
1246:../system/include/stm32l4-hal-driver/stm32l4xx_ll_rtc.h ****   * @rmtoll RTC_CR           BYPSHAD       LL_RTC_EnableShadowRegBypass
1247:../system/include/stm32l4-hal-driver/stm32l4xx_ll_rtc.h ****   * @param  RTCx RTC Instance
1248:../system/include/stm32l4-hal-driver/stm32l4xx_ll_rtc.h ****   * @retval None
1249:../system/include/stm32l4-hal-driver/stm32l4xx_ll_rtc.h ****   */
1250:../system/include/stm32l4-hal-driver/stm32l4xx_ll_rtc.h **** __STATIC_INLINE void LL_RTC_EnableShadowRegBypass(RTC_TypeDef *RTCx)
1251:../system/include/stm32l4-hal-driver/stm32l4xx_ll_rtc.h **** {
1252:../system/include/stm32l4-hal-driver/stm32l4xx_ll_rtc.h ****   SET_BIT(RTCx->CR, RTC_CR_BYPSHAD);
1253:../system/include/stm32l4-hal-driver/stm32l4xx_ll_rtc.h **** }
1254:../system/include/stm32l4-hal-driver/stm32l4xx_ll_rtc.h **** 
1255:../system/include/stm32l4-hal-driver/stm32l4xx_ll_rtc.h **** /**
1256:../system/include/stm32l4-hal-driver/stm32l4xx_ll_rtc.h ****   * @brief  Disable Bypass the shadow registers
1257:../system/include/stm32l4-hal-driver/stm32l4xx_ll_rtc.h ****   * @rmtoll RTC_CR           BYPSHAD       LL_RTC_DisableShadowRegBypass
1258:../system/include/stm32l4-hal-driver/stm32l4xx_ll_rtc.h ****   * @param  RTCx RTC Instance
1259:../system/include/stm32l4-hal-driver/stm32l4xx_ll_rtc.h ****   * @retval None
1260:../system/include/stm32l4-hal-driver/stm32l4xx_ll_rtc.h ****   */
1261:../system/include/stm32l4-hal-driver/stm32l4xx_ll_rtc.h **** __STATIC_INLINE void LL_RTC_DisableShadowRegBypass(RTC_TypeDef *RTCx)
1262:../system/include/stm32l4-hal-driver/stm32l4xx_ll_rtc.h **** {
1263:../system/include/stm32l4-hal-driver/stm32l4xx_ll_rtc.h ****   CLEAR_BIT(RTCx->CR, RTC_CR_BYPSHAD);
1264:../system/include/stm32l4-hal-driver/stm32l4xx_ll_rtc.h **** }
1265:../system/include/stm32l4-hal-driver/stm32l4xx_ll_rtc.h **** 
1266:../system/include/stm32l4-hal-driver/stm32l4xx_ll_rtc.h **** /**
1267:../system/include/stm32l4-hal-driver/stm32l4xx_ll_rtc.h ****   * @brief  Check if Shadow registers bypass is enabled or not.
1268:../system/include/stm32l4-hal-driver/stm32l4xx_ll_rtc.h ****   * @rmtoll RTC_CR           BYPSHAD       LL_RTC_IsShadowRegBypassEnabled
1269:../system/include/stm32l4-hal-driver/stm32l4xx_ll_rtc.h ****   * @param  RTCx RTC Instance
1270:../system/include/stm32l4-hal-driver/stm32l4xx_ll_rtc.h ****   * @retval State of bit (1 or 0).
1271:../system/include/stm32l4-hal-driver/stm32l4xx_ll_rtc.h ****   */
1272:../system/include/stm32l4-hal-driver/stm32l4xx_ll_rtc.h **** __STATIC_INLINE uint32_t LL_RTC_IsShadowRegBypassEnabled(RTC_TypeDef *RTCx)
1273:../system/include/stm32l4-hal-driver/stm32l4xx_ll_rtc.h **** {
1274:../system/include/stm32l4-hal-driver/stm32l4xx_ll_rtc.h ****   return (READ_BIT(RTCx->CR, RTC_CR_BYPSHAD) == (RTC_CR_BYPSHAD));
1275:../system/include/stm32l4-hal-driver/stm32l4xx_ll_rtc.h **** }
1276:../system/include/stm32l4-hal-driver/stm32l4xx_ll_rtc.h **** 
1277:../system/include/stm32l4-hal-driver/stm32l4xx_ll_rtc.h **** /**
1278:../system/include/stm32l4-hal-driver/stm32l4xx_ll_rtc.h ****   * @brief  Enable RTC_REFIN reference clock detection (50 or 60 Hz)
1279:../system/include/stm32l4-hal-driver/stm32l4xx_ll_rtc.h ****   * @note   Bit is write-protected. @ref LL_RTC_DisableWriteProtection function should be called be
1280:../system/include/stm32l4-hal-driver/stm32l4xx_ll_rtc.h ****   * @note   It can be written in initialization mode only (@ref LL_RTC_EnableInitMode function)
1281:../system/include/stm32l4-hal-driver/stm32l4xx_ll_rtc.h ****   * @rmtoll RTC_CR           REFCKON       LL_RTC_EnableRefClock
1282:../system/include/stm32l4-hal-driver/stm32l4xx_ll_rtc.h ****   * @param  RTCx RTC Instance
1283:../system/include/stm32l4-hal-driver/stm32l4xx_ll_rtc.h ****   * @retval None
1284:../system/include/stm32l4-hal-driver/stm32l4xx_ll_rtc.h ****   */
1285:../system/include/stm32l4-hal-driver/stm32l4xx_ll_rtc.h **** __STATIC_INLINE void LL_RTC_EnableRefClock(RTC_TypeDef *RTCx)
1286:../system/include/stm32l4-hal-driver/stm32l4xx_ll_rtc.h **** {
1287:../system/include/stm32l4-hal-driver/stm32l4xx_ll_rtc.h ****   SET_BIT(RTCx->CR, RTC_CR_REFCKON);
1288:../system/include/stm32l4-hal-driver/stm32l4xx_ll_rtc.h **** }
1289:../system/include/stm32l4-hal-driver/stm32l4xx_ll_rtc.h **** 
1290:../system/include/stm32l4-hal-driver/stm32l4xx_ll_rtc.h **** /**
1291:../system/include/stm32l4-hal-driver/stm32l4xx_ll_rtc.h ****   * @brief  Disable RTC_REFIN reference clock detection (50 or 60 Hz)
1292:../system/include/stm32l4-hal-driver/stm32l4xx_ll_rtc.h ****   * @note   Bit is write-protected. @ref LL_RTC_DisableWriteProtection function should be called be
1293:../system/include/stm32l4-hal-driver/stm32l4xx_ll_rtc.h ****   * @note   It can be written in initialization mode only (@ref LL_RTC_EnableInitMode function)
1294:../system/include/stm32l4-hal-driver/stm32l4xx_ll_rtc.h ****   * @rmtoll RTC_CR           REFCKON       LL_RTC_DisableRefClock
1295:../system/include/stm32l4-hal-driver/stm32l4xx_ll_rtc.h ****   * @param  RTCx RTC Instance
1296:../system/include/stm32l4-hal-driver/stm32l4xx_ll_rtc.h ****   * @retval None
1297:../system/include/stm32l4-hal-driver/stm32l4xx_ll_rtc.h ****   */
1298:../system/include/stm32l4-hal-driver/stm32l4xx_ll_rtc.h **** __STATIC_INLINE void LL_RTC_DisableRefClock(RTC_TypeDef *RTCx)
1299:../system/include/stm32l4-hal-driver/stm32l4xx_ll_rtc.h **** {
1300:../system/include/stm32l4-hal-driver/stm32l4xx_ll_rtc.h ****   CLEAR_BIT(RTCx->CR, RTC_CR_REFCKON);
1301:../system/include/stm32l4-hal-driver/stm32l4xx_ll_rtc.h **** }
1302:../system/include/stm32l4-hal-driver/stm32l4xx_ll_rtc.h **** 
1303:../system/include/stm32l4-hal-driver/stm32l4xx_ll_rtc.h **** /**
1304:../system/include/stm32l4-hal-driver/stm32l4xx_ll_rtc.h ****   * @brief  Set Asynchronous prescaler factor
1305:../system/include/stm32l4-hal-driver/stm32l4xx_ll_rtc.h ****   * @rmtoll RTC_PRER         PREDIV_A      LL_RTC_SetAsynchPrescaler
1306:../system/include/stm32l4-hal-driver/stm32l4xx_ll_rtc.h ****   * @param  RTCx RTC Instance
1307:../system/include/stm32l4-hal-driver/stm32l4xx_ll_rtc.h ****   * @param  AsynchPrescaler Value between Min_Data = 0 and Max_Data = 0x7F
1308:../system/include/stm32l4-hal-driver/stm32l4xx_ll_rtc.h ****   * @retval None
1309:../system/include/stm32l4-hal-driver/stm32l4xx_ll_rtc.h ****   */
1310:../system/include/stm32l4-hal-driver/stm32l4xx_ll_rtc.h **** __STATIC_INLINE void LL_RTC_SetAsynchPrescaler(RTC_TypeDef *RTCx, uint32_t AsynchPrescaler)
1311:../system/include/stm32l4-hal-driver/stm32l4xx_ll_rtc.h **** {
1312:../system/include/stm32l4-hal-driver/stm32l4xx_ll_rtc.h ****   MODIFY_REG(RTCx->PRER, RTC_PRER_PREDIV_A, AsynchPrescaler << RTC_PRER_PREDIV_A_Pos);
1313:../system/include/stm32l4-hal-driver/stm32l4xx_ll_rtc.h **** }
1314:../system/include/stm32l4-hal-driver/stm32l4xx_ll_rtc.h **** 
1315:../system/include/stm32l4-hal-driver/stm32l4xx_ll_rtc.h **** /**
1316:../system/include/stm32l4-hal-driver/stm32l4xx_ll_rtc.h ****   * @brief  Set Synchronous prescaler factor
1317:../system/include/stm32l4-hal-driver/stm32l4xx_ll_rtc.h ****   * @rmtoll RTC_PRER         PREDIV_S      LL_RTC_SetSynchPrescaler
1318:../system/include/stm32l4-hal-driver/stm32l4xx_ll_rtc.h ****   * @param  RTCx RTC Instance
1319:../system/include/stm32l4-hal-driver/stm32l4xx_ll_rtc.h ****   * @param  SynchPrescaler Value between Min_Data = 0 and Max_Data = 0x7FFF
1320:../system/include/stm32l4-hal-driver/stm32l4xx_ll_rtc.h ****   * @retval None
1321:../system/include/stm32l4-hal-driver/stm32l4xx_ll_rtc.h ****   */
1322:../system/include/stm32l4-hal-driver/stm32l4xx_ll_rtc.h **** __STATIC_INLINE void LL_RTC_SetSynchPrescaler(RTC_TypeDef *RTCx, uint32_t SynchPrescaler)
1323:../system/include/stm32l4-hal-driver/stm32l4xx_ll_rtc.h **** {
1324:../system/include/stm32l4-hal-driver/stm32l4xx_ll_rtc.h ****   MODIFY_REG(RTCx->PRER, RTC_PRER_PREDIV_S, SynchPrescaler);
1325:../system/include/stm32l4-hal-driver/stm32l4xx_ll_rtc.h **** }
1326:../system/include/stm32l4-hal-driver/stm32l4xx_ll_rtc.h **** 
1327:../system/include/stm32l4-hal-driver/stm32l4xx_ll_rtc.h **** /**
1328:../system/include/stm32l4-hal-driver/stm32l4xx_ll_rtc.h ****   * @brief  Get Asynchronous prescaler factor
1329:../system/include/stm32l4-hal-driver/stm32l4xx_ll_rtc.h ****   * @rmtoll RTC_PRER         PREDIV_A      LL_RTC_GetAsynchPrescaler
1330:../system/include/stm32l4-hal-driver/stm32l4xx_ll_rtc.h ****   * @param  RTCx RTC Instance
1331:../system/include/stm32l4-hal-driver/stm32l4xx_ll_rtc.h ****   * @retval Value between Min_Data = 0 and Max_Data = 0x7F
1332:../system/include/stm32l4-hal-driver/stm32l4xx_ll_rtc.h ****   */
1333:../system/include/stm32l4-hal-driver/stm32l4xx_ll_rtc.h **** __STATIC_INLINE uint32_t LL_RTC_GetAsynchPrescaler(RTC_TypeDef *RTCx)
1334:../system/include/stm32l4-hal-driver/stm32l4xx_ll_rtc.h **** {
1335:../system/include/stm32l4-hal-driver/stm32l4xx_ll_rtc.h ****   return (uint32_t)(READ_BIT(RTCx->PRER, RTC_PRER_PREDIV_A) >> RTC_PRER_PREDIV_A_Pos);
1336:../system/include/stm32l4-hal-driver/stm32l4xx_ll_rtc.h **** }
1337:../system/include/stm32l4-hal-driver/stm32l4xx_ll_rtc.h **** 
1338:../system/include/stm32l4-hal-driver/stm32l4xx_ll_rtc.h **** /**
1339:../system/include/stm32l4-hal-driver/stm32l4xx_ll_rtc.h ****   * @brief  Get Synchronous prescaler factor
1340:../system/include/stm32l4-hal-driver/stm32l4xx_ll_rtc.h ****   * @rmtoll RTC_PRER         PREDIV_S      LL_RTC_GetSynchPrescaler
1341:../system/include/stm32l4-hal-driver/stm32l4xx_ll_rtc.h ****   * @param  RTCx RTC Instance
1342:../system/include/stm32l4-hal-driver/stm32l4xx_ll_rtc.h ****   * @retval Value between Min_Data = 0 and Max_Data = 0x7FFF
1343:../system/include/stm32l4-hal-driver/stm32l4xx_ll_rtc.h ****   */
1344:../system/include/stm32l4-hal-driver/stm32l4xx_ll_rtc.h **** __STATIC_INLINE uint32_t LL_RTC_GetSynchPrescaler(RTC_TypeDef *RTCx)
1345:../system/include/stm32l4-hal-driver/stm32l4xx_ll_rtc.h **** {
1346:../system/include/stm32l4-hal-driver/stm32l4xx_ll_rtc.h ****   return (uint32_t)(READ_BIT(RTCx->PRER, RTC_PRER_PREDIV_S));
1347:../system/include/stm32l4-hal-driver/stm32l4xx_ll_rtc.h **** }
1348:../system/include/stm32l4-hal-driver/stm32l4xx_ll_rtc.h **** 
1349:../system/include/stm32l4-hal-driver/stm32l4xx_ll_rtc.h **** /**
1350:../system/include/stm32l4-hal-driver/stm32l4xx_ll_rtc.h ****   * @brief  Enable the write protection for RTC registers.
1351:../system/include/stm32l4-hal-driver/stm32l4xx_ll_rtc.h ****   * @rmtoll RTC_WPR          KEY           LL_RTC_EnableWriteProtection
1352:../system/include/stm32l4-hal-driver/stm32l4xx_ll_rtc.h ****   * @param  RTCx RTC Instance
1353:../system/include/stm32l4-hal-driver/stm32l4xx_ll_rtc.h ****   * @retval None
1354:../system/include/stm32l4-hal-driver/stm32l4xx_ll_rtc.h ****   */
1355:../system/include/stm32l4-hal-driver/stm32l4xx_ll_rtc.h **** __STATIC_INLINE void LL_RTC_EnableWriteProtection(RTC_TypeDef *RTCx)
1356:../system/include/stm32l4-hal-driver/stm32l4xx_ll_rtc.h **** {
1357:../system/include/stm32l4-hal-driver/stm32l4xx_ll_rtc.h ****   WRITE_REG(RTCx->WPR, RTC_WRITE_PROTECTION_DISABLE);
1358:../system/include/stm32l4-hal-driver/stm32l4xx_ll_rtc.h **** }
1359:../system/include/stm32l4-hal-driver/stm32l4xx_ll_rtc.h **** 
1360:../system/include/stm32l4-hal-driver/stm32l4xx_ll_rtc.h **** /**
1361:../system/include/stm32l4-hal-driver/stm32l4xx_ll_rtc.h ****   * @brief  Disable the write protection for RTC registers.
1362:../system/include/stm32l4-hal-driver/stm32l4xx_ll_rtc.h ****   * @rmtoll RTC_WPR          KEY           LL_RTC_DisableWriteProtection
1363:../system/include/stm32l4-hal-driver/stm32l4xx_ll_rtc.h ****   * @param  RTCx RTC Instance
1364:../system/include/stm32l4-hal-driver/stm32l4xx_ll_rtc.h ****   * @retval None
1365:../system/include/stm32l4-hal-driver/stm32l4xx_ll_rtc.h ****   */
1366:../system/include/stm32l4-hal-driver/stm32l4xx_ll_rtc.h **** __STATIC_INLINE void LL_RTC_DisableWriteProtection(RTC_TypeDef *RTCx)
1367:../system/include/stm32l4-hal-driver/stm32l4xx_ll_rtc.h **** {
1368:../system/include/stm32l4-hal-driver/stm32l4xx_ll_rtc.h ****   WRITE_REG(RTCx->WPR, RTC_WRITE_PROTECTION_ENABLE_1);
 153              		.loc 2 1368 0
 154 0012 CA23     		movs	r3, #202
 155 0014 4362     		str	r3, [r0, #36]
1369:../system/include/stm32l4-hal-driver/stm32l4xx_ll_rtc.h ****   WRITE_REG(RTCx->WPR, RTC_WRITE_PROTECTION_ENABLE_2);
 156              		.loc 2 1369 0
 157 0016 5323     		movs	r3, #83
 158 0018 4362     		str	r3, [r0, #36]
 159              	.LVL7:
 160              	.LBE125:
 161              	.LBE124:
 470:../system/src/stm32l4-hal-driver/stm32l4xx_ll_rtc.c ****       assert_param(IS_LL_RTC_HOUR24(RTC_AlarmStruct->AlarmTime.Hours));
 471:../system/src/stm32l4-hal-driver/stm32l4xx_ll_rtc.c ****     }
 472:../system/src/stm32l4-hal-driver/stm32l4xx_ll_rtc.c ****     assert_param(IS_LL_RTC_MINUTES(RTC_AlarmStruct->AlarmTime.Minutes));
 473:../system/src/stm32l4-hal-driver/stm32l4xx_ll_rtc.c ****     assert_param(IS_LL_RTC_SECONDS(RTC_AlarmStruct->AlarmTime.Seconds));
 474:../system/src/stm32l4-hal-driver/stm32l4xx_ll_rtc.c **** 
 475:../system/src/stm32l4-hal-driver/stm32l4xx_ll_rtc.c ****     if (RTC_AlarmStruct->AlarmDateWeekDaySel == LL_RTC_ALMA_DATEWEEKDAYSEL_DATE)
 476:../system/src/stm32l4-hal-driver/stm32l4xx_ll_rtc.c ****     {
 477:../system/src/stm32l4-hal-driver/stm32l4xx_ll_rtc.c ****       assert_param(IS_LL_RTC_DAY(RTC_AlarmStruct->AlarmDateWeekDay));
 478:../system/src/stm32l4-hal-driver/stm32l4xx_ll_rtc.c ****     }
 479:../system/src/stm32l4-hal-driver/stm32l4xx_ll_rtc.c ****     else
 480:../system/src/stm32l4-hal-driver/stm32l4xx_ll_rtc.c ****     {
 481:../system/src/stm32l4-hal-driver/stm32l4xx_ll_rtc.c ****       assert_param(IS_LL_RTC_WEEKDAY(RTC_AlarmStruct->AlarmDateWeekDay));
 482:../system/src/stm32l4-hal-driver/stm32l4xx_ll_rtc.c ****     }
 483:../system/src/stm32l4-hal-driver/stm32l4xx_ll_rtc.c ****   }
 484:../system/src/stm32l4-hal-driver/stm32l4xx_ll_rtc.c ****   else
 485:../system/src/stm32l4-hal-driver/stm32l4xx_ll_rtc.c ****   {
 486:../system/src/stm32l4-hal-driver/stm32l4xx_ll_rtc.c ****     if (LL_RTC_GetHourFormat(RTCx) != LL_RTC_HOURFORMAT_24HOUR)
 487:../system/src/stm32l4-hal-driver/stm32l4xx_ll_rtc.c ****     {
 488:../system/src/stm32l4-hal-driver/stm32l4xx_ll_rtc.c ****       assert_param(IS_LL_RTC_HOUR12(__LL_RTC_CONVERT_BCD2BIN(RTC_AlarmStruct->AlarmTime.Hours)));
 489:../system/src/stm32l4-hal-driver/stm32l4xx_ll_rtc.c ****       assert_param(IS_LL_RTC_TIME_FORMAT(RTC_AlarmStruct->AlarmTime.TimeFormat));
 490:../system/src/stm32l4-hal-driver/stm32l4xx_ll_rtc.c ****     }
 491:../system/src/stm32l4-hal-driver/stm32l4xx_ll_rtc.c ****     else
 492:../system/src/stm32l4-hal-driver/stm32l4xx_ll_rtc.c ****     {
 493:../system/src/stm32l4-hal-driver/stm32l4xx_ll_rtc.c ****       RTC_AlarmStruct->AlarmTime.TimeFormat = 0x00U;
 494:../system/src/stm32l4-hal-driver/stm32l4xx_ll_rtc.c ****       assert_param(IS_LL_RTC_HOUR24(__LL_RTC_CONVERT_BCD2BIN(RTC_AlarmStruct->AlarmTime.Hours)));
 495:../system/src/stm32l4-hal-driver/stm32l4xx_ll_rtc.c ****     }
 496:../system/src/stm32l4-hal-driver/stm32l4xx_ll_rtc.c **** 
 497:../system/src/stm32l4-hal-driver/stm32l4xx_ll_rtc.c ****     assert_param(IS_LL_RTC_MINUTES(__LL_RTC_CONVERT_BCD2BIN(RTC_AlarmStruct->AlarmTime.Minutes)));
 498:../system/src/stm32l4-hal-driver/stm32l4xx_ll_rtc.c ****     assert_param(IS_LL_RTC_SECONDS(__LL_RTC_CONVERT_BCD2BIN(RTC_AlarmStruct->AlarmTime.Seconds)));
 499:../system/src/stm32l4-hal-driver/stm32l4xx_ll_rtc.c **** 
 500:../system/src/stm32l4-hal-driver/stm32l4xx_ll_rtc.c ****     if (RTC_AlarmStruct->AlarmDateWeekDaySel == LL_RTC_ALMA_DATEWEEKDAYSEL_DATE)
 501:../system/src/stm32l4-hal-driver/stm32l4xx_ll_rtc.c ****     {
 502:../system/src/stm32l4-hal-driver/stm32l4xx_ll_rtc.c ****       assert_param(IS_LL_RTC_DAY(__LL_RTC_CONVERT_BCD2BIN(RTC_AlarmStruct->AlarmDateWeekDay)));
 503:../system/src/stm32l4-hal-driver/stm32l4xx_ll_rtc.c ****     }
 504:../system/src/stm32l4-hal-driver/stm32l4xx_ll_rtc.c ****     else
 505:../system/src/stm32l4-hal-driver/stm32l4xx_ll_rtc.c ****     {
 506:../system/src/stm32l4-hal-driver/stm32l4xx_ll_rtc.c ****       assert_param(IS_LL_RTC_WEEKDAY(__LL_RTC_CONVERT_BCD2BIN(RTC_AlarmStruct->AlarmDateWeekDay)));
 507:../system/src/stm32l4-hal-driver/stm32l4xx_ll_rtc.c ****     }
 508:../system/src/stm32l4-hal-driver/stm32l4xx_ll_rtc.c ****   }
 509:../system/src/stm32l4-hal-driver/stm32l4xx_ll_rtc.c **** 
 510:../system/src/stm32l4-hal-driver/stm32l4xx_ll_rtc.c ****   /* Disable the write protection for RTC registers */
 511:../system/src/stm32l4-hal-driver/stm32l4xx_ll_rtc.c ****   LL_RTC_DisableWriteProtection(RTCx);
 512:../system/src/stm32l4-hal-driver/stm32l4xx_ll_rtc.c **** 
 513:../system/src/stm32l4-hal-driver/stm32l4xx_ll_rtc.c ****   /* Select weekday selection */
 514:../system/src/stm32l4-hal-driver/stm32l4xx_ll_rtc.c ****   if (RTC_AlarmStruct->AlarmDateWeekDaySel == LL_RTC_ALMA_DATEWEEKDAYSEL_DATE)
 162              		.loc 1 514 0
 163 001a D368     		ldr	r3, [r2, #12]
 164 001c 33BB     		cbnz	r3, .L9
 165              	.LVL8:
 166              	.LBB126:
 167              	.LBB127:
1370:../system/include/stm32l4-hal-driver/stm32l4xx_ll_rtc.h **** }
1371:../system/include/stm32l4-hal-driver/stm32l4xx_ll_rtc.h **** 
1372:../system/include/stm32l4-hal-driver/stm32l4xx_ll_rtc.h **** #if defined(STM32L412xx) || defined(STM32L422xx) || defined (STM32L4P5xx) || defined (STM32L4Q5xx)
1373:../system/include/stm32l4-hal-driver/stm32l4xx_ll_rtc.h **** /**
1374:../system/include/stm32l4-hal-driver/stm32l4xx_ll_rtc.h ****   * @brief  Enable tamper output.
1375:../system/include/stm32l4-hal-driver/stm32l4xx_ll_rtc.h ****   * @note When the tamper output is enabled, all external and internal tamper flags
1376:../system/include/stm32l4-hal-driver/stm32l4xx_ll_rtc.h ****   *       are ORed and routed to the TAMPALRM output.
1377:../system/include/stm32l4-hal-driver/stm32l4xx_ll_rtc.h ****   * @rmtoll RTC_CR           TAMPOE       LL_RTC_EnableTamperOutput
1378:../system/include/stm32l4-hal-driver/stm32l4xx_ll_rtc.h ****   * @param  RTCx RTC Instance
1379:../system/include/stm32l4-hal-driver/stm32l4xx_ll_rtc.h ****   * @retval None
1380:../system/include/stm32l4-hal-driver/stm32l4xx_ll_rtc.h ****   */
1381:../system/include/stm32l4-hal-driver/stm32l4xx_ll_rtc.h **** __STATIC_INLINE void LL_RTC_EnableTamperOutput(RTC_TypeDef *RTCx)
1382:../system/include/stm32l4-hal-driver/stm32l4xx_ll_rtc.h **** {
1383:../system/include/stm32l4-hal-driver/stm32l4xx_ll_rtc.h ****   SET_BIT(RTCx->CR, RTC_CR_TAMPOE);
1384:../system/include/stm32l4-hal-driver/stm32l4xx_ll_rtc.h **** }
1385:../system/include/stm32l4-hal-driver/stm32l4xx_ll_rtc.h **** 
1386:../system/include/stm32l4-hal-driver/stm32l4xx_ll_rtc.h **** /**
1387:../system/include/stm32l4-hal-driver/stm32l4xx_ll_rtc.h ****   * @brief  Disable tamper output.
1388:../system/include/stm32l4-hal-driver/stm32l4xx_ll_rtc.h ****   * @rmtoll RTC_CR           TAMPOE       LL_RTC_DisableTamperOutput
1389:../system/include/stm32l4-hal-driver/stm32l4xx_ll_rtc.h ****   * @param  RTCx RTC Instance
1390:../system/include/stm32l4-hal-driver/stm32l4xx_ll_rtc.h ****   * @retval None
1391:../system/include/stm32l4-hal-driver/stm32l4xx_ll_rtc.h ****   */
1392:../system/include/stm32l4-hal-driver/stm32l4xx_ll_rtc.h **** __STATIC_INLINE void LL_RTC_DisableTamperOutput(RTC_TypeDef *RTCx)
1393:../system/include/stm32l4-hal-driver/stm32l4xx_ll_rtc.h **** {
1394:../system/include/stm32l4-hal-driver/stm32l4xx_ll_rtc.h ****   CLEAR_BIT(RTCx->CR, RTC_CR_TAMPOE);
1395:../system/include/stm32l4-hal-driver/stm32l4xx_ll_rtc.h **** }
1396:../system/include/stm32l4-hal-driver/stm32l4xx_ll_rtc.h **** 
1397:../system/include/stm32l4-hal-driver/stm32l4xx_ll_rtc.h **** /**
1398:../system/include/stm32l4-hal-driver/stm32l4xx_ll_rtc.h ****   * @brief  Check if tamper output is enabled or not.
1399:../system/include/stm32l4-hal-driver/stm32l4xx_ll_rtc.h ****   * @rmtoll RTC_CR           TAMPOE       LL_RTC_IsTamperOutputEnabled
1400:../system/include/stm32l4-hal-driver/stm32l4xx_ll_rtc.h ****   * @param  RTCx RTC Instance
1401:../system/include/stm32l4-hal-driver/stm32l4xx_ll_rtc.h ****   * @retval State of bit (1 or 0).
1402:../system/include/stm32l4-hal-driver/stm32l4xx_ll_rtc.h ****   */
1403:../system/include/stm32l4-hal-driver/stm32l4xx_ll_rtc.h **** __STATIC_INLINE uint32_t LL_RTC_IsTamperOutputEnabled(RTC_TypeDef *RTCx)
1404:../system/include/stm32l4-hal-driver/stm32l4xx_ll_rtc.h **** {
1405:../system/include/stm32l4-hal-driver/stm32l4xx_ll_rtc.h ****   return (READ_BIT(RTCx->CR, RTC_CR_TAMPOE) == (RTC_CR_TAMPOE));
1406:../system/include/stm32l4-hal-driver/stm32l4xx_ll_rtc.h **** }
1407:../system/include/stm32l4-hal-driver/stm32l4xx_ll_rtc.h **** 
1408:../system/include/stm32l4-hal-driver/stm32l4xx_ll_rtc.h **** /**
1409:../system/include/stm32l4-hal-driver/stm32l4xx_ll_rtc.h ****   * @brief  Enable internal pull-up in output mode.
1410:../system/include/stm32l4-hal-driver/stm32l4xx_ll_rtc.h ****   * @rmtoll RTC_CR           TAMPALRM_PU       LL_RTC_EnableAlarmPullUp
1411:../system/include/stm32l4-hal-driver/stm32l4xx_ll_rtc.h ****   * @param  RTCx RTC Instance
1412:../system/include/stm32l4-hal-driver/stm32l4xx_ll_rtc.h ****   * @retval None
1413:../system/include/stm32l4-hal-driver/stm32l4xx_ll_rtc.h ****   */
1414:../system/include/stm32l4-hal-driver/stm32l4xx_ll_rtc.h **** __STATIC_INLINE void LL_RTC_EnableAlarmPullUp(RTC_TypeDef *RTCx)
1415:../system/include/stm32l4-hal-driver/stm32l4xx_ll_rtc.h **** {
1416:../system/include/stm32l4-hal-driver/stm32l4xx_ll_rtc.h ****   SET_BIT(RTCx->CR, RTC_CR_TAMPALRM_PU);
1417:../system/include/stm32l4-hal-driver/stm32l4xx_ll_rtc.h **** }
1418:../system/include/stm32l4-hal-driver/stm32l4xx_ll_rtc.h **** 
1419:../system/include/stm32l4-hal-driver/stm32l4xx_ll_rtc.h **** /**
1420:../system/include/stm32l4-hal-driver/stm32l4xx_ll_rtc.h ****   * @brief  Disable internal pull-up in output mode.
1421:../system/include/stm32l4-hal-driver/stm32l4xx_ll_rtc.h ****   * @rmtoll RTC_CR           TAMPALRM_PU       LL_RTC_EnableAlarmPullUp
1422:../system/include/stm32l4-hal-driver/stm32l4xx_ll_rtc.h ****   * @param  RTCx RTC Instance
1423:../system/include/stm32l4-hal-driver/stm32l4xx_ll_rtc.h ****   * @retval None
1424:../system/include/stm32l4-hal-driver/stm32l4xx_ll_rtc.h ****   */
1425:../system/include/stm32l4-hal-driver/stm32l4xx_ll_rtc.h **** __STATIC_INLINE void LL_RTC_DisableAlarmPullUp(RTC_TypeDef *RTCx)
1426:../system/include/stm32l4-hal-driver/stm32l4xx_ll_rtc.h **** {
1427:../system/include/stm32l4-hal-driver/stm32l4xx_ll_rtc.h ****   CLEAR_BIT(RTCx->CR, RTC_CR_TAMPALRM_PU);
1428:../system/include/stm32l4-hal-driver/stm32l4xx_ll_rtc.h **** }
1429:../system/include/stm32l4-hal-driver/stm32l4xx_ll_rtc.h **** 
1430:../system/include/stm32l4-hal-driver/stm32l4xx_ll_rtc.h **** /**
1431:../system/include/stm32l4-hal-driver/stm32l4xx_ll_rtc.h ****   * @brief  Check if internal pull-up in output mode is enabled or not.
1432:../system/include/stm32l4-hal-driver/stm32l4xx_ll_rtc.h ****   * @rmtoll RTC_CR           TAMPALRM_PU       LL_RTC_IsAlarmPullUpEnabled
1433:../system/include/stm32l4-hal-driver/stm32l4xx_ll_rtc.h ****   * @param  RTCx RTC Instance
1434:../system/include/stm32l4-hal-driver/stm32l4xx_ll_rtc.h ****   * @retval State of bit (1 or 0).
1435:../system/include/stm32l4-hal-driver/stm32l4xx_ll_rtc.h ****   */
1436:../system/include/stm32l4-hal-driver/stm32l4xx_ll_rtc.h **** __STATIC_INLINE uint32_t LL_RTC_IsAlarmPullUpEnabled(RTC_TypeDef *RTCx)
1437:../system/include/stm32l4-hal-driver/stm32l4xx_ll_rtc.h **** {
1438:../system/include/stm32l4-hal-driver/stm32l4xx_ll_rtc.h ****   return (READ_BIT(RTCx->CR, RTC_CR_TAMPALRM_PU) == (RTC_CR_TAMPALRM_PU));
1439:../system/include/stm32l4-hal-driver/stm32l4xx_ll_rtc.h **** }
1440:../system/include/stm32l4-hal-driver/stm32l4xx_ll_rtc.h **** 
1441:../system/include/stm32l4-hal-driver/stm32l4xx_ll_rtc.h **** /**
1442:../system/include/stm32l4-hal-driver/stm32l4xx_ll_rtc.h ****   * @brief  Enable RTC_OUT2 output
1443:../system/include/stm32l4-hal-driver/stm32l4xx_ll_rtc.h ****   * @note RTC_OUT2 mapping depends on both OSEL (@ref LL_RTC_SetAlarmOutEvent)
1444:../system/include/stm32l4-hal-driver/stm32l4xx_ll_rtc.h ****   *       and COE (@ref LL_RTC_CAL_SetOutputFreq) settings.
1445:../system/include/stm32l4-hal-driver/stm32l4xx_ll_rtc.h ****   * @note RTC_OUT2 isn't available ins VBAT mode.
1446:../system/include/stm32l4-hal-driver/stm32l4xx_ll_rtc.h ****   * @rmtoll RTC_CR           OUT2EN       LL_RTC_EnableOutput2
1447:../system/include/stm32l4-hal-driver/stm32l4xx_ll_rtc.h ****   * @param  RTCx RTC Instance
1448:../system/include/stm32l4-hal-driver/stm32l4xx_ll_rtc.h ****   * @retval None
1449:../system/include/stm32l4-hal-driver/stm32l4xx_ll_rtc.h ****   */
1450:../system/include/stm32l4-hal-driver/stm32l4xx_ll_rtc.h **** __STATIC_INLINE void LL_RTC_EnableOutput2(RTC_TypeDef *RTCx)
1451:../system/include/stm32l4-hal-driver/stm32l4xx_ll_rtc.h **** {
1452:../system/include/stm32l4-hal-driver/stm32l4xx_ll_rtc.h ****   SET_BIT(RTCx->CR, RTC_CR_OUT2EN);
1453:../system/include/stm32l4-hal-driver/stm32l4xx_ll_rtc.h **** }
1454:../system/include/stm32l4-hal-driver/stm32l4xx_ll_rtc.h **** 
1455:../system/include/stm32l4-hal-driver/stm32l4xx_ll_rtc.h **** /**
1456:../system/include/stm32l4-hal-driver/stm32l4xx_ll_rtc.h ****   * @brief  Disable RTC_OUT2 output
1457:../system/include/stm32l4-hal-driver/stm32l4xx_ll_rtc.h ****   * @rmtoll RTC_CR           OUT2EN       LL_RTC_DisableOutput2
1458:../system/include/stm32l4-hal-driver/stm32l4xx_ll_rtc.h ****   * @param  RTCx RTC Instance
1459:../system/include/stm32l4-hal-driver/stm32l4xx_ll_rtc.h ****   * @retval None
1460:../system/include/stm32l4-hal-driver/stm32l4xx_ll_rtc.h ****   */
1461:../system/include/stm32l4-hal-driver/stm32l4xx_ll_rtc.h **** __STATIC_INLINE void LL_RTC_DisableOutput2(RTC_TypeDef *RTCx)
1462:../system/include/stm32l4-hal-driver/stm32l4xx_ll_rtc.h **** {
1463:../system/include/stm32l4-hal-driver/stm32l4xx_ll_rtc.h ****   CLEAR_BIT(RTCx->CR, RTC_CR_OUT2EN);
1464:../system/include/stm32l4-hal-driver/stm32l4xx_ll_rtc.h **** }
1465:../system/include/stm32l4-hal-driver/stm32l4xx_ll_rtc.h **** 
1466:../system/include/stm32l4-hal-driver/stm32l4xx_ll_rtc.h **** /**
1467:../system/include/stm32l4-hal-driver/stm32l4xx_ll_rtc.h ****   * @brief  Check if RTC_OUT2 output is enabled or not.
1468:../system/include/stm32l4-hal-driver/stm32l4xx_ll_rtc.h ****   * @rmtoll RTC_CR           OUT2EN       LL_RTC_IsOutput2Enabled
1469:../system/include/stm32l4-hal-driver/stm32l4xx_ll_rtc.h ****   * @param  RTCx RTC Instance
1470:../system/include/stm32l4-hal-driver/stm32l4xx_ll_rtc.h ****   * @retval State of bit (1 or 0).
1471:../system/include/stm32l4-hal-driver/stm32l4xx_ll_rtc.h ****   */
1472:../system/include/stm32l4-hal-driver/stm32l4xx_ll_rtc.h **** __STATIC_INLINE uint32_t LL_RTC_IsOutput2Enabled(RTC_TypeDef *RTCx)
1473:../system/include/stm32l4-hal-driver/stm32l4xx_ll_rtc.h **** {
1474:../system/include/stm32l4-hal-driver/stm32l4xx_ll_rtc.h ****   return (READ_BIT(RTCx->CR, RTC_CR_OUT2EN) == (RTC_CR_OUT2EN));
1475:../system/include/stm32l4-hal-driver/stm32l4xx_ll_rtc.h **** }
1476:../system/include/stm32l4-hal-driver/stm32l4xx_ll_rtc.h **** 
1477:../system/include/stm32l4-hal-driver/stm32l4xx_ll_rtc.h **** #else /* #if defined(STM32L412xx) || defined(STM32L422xx) || defined (STM32L4P5xx) || defined (STM3
1478:../system/include/stm32l4-hal-driver/stm32l4xx_ll_rtc.h **** 
1479:../system/include/stm32l4-hal-driver/stm32l4xx_ll_rtc.h **** /**
1480:../system/include/stm32l4-hal-driver/stm32l4xx_ll_rtc.h ****   * @brief  Enable RTC_OUT remap
1481:../system/include/stm32l4-hal-driver/stm32l4xx_ll_rtc.h ****   * @rmtoll OR           OUT_RMP       LL_RTC_EnableOutRemap
1482:../system/include/stm32l4-hal-driver/stm32l4xx_ll_rtc.h ****   * @param  RTCx RTC Instance
1483:../system/include/stm32l4-hal-driver/stm32l4xx_ll_rtc.h ****   * @retval None
1484:../system/include/stm32l4-hal-driver/stm32l4xx_ll_rtc.h ****   */
1485:../system/include/stm32l4-hal-driver/stm32l4xx_ll_rtc.h **** __STATIC_INLINE void LL_RTC_EnableOutRemap(RTC_TypeDef *RTCx)
1486:../system/include/stm32l4-hal-driver/stm32l4xx_ll_rtc.h **** {
1487:../system/include/stm32l4-hal-driver/stm32l4xx_ll_rtc.h ****   SET_BIT(RTCx->OR, RTC_OR_OUT_RMP);
1488:../system/include/stm32l4-hal-driver/stm32l4xx_ll_rtc.h **** }
1489:../system/include/stm32l4-hal-driver/stm32l4xx_ll_rtc.h **** 
1490:../system/include/stm32l4-hal-driver/stm32l4xx_ll_rtc.h **** /**
1491:../system/include/stm32l4-hal-driver/stm32l4xx_ll_rtc.h ****   * @brief  Disable RTC_OUT remap
1492:../system/include/stm32l4-hal-driver/stm32l4xx_ll_rtc.h ****   * @rmtoll OR           OUT_RMP       LL_RTC_DisableOutRemap
1493:../system/include/stm32l4-hal-driver/stm32l4xx_ll_rtc.h ****   * @param  RTCx RTC Instance
1494:../system/include/stm32l4-hal-driver/stm32l4xx_ll_rtc.h ****   * @retval None
1495:../system/include/stm32l4-hal-driver/stm32l4xx_ll_rtc.h ****   */
1496:../system/include/stm32l4-hal-driver/stm32l4xx_ll_rtc.h **** __STATIC_INLINE void LL_RTC_DisableOutRemap(RTC_TypeDef *RTCx)
1497:../system/include/stm32l4-hal-driver/stm32l4xx_ll_rtc.h **** {
1498:../system/include/stm32l4-hal-driver/stm32l4xx_ll_rtc.h ****   CLEAR_BIT(RTCx->OR, RTC_OR_OUT_RMP);
1499:../system/include/stm32l4-hal-driver/stm32l4xx_ll_rtc.h **** }
1500:../system/include/stm32l4-hal-driver/stm32l4xx_ll_rtc.h **** #endif /* #if defined(STM32L412xx) || defined(STM32L422xx) || defined (STM32L4P5xx) || defined (STM
1501:../system/include/stm32l4-hal-driver/stm32l4xx_ll_rtc.h **** 
1502:../system/include/stm32l4-hal-driver/stm32l4xx_ll_rtc.h **** /**
1503:../system/include/stm32l4-hal-driver/stm32l4xx_ll_rtc.h ****   * @}
1504:../system/include/stm32l4-hal-driver/stm32l4xx_ll_rtc.h ****   */
1505:../system/include/stm32l4-hal-driver/stm32l4xx_ll_rtc.h **** 
1506:../system/include/stm32l4-hal-driver/stm32l4xx_ll_rtc.h **** /** @defgroup RTC_LL_EF_Time Time
1507:../system/include/stm32l4-hal-driver/stm32l4xx_ll_rtc.h ****   * @{
1508:../system/include/stm32l4-hal-driver/stm32l4xx_ll_rtc.h ****   */
1509:../system/include/stm32l4-hal-driver/stm32l4xx_ll_rtc.h **** 
1510:../system/include/stm32l4-hal-driver/stm32l4xx_ll_rtc.h **** /**
1511:../system/include/stm32l4-hal-driver/stm32l4xx_ll_rtc.h ****   * @brief  Set time format (AM/24-hour or PM notation)
1512:../system/include/stm32l4-hal-driver/stm32l4xx_ll_rtc.h ****   * @note   Bit is write-protected. @ref LL_RTC_DisableWriteProtection function should be called be
1513:../system/include/stm32l4-hal-driver/stm32l4xx_ll_rtc.h ****   * @note   It can be written in initialization mode only (@ref LL_RTC_EnableInitMode function)
1514:../system/include/stm32l4-hal-driver/stm32l4xx_ll_rtc.h ****   * @rmtoll RTC_TR           PM            LL_RTC_TIME_SetFormat
1515:../system/include/stm32l4-hal-driver/stm32l4xx_ll_rtc.h ****   * @param  RTCx RTC Instance
1516:../system/include/stm32l4-hal-driver/stm32l4xx_ll_rtc.h ****   * @param  TimeFormat This parameter can be one of the following values:
1517:../system/include/stm32l4-hal-driver/stm32l4xx_ll_rtc.h ****   *         @arg @ref LL_RTC_TIME_FORMAT_AM_OR_24
1518:../system/include/stm32l4-hal-driver/stm32l4xx_ll_rtc.h ****   *         @arg @ref LL_RTC_TIME_FORMAT_PM
1519:../system/include/stm32l4-hal-driver/stm32l4xx_ll_rtc.h ****   * @retval None
1520:../system/include/stm32l4-hal-driver/stm32l4xx_ll_rtc.h ****   */
1521:../system/include/stm32l4-hal-driver/stm32l4xx_ll_rtc.h **** __STATIC_INLINE void LL_RTC_TIME_SetFormat(RTC_TypeDef *RTCx, uint32_t TimeFormat)
1522:../system/include/stm32l4-hal-driver/stm32l4xx_ll_rtc.h **** {
1523:../system/include/stm32l4-hal-driver/stm32l4xx_ll_rtc.h ****   MODIFY_REG(RTCx->TR, RTC_TR_PM, TimeFormat);
1524:../system/include/stm32l4-hal-driver/stm32l4xx_ll_rtc.h **** }
1525:../system/include/stm32l4-hal-driver/stm32l4xx_ll_rtc.h **** 
1526:../system/include/stm32l4-hal-driver/stm32l4xx_ll_rtc.h **** /**
1527:../system/include/stm32l4-hal-driver/stm32l4xx_ll_rtc.h ****   * @brief  Get time format (AM or PM notation)
1528:../system/include/stm32l4-hal-driver/stm32l4xx_ll_rtc.h ****   * @note if shadow mode is disabled (BYPSHAD=0), need to check if RSF flag is set
1529:../system/include/stm32l4-hal-driver/stm32l4xx_ll_rtc.h ****   *       before reading this bit
1530:../system/include/stm32l4-hal-driver/stm32l4xx_ll_rtc.h ****   * @note Read either RTC_SSR or RTC_TR locks the values in the higher-order calendar
1531:../system/include/stm32l4-hal-driver/stm32l4xx_ll_rtc.h ****   *       shadow registers until RTC_DR is read (LL_RTC_ReadReg(RTC, DR)).
1532:../system/include/stm32l4-hal-driver/stm32l4xx_ll_rtc.h ****   * @rmtoll RTC_TR           PM            LL_RTC_TIME_GetFormat
1533:../system/include/stm32l4-hal-driver/stm32l4xx_ll_rtc.h ****   * @param  RTCx RTC Instance
1534:../system/include/stm32l4-hal-driver/stm32l4xx_ll_rtc.h ****   * @retval Returned value can be one of the following values:
1535:../system/include/stm32l4-hal-driver/stm32l4xx_ll_rtc.h ****   *         @arg @ref LL_RTC_TIME_FORMAT_AM_OR_24
1536:../system/include/stm32l4-hal-driver/stm32l4xx_ll_rtc.h ****   *         @arg @ref LL_RTC_TIME_FORMAT_PM
1537:../system/include/stm32l4-hal-driver/stm32l4xx_ll_rtc.h ****   */
1538:../system/include/stm32l4-hal-driver/stm32l4xx_ll_rtc.h **** __STATIC_INLINE uint32_t LL_RTC_TIME_GetFormat(RTC_TypeDef *RTCx)
1539:../system/include/stm32l4-hal-driver/stm32l4xx_ll_rtc.h **** {
1540:../system/include/stm32l4-hal-driver/stm32l4xx_ll_rtc.h ****   return (uint32_t)(READ_BIT(RTCx->TR, RTC_TR_PM));
1541:../system/include/stm32l4-hal-driver/stm32l4xx_ll_rtc.h **** }
1542:../system/include/stm32l4-hal-driver/stm32l4xx_ll_rtc.h **** 
1543:../system/include/stm32l4-hal-driver/stm32l4xx_ll_rtc.h **** /**
1544:../system/include/stm32l4-hal-driver/stm32l4xx_ll_rtc.h ****   * @brief  Set Hours in BCD format
1545:../system/include/stm32l4-hal-driver/stm32l4xx_ll_rtc.h ****   * @note   Bit is write-protected. @ref LL_RTC_DisableWriteProtection function should be called be
1546:../system/include/stm32l4-hal-driver/stm32l4xx_ll_rtc.h ****   * @note   It can be written in initialization mode only (@ref LL_RTC_EnableInitMode function)
1547:../system/include/stm32l4-hal-driver/stm32l4xx_ll_rtc.h ****   * @note helper macro __LL_RTC_CONVERT_BIN2BCD is available to convert hour from binary to BCD for
1548:../system/include/stm32l4-hal-driver/stm32l4xx_ll_rtc.h ****   * @rmtoll RTC_TR           HT            LL_RTC_TIME_SetHour\n
1549:../system/include/stm32l4-hal-driver/stm32l4xx_ll_rtc.h ****   *         RTC_TR           HU            LL_RTC_TIME_SetHour
1550:../system/include/stm32l4-hal-driver/stm32l4xx_ll_rtc.h ****   * @param  RTCx RTC Instance
1551:../system/include/stm32l4-hal-driver/stm32l4xx_ll_rtc.h ****   * @param  Hours Value between Min_Data=0x01 and Max_Data=0x12 or between Min_Data=0x00 and Max_Da
1552:../system/include/stm32l4-hal-driver/stm32l4xx_ll_rtc.h ****   * @retval None
1553:../system/include/stm32l4-hal-driver/stm32l4xx_ll_rtc.h ****   */
1554:../system/include/stm32l4-hal-driver/stm32l4xx_ll_rtc.h **** __STATIC_INLINE void LL_RTC_TIME_SetHour(RTC_TypeDef *RTCx, uint32_t Hours)
1555:../system/include/stm32l4-hal-driver/stm32l4xx_ll_rtc.h **** {
1556:../system/include/stm32l4-hal-driver/stm32l4xx_ll_rtc.h ****   MODIFY_REG(RTCx->TR, (RTC_TR_HT | RTC_TR_HU),
1557:../system/include/stm32l4-hal-driver/stm32l4xx_ll_rtc.h ****              (((Hours & 0xF0U) << (RTC_TR_HT_Pos - 4U)) | ((Hours & 0x0FU) << RTC_TR_HU_Pos)));
1558:../system/include/stm32l4-hal-driver/stm32l4xx_ll_rtc.h **** }
1559:../system/include/stm32l4-hal-driver/stm32l4xx_ll_rtc.h **** 
1560:../system/include/stm32l4-hal-driver/stm32l4xx_ll_rtc.h **** /**
1561:../system/include/stm32l4-hal-driver/stm32l4xx_ll_rtc.h ****   * @brief  Get Hours in BCD format
1562:../system/include/stm32l4-hal-driver/stm32l4xx_ll_rtc.h ****   * @note if shadow mode is disabled (BYPSHAD=0), need to check if RSF flag is set
1563:../system/include/stm32l4-hal-driver/stm32l4xx_ll_rtc.h ****   *       before reading this bit
1564:../system/include/stm32l4-hal-driver/stm32l4xx_ll_rtc.h ****   * @note Read either RTC_SSR or RTC_TR locks the values in the higher-order calendar
1565:../system/include/stm32l4-hal-driver/stm32l4xx_ll_rtc.h ****   *       shadow registers until RTC_DR is read (LL_RTC_ReadReg(RTC, DR)).
1566:../system/include/stm32l4-hal-driver/stm32l4xx_ll_rtc.h ****   * @note helper macro __LL_RTC_CONVERT_BCD2BIN is available to convert hour from BCD to
1567:../system/include/stm32l4-hal-driver/stm32l4xx_ll_rtc.h ****   *       Binary format
1568:../system/include/stm32l4-hal-driver/stm32l4xx_ll_rtc.h ****   * @rmtoll RTC_TR           HT            LL_RTC_TIME_GetHour\n
1569:../system/include/stm32l4-hal-driver/stm32l4xx_ll_rtc.h ****   *         RTC_TR           HU            LL_RTC_TIME_GetHour
1570:../system/include/stm32l4-hal-driver/stm32l4xx_ll_rtc.h ****   * @param  RTCx RTC Instance
1571:../system/include/stm32l4-hal-driver/stm32l4xx_ll_rtc.h ****   * @retval Value between Min_Data=0x01 and Max_Data=0x12 or between Min_Data=0x00 and Max_Data=0x2
1572:../system/include/stm32l4-hal-driver/stm32l4xx_ll_rtc.h ****   */
1573:../system/include/stm32l4-hal-driver/stm32l4xx_ll_rtc.h **** __STATIC_INLINE uint32_t LL_RTC_TIME_GetHour(RTC_TypeDef *RTCx)
1574:../system/include/stm32l4-hal-driver/stm32l4xx_ll_rtc.h **** {
1575:../system/include/stm32l4-hal-driver/stm32l4xx_ll_rtc.h ****   return ((READ_BIT(RTCx->TR, (RTC_TR_HT | RTC_TR_HU))) >> RTC_TR_HU_Pos);
1576:../system/include/stm32l4-hal-driver/stm32l4xx_ll_rtc.h **** }
1577:../system/include/stm32l4-hal-driver/stm32l4xx_ll_rtc.h **** 
1578:../system/include/stm32l4-hal-driver/stm32l4xx_ll_rtc.h **** /**
1579:../system/include/stm32l4-hal-driver/stm32l4xx_ll_rtc.h ****   * @brief  Set Minutes in BCD format
1580:../system/include/stm32l4-hal-driver/stm32l4xx_ll_rtc.h ****   * @note   Bit is write-protected. @ref LL_RTC_DisableWriteProtection function should be called be
1581:../system/include/stm32l4-hal-driver/stm32l4xx_ll_rtc.h ****   * @note   It can be written in initialization mode only (@ref LL_RTC_EnableInitMode function)
1582:../system/include/stm32l4-hal-driver/stm32l4xx_ll_rtc.h ****   * @note helper macro __LL_RTC_CONVERT_BIN2BCD is available to convert Minutes from binary to BCD 
1583:../system/include/stm32l4-hal-driver/stm32l4xx_ll_rtc.h ****   * @rmtoll RTC_TR           MNT           LL_RTC_TIME_SetMinute\n
1584:../system/include/stm32l4-hal-driver/stm32l4xx_ll_rtc.h ****   *         RTC_TR           MNU           LL_RTC_TIME_SetMinute
1585:../system/include/stm32l4-hal-driver/stm32l4xx_ll_rtc.h ****   * @param  RTCx RTC Instance
1586:../system/include/stm32l4-hal-driver/stm32l4xx_ll_rtc.h ****   * @param  Minutes Value between Min_Data=0x00 and Max_Data=0x59
1587:../system/include/stm32l4-hal-driver/stm32l4xx_ll_rtc.h ****   * @retval None
1588:../system/include/stm32l4-hal-driver/stm32l4xx_ll_rtc.h ****   */
1589:../system/include/stm32l4-hal-driver/stm32l4xx_ll_rtc.h **** __STATIC_INLINE void LL_RTC_TIME_SetMinute(RTC_TypeDef *RTCx, uint32_t Minutes)
1590:../system/include/stm32l4-hal-driver/stm32l4xx_ll_rtc.h **** {
1591:../system/include/stm32l4-hal-driver/stm32l4xx_ll_rtc.h ****   MODIFY_REG(RTCx->TR, (RTC_TR_MNT | RTC_TR_MNU),
1592:../system/include/stm32l4-hal-driver/stm32l4xx_ll_rtc.h ****              (((Minutes & 0xF0U) << (RTC_TR_MNT_Pos - 4U)) | ((Minutes & 0x0FU) << RTC_TR_MNU_Pos))
1593:../system/include/stm32l4-hal-driver/stm32l4xx_ll_rtc.h **** }
1594:../system/include/stm32l4-hal-driver/stm32l4xx_ll_rtc.h **** 
1595:../system/include/stm32l4-hal-driver/stm32l4xx_ll_rtc.h **** /**
1596:../system/include/stm32l4-hal-driver/stm32l4xx_ll_rtc.h ****   * @brief  Get Minutes in BCD format
1597:../system/include/stm32l4-hal-driver/stm32l4xx_ll_rtc.h ****   * @note if shadow mode is disabled (BYPSHAD=0), need to check if RSF flag is set
1598:../system/include/stm32l4-hal-driver/stm32l4xx_ll_rtc.h ****   *       before reading this bit
1599:../system/include/stm32l4-hal-driver/stm32l4xx_ll_rtc.h ****   * @note Read either RTC_SSR or RTC_TR locks the values in the higher-order calendar
1600:../system/include/stm32l4-hal-driver/stm32l4xx_ll_rtc.h ****   *       shadow registers until RTC_DR is read (LL_RTC_ReadReg(RTC, DR)).
1601:../system/include/stm32l4-hal-driver/stm32l4xx_ll_rtc.h ****   * @note helper macro __LL_RTC_CONVERT_BCD2BIN is available to convert minute from BCD
1602:../system/include/stm32l4-hal-driver/stm32l4xx_ll_rtc.h ****   *       to Binary format
1603:../system/include/stm32l4-hal-driver/stm32l4xx_ll_rtc.h ****   * @rmtoll RTC_TR           MNT           LL_RTC_TIME_GetMinute\n
1604:../system/include/stm32l4-hal-driver/stm32l4xx_ll_rtc.h ****   *         RTC_TR           MNU           LL_RTC_TIME_GetMinute
1605:../system/include/stm32l4-hal-driver/stm32l4xx_ll_rtc.h ****   * @param  RTCx RTC Instance
1606:../system/include/stm32l4-hal-driver/stm32l4xx_ll_rtc.h ****   * @retval Value between Min_Data=0x00 and Max_Data=0x59
1607:../system/include/stm32l4-hal-driver/stm32l4xx_ll_rtc.h ****   */
1608:../system/include/stm32l4-hal-driver/stm32l4xx_ll_rtc.h **** __STATIC_INLINE uint32_t LL_RTC_TIME_GetMinute(RTC_TypeDef *RTCx)
1609:../system/include/stm32l4-hal-driver/stm32l4xx_ll_rtc.h **** {
1610:../system/include/stm32l4-hal-driver/stm32l4xx_ll_rtc.h ****   return ((READ_BIT(RTCx->TR, (RTC_TR_MNT | RTC_TR_MNU))) >> RTC_TR_MNU_Pos);
1611:../system/include/stm32l4-hal-driver/stm32l4xx_ll_rtc.h **** }
1612:../system/include/stm32l4-hal-driver/stm32l4xx_ll_rtc.h **** 
1613:../system/include/stm32l4-hal-driver/stm32l4xx_ll_rtc.h **** /**
1614:../system/include/stm32l4-hal-driver/stm32l4xx_ll_rtc.h ****   * @brief  Set Seconds in BCD format
1615:../system/include/stm32l4-hal-driver/stm32l4xx_ll_rtc.h ****   * @note   Bit is write-protected. @ref LL_RTC_DisableWriteProtection function should be called be
1616:../system/include/stm32l4-hal-driver/stm32l4xx_ll_rtc.h ****   * @note   It can be written in initialization mode only (@ref LL_RTC_EnableInitMode function)
1617:../system/include/stm32l4-hal-driver/stm32l4xx_ll_rtc.h ****   * @note helper macro __LL_RTC_CONVERT_BIN2BCD is available to convert Seconds from binary to BCD 
1618:../system/include/stm32l4-hal-driver/stm32l4xx_ll_rtc.h ****   * @rmtoll RTC_TR           ST            LL_RTC_TIME_SetSecond\n
1619:../system/include/stm32l4-hal-driver/stm32l4xx_ll_rtc.h ****   *         RTC_TR           SU            LL_RTC_TIME_SetSecond
1620:../system/include/stm32l4-hal-driver/stm32l4xx_ll_rtc.h ****   * @param  RTCx RTC Instance
1621:../system/include/stm32l4-hal-driver/stm32l4xx_ll_rtc.h ****   * @param  Seconds Value between Min_Data=0x00 and Max_Data=0x59
1622:../system/include/stm32l4-hal-driver/stm32l4xx_ll_rtc.h ****   * @retval None
1623:../system/include/stm32l4-hal-driver/stm32l4xx_ll_rtc.h ****   */
1624:../system/include/stm32l4-hal-driver/stm32l4xx_ll_rtc.h **** __STATIC_INLINE void LL_RTC_TIME_SetSecond(RTC_TypeDef *RTCx, uint32_t Seconds)
1625:../system/include/stm32l4-hal-driver/stm32l4xx_ll_rtc.h **** {
1626:../system/include/stm32l4-hal-driver/stm32l4xx_ll_rtc.h ****   MODIFY_REG(RTCx->TR, (RTC_TR_ST | RTC_TR_SU),
1627:../system/include/stm32l4-hal-driver/stm32l4xx_ll_rtc.h ****              (((Seconds & 0xF0U) << (RTC_TR_ST_Pos - 4U)) | ((Seconds & 0x0FU) << RTC_TR_SU_Pos)));
1628:../system/include/stm32l4-hal-driver/stm32l4xx_ll_rtc.h **** }
1629:../system/include/stm32l4-hal-driver/stm32l4xx_ll_rtc.h **** 
1630:../system/include/stm32l4-hal-driver/stm32l4xx_ll_rtc.h **** /**
1631:../system/include/stm32l4-hal-driver/stm32l4xx_ll_rtc.h ****   * @brief  Get Seconds in BCD format
1632:../system/include/stm32l4-hal-driver/stm32l4xx_ll_rtc.h ****   * @note if shadow mode is disabled (BYPSHAD=0), need to check if RSF flag is set
1633:../system/include/stm32l4-hal-driver/stm32l4xx_ll_rtc.h ****   *       before reading this bit
1634:../system/include/stm32l4-hal-driver/stm32l4xx_ll_rtc.h ****   * @note Read either RTC_SSR or RTC_TR locks the values in the higher-order calendar
1635:../system/include/stm32l4-hal-driver/stm32l4xx_ll_rtc.h ****   *       shadow registers until RTC_DR is read (LL_RTC_ReadReg(RTC, DR)).
1636:../system/include/stm32l4-hal-driver/stm32l4xx_ll_rtc.h ****   * @note helper macro __LL_RTC_CONVERT_BCD2BIN is available to convert Seconds from BCD
1637:../system/include/stm32l4-hal-driver/stm32l4xx_ll_rtc.h ****   *       to Binary format
1638:../system/include/stm32l4-hal-driver/stm32l4xx_ll_rtc.h ****   * @rmtoll RTC_TR           ST            LL_RTC_TIME_GetSecond\n
1639:../system/include/stm32l4-hal-driver/stm32l4xx_ll_rtc.h ****   *         RTC_TR           SU            LL_RTC_TIME_GetSecond
1640:../system/include/stm32l4-hal-driver/stm32l4xx_ll_rtc.h ****   * @param  RTCx RTC Instance
1641:../system/include/stm32l4-hal-driver/stm32l4xx_ll_rtc.h ****   * @retval Value between Min_Data=0x00 and Max_Data=0x59
1642:../system/include/stm32l4-hal-driver/stm32l4xx_ll_rtc.h ****   */
1643:../system/include/stm32l4-hal-driver/stm32l4xx_ll_rtc.h **** __STATIC_INLINE uint32_t LL_RTC_TIME_GetSecond(RTC_TypeDef *RTCx)
1644:../system/include/stm32l4-hal-driver/stm32l4xx_ll_rtc.h **** {
1645:../system/include/stm32l4-hal-driver/stm32l4xx_ll_rtc.h ****   return ((READ_BIT(RTCx->TR, (RTC_TR_ST | RTC_TR_SU))) >> RTC_TR_SU_Pos);
1646:../system/include/stm32l4-hal-driver/stm32l4xx_ll_rtc.h **** }
1647:../system/include/stm32l4-hal-driver/stm32l4xx_ll_rtc.h **** 
1648:../system/include/stm32l4-hal-driver/stm32l4xx_ll_rtc.h **** /**
1649:../system/include/stm32l4-hal-driver/stm32l4xx_ll_rtc.h ****   * @brief  Set time (hour, minute and second) in BCD format
1650:../system/include/stm32l4-hal-driver/stm32l4xx_ll_rtc.h ****   * @note   Bit is write-protected. @ref LL_RTC_DisableWriteProtection function should be called be
1651:../system/include/stm32l4-hal-driver/stm32l4xx_ll_rtc.h ****   * @note   It can be written in initialization mode only (@ref LL_RTC_EnableInitMode function)
1652:../system/include/stm32l4-hal-driver/stm32l4xx_ll_rtc.h ****   * @note TimeFormat and Hours should follow the same format
1653:../system/include/stm32l4-hal-driver/stm32l4xx_ll_rtc.h ****   * @rmtoll RTC_TR           PM            LL_RTC_TIME_Config\n
1654:../system/include/stm32l4-hal-driver/stm32l4xx_ll_rtc.h ****   *         RTC_TR           HT            LL_RTC_TIME_Config\n
1655:../system/include/stm32l4-hal-driver/stm32l4xx_ll_rtc.h ****   *         RTC_TR           HU            LL_RTC_TIME_Config\n
1656:../system/include/stm32l4-hal-driver/stm32l4xx_ll_rtc.h ****   *         RTC_TR           MNT           LL_RTC_TIME_Config\n
1657:../system/include/stm32l4-hal-driver/stm32l4xx_ll_rtc.h ****   *         RTC_TR           MNU           LL_RTC_TIME_Config\n
1658:../system/include/stm32l4-hal-driver/stm32l4xx_ll_rtc.h ****   *         RTC_TR           ST            LL_RTC_TIME_Config\n
1659:../system/include/stm32l4-hal-driver/stm32l4xx_ll_rtc.h ****   *         RTC_TR           SU            LL_RTC_TIME_Config
1660:../system/include/stm32l4-hal-driver/stm32l4xx_ll_rtc.h ****   * @param  RTCx RTC Instance
1661:../system/include/stm32l4-hal-driver/stm32l4xx_ll_rtc.h ****   * @param  Format12_24 This parameter can be one of the following values:
1662:../system/include/stm32l4-hal-driver/stm32l4xx_ll_rtc.h ****   *         @arg @ref LL_RTC_TIME_FORMAT_AM_OR_24
1663:../system/include/stm32l4-hal-driver/stm32l4xx_ll_rtc.h ****   *         @arg @ref LL_RTC_TIME_FORMAT_PM
1664:../system/include/stm32l4-hal-driver/stm32l4xx_ll_rtc.h ****   * @param  Hours Value between Min_Data=0x01 and Max_Data=0x12 or between Min_Data=0x00 and Max_Da
1665:../system/include/stm32l4-hal-driver/stm32l4xx_ll_rtc.h ****   * @param  Minutes Value between Min_Data=0x00 and Max_Data=0x59
1666:../system/include/stm32l4-hal-driver/stm32l4xx_ll_rtc.h ****   * @param  Seconds Value between Min_Data=0x00 and Max_Data=0x59
1667:../system/include/stm32l4-hal-driver/stm32l4xx_ll_rtc.h ****   * @retval None
1668:../system/include/stm32l4-hal-driver/stm32l4xx_ll_rtc.h ****   */
1669:../system/include/stm32l4-hal-driver/stm32l4xx_ll_rtc.h **** __STATIC_INLINE void LL_RTC_TIME_Config(RTC_TypeDef *RTCx, uint32_t Format12_24, uint32_t Hours, ui
1670:../system/include/stm32l4-hal-driver/stm32l4xx_ll_rtc.h **** {
1671:../system/include/stm32l4-hal-driver/stm32l4xx_ll_rtc.h ****   uint32_t temp = 0U;
1672:../system/include/stm32l4-hal-driver/stm32l4xx_ll_rtc.h **** 
1673:../system/include/stm32l4-hal-driver/stm32l4xx_ll_rtc.h ****   temp = Format12_24                                                                               
1674:../system/include/stm32l4-hal-driver/stm32l4xx_ll_rtc.h ****          (((Hours & 0xF0U) << (RTC_TR_HT_Pos - 4U)) | ((Hours & 0x0FU) << RTC_TR_HU_Pos))     | \
1675:../system/include/stm32l4-hal-driver/stm32l4xx_ll_rtc.h ****          (((Minutes & 0xF0U) << (RTC_TR_MNT_Pos - 4U)) | ((Minutes & 0x0FU) << RTC_TR_MNU_Pos)) | \
1676:../system/include/stm32l4-hal-driver/stm32l4xx_ll_rtc.h ****          (((Seconds & 0xF0U) << (RTC_TR_ST_Pos - 4U)) | ((Seconds & 0x0FU) << RTC_TR_SU_Pos));
1677:../system/include/stm32l4-hal-driver/stm32l4xx_ll_rtc.h ****   MODIFY_REG(RTCx->TR, (RTC_TR_PM | RTC_TR_HT | RTC_TR_HU | RTC_TR_MNT | RTC_TR_MNU | RTC_TR_ST | R
1678:../system/include/stm32l4-hal-driver/stm32l4xx_ll_rtc.h **** }
1679:../system/include/stm32l4-hal-driver/stm32l4xx_ll_rtc.h **** 
1680:../system/include/stm32l4-hal-driver/stm32l4xx_ll_rtc.h **** /**
1681:../system/include/stm32l4-hal-driver/stm32l4xx_ll_rtc.h ****   * @brief  Get time (hour, minute and second) in BCD format
1682:../system/include/stm32l4-hal-driver/stm32l4xx_ll_rtc.h ****   * @note if shadow mode is disabled (BYPSHAD=0), need to check if RSF flag is set
1683:../system/include/stm32l4-hal-driver/stm32l4xx_ll_rtc.h ****   *       before reading this bit
1684:../system/include/stm32l4-hal-driver/stm32l4xx_ll_rtc.h ****   * @note Read either RTC_SSR or RTC_TR locks the values in the higher-order calendar
1685:../system/include/stm32l4-hal-driver/stm32l4xx_ll_rtc.h ****   *       shadow registers until RTC_DR is read (LL_RTC_ReadReg(RTC, DR)).
1686:../system/include/stm32l4-hal-driver/stm32l4xx_ll_rtc.h ****   * @note helper macros __LL_RTC_GET_HOUR, __LL_RTC_GET_MINUTE and __LL_RTC_GET_SECOND
1687:../system/include/stm32l4-hal-driver/stm32l4xx_ll_rtc.h ****   *       are available to get independently each parameter.
1688:../system/include/stm32l4-hal-driver/stm32l4xx_ll_rtc.h ****   * @rmtoll RTC_TR           HT            LL_RTC_TIME_Get\n
1689:../system/include/stm32l4-hal-driver/stm32l4xx_ll_rtc.h ****   *         RTC_TR           HU            LL_RTC_TIME_Get\n
1690:../system/include/stm32l4-hal-driver/stm32l4xx_ll_rtc.h ****   *         RTC_TR           MNT           LL_RTC_TIME_Get\n
1691:../system/include/stm32l4-hal-driver/stm32l4xx_ll_rtc.h ****   *         RTC_TR           MNU           LL_RTC_TIME_Get\n
1692:../system/include/stm32l4-hal-driver/stm32l4xx_ll_rtc.h ****   *         RTC_TR           ST            LL_RTC_TIME_Get\n
1693:../system/include/stm32l4-hal-driver/stm32l4xx_ll_rtc.h ****   *         RTC_TR           SU            LL_RTC_TIME_Get
1694:../system/include/stm32l4-hal-driver/stm32l4xx_ll_rtc.h ****   * @param  RTCx RTC Instance
1695:../system/include/stm32l4-hal-driver/stm32l4xx_ll_rtc.h ****   * @retval Combination of hours, minutes and seconds (Format: 0x00HHMMSS).
1696:../system/include/stm32l4-hal-driver/stm32l4xx_ll_rtc.h ****   */
1697:../system/include/stm32l4-hal-driver/stm32l4xx_ll_rtc.h **** __STATIC_INLINE uint32_t LL_RTC_TIME_Get(RTC_TypeDef *RTCx)
1698:../system/include/stm32l4-hal-driver/stm32l4xx_ll_rtc.h **** {
1699:../system/include/stm32l4-hal-driver/stm32l4xx_ll_rtc.h ****   uint32_t temp = 0U;
1700:../system/include/stm32l4-hal-driver/stm32l4xx_ll_rtc.h **** 
1701:../system/include/stm32l4-hal-driver/stm32l4xx_ll_rtc.h ****   temp = READ_BIT(RTCx->TR, (RTC_TR_HT | RTC_TR_HU | RTC_TR_MNT | RTC_TR_MNU | RTC_TR_ST | RTC_TR_S
1702:../system/include/stm32l4-hal-driver/stm32l4xx_ll_rtc.h ****   return (uint32_t)((((((temp & RTC_TR_HT) >> RTC_TR_HT_Pos) << 4U) | ((temp & RTC_TR_HU) >> RTC_TR
1703:../system/include/stm32l4-hal-driver/stm32l4xx_ll_rtc.h ****                     (((((temp & RTC_TR_MNT) >> RTC_TR_MNT_Pos) << 4U) | ((temp & RTC_TR_MNU) >> RTC
1704:../system/include/stm32l4-hal-driver/stm32l4xx_ll_rtc.h ****                     ((((temp & RTC_TR_ST) >> RTC_TR_ST_Pos) << 4U) | ((temp & RTC_TR_SU) >> RTC_TR_
1705:../system/include/stm32l4-hal-driver/stm32l4xx_ll_rtc.h **** }
1706:../system/include/stm32l4-hal-driver/stm32l4xx_ll_rtc.h **** 
1707:../system/include/stm32l4-hal-driver/stm32l4xx_ll_rtc.h **** /**
1708:../system/include/stm32l4-hal-driver/stm32l4xx_ll_rtc.h ****   * @brief  Memorize whether the daylight saving time change has been performed
1709:../system/include/stm32l4-hal-driver/stm32l4xx_ll_rtc.h ****   * @note   Bit is write-protected. @ref LL_RTC_DisableWriteProtection function should be called be
1710:../system/include/stm32l4-hal-driver/stm32l4xx_ll_rtc.h ****   * @rmtoll RTC_CR           BKP           LL_RTC_TIME_EnableDayLightStore
1711:../system/include/stm32l4-hal-driver/stm32l4xx_ll_rtc.h ****   * @param  RTCx RTC Instance
1712:../system/include/stm32l4-hal-driver/stm32l4xx_ll_rtc.h ****   * @retval None
1713:../system/include/stm32l4-hal-driver/stm32l4xx_ll_rtc.h ****   */
1714:../system/include/stm32l4-hal-driver/stm32l4xx_ll_rtc.h **** __STATIC_INLINE void LL_RTC_TIME_EnableDayLightStore(RTC_TypeDef *RTCx)
1715:../system/include/stm32l4-hal-driver/stm32l4xx_ll_rtc.h **** {
1716:../system/include/stm32l4-hal-driver/stm32l4xx_ll_rtc.h ****   SET_BIT(RTCx->CR, RTC_CR_BKP);
1717:../system/include/stm32l4-hal-driver/stm32l4xx_ll_rtc.h **** }
1718:../system/include/stm32l4-hal-driver/stm32l4xx_ll_rtc.h **** 
1719:../system/include/stm32l4-hal-driver/stm32l4xx_ll_rtc.h **** /**
1720:../system/include/stm32l4-hal-driver/stm32l4xx_ll_rtc.h ****   * @brief  Disable memorization whether the daylight saving time change has been performed.
1721:../system/include/stm32l4-hal-driver/stm32l4xx_ll_rtc.h ****   * @note   Bit is write-protected. @ref LL_RTC_DisableWriteProtection function should be called be
1722:../system/include/stm32l4-hal-driver/stm32l4xx_ll_rtc.h ****   * @rmtoll RTC_CR           BKP           LL_RTC_TIME_DisableDayLightStore
1723:../system/include/stm32l4-hal-driver/stm32l4xx_ll_rtc.h ****   * @param  RTCx RTC Instance
1724:../system/include/stm32l4-hal-driver/stm32l4xx_ll_rtc.h ****   * @retval None
1725:../system/include/stm32l4-hal-driver/stm32l4xx_ll_rtc.h ****   */
1726:../system/include/stm32l4-hal-driver/stm32l4xx_ll_rtc.h **** __STATIC_INLINE void LL_RTC_TIME_DisableDayLightStore(RTC_TypeDef *RTCx)
1727:../system/include/stm32l4-hal-driver/stm32l4xx_ll_rtc.h **** {
1728:../system/include/stm32l4-hal-driver/stm32l4xx_ll_rtc.h ****   CLEAR_BIT(RTCx->CR, RTC_CR_BKP);
1729:../system/include/stm32l4-hal-driver/stm32l4xx_ll_rtc.h **** }
1730:../system/include/stm32l4-hal-driver/stm32l4xx_ll_rtc.h **** 
1731:../system/include/stm32l4-hal-driver/stm32l4xx_ll_rtc.h **** /**
1732:../system/include/stm32l4-hal-driver/stm32l4xx_ll_rtc.h ****   * @brief  Check if RTC Day Light Saving stored operation has been enabled or not
1733:../system/include/stm32l4-hal-driver/stm32l4xx_ll_rtc.h ****   * @rmtoll RTC_CR           BKP           LL_RTC_TIME_IsDayLightStoreEnabled
1734:../system/include/stm32l4-hal-driver/stm32l4xx_ll_rtc.h ****   * @param  RTCx RTC Instance
1735:../system/include/stm32l4-hal-driver/stm32l4xx_ll_rtc.h ****   * @retval State of bit (1 or 0).
1736:../system/include/stm32l4-hal-driver/stm32l4xx_ll_rtc.h ****   */
1737:../system/include/stm32l4-hal-driver/stm32l4xx_ll_rtc.h **** __STATIC_INLINE uint32_t LL_RTC_TIME_IsDayLightStoreEnabled(RTC_TypeDef *RTCx)
1738:../system/include/stm32l4-hal-driver/stm32l4xx_ll_rtc.h **** {
1739:../system/include/stm32l4-hal-driver/stm32l4xx_ll_rtc.h ****   return (READ_BIT(RTCx->CR, RTC_CR_BKP) == (RTC_CR_BKP));
1740:../system/include/stm32l4-hal-driver/stm32l4xx_ll_rtc.h **** }
1741:../system/include/stm32l4-hal-driver/stm32l4xx_ll_rtc.h **** 
1742:../system/include/stm32l4-hal-driver/stm32l4xx_ll_rtc.h **** /**
1743:../system/include/stm32l4-hal-driver/stm32l4xx_ll_rtc.h ****   * @brief  Subtract 1 hour (winter time change)
1744:../system/include/stm32l4-hal-driver/stm32l4xx_ll_rtc.h ****   * @note   Bit is write-protected. @ref LL_RTC_DisableWriteProtection function should be called be
1745:../system/include/stm32l4-hal-driver/stm32l4xx_ll_rtc.h ****   * @rmtoll RTC_CR           SUB1H         LL_RTC_TIME_DecHour
1746:../system/include/stm32l4-hal-driver/stm32l4xx_ll_rtc.h ****   * @param  RTCx RTC Instance
1747:../system/include/stm32l4-hal-driver/stm32l4xx_ll_rtc.h ****   * @retval None
1748:../system/include/stm32l4-hal-driver/stm32l4xx_ll_rtc.h ****   */
1749:../system/include/stm32l4-hal-driver/stm32l4xx_ll_rtc.h **** __STATIC_INLINE void LL_RTC_TIME_DecHour(RTC_TypeDef *RTCx)
1750:../system/include/stm32l4-hal-driver/stm32l4xx_ll_rtc.h **** {
1751:../system/include/stm32l4-hal-driver/stm32l4xx_ll_rtc.h ****   SET_BIT(RTCx->CR, RTC_CR_SUB1H);
1752:../system/include/stm32l4-hal-driver/stm32l4xx_ll_rtc.h **** }
1753:../system/include/stm32l4-hal-driver/stm32l4xx_ll_rtc.h **** 
1754:../system/include/stm32l4-hal-driver/stm32l4xx_ll_rtc.h **** /**
1755:../system/include/stm32l4-hal-driver/stm32l4xx_ll_rtc.h ****   * @brief  Add 1 hour (summer time change)
1756:../system/include/stm32l4-hal-driver/stm32l4xx_ll_rtc.h ****   * @note   Bit is write-protected. @ref LL_RTC_DisableWriteProtection function should be called be
1757:../system/include/stm32l4-hal-driver/stm32l4xx_ll_rtc.h ****   * @rmtoll RTC_CR           ADD1H         LL_RTC_TIME_IncHour
1758:../system/include/stm32l4-hal-driver/stm32l4xx_ll_rtc.h ****   * @param  RTCx RTC Instance
1759:../system/include/stm32l4-hal-driver/stm32l4xx_ll_rtc.h ****   * @retval None
1760:../system/include/stm32l4-hal-driver/stm32l4xx_ll_rtc.h ****   */
1761:../system/include/stm32l4-hal-driver/stm32l4xx_ll_rtc.h **** __STATIC_INLINE void LL_RTC_TIME_IncHour(RTC_TypeDef *RTCx)
1762:../system/include/stm32l4-hal-driver/stm32l4xx_ll_rtc.h **** {
1763:../system/include/stm32l4-hal-driver/stm32l4xx_ll_rtc.h ****   SET_BIT(RTCx->CR, RTC_CR_ADD1H);
1764:../system/include/stm32l4-hal-driver/stm32l4xx_ll_rtc.h **** }
1765:../system/include/stm32l4-hal-driver/stm32l4xx_ll_rtc.h **** 
1766:../system/include/stm32l4-hal-driver/stm32l4xx_ll_rtc.h **** /**
1767:../system/include/stm32l4-hal-driver/stm32l4xx_ll_rtc.h ****   * @brief  Get Sub second value in the synchronous prescaler counter.
1768:../system/include/stm32l4-hal-driver/stm32l4xx_ll_rtc.h ****   * @note  You can use both SubSeconds value and SecondFraction (PREDIV_S through
1769:../system/include/stm32l4-hal-driver/stm32l4xx_ll_rtc.h ****   *        LL_RTC_GetSynchPrescaler function) terms returned to convert Calendar
1770:../system/include/stm32l4-hal-driver/stm32l4xx_ll_rtc.h ****   *        SubSeconds value in second fraction ratio with time unit following
1771:../system/include/stm32l4-hal-driver/stm32l4xx_ll_rtc.h ****   *        generic formula:
1772:../system/include/stm32l4-hal-driver/stm32l4xx_ll_rtc.h ****   *          ==> Seconds fraction ratio * time_unit= [(SecondFraction-SubSeconds)/(SecondFraction+1
1773:../system/include/stm32l4-hal-driver/stm32l4xx_ll_rtc.h ****   *        This conversion can be performed only if no shift operation is pending
1774:../system/include/stm32l4-hal-driver/stm32l4xx_ll_rtc.h ****   *        (ie. SHFP=0) when PREDIV_S >= SS.
1775:../system/include/stm32l4-hal-driver/stm32l4xx_ll_rtc.h ****   * @rmtoll RTC_SSR          SS            LL_RTC_TIME_GetSubSecond
1776:../system/include/stm32l4-hal-driver/stm32l4xx_ll_rtc.h ****   * @param  RTCx RTC Instance
1777:../system/include/stm32l4-hal-driver/stm32l4xx_ll_rtc.h ****   * @retval If binary mode is none, Value between Min_Data=0x0 and Max_Data=0x7FFF
1778:../system/include/stm32l4-hal-driver/stm32l4xx_ll_rtc.h ****   *         else Value between Min_Data=0x0 and Max_Data=0xFFFFFFFF
1779:../system/include/stm32l4-hal-driver/stm32l4xx_ll_rtc.h ****   */
1780:../system/include/stm32l4-hal-driver/stm32l4xx_ll_rtc.h **** __STATIC_INLINE uint32_t LL_RTC_TIME_GetSubSecond(RTC_TypeDef *RTCx)
1781:../system/include/stm32l4-hal-driver/stm32l4xx_ll_rtc.h **** {
1782:../system/include/stm32l4-hal-driver/stm32l4xx_ll_rtc.h ****   return (uint32_t)(READ_BIT(RTCx->SSR, RTC_SSR_SS));
1783:../system/include/stm32l4-hal-driver/stm32l4xx_ll_rtc.h **** }
1784:../system/include/stm32l4-hal-driver/stm32l4xx_ll_rtc.h **** 
1785:../system/include/stm32l4-hal-driver/stm32l4xx_ll_rtc.h **** /**
1786:../system/include/stm32l4-hal-driver/stm32l4xx_ll_rtc.h ****   * @brief  Synchronize to a remote clock with a high degree of precision.
1787:../system/include/stm32l4-hal-driver/stm32l4xx_ll_rtc.h ****   * @note   This operation effectively subtracts from (delays) or advance the clock of a fraction o
1788:../system/include/stm32l4-hal-driver/stm32l4xx_ll_rtc.h ****   * @note   Bit is write-protected. @ref LL_RTC_DisableWriteProtection function should be called be
1789:../system/include/stm32l4-hal-driver/stm32l4xx_ll_rtc.h ****   * @note   When REFCKON is set, firmware must not write to Shift control register.
1790:../system/include/stm32l4-hal-driver/stm32l4xx_ll_rtc.h ****   * @rmtoll RTC_SHIFTR       ADD1S         LL_RTC_TIME_Synchronize\n
1791:../system/include/stm32l4-hal-driver/stm32l4xx_ll_rtc.h ****   *         RTC_SHIFTR       SUBFS         LL_RTC_TIME_Synchronize
1792:../system/include/stm32l4-hal-driver/stm32l4xx_ll_rtc.h ****   * @param  RTCx RTC Instance
1793:../system/include/stm32l4-hal-driver/stm32l4xx_ll_rtc.h ****   * @param  ShiftSecond This parameter can be one of the following values:
1794:../system/include/stm32l4-hal-driver/stm32l4xx_ll_rtc.h ****   *         @arg @ref LL_RTC_SHIFT_SECOND_DELAY
1795:../system/include/stm32l4-hal-driver/stm32l4xx_ll_rtc.h ****   *         @arg @ref LL_RTC_SHIFT_SECOND_ADVANCE
1796:../system/include/stm32l4-hal-driver/stm32l4xx_ll_rtc.h ****   * @param  Fraction Number of Seconds Fractions (any value from 0 to 0x7FFF)
1797:../system/include/stm32l4-hal-driver/stm32l4xx_ll_rtc.h ****   * @retval None
1798:../system/include/stm32l4-hal-driver/stm32l4xx_ll_rtc.h ****   */
1799:../system/include/stm32l4-hal-driver/stm32l4xx_ll_rtc.h **** __STATIC_INLINE void LL_RTC_TIME_Synchronize(RTC_TypeDef *RTCx, uint32_t ShiftSecond, uint32_t Frac
1800:../system/include/stm32l4-hal-driver/stm32l4xx_ll_rtc.h **** {
1801:../system/include/stm32l4-hal-driver/stm32l4xx_ll_rtc.h ****   WRITE_REG(RTCx->SHIFTR, ShiftSecond | Fraction);
1802:../system/include/stm32l4-hal-driver/stm32l4xx_ll_rtc.h **** }
1803:../system/include/stm32l4-hal-driver/stm32l4xx_ll_rtc.h **** 
1804:../system/include/stm32l4-hal-driver/stm32l4xx_ll_rtc.h **** /**
1805:../system/include/stm32l4-hal-driver/stm32l4xx_ll_rtc.h ****   * @}
1806:../system/include/stm32l4-hal-driver/stm32l4xx_ll_rtc.h ****   */
1807:../system/include/stm32l4-hal-driver/stm32l4xx_ll_rtc.h **** 
1808:../system/include/stm32l4-hal-driver/stm32l4xx_ll_rtc.h **** /** @defgroup RTC_LL_EF_Date Date
1809:../system/include/stm32l4-hal-driver/stm32l4xx_ll_rtc.h ****   * @{
1810:../system/include/stm32l4-hal-driver/stm32l4xx_ll_rtc.h ****   */
1811:../system/include/stm32l4-hal-driver/stm32l4xx_ll_rtc.h **** 
1812:../system/include/stm32l4-hal-driver/stm32l4xx_ll_rtc.h **** /**
1813:../system/include/stm32l4-hal-driver/stm32l4xx_ll_rtc.h ****   * @brief  Set Year in BCD format
1814:../system/include/stm32l4-hal-driver/stm32l4xx_ll_rtc.h ****   * @note helper macro __LL_RTC_CONVERT_BIN2BCD is available to convert Year from binary to BCD for
1815:../system/include/stm32l4-hal-driver/stm32l4xx_ll_rtc.h ****   * @rmtoll RTC_DR           YT            LL_RTC_DATE_SetYear\n
1816:../system/include/stm32l4-hal-driver/stm32l4xx_ll_rtc.h ****   *         RTC_DR           YU            LL_RTC_DATE_SetYear
1817:../system/include/stm32l4-hal-driver/stm32l4xx_ll_rtc.h ****   * @param  RTCx RTC Instance
1818:../system/include/stm32l4-hal-driver/stm32l4xx_ll_rtc.h ****   * @param  Year Value between Min_Data=0x00 and Max_Data=0x99
1819:../system/include/stm32l4-hal-driver/stm32l4xx_ll_rtc.h ****   * @retval None
1820:../system/include/stm32l4-hal-driver/stm32l4xx_ll_rtc.h ****   */
1821:../system/include/stm32l4-hal-driver/stm32l4xx_ll_rtc.h **** __STATIC_INLINE void LL_RTC_DATE_SetYear(RTC_TypeDef *RTCx, uint32_t Year)
1822:../system/include/stm32l4-hal-driver/stm32l4xx_ll_rtc.h **** {
1823:../system/include/stm32l4-hal-driver/stm32l4xx_ll_rtc.h ****   MODIFY_REG(RTCx->DR, (RTC_DR_YT | RTC_DR_YU),
1824:../system/include/stm32l4-hal-driver/stm32l4xx_ll_rtc.h ****              (((Year & 0xF0U) << (RTC_DR_YT_Pos - 4U)) | ((Year & 0x0FU) << RTC_DR_YU_Pos)));
1825:../system/include/stm32l4-hal-driver/stm32l4xx_ll_rtc.h **** }
1826:../system/include/stm32l4-hal-driver/stm32l4xx_ll_rtc.h **** 
1827:../system/include/stm32l4-hal-driver/stm32l4xx_ll_rtc.h **** /**
1828:../system/include/stm32l4-hal-driver/stm32l4xx_ll_rtc.h ****   * @brief  Get Year in BCD format
1829:../system/include/stm32l4-hal-driver/stm32l4xx_ll_rtc.h ****   * @note if shadow mode is disabled (BYPSHAD=0), need to check if RSF flag is set
1830:../system/include/stm32l4-hal-driver/stm32l4xx_ll_rtc.h ****   *       before reading this bit
1831:../system/include/stm32l4-hal-driver/stm32l4xx_ll_rtc.h ****   * @note helper macro __LL_RTC_CONVERT_BCD2BIN is available to convert Year from BCD to Binary for
1832:../system/include/stm32l4-hal-driver/stm32l4xx_ll_rtc.h ****   * @rmtoll RTC_DR           YT            LL_RTC_DATE_GetYear\n
1833:../system/include/stm32l4-hal-driver/stm32l4xx_ll_rtc.h ****   *         RTC_DR           YU            LL_RTC_DATE_GetYear
1834:../system/include/stm32l4-hal-driver/stm32l4xx_ll_rtc.h ****   * @param  RTCx RTC Instance
1835:../system/include/stm32l4-hal-driver/stm32l4xx_ll_rtc.h ****   * @retval Value between Min_Data=0x00 and Max_Data=0x99
1836:../system/include/stm32l4-hal-driver/stm32l4xx_ll_rtc.h ****   */
1837:../system/include/stm32l4-hal-driver/stm32l4xx_ll_rtc.h **** __STATIC_INLINE uint32_t LL_RTC_DATE_GetYear(RTC_TypeDef *RTCx)
1838:../system/include/stm32l4-hal-driver/stm32l4xx_ll_rtc.h **** {
1839:../system/include/stm32l4-hal-driver/stm32l4xx_ll_rtc.h ****   return ((READ_BIT(RTCx->DR, (RTC_DR_YT | RTC_DR_YU))) >> RTC_DR_YU_Pos);
1840:../system/include/stm32l4-hal-driver/stm32l4xx_ll_rtc.h **** }
1841:../system/include/stm32l4-hal-driver/stm32l4xx_ll_rtc.h **** 
