   1              		.cpu cortex-m3
   2              		.eabi_attribute 20, 1
   3              		.eabi_attribute 21, 1
   4              		.eabi_attribute 23, 3
   5              		.eabi_attribute 24, 1
   6              		.eabi_attribute 25, 1
   7              		.eabi_attribute 26, 1
   8              		.eabi_attribute 30, 1
   9              		.eabi_attribute 34, 1
  10              		.eabi_attribute 18, 4
  11              		.file	"adc.c"
  12              		.text
  13              	.Ltext0:
  14              		.cfi_sections	.debug_frame
  15              		.section	.text.AD_Init,"ax",%progbits
  16              		.align	1
  17              		.global	AD_Init
  18              		.syntax unified
  19              		.thumb
  20              		.thumb_func
  21              		.fpu softvfp
  23              	AD_Init:
  24              	.LFB66:
  25              		.file 1 "../system/src/aprs/adc.c"
   1:../system/src/aprs/adc.c **** 
   2:../system/src/aprs/adc.c **** #include "adc.h"
   3:../system/src/aprs/adc.c **** 
   4:../system/src/aprs/adc.c **** #ifdef STM32F10X_MD_VL
   5:../system/src/aprs/adc.c **** #include <stm32f10x.h>
   6:../system/src/aprs/adc.c **** #endif
   7:../system/src/aprs/adc.c **** 
   8:../system/src/aprs/adc.c **** #ifdef STM32L471xx
   9:../system/src/aprs/adc.c **** #include <stm32l4xx.h>
  10:../system/src/aprs/adc.c **** #include <stm32l4xx_ll_tim.h>
  11:../system/src/aprs/adc.c **** #endif
  12:../system/src/aprs/adc.c **** 
  13:../system/src/aprs/adc.c **** #include <stdlib.h>
  14:../system/src/aprs/adc.c **** #include <stdio.h>
  15:../system/src/aprs/adc.c **** 
  16:../system/src/aprs/adc.c **** #define ADC1_DR_Address	((uint32_t)0x4001244C)
  17:../system/src/aprs/adc.c **** 
  18:../system/src/aprs/adc.c **** 
  19:../system/src/aprs/adc.c **** Afsk *adc_afsk;
  20:../system/src/aprs/adc.c **** 
  21:../system/src/aprs/adc.c **** volatile uint16_t ADCValue[16];
  22:../system/src/aprs/adc.c **** 
  23:../system/src/aprs/adc.c **** uint16_t max_value;
  24:../system/src/aprs/adc.c **** uint32_t samplecount;
  25:../system/src/aprs/adc.c **** 
  26:../system/src/aprs/adc.c **** 
  27:../system/src/aprs/adc.c **** 
  28:../system/src/aprs/adc.c **** 
  29:../system/src/aprs/adc.c **** /**************************************************************************************************
  30:../system/src/aprs/adc.c **** void AD_Init(Afsk *af) {
  26              		.loc 1 30 0
  27              		.cfi_startproc
  28              		@ args = 0, pretend = 0, frame = 0
  29              		@ frame_needed = 0, uses_anonymous_args = 0
  30              		@ link register save eliminated.
  31              	.LVL0:
  31:../system/src/aprs/adc.c **** /**************************************************************************************************
  32:../system/src/aprs/adc.c **** 
  33:../system/src/aprs/adc.c **** //	GPIO_InitTypeDef GPIO_InitStructure;
  34:../system/src/aprs/adc.c **** //	NVIC_InitTypeDef NVIC_InitStructure;
  35:../system/src/aprs/adc.c **** //
  36:../system/src/aprs/adc.c **** //	//Dolacz zegar do GPIOA, ADC1
  37:../system/src/aprs/adc.c **** //	RCC->APB2ENR |= RCC_APB2Periph_GPIOA | RCC_APB2Periph_ADC1;
  38:../system/src/aprs/adc.c **** //	RCC_ADCCLKConfig(RCC_PCLK2_Div6);
  39:../system/src/aprs/adc.c **** //
  40:../system/src/aprs/adc.c **** //	//Dolacz zegar do DMA1
  41:../system/src/aprs/adc.c **** //	RCC->AHBENR |= RCC_AHBPeriph_DMA1;
  42:../system/src/aprs/adc.c **** //
  43:../system/src/aprs/adc.c **** //	//Konfiguracja portu
  44:../system/src/aprs/adc.c **** //	GPIO_InitStructure.GPIO_Pin = GPIO_Pin_0 ;
  45:../system/src/aprs/adc.c **** //	GPIO_InitStructure.GPIO_Speed = GPIO_Speed_50MHz;
  46:../system/src/aprs/adc.c **** //	GPIO_InitStructure.GPIO_Mode = GPIO_Mode_IN_FLOATING;
  47:../system/src/aprs/adc.c **** //	GPIO_Init(GPIOA, &GPIO_InitStructure);
  48:../system/src/aprs/adc.c **** //
  49:../system/src/aprs/adc.c **** //	AD_Reset();
  50:../system/src/aprs/adc.c **** //
  51:../system/src/aprs/adc.c **** //	adc_afsk = af;
  52:../system/src/aprs/adc.c **** //
  53:../system/src/aprs/adc.c **** //	//Przerwania DMA1 Kanal1
  54:../system/src/aprs/adc.c **** //	NVIC_InitStructure.NVIC_IRQChannel = DMA1_Channel1_IRQn;
  55:../system/src/aprs/adc.c **** //	NVIC_InitStructure.NVIC_IRQChannelPreemptionPriority = 0;
  56:../system/src/aprs/adc.c **** //	NVIC_InitStructure.NVIC_IRQChannelSubPriority = 0;
  57:../system/src/aprs/adc.c **** //	NVIC_InitStructure.NVIC_IRQChannelCmd = ENABLE;
  58:../system/src/aprs/adc.c **** //	NVIC_Init(&NVIC_InitStructure);
  59:../system/src/aprs/adc.c **** 
  60:../system/src/aprs/adc.c **** }
  32              		.loc 1 60 0
  33 0000 7047     		bx	lr
  34              		.cfi_endproc
  35              	.LFE66:
  37              		.section	.text.AD_Start,"ax",%progbits
  38              		.align	1
  39              		.global	AD_Start
  40              		.syntax unified
  41              		.thumb
  42              		.thumb_func
  43              		.fpu softvfp
  45              	AD_Start:
  46              	.LFB67:
  61:../system/src/aprs/adc.c **** 
  62:../system/src/aprs/adc.c **** 
  63:../system/src/aprs/adc.c **** /**************************************************************************************************
  64:../system/src/aprs/adc.c **** void AD_Start() {
  47              		.loc 1 64 0
  48              		.cfi_startproc
  49              		@ args = 0, pretend = 0, frame = 0
  50              		@ frame_needed = 0, uses_anonymous_args = 0
  51              		@ link register save eliminated.
  65:../system/src/aprs/adc.c **** /**************************************************************************************************
  66:../system/src/aprs/adc.c **** 
  67:../system/src/aprs/adc.c **** // 	samplecount = 0;
  68:../system/src/aprs/adc.c **** // 	max_value = 0;
  69:../system/src/aprs/adc.c **** 
  70:../system/src/aprs/adc.c **** 	//Timer3 ENABLE
  71:../system/src/aprs/adc.c **** 	TIM2->CR1 |= TIM_CR1_CEN;
  52              		.loc 1 71 0
  53 0000 4FF08042 		mov	r2, #1073741824
  54 0004 1388     		ldrh	r3, [r2]
  55 0006 43F00103 		orr	r3, r3, #1
  56 000a 1380     		strh	r3, [r2]	@ movhi
  72:../system/src/aprs/adc.c **** 
  73:../system/src/aprs/adc.c **** }
  57              		.loc 1 73 0
  58 000c 7047     		bx	lr
  59              		.cfi_endproc
  60              	.LFE67:
  62              		.section	.text.AD_Stop,"ax",%progbits
  63              		.align	1
  64              		.global	AD_Stop
  65              		.syntax unified
  66              		.thumb
  67              		.thumb_func
  68              		.fpu softvfp
  70              	AD_Stop:
  71              	.LFB68:
  74:../system/src/aprs/adc.c **** 
  75:../system/src/aprs/adc.c **** 
  76:../system/src/aprs/adc.c **** /**************************************************************************************************
  77:../system/src/aprs/adc.c **** void AD_Stop() {
  72              		.loc 1 77 0
  73              		.cfi_startproc
  74              		@ args = 0, pretend = 0, frame = 0
  75              		@ frame_needed = 0, uses_anonymous_args = 0
  76              		@ link register save eliminated.
  78:../system/src/aprs/adc.c **** /**************************************************************************************************
  79:../system/src/aprs/adc.c **** 
  80:../system/src/aprs/adc.c **** 	//Timer3 DISABLE
  81:../system/src/aprs/adc.c **** 	TIM2->CR1 &= ~TIM_CR1_CEN;
  77              		.loc 1 81 0
  78 0000 4FF08042 		mov	r2, #1073741824
  79 0004 1388     		ldrh	r3, [r2]
  80 0006 9BB2     		uxth	r3, r3
  81 0008 23F00103 		bic	r3, r3, #1
  82 000c 9BB2     		uxth	r3, r3
  83 000e 1380     		strh	r3, [r2]	@ movhi
  82:../system/src/aprs/adc.c **** 
  83:../system/src/aprs/adc.c **** // 	AD_Reset();
  84:../system/src/aprs/adc.c **** 
  85:../system/src/aprs/adc.c **** }
  84              		.loc 1 85 0
  85 0010 7047     		bx	lr
  86              		.cfi_endproc
  87              	.LFE68:
  89              		.comm	samplecount,4,4
  90              		.comm	max_value,2,2
  91              		.comm	ADCValue,32,4
  92              		.comm	adc_afsk,4,4
  93              		.text
  94              	.Letext0:
  95              		.file 2 "/usr/local/bin/gcc-arm-none-eabi-7-2018-q2-update/lib/gcc/arm-none-eabi/7.3.1/include/std
  96              		.file 3 "../system/include/aprs/cfifo.h"
  97              		.file 4 "../system/include/aprs/afsk.h"
  98              		.file 5 "../system/include/cmsis/core_cm3.h"
  99              		.file 6 "../system/include/cmsis/system_stm32f10x.h"
 100              		.file 7 "../system/include/cmsis/stm32f10x.h"
 101              		.file 8 "/usr/local/bin/gcc-arm-none-eabi-7-2018-q2-update/arm-none-eabi/include/sys/lock.h"
 102              		.file 9 "/usr/local/bin/gcc-arm-none-eabi-7-2018-q2-update/arm-none-eabi/include/sys/_types.h"
 103              		.file 10 "/usr/local/bin/gcc-arm-none-eabi-7-2018-q2-update/lib/gcc/arm-none-eabi/7.3.1/include/st
 104              		.file 11 "/usr/local/bin/gcc-arm-none-eabi-7-2018-q2-update/arm-none-eabi/include/sys/reent.h"
 105              		.file 12 "/usr/local/bin/gcc-arm-none-eabi-7-2018-q2-update/arm-none-eabi/include/stdlib.h"